ARM GAS  C:\Users\Brian\AppData\Local\Temp\ccHcJyID.s 			page 1


   1              		.syntax unified
   2              		.cpu cortex-m3
   3              		.fpu softvfp
   4              		.eabi_attribute 20, 1
   5              		.eabi_attribute 21, 1
   6              		.eabi_attribute 23, 3
   7              		.eabi_attribute 24, 1
   8              		.eabi_attribute 25, 1
   9              		.eabi_attribute 26, 1
  10              		.eabi_attribute 30, 6
  11              		.eabi_attribute 34, 1
  12              		.eabi_attribute 18, 4
  13              		.thumb
  14              		.file	"Bootloadable_1.c"
  15              		.text
  16              	.Ltext0:
  17              		.cfi_sections	.debug_frame
  18              		.section	.text.Bootloadable_1_Load,"ax",%progbits
  19              		.align	2
  20              		.global	Bootloadable_1_Load
  21              		.thumb
  22              		.thumb_func
  23              		.type	Bootloadable_1_Load, %function
  24              	Bootloadable_1_Load:
  25              	.LFB0:
  26              		.file 1 ".\\Generated_Source\\PSoC5\\Bootloadable_1.c"
   1:.\Generated_Source\PSoC5/Bootloadable_1.c **** /*******************************************************************************
   2:.\Generated_Source\PSoC5/Bootloadable_1.c **** * File Name: Bootloadable_1.c
   3:.\Generated_Source\PSoC5/Bootloadable_1.c **** * Version 1.20
   4:.\Generated_Source\PSoC5/Bootloadable_1.c **** *
   5:.\Generated_Source\PSoC5/Bootloadable_1.c **** *  Description:
   6:.\Generated_Source\PSoC5/Bootloadable_1.c **** *   Provides an API for the Bootloadable application. The API includes a
   7:.\Generated_Source\PSoC5/Bootloadable_1.c **** *   single function for starting bootloader.
   8:.\Generated_Source\PSoC5/Bootloadable_1.c **** *
   9:.\Generated_Source\PSoC5/Bootloadable_1.c **** ********************************************************************************
  10:.\Generated_Source\PSoC5/Bootloadable_1.c **** * Copyright 2008-2013, Cypress Semiconductor Corporation.  All rights reserved.
  11:.\Generated_Source\PSoC5/Bootloadable_1.c **** * You may use this file only in accordance with the license, terms, conditions,
  12:.\Generated_Source\PSoC5/Bootloadable_1.c **** * disclaimers, and limitations in the end user license agreement accompanying
  13:.\Generated_Source\PSoC5/Bootloadable_1.c **** * the software package with which this file was provided.
  14:.\Generated_Source\PSoC5/Bootloadable_1.c **** *******************************************************************************/
  15:.\Generated_Source\PSoC5/Bootloadable_1.c **** 
  16:.\Generated_Source\PSoC5/Bootloadable_1.c **** #include "Bootloadable_1.h"
  17:.\Generated_Source\PSoC5/Bootloadable_1.c **** 
  18:.\Generated_Source\PSoC5/Bootloadable_1.c **** 
  19:.\Generated_Source\PSoC5/Bootloadable_1.c **** /*******************************************************************************
  20:.\Generated_Source\PSoC5/Bootloadable_1.c **** * Function Name: Bootloadable_1_Load
  21:.\Generated_Source\PSoC5/Bootloadable_1.c **** ********************************************************************************
  22:.\Generated_Source\PSoC5/Bootloadable_1.c **** * Summary:
  23:.\Generated_Source\PSoC5/Bootloadable_1.c **** *  Begins the bootloading algorithm, downloading a new ACD image from the host.
  24:.\Generated_Source\PSoC5/Bootloadable_1.c **** *
  25:.\Generated_Source\PSoC5/Bootloadable_1.c **** * Parameters:
  26:.\Generated_Source\PSoC5/Bootloadable_1.c **** *  None
  27:.\Generated_Source\PSoC5/Bootloadable_1.c **** *
  28:.\Generated_Source\PSoC5/Bootloadable_1.c **** * Returns:
  29:.\Generated_Source\PSoC5/Bootloadable_1.c **** *  This method will never return. It will load a new application and reset
  30:.\Generated_Source\PSoC5/Bootloadable_1.c **** *  the device.
  31:.\Generated_Source\PSoC5/Bootloadable_1.c **** *
ARM GAS  C:\Users\Brian\AppData\Local\Temp\ccHcJyID.s 			page 2


  32:.\Generated_Source\PSoC5/Bootloadable_1.c **** *******************************************************************************/
  33:.\Generated_Source\PSoC5/Bootloadable_1.c **** void Bootloadable_1_Load(void) 
  34:.\Generated_Source\PSoC5/Bootloadable_1.c **** {
  27              		.loc 1 34 0
  28              		.cfi_startproc
  29              		@ args = 0, pretend = 0, frame = 0
  30              		@ frame_needed = 1, uses_anonymous_args = 0
  31 0000 80B5     		push	{r7, lr}
  32              	.LCFI0:
  33              		.cfi_def_cfa_offset 8
  34              		.cfi_offset 7, -8
  35              		.cfi_offset 14, -4
  36 0002 00AF     		add	r7, sp, #0
  37              	.LCFI1:
  38              		.cfi_def_cfa_register 7
  35:.\Generated_Source\PSoC5/Bootloadable_1.c ****     /* Schedule Bootloader to start after reset */
  36:.\Generated_Source\PSoC5/Bootloadable_1.c ****     Bootloadable_1_SET_RUN_TYPE(Bootloadable_1_START_BTLDR);
  39              		.loc 1 36 0
  40 0004 44F2FA63 		movw	r3, #18170
  41 0008 C4F20003 		movt	r3, 16384
  42 000c 4FF04002 		mov	r2, #64
  43 0010 1A70     		strb	r2, [r3, #0]
  37:.\Generated_Source\PSoC5/Bootloadable_1.c **** 
  38:.\Generated_Source\PSoC5/Bootloadable_1.c ****     CySoftwareReset();
  44              		.loc 1 38 0
  45 0012 FFF7FEFF 		bl	CySoftwareReset
  39:.\Generated_Source\PSoC5/Bootloadable_1.c **** }
  46              		.loc 1 39 0
  47 0016 80BD     		pop	{r7, pc}
  48              		.cfi_endproc
  49              	.LFE0:
  50              		.size	Bootloadable_1_Load, .-Bootloadable_1_Load
  51              		.section	.text.Bootloadable_1_SetFlashByte,"ax",%progbits
  52              		.align	2
  53              		.global	Bootloadable_1_SetFlashByte
  54              		.thumb
  55              		.thumb_func
  56              		.type	Bootloadable_1_SetFlashByte, %function
  57              	Bootloadable_1_SetFlashByte:
  58              	.LFB1:
  40:.\Generated_Source\PSoC5/Bootloadable_1.c **** 
  41:.\Generated_Source\PSoC5/Bootloadable_1.c **** 
  42:.\Generated_Source\PSoC5/Bootloadable_1.c **** /*******************************************************************************
  43:.\Generated_Source\PSoC5/Bootloadable_1.c **** * Function Name: Bootloadable_1_SetFlashByte
  44:.\Generated_Source\PSoC5/Bootloadable_1.c **** ********************************************************************************
  45:.\Generated_Source\PSoC5/Bootloadable_1.c **** * Summary:
  46:.\Generated_Source\PSoC5/Bootloadable_1.c **** *  Sets byte at specified address in Flash.
  47:.\Generated_Source\PSoC5/Bootloadable_1.c **** *
  48:.\Generated_Source\PSoC5/Bootloadable_1.c **** * Parameters:
  49:.\Generated_Source\PSoC5/Bootloadable_1.c **** *  None
  50:.\Generated_Source\PSoC5/Bootloadable_1.c **** *
  51:.\Generated_Source\PSoC5/Bootloadable_1.c **** * Returns:
  52:.\Generated_Source\PSoC5/Bootloadable_1.c **** *  None
  53:.\Generated_Source\PSoC5/Bootloadable_1.c **** *
  54:.\Generated_Source\PSoC5/Bootloadable_1.c **** *******************************************************************************/
  55:.\Generated_Source\PSoC5/Bootloadable_1.c **** void Bootloadable_1_SetFlashByte(uint32 address, uint8 runType) 
  56:.\Generated_Source\PSoC5/Bootloadable_1.c **** {
ARM GAS  C:\Users\Brian\AppData\Local\Temp\ccHcJyID.s 			page 3


  59              		.loc 1 56 0
  60              		.cfi_startproc
  61              		@ args = 0, pretend = 0, frame = 280
  62              		@ frame_needed = 1, uses_anonymous_args = 0
  63 0000 80B5     		push	{r7, lr}
  64              	.LCFI2:
  65              		.cfi_def_cfa_offset 8
  66              		.cfi_offset 7, -8
  67              		.cfi_offset 14, -4
  68 0002 C6B0     		sub	sp, sp, #280
  69              	.LCFI3:
  70              		.cfi_def_cfa_offset 288
  71 0004 00AF     		add	r7, sp, #0
  72              	.LCFI4:
  73              		.cfi_def_cfa_register 7
  74 0006 07F10403 		add	r3, r7, #4
  75 000a 1860     		str	r0, [r3, #0]
  76 000c 0A46     		mov	r2, r1
  77 000e 07F10303 		add	r3, r7, #3
  78 0012 1A70     		strb	r2, [r3, #0]
  57:.\Generated_Source\PSoC5/Bootloadable_1.c ****     uint32 flsAddr = address - CYDEV_FLASH_BASE;
  79              		.loc 1 57 0
  80 0014 07F10403 		add	r3, r7, #4
  81 0018 1B68     		ldr	r3, [r3, #0]
  82 001a C7F81031 		str	r3, [r7, #272]
  58:.\Generated_Source\PSoC5/Bootloadable_1.c ****     uint8 rowData[CYDEV_FLS_ROW_SIZE];
  59:.\Generated_Source\PSoC5/Bootloadable_1.c **** 
  60:.\Generated_Source\PSoC5/Bootloadable_1.c ****     #if !(CY_PSOC4)
  61:.\Generated_Source\PSoC5/Bootloadable_1.c ****         uint8 arrayId = (uint8)(flsAddr / CYDEV_FLS_SECTOR_SIZE);
  83              		.loc 1 61 0
  84 001e D7F81031 		ldr	r3, [r7, #272]
  85 0022 4FEA1343 		lsr	r3, r3, #16
  86 0026 87F80F31 		strb	r3, [r7, #271]
  62:.\Generated_Source\PSoC5/Bootloadable_1.c ****     #endif  /* !(CY_PSOC4) */
  63:.\Generated_Source\PSoC5/Bootloadable_1.c **** 
  64:.\Generated_Source\PSoC5/Bootloadable_1.c ****     uint16 rowNum = (uint16)((flsAddr % CYDEV_FLS_SECTOR_SIZE) / CYDEV_FLS_ROW_SIZE);
  87              		.loc 1 64 0
  88 002a D7F81031 		ldr	r3, [r7, #272]
  89 002e 4FEA0343 		lsl	r3, r3, #16
  90 0032 4FEA1343 		lsr	r3, r3, #16
  91 0036 4FEA1323 		lsr	r3, r3, #8
  92 003a A7F80C31 		strh	r3, [r7, #268]	@ movhi
  65:.\Generated_Source\PSoC5/Bootloadable_1.c ****     uint32 baseAddr = address - (address % CYDEV_FLS_ROW_SIZE);
  93              		.loc 1 65 0
  94 003e 07F10403 		add	r3, r7, #4
  95 0042 1B68     		ldr	r3, [r3, #0]
  96 0044 23F0FF03 		bic	r3, r3, #255
  97 0048 C7F80831 		str	r3, [r7, #264]
  66:.\Generated_Source\PSoC5/Bootloadable_1.c ****     uint16 idx;
  67:.\Generated_Source\PSoC5/Bootloadable_1.c **** 
  68:.\Generated_Source\PSoC5/Bootloadable_1.c **** 
  69:.\Generated_Source\PSoC5/Bootloadable_1.c ****     for (idx = 0u; idx < CYDEV_FLS_ROW_SIZE; idx++)
  98              		.loc 1 69 0
  99 004c 4FF00003 		mov	r3, #0
 100 0050 A7F81631 		strh	r3, [r7, #278]	@ movhi
 101 0054 10E0     		b	.L3
 102              	.L4:
ARM GAS  C:\Users\Brian\AppData\Local\Temp\ccHcJyID.s 			page 4


  70:.\Generated_Source\PSoC5/Bootloadable_1.c ****     {
  71:.\Generated_Source\PSoC5/Bootloadable_1.c ****         rowData[idx] = Bootloadable_1_GET_CODE_DATA(baseAddr + idx);
 103              		.loc 1 71 0 discriminator 2
 104 0056 B7F81631 		ldrh	r3, [r7, #278]
 105 005a B7F81611 		ldrh	r1, [r7, #278]
 106 005e D7F80821 		ldr	r2, [r7, #264]
 107 0062 8A18     		adds	r2, r1, r2
 108 0064 1178     		ldrb	r1, [r2, #0]	@ zero_extendqisi2
 109 0066 07F10802 		add	r2, r7, #8
 110 006a D154     		strb	r1, [r2, r3]
  69:.\Generated_Source\PSoC5/Bootloadable_1.c ****     for (idx = 0u; idx < CYDEV_FLS_ROW_SIZE; idx++)
 111              		.loc 1 69 0 discriminator 2
 112 006c B7F81631 		ldrh	r3, [r7, #278]	@ movhi
 113 0070 03F10103 		add	r3, r3, #1
 114 0074 A7F81631 		strh	r3, [r7, #278]	@ movhi
 115              	.L3:
  69:.\Generated_Source\PSoC5/Bootloadable_1.c ****     for (idx = 0u; idx < CYDEV_FLS_ROW_SIZE; idx++)
 116              		.loc 1 69 0 is_stmt 0 discriminator 1
 117 0078 B7F81631 		ldrh	r3, [r7, #278]
 118 007c FF2B     		cmp	r3, #255
 119 007e EAD9     		bls	.L4
  72:.\Generated_Source\PSoC5/Bootloadable_1.c ****     }
  73:.\Generated_Source\PSoC5/Bootloadable_1.c ****     rowData[address % CYDEV_FLS_ROW_SIZE] = runType;
 120              		.loc 1 73 0 is_stmt 1
 121 0080 07F10403 		add	r3, r7, #4
 122 0084 1B68     		ldr	r3, [r3, #0]
 123 0086 DBB2     		uxtb	r3, r3
 124 0088 07F10802 		add	r2, r7, #8
 125 008c 07F10301 		add	r1, r7, #3
 126 0090 0978     		ldrb	r1, [r1, #0]
 127 0092 D154     		strb	r1, [r2, r3]
  74:.\Generated_Source\PSoC5/Bootloadable_1.c **** 
  75:.\Generated_Source\PSoC5/Bootloadable_1.c **** 
  76:.\Generated_Source\PSoC5/Bootloadable_1.c ****     #if(CY_PSOC4)
  77:.\Generated_Source\PSoC5/Bootloadable_1.c ****         (void) CySysFlashWriteRow((uint32)rowNum, rowData);
  78:.\Generated_Source\PSoC5/Bootloadable_1.c ****     #else
  79:.\Generated_Source\PSoC5/Bootloadable_1.c ****         (void) CyWriteRowData(arrayId, rowNum, rowData);
 128              		.loc 1 79 0
 129 0094 97F80F11 		ldrb	r1, [r7, #271]	@ zero_extendqisi2
 130 0098 B7F80C21 		ldrh	r2, [r7, #268]
 131 009c 07F10803 		add	r3, r7, #8
 132 00a0 0846     		mov	r0, r1
 133 00a2 1146     		mov	r1, r2
 134 00a4 1A46     		mov	r2, r3
 135 00a6 FFF7FEFF 		bl	CyWriteRowData
  80:.\Generated_Source\PSoC5/Bootloadable_1.c ****     #endif  /* (CY_PSOC4) */
  81:.\Generated_Source\PSoC5/Bootloadable_1.c **** }
 136              		.loc 1 81 0
 137 00aa 07F58C77 		add	r7, r7, #280
 138 00ae BD46     		mov	sp, r7
 139 00b0 80BD     		pop	{r7, pc}
 140              		.cfi_endproc
 141              	.LFE1:
 142              		.size	Bootloadable_1_SetFlashByte, .-Bootloadable_1_SetFlashByte
 143 00b2 00BF     		.text
 144              	.Letext0:
 145              		.file 2 ".\\Generated_Source\\PSoC5\\cytypes.h"
ARM GAS  C:\Users\Brian\AppData\Local\Temp\ccHcJyID.s 			page 5

