ARM GAS  C:\Users\Brian\AppData\Local\Temp\ccDUHsm8.s 			page 1


   1              		.syntax unified
   2              		.cpu cortex-m3
   3              		.fpu softvfp
   4              		.eabi_attribute 20, 1
   5              		.eabi_attribute 21, 1
   6              		.eabi_attribute 23, 3
   7              		.eabi_attribute 24, 1
   8              		.eabi_attribute 25, 1
   9              		.eabi_attribute 26, 1
  10              		.eabi_attribute 30, 6
  11              		.eabi_attribute 34, 1
  12              		.eabi_attribute 18, 4
  13              		.thumb
  14              		.file	"main.c"
  15              		.text
  16              	.Ltext0:
  17              		.cfi_sections	.debug_frame
  18              		.comm	cursor_x,2,2
  19              		.comm	cursor_y,2,2
  20              		.comm	textcolor,2,2
  21              		.comm	textbgcolor,2,2
  22              		.comm	textsize,1,1
  23              		.comm	rotation,1,1
  24              		.comm	wrap,1,1
  25              		.comm	_width,4,4
  26              		.comm	_height,4,4
  27              		.section	.rodata
  28              		.align	2
  29              	.LC0:
  30 0000 77616974 		.ascii	"waiting for SPI...\012\000"
  30      696E6720 
  30      666F7220 
  30      5350492E 
  30      2E2E0A00 
  31              		.section	.text.main,"ax",%progbits
  32              		.align	2
  33              		.global	main
  34              		.thumb
  35              		.thumb_func
  36              		.type	main, %function
  37              	main:
  38              	.LFB56:
  39              		.file 1 ".\\main.c"
   1:.\main.c      **** /* ========================================
   2:.\main.c      ****  *
   3:.\main.c      ****  * Copyright YOUR COMPANY, THE YEAR
   4:.\main.c      ****  * All Rights Reserved
   5:.\main.c      ****  * UNPUBLISHED, LICENSED SOFTWARE.
   6:.\main.c      ****  *
   7:.\main.c      ****  * CONFIDENTIAL AND PROPRIETARY INFORMATION
   8:.\main.c      ****  * WHICH IS THE PROPERTY OF your company.
   9:.\main.c      ****  *
  10:.\main.c      ****  * ========================================
  11:.\main.c      **** */
  12:.\main.c      **** #include <project.h>
  13:.\main.c      **** //#include <device.h>
  14:.\main.c      **** #include <stdio.h>
ARM GAS  C:\Users\Brian\AppData\Local\Temp\ccDUHsm8.s 			page 2


  15:.\main.c      **** #include <mem1.h>
  16:.\main.c      **** 
  17:.\main.c      **** void TFT_INIT();
  18:.\main.c      **** 
  19:.\main.c      **** int main()
  20:.\main.c      **** {
  40              		.loc 1 20 0
  41              		.cfi_startproc
  42              		@ args = 0, pretend = 0, frame = 56
  43              		@ frame_needed = 1, uses_anonymous_args = 0
  44 0000 80B5     		push	{r7, lr}
  45              	.LCFI0:
  46              		.cfi_def_cfa_offset 8
  47              		.cfi_offset 7, -8
  48              		.cfi_offset 14, -4
  49 0002 8EB0     		sub	sp, sp, #56
  50              	.LCFI1:
  51              		.cfi_def_cfa_offset 64
  52 0004 00AF     		add	r7, sp, #0
  53              	.LCFI2:
  54              		.cfi_def_cfa_register 7
  21:.\main.c      ****     /* Place your initialization/startup code here (e.g. MyInst_Start()) */
  22:.\main.c      ****     SPIS_1_Start();
  55              		.loc 1 22 0
  56 0006 FFF7FEFF 		bl	SPIS_1_Start
  23:.\main.c      ****     SPIS_1_ClearFIFO();
  57              		.loc 1 23 0
  58 000a FFF7FEFF 		bl	SPIS_1_ClearFIFO
  24:.\main.c      ****     SPIS_1_ClearRxBuffer();
  59              		.loc 1 24 0
  60 000e FFF7FEFF 		bl	SPIS_1_ClearRxBuffer
  25:.\main.c      ****     SPIS_1_ClearTxBuffer();
  61              		.loc 1 25 0
  62 0012 FFF7FEFF 		bl	SPIS_1_ClearTxBuffer
  26:.\main.c      ****     /*Control_Reg_1_Write(1);
  27:.\main.c      ****     CyDelay(10);
  28:.\main.c      ****     Control_Reg_1_Write(0);*/
  29:.\main.c      ****     CyDelay(1000);
  63              		.loc 1 29 0
  64 0016 4FF47A70 		mov	r0, #1000
  65 001a FFF7FEFF 		bl	CyDelay
  30:.\main.c      ****     
  31:.\main.c      ****     
  32:.\main.c      ****     char buffer[50];
  33:.\main.c      ****    
  34:.\main.c      ****     TFT_INIT();
  66              		.loc 1 34 0
  67 001e FFF7FEFF 		bl	TFT_INIT
  35:.\main.c      **** 
  36:.\main.c      ****     
  37:.\main.c      ****     TFTSHIELD_1_PrintString("waiting for SPI...\n");
  68              		.loc 1 37 0
  69 0022 40F20000 		movw	r0, #:lower16:.LC0
  70 0026 C0F20000 		movt	r0, #:upper16:.LC0
  71 002a FFF7FEFF 		bl	TFTSHIELD_1_PrintString
  38:.\main.c      ****     /* CyGlobalIntEnable; */ /* Uncomment this line to enable global interrupts. */
  39:.\main.c      ****     
ARM GAS  C:\Users\Brian\AppData\Local\Temp\ccDUHsm8.s 			page 3


  40:.\main.c      ****     /*
  41:.\main.c      ****     for(;;)
  42:.\main.c      ****     {
  43:.\main.c      ****       
  44:.\main.c      ****         uint32 input = ReadFrom_Pi();
  45:.\main.c      ****         
  46:.\main.c      ****         uint8 addr = (input & 0xFF000000)>>24;
  47:.\main.c      ****         uint8 cmd = (input & 0x00FF0000)>>16;
  48:.\main.c      ****         uint8 dat_lo = (input & 0x0000FF00)>>8;
  49:.\main.c      ****         uint8 dat_hi = input & 0x000000FF;
  50:.\main.c      ****         uint16 dat = (dat_hi<<8) | dat_lo;
  51:.\main.c      ****         
  52:.\main.c      ****         
  53:.\main.c      ****         sprintf(buffer,"in: %i %i %i %i: %i\n",addr, cmd, dat_lo, dat_hi, dat);
  54:.\main.c      ****         TFTSHIELD_1_PrintString(buffer);
  55:.\main.c      ****         
  56:.\main.c      ****        
  57:.\main.c      ****         
  58:.\main.c      ****         readData(addr,cmd,dat); 
  59:.\main.c      ****         
  60:.\main.c      ****     }
  61:.\main.c      ****     
  62:.\main.c      ****     */
  63:.\main.c      ****     
  64:.\main.c      ****     readData(8,0,0); //Start WDAC
  72              		.loc 1 64 0
  73 002e 4FF00800 		mov	r0, #8
  74 0032 4FF00001 		mov	r1, #0
  75 0036 4FF00002 		mov	r2, #0
  76 003a FFF7FEFF 		bl	readData
  65:.\main.c      ****     readData(8,1,0);//Stop WDAC
  77              		.loc 1 65 0
  78 003e 4FF00800 		mov	r0, #8
  79 0042 4FF00101 		mov	r1, #1
  80 0046 4FF00002 		mov	r2, #0
  81 004a FFF7FEFF 		bl	readData
  66:.\main.c      ****     readData(8,0,0); 
  82              		.loc 1 66 0
  83 004e 4FF00800 		mov	r0, #8
  84 0052 4FF00001 		mov	r1, #0
  85 0056 4FF00002 		mov	r2, #0
  86 005a FFF7FEFF 		bl	readData
  67:.\main.c      ****     
  68:.\main.c      ****     CyDelay(10000);//Wait for sine wave
  87              		.loc 1 68 0
  88 005e 42F21070 		movw	r0, #10000
  89 0062 FFF7FEFF 		bl	CyDelay
  69:.\main.c      ****     readData(8,1,0);//Stop WDAC
  90              		.loc 1 69 0
  91 0066 4FF00800 		mov	r0, #8
  92 006a 4FF00101 		mov	r1, #1
  93 006e 4FF00002 		mov	r2, #0
  94 0072 FFF7FEFF 		bl	readData
  70:.\main.c      ****     CyDelay(10);//Wait
  95              		.loc 1 70 0
  96 0076 4FF00A00 		mov	r0, #10
  97 007a FFF7FEFF 		bl	CyDelay
ARM GAS  C:\Users\Brian\AppData\Local\Temp\ccDUHsm8.s 			page 4


  71:.\main.c      ****     readData(8,4,0);//Generate wave
  98              		.loc 1 71 0
  99 007e 4FF00800 		mov	r0, #8
 100 0082 4FF00401 		mov	r1, #4
 101 0086 4FF00002 		mov	r2, #0
 102 008a FFF7FEFF 		bl	readData
  72:.\main.c      ****     readData(8,0,0);//Start WDAC
 103              		.loc 1 72 0
 104 008e 4FF00800 		mov	r0, #8
 105 0092 4FF00001 		mov	r1, #0
 106 0096 4FF00002 		mov	r2, #0
 107 009a FFF7FEFF 		bl	readData
  73:.\main.c      ****     
  74:.\main.c      ****     CyDelay(10000);
 108              		.loc 1 74 0
 109 009e 42F21070 		movw	r0, #10000
 110 00a2 FFF7FEFF 		bl	CyDelay
  75:.\main.c      ****     readData(8,1,0);//Stop WDAC
 111              		.loc 1 75 0
 112 00a6 4FF00800 		mov	r0, #8
 113 00aa 4FF00101 		mov	r1, #1
 114 00ae 4FF00002 		mov	r2, #0
 115 00b2 FFF7FEFF 		bl	readData
  76:.\main.c      ****     readData(8,4,0);//Generate wave
 116              		.loc 1 76 0
 117 00b6 4FF00800 		mov	r0, #8
 118 00ba 4FF00401 		mov	r1, #4
 119 00be 4FF00002 		mov	r2, #0
 120 00c2 FFF7FEFF 		bl	readData
  77:.\main.c      ****     readData(8,0,0);//Start WDAC
 121              		.loc 1 77 0
 122 00c6 4FF00800 		mov	r0, #8
 123 00ca 4FF00001 		mov	r1, #0
 124 00ce 4FF00002 		mov	r2, #0
 125 00d2 FFF7FEFF 		bl	readData
  78:.\main.c      ****     
  79:.\main.c      ****     CyDelay(10000);
 126              		.loc 1 79 0
 127 00d6 42F21070 		movw	r0, #10000
 128 00da FFF7FEFF 		bl	CyDelay
  80:.\main.c      ****     readData(8,1,0);//Stop WDAC
 129              		.loc 1 80 0
 130 00de 4FF00800 		mov	r0, #8
 131 00e2 4FF00101 		mov	r1, #1
 132 00e6 4FF00002 		mov	r2, #0
 133 00ea FFF7FEFF 		bl	readData
  81:.\main.c      ****     readData(8,4,0);//Generate wave
 134              		.loc 1 81 0
 135 00ee 4FF00800 		mov	r0, #8
 136 00f2 4FF00401 		mov	r1, #4
 137 00f6 4FF00002 		mov	r2, #0
 138 00fa FFF7FEFF 		bl	readData
  82:.\main.c      ****     readData(8,0,0);//Start WDAC
 139              		.loc 1 82 0
 140 00fe 4FF00800 		mov	r0, #8
 141 0102 4FF00001 		mov	r1, #0
 142 0106 4FF00002 		mov	r2, #0
ARM GAS  C:\Users\Brian\AppData\Local\Temp\ccDUHsm8.s 			page 5


 143 010a FFF7FEFF 		bl	readData
  83:.\main.c      ****     
  84:.\main.c      ****     CyDelay(10000);
 144              		.loc 1 84 0
 145 010e 42F21070 		movw	r0, #10000
 146 0112 FFF7FEFF 		bl	CyDelay
  85:.\main.c      ****     readData(8,1,0);//Stop WDAC
 147              		.loc 1 85 0
 148 0116 4FF00800 		mov	r0, #8
 149 011a 4FF00101 		mov	r1, #1
 150 011e 4FF00002 		mov	r2, #0
 151 0122 FFF7FEFF 		bl	readData
  86:.\main.c      ****     readData(8,4,0);//Generate wave
 152              		.loc 1 86 0
 153 0126 4FF00800 		mov	r0, #8
 154 012a 4FF00401 		mov	r1, #4
 155 012e 4FF00002 		mov	r2, #0
 156 0132 FFF7FEFF 		bl	readData
  87:.\main.c      ****     readData(8,0,0);//Start WDAC
 157              		.loc 1 87 0
 158 0136 4FF00800 		mov	r0, #8
 159 013a 4FF00001 		mov	r1, #0
 160 013e 4FF00002 		mov	r2, #0
 161 0142 FFF7FEFF 		bl	readData
  88:.\main.c      ****     
  89:.\main.c      ****     CyDelay(10000);
 162              		.loc 1 89 0
 163 0146 42F21070 		movw	r0, #10000
 164 014a FFF7FEFF 		bl	CyDelay
  90:.\main.c      ****     readData(8,1,0);//Stop WDAC
 165              		.loc 1 90 0
 166 014e 4FF00800 		mov	r0, #8
 167 0152 4FF00101 		mov	r1, #1
 168 0156 4FF00002 		mov	r2, #0
 169 015a FFF7FEFF 		bl	readData
  91:.\main.c      ****     readData(8,4,0);//Generate wave
 170              		.loc 1 91 0
 171 015e 4FF00800 		mov	r0, #8
 172 0162 4FF00401 		mov	r1, #4
 173 0166 4FF00002 		mov	r2, #0
 174 016a FFF7FEFF 		bl	readData
  92:.\main.c      ****     readData(8,0,0);//Start WDAC
 175              		.loc 1 92 0
 176 016e 4FF00800 		mov	r0, #8
 177 0172 4FF00001 		mov	r1, #0
 178 0176 4FF00002 		mov	r2, #0
 179 017a FFF7FEFF 		bl	readData
  93:.\main.c      ****     
  94:.\main.c      ****     
  95:.\main.c      **** }
 180              		.loc 1 95 0
 181 017e 1846     		mov	r0, r3
 182 0180 07F13807 		add	r7, r7, #56
 183 0184 BD46     		mov	sp, r7
 184 0186 80BD     		pop	{r7, pc}
 185              		.cfi_endproc
 186              	.LFE56:
ARM GAS  C:\Users\Brian\AppData\Local\Temp\ccDUHsm8.s 			page 6


 187              		.size	main, .-main
 188              		.section	.text.TFT_INIT,"ax",%progbits
 189              		.align	2
 190              		.global	TFT_INIT
 191              		.thumb
 192              		.thumb_func
 193              		.type	TFT_INIT, %function
 194              	TFT_INIT:
 195              	.LFB57:
  96:.\main.c      **** 
  97:.\main.c      **** void TFT_INIT()
  98:.\main.c      **** {
 196              		.loc 1 98 0
 197              		.cfi_startproc
 198              		@ args = 0, pretend = 0, frame = 0
 199              		@ frame_needed = 1, uses_anonymous_args = 0
 200 0000 80B5     		push	{r7, lr}
 201              	.LCFI3:
 202              		.cfi_def_cfa_offset 8
 203              		.cfi_offset 7, -8
 204              		.cfi_offset 14, -4
 205 0002 00AF     		add	r7, sp, #0
 206              	.LCFI4:
 207              		.cfi_def_cfa_register 7
  99:.\main.c      ****     CyDelay(1000);
 208              		.loc 1 99 0
 209 0004 4FF47A70 		mov	r0, #1000
 210 0008 FFF7FEFF 		bl	CyDelay
 100:.\main.c      ****     Clock_1_SetDividerValue(24);
 211              		.loc 1 100 0
 212 000c 4FF01700 		mov	r0, #23
 213 0010 4FF00101 		mov	r1, #1
 214 0014 FFF7FEFF 		bl	Clock_1_SetDividerRegister
 101:.\main.c      ****     CyDelay(10);
 215              		.loc 1 101 0
 216 0018 4FF00A00 		mov	r0, #10
 217 001c FFF7FEFF 		bl	CyDelay
 102:.\main.c      ****     TFTSHIELD_1_StartTouch();
 218              		.loc 1 102 0
 219 0020 FFF7FEFF 		bl	TFTSHIELD_1_StartTouch
 103:.\main.c      ****     //while(!TFTSHIELD_1_StartTouch());
 104:.\main.c      ****     //if (TFTSHIELD_1_StartTouch()){}
 105:.\main.c      ****     Clock_1_SetDividerValue(1);
 220              		.loc 1 105 0
 221 0024 4FF00000 		mov	r0, #0
 222 0028 4FF00101 		mov	r1, #1
 223 002c FFF7FEFF 		bl	Clock_1_SetDividerRegister
 106:.\main.c      ****     CyDelay(10);
 224              		.loc 1 106 0
 225 0030 4FF00A00 		mov	r0, #10
 226 0034 FFF7FEFF 		bl	CyDelay
 107:.\main.c      ****     TFTSHIELD_1_Start();
 227              		.loc 1 107 0
 228 0038 FFF7FEFF 		bl	TFTSHIELD_1_Start
 108:.\main.c      ****     TFTSHIELD_1_FillScreen(BLACK);
 229              		.loc 1 108 0
 230 003c 4FF00000 		mov	r0, #0
ARM GAS  C:\Users\Brian\AppData\Local\Temp\ccDUHsm8.s 			page 7


 231 0040 FFF7FEFF 		bl	TFTSHIELD_1_FillScreen
 109:.\main.c      ****     TFTSHIELD_1_SetCursor(0,0);//start at 0,0 for text
 232              		.loc 1 109 0
 233 0044 4FF00000 		mov	r0, #0
 234 0048 4FF00001 		mov	r1, #0
 235 004c FFF7FEFF 		bl	TFTSHIELD_1_SetCursor
 110:.\main.c      ****     TFTSHIELD_1_SetTextColor(WHITE);  
 236              		.loc 1 110 0
 237 0050 4FF6FF70 		movw	r0, #65535
 238 0054 FFF7FEFF 		bl	TFTSHIELD_1_SetTextColor
 111:.\main.c      ****     TFTSHIELD_1_SetTextSize(1);
 239              		.loc 1 111 0
 240 0058 4FF00100 		mov	r0, #1
 241 005c FFF7FEFF 		bl	TFTSHIELD_1_SetTextSize
 112:.\main.c      ****     TFTSHIELD_1_SetRotation(1);
 242              		.loc 1 112 0
 243 0060 4FF00100 		mov	r0, #1
 244 0064 FFF7FEFF 		bl	TFTSHIELD_1_SetRotation
 113:.\main.c      ****     CyDelay(10);
 245              		.loc 1 113 0
 246 0068 4FF00A00 		mov	r0, #10
 247 006c FFF7FEFF 		bl	CyDelay
 114:.\main.c      **** }
 248              		.loc 1 114 0
 249 0070 80BD     		pop	{r7, pc}
 250              		.cfi_endproc
 251              	.LFE57:
 252              		.size	TFT_INIT, .-TFT_INIT
 253 0072 00BF     		.text
 254              	.Letext0:
 255              		.file 2 "c:\\program files (x86)\\cypress\\psoc creator\\3.0\\psoc creator\\import\\gnu_cs\\arm\\4
 256              		.file 3 "./Generated_Source/PSoC5/TFTSHIELD_1.h"
 257              		.file 4 "./Generated_Source/PSoC5/core_cm3.h"