ARM GAS  C:\Users\Brian\AppData\Local\Temp\ccFHA7eh.s 			page 1


   1              		.syntax unified
   2              		.cpu cortex-m3
   3              		.fpu softvfp
   4              		.eabi_attribute 20, 1
   5              		.eabi_attribute 21, 1
   6              		.eabi_attribute 23, 3
   7              		.eabi_attribute 24, 1
   8              		.eabi_attribute 25, 1
   9              		.eabi_attribute 26, 1
  10              		.eabi_attribute 30, 6
  11              		.eabi_attribute 34, 1
  12              		.eabi_attribute 18, 4
  13              		.thumb
  14              		.file	"SPIS_1_INT.c"
  15              		.text
  16              	.Ltext0:
  17              		.cfi_sections	.debug_frame
  18              		.section	.text.SPIS_1_TX_ISR,"ax",%progbits
  19              		.align	2
  20              		.global	SPIS_1_TX_ISR
  21              		.thumb
  22              		.thumb_func
  23              		.type	SPIS_1_TX_ISR, %function
  24              	SPIS_1_TX_ISR:
  25              	.LFB0:
  26              		.file 1 ".\\Generated_Source\\PSoC5\\SPIS_1_INT.c"
   1:.\Generated_Source\PSoC5/SPIS_1_INT.c **** /*******************************************************************************
   2:.\Generated_Source\PSoC5/SPIS_1_INT.c **** * File Name: SPIS_1_INT.c
   3:.\Generated_Source\PSoC5/SPIS_1_INT.c **** * Version 2.60
   4:.\Generated_Source\PSoC5/SPIS_1_INT.c **** *
   5:.\Generated_Source\PSoC5/SPIS_1_INT.c **** * Description:
   6:.\Generated_Source\PSoC5/SPIS_1_INT.c **** *  This file provides all Interrupt Service Routine (ISR) for the SPI Slave
   7:.\Generated_Source\PSoC5/SPIS_1_INT.c **** *  component.
   8:.\Generated_Source\PSoC5/SPIS_1_INT.c **** *
   9:.\Generated_Source\PSoC5/SPIS_1_INT.c **** * Note:
  10:.\Generated_Source\PSoC5/SPIS_1_INT.c **** *  None.
  11:.\Generated_Source\PSoC5/SPIS_1_INT.c **** *
  12:.\Generated_Source\PSoC5/SPIS_1_INT.c **** ********************************************************************************
  13:.\Generated_Source\PSoC5/SPIS_1_INT.c **** * Copyright 2008-2013, Cypress Semiconductor Corporation.  All rights reserved.
  14:.\Generated_Source\PSoC5/SPIS_1_INT.c **** * You may use this file only in accordance with the license, terms, conditions,
  15:.\Generated_Source\PSoC5/SPIS_1_INT.c **** * disclaimers, and limitations in the end user license agreement accompanying
  16:.\Generated_Source\PSoC5/SPIS_1_INT.c **** * the software package with which this file was provided.
  17:.\Generated_Source\PSoC5/SPIS_1_INT.c **** *******************************************************************************/
  18:.\Generated_Source\PSoC5/SPIS_1_INT.c **** 
  19:.\Generated_Source\PSoC5/SPIS_1_INT.c **** #include "SPIS_1_PVT.h"
  20:.\Generated_Source\PSoC5/SPIS_1_INT.c **** 
  21:.\Generated_Source\PSoC5/SPIS_1_INT.c **** 
  22:.\Generated_Source\PSoC5/SPIS_1_INT.c **** /* User code required at start of ISR */
  23:.\Generated_Source\PSoC5/SPIS_1_INT.c **** /* `#START SPIS_1_ISR_START_DEF` */
  24:.\Generated_Source\PSoC5/SPIS_1_INT.c **** 
  25:.\Generated_Source\PSoC5/SPIS_1_INT.c **** /* `#END` */
  26:.\Generated_Source\PSoC5/SPIS_1_INT.c **** 
  27:.\Generated_Source\PSoC5/SPIS_1_INT.c **** 
  28:.\Generated_Source\PSoC5/SPIS_1_INT.c **** /*******************************************************************************
  29:.\Generated_Source\PSoC5/SPIS_1_INT.c **** * Function Name: SPIS_1_TX_ISR
  30:.\Generated_Source\PSoC5/SPIS_1_INT.c **** *
  31:.\Generated_Source\PSoC5/SPIS_1_INT.c **** * Summary:
ARM GAS  C:\Users\Brian\AppData\Local\Temp\ccFHA7eh.s 			page 2


  32:.\Generated_Source\PSoC5/SPIS_1_INT.c **** *  Interrupt Service Routine for TX portion of the SPI Slave.
  33:.\Generated_Source\PSoC5/SPIS_1_INT.c **** *
  34:.\Generated_Source\PSoC5/SPIS_1_INT.c **** * Parameters:
  35:.\Generated_Source\PSoC5/SPIS_1_INT.c **** *  None.
  36:.\Generated_Source\PSoC5/SPIS_1_INT.c **** *
  37:.\Generated_Source\PSoC5/SPIS_1_INT.c **** * Return:
  38:.\Generated_Source\PSoC5/SPIS_1_INT.c **** *  None.
  39:.\Generated_Source\PSoC5/SPIS_1_INT.c **** *
  40:.\Generated_Source\PSoC5/SPIS_1_INT.c **** * Global variables:
  41:.\Generated_Source\PSoC5/SPIS_1_INT.c **** *  SPIS_1_txBufferWrite - used for the account of the bytes which
  42:.\Generated_Source\PSoC5/SPIS_1_INT.c **** *  have been written down in the TX software buffer.
  43:.\Generated_Source\PSoC5/SPIS_1_INT.c **** *  SPIS_1_txBufferRead - used for the account of the bytes which
  44:.\Generated_Source\PSoC5/SPIS_1_INT.c **** *  have been read from the TX software buffer, modified when exist data to
  45:.\Generated_Source\PSoC5/SPIS_1_INT.c **** *  sending and FIFO Not Full.
  46:.\Generated_Source\PSoC5/SPIS_1_INT.c **** *  SPIS_1_txBuffer[SPIS_1_TX_BUFFER_SIZE] - used to store
  47:.\Generated_Source\PSoC5/SPIS_1_INT.c **** *  data to sending.
  48:.\Generated_Source\PSoC5/SPIS_1_INT.c **** *  All described above Global variables are used when Software Buffer is used.
  49:.\Generated_Source\PSoC5/SPIS_1_INT.c **** *
  50:.\Generated_Source\PSoC5/SPIS_1_INT.c **** *******************************************************************************/
  51:.\Generated_Source\PSoC5/SPIS_1_INT.c **** CY_ISR(SPIS_1_TX_ISR)
  52:.\Generated_Source\PSoC5/SPIS_1_INT.c **** {
  27              		.loc 1 52 0
  28              		.cfi_startproc
  29              		@ args = 0, pretend = 0, frame = 0
  30              		@ frame_needed = 1, uses_anonymous_args = 0
  31              		@ link register save eliminated.
  32 0000 80B4     		push	{r7}
  33              	.LCFI0:
  34              		.cfi_def_cfa_offset 4
  35              		.cfi_offset 7, -4
  36 0002 00AF     		add	r7, sp, #0
  37              	.LCFI1:
  38              		.cfi_def_cfa_register 7
  53:.\Generated_Source\PSoC5/SPIS_1_INT.c **** 
  54:.\Generated_Source\PSoC5/SPIS_1_INT.c ****     #if(SPIS_1_TX_SOFTWARE_BUF_ENABLED)
  55:.\Generated_Source\PSoC5/SPIS_1_INT.c ****         uint8 tmpStatus;
  56:.\Generated_Source\PSoC5/SPIS_1_INT.c ****     #endif /* (SPIS_1_TX_SOFTWARE_BUF_ENABLED) */
  57:.\Generated_Source\PSoC5/SPIS_1_INT.c **** 
  58:.\Generated_Source\PSoC5/SPIS_1_INT.c ****     /* User code required at start of ISR */
  59:.\Generated_Source\PSoC5/SPIS_1_INT.c ****     /* `#START SPIS_1_ISR_TX_START` */
  60:.\Generated_Source\PSoC5/SPIS_1_INT.c **** 
  61:.\Generated_Source\PSoC5/SPIS_1_INT.c ****     /* `#END` */
  62:.\Generated_Source\PSoC5/SPIS_1_INT.c **** 
  63:.\Generated_Source\PSoC5/SPIS_1_INT.c ****     #if(SPIS_1_TX_SOFTWARE_BUF_ENABLED)
  64:.\Generated_Source\PSoC5/SPIS_1_INT.c ****         /* Component interrupt service code */
  65:.\Generated_Source\PSoC5/SPIS_1_INT.c **** 
  66:.\Generated_Source\PSoC5/SPIS_1_INT.c ****         /* See if TX data buffer is not empty and there is space in TX FIFO */
  67:.\Generated_Source\PSoC5/SPIS_1_INT.c ****         while(SPIS_1_txBufferRead != SPIS_1_txBufferWrite)
  68:.\Generated_Source\PSoC5/SPIS_1_INT.c ****         {
  69:.\Generated_Source\PSoC5/SPIS_1_INT.c ****             tmpStatus = SPIS_1_GET_STATUS_TX(SPIS_1_swStatusTx);
  70:.\Generated_Source\PSoC5/SPIS_1_INT.c ****             SPIS_1_swStatusTx = tmpStatus;
  71:.\Generated_Source\PSoC5/SPIS_1_INT.c **** 
  72:.\Generated_Source\PSoC5/SPIS_1_INT.c ****             if ((SPIS_1_swStatusTx & SPIS_1_STS_TX_FIFO_NOT_FULL) != 0u)
  73:.\Generated_Source\PSoC5/SPIS_1_INT.c ****             {
  74:.\Generated_Source\PSoC5/SPIS_1_INT.c ****                 if(SPIS_1_txBufferFull == 0u)
  75:.\Generated_Source\PSoC5/SPIS_1_INT.c ****                 {
  76:.\Generated_Source\PSoC5/SPIS_1_INT.c ****                    SPIS_1_txBufferRead++;
ARM GAS  C:\Users\Brian\AppData\Local\Temp\ccFHA7eh.s 			page 3


  77:.\Generated_Source\PSoC5/SPIS_1_INT.c **** 
  78:.\Generated_Source\PSoC5/SPIS_1_INT.c ****                     if(SPIS_1_txBufferRead >= SPIS_1_TX_BUFFER_SIZE)
  79:.\Generated_Source\PSoC5/SPIS_1_INT.c ****                     {
  80:.\Generated_Source\PSoC5/SPIS_1_INT.c ****                         SPIS_1_txBufferRead = 0u;
  81:.\Generated_Source\PSoC5/SPIS_1_INT.c ****                     }
  82:.\Generated_Source\PSoC5/SPIS_1_INT.c ****                 }
  83:.\Generated_Source\PSoC5/SPIS_1_INT.c ****                 else
  84:.\Generated_Source\PSoC5/SPIS_1_INT.c ****                 {
  85:.\Generated_Source\PSoC5/SPIS_1_INT.c ****                     SPIS_1_txBufferFull = 0u;
  86:.\Generated_Source\PSoC5/SPIS_1_INT.c ****                 }
  87:.\Generated_Source\PSoC5/SPIS_1_INT.c **** 
  88:.\Generated_Source\PSoC5/SPIS_1_INT.c ****                 /* Move data from the Buffer to the FIFO */
  89:.\Generated_Source\PSoC5/SPIS_1_INT.c ****                 CY_SET_REG8(SPIS_1_TXDATA_PTR,
  90:.\Generated_Source\PSoC5/SPIS_1_INT.c ****                 SPIS_1_txBuffer[SPIS_1_txBufferRead]);
  91:.\Generated_Source\PSoC5/SPIS_1_INT.c ****             }
  92:.\Generated_Source\PSoC5/SPIS_1_INT.c ****             else
  93:.\Generated_Source\PSoC5/SPIS_1_INT.c ****             {
  94:.\Generated_Source\PSoC5/SPIS_1_INT.c ****                 break;
  95:.\Generated_Source\PSoC5/SPIS_1_INT.c ****             }
  96:.\Generated_Source\PSoC5/SPIS_1_INT.c ****         }
  97:.\Generated_Source\PSoC5/SPIS_1_INT.c **** 
  98:.\Generated_Source\PSoC5/SPIS_1_INT.c ****         /* If Buffer is empty then disable TX FIFO status interrupt until there is data in the buff
  99:.\Generated_Source\PSoC5/SPIS_1_INT.c ****         if(SPIS_1_txBufferRead == SPIS_1_txBufferWrite)
 100:.\Generated_Source\PSoC5/SPIS_1_INT.c ****         {
 101:.\Generated_Source\PSoC5/SPIS_1_INT.c ****             SPIS_1_TX_STATUS_MASK_REG &= ((uint8)~SPIS_1_STS_TX_FIFO_NOT_FULL);
 102:.\Generated_Source\PSoC5/SPIS_1_INT.c ****         }
 103:.\Generated_Source\PSoC5/SPIS_1_INT.c **** 
 104:.\Generated_Source\PSoC5/SPIS_1_INT.c ****     #endif /* SPIS_1_TX_SOFTWARE_BUF_ENABLED */
 105:.\Generated_Source\PSoC5/SPIS_1_INT.c **** 
 106:.\Generated_Source\PSoC5/SPIS_1_INT.c ****     /* User code required at end of ISR (Optional) */
 107:.\Generated_Source\PSoC5/SPIS_1_INT.c ****     /* `#START SPIS_1_ISR_TX_END` */
 108:.\Generated_Source\PSoC5/SPIS_1_INT.c **** 
 109:.\Generated_Source\PSoC5/SPIS_1_INT.c ****     /* `#END` */
 110:.\Generated_Source\PSoC5/SPIS_1_INT.c **** 
 111:.\Generated_Source\PSoC5/SPIS_1_INT.c ****    }
  39              		.loc 1 111 0
  40 0004 BD46     		mov	sp, r7
  41 0006 80BC     		pop	{r7}
  42 0008 7047     		bx	lr
  43              		.cfi_endproc
  44              	.LFE0:
  45              		.size	SPIS_1_TX_ISR, .-SPIS_1_TX_ISR
  46 000a 00BF     		.section	.text.SPIS_1_RX_ISR,"ax",%progbits
  47              		.align	2
  48              		.global	SPIS_1_RX_ISR
  49              		.thumb
  50              		.thumb_func
  51              		.type	SPIS_1_RX_ISR, %function
  52              	SPIS_1_RX_ISR:
  53              	.LFB1:
 112:.\Generated_Source\PSoC5/SPIS_1_INT.c **** 
 113:.\Generated_Source\PSoC5/SPIS_1_INT.c **** 
 114:.\Generated_Source\PSoC5/SPIS_1_INT.c **** /*******************************************************************************
 115:.\Generated_Source\PSoC5/SPIS_1_INT.c **** * Function Name: SPIS_1_RX_ISR
 116:.\Generated_Source\PSoC5/SPIS_1_INT.c **** *
 117:.\Generated_Source\PSoC5/SPIS_1_INT.c **** * Summary:
 118:.\Generated_Source\PSoC5/SPIS_1_INT.c **** *  Interrupt Service Routine for RX portion of the SPI Slave.
ARM GAS  C:\Users\Brian\AppData\Local\Temp\ccFHA7eh.s 			page 4


 119:.\Generated_Source\PSoC5/SPIS_1_INT.c **** *
 120:.\Generated_Source\PSoC5/SPIS_1_INT.c **** * Parameters:
 121:.\Generated_Source\PSoC5/SPIS_1_INT.c **** *  None.
 122:.\Generated_Source\PSoC5/SPIS_1_INT.c **** *
 123:.\Generated_Source\PSoC5/SPIS_1_INT.c **** * Return:
 124:.\Generated_Source\PSoC5/SPIS_1_INT.c **** *  None.
 125:.\Generated_Source\PSoC5/SPIS_1_INT.c **** *
 126:.\Generated_Source\PSoC5/SPIS_1_INT.c **** * Global variables:
 127:.\Generated_Source\PSoC5/SPIS_1_INT.c **** *  SPIS_1_rxBufferWrite - used for the account of the bytes which
 128:.\Generated_Source\PSoC5/SPIS_1_INT.c **** *  have been written down in the RX software buffer modified when FIFO contains
 129:.\Generated_Source\PSoC5/SPIS_1_INT.c **** *  new data.
 130:.\Generated_Source\PSoC5/SPIS_1_INT.c **** *  SPIS_1_rxBufferRead - used for the account of the bytes which
 131:.\Generated_Source\PSoC5/SPIS_1_INT.c **** *  have been read from the RX software buffer, modified when overflow occurred.
 132:.\Generated_Source\PSoC5/SPIS_1_INT.c **** *  SPIS_1_rxBuffer[SPIS_1_RX_BUFFER_SIZE] - used to store
 133:.\Generated_Source\PSoC5/SPIS_1_INT.c **** *  received data, modified when FIFO contains new data.
 134:.\Generated_Source\PSoC5/SPIS_1_INT.c **** *  All described above Global variables are used when Software Buffer is used.
 135:.\Generated_Source\PSoC5/SPIS_1_INT.c **** *
 136:.\Generated_Source\PSoC5/SPIS_1_INT.c **** *******************************************************************************/
 137:.\Generated_Source\PSoC5/SPIS_1_INT.c **** CY_ISR(SPIS_1_RX_ISR)
 138:.\Generated_Source\PSoC5/SPIS_1_INT.c **** {
  54              		.loc 1 138 0
  55              		.cfi_startproc
  56              		@ args = 0, pretend = 0, frame = 0
  57              		@ frame_needed = 1, uses_anonymous_args = 0
  58              		@ link register save eliminated.
  59 0000 80B4     		push	{r7}
  60              	.LCFI2:
  61              		.cfi_def_cfa_offset 4
  62              		.cfi_offset 7, -4
  63 0002 00AF     		add	r7, sp, #0
  64              	.LCFI3:
  65              		.cfi_def_cfa_register 7
 139:.\Generated_Source\PSoC5/SPIS_1_INT.c ****     #if(SPIS_1_TX_SOFTWARE_BUF_ENABLED)
 140:.\Generated_Source\PSoC5/SPIS_1_INT.c ****         uint8 tmpStatus;
 141:.\Generated_Source\PSoC5/SPIS_1_INT.c ****         uint8 rxData;
 142:.\Generated_Source\PSoC5/SPIS_1_INT.c ****     #endif /* (SPIS_1_TX_SOFTWARE_BUF_ENABLED) */
 143:.\Generated_Source\PSoC5/SPIS_1_INT.c **** 
 144:.\Generated_Source\PSoC5/SPIS_1_INT.c ****     /* User code required at start of ISR */
 145:.\Generated_Source\PSoC5/SPIS_1_INT.c ****     /* `#START SPIS_1_RX_ISR_START` */
 146:.\Generated_Source\PSoC5/SPIS_1_INT.c **** 
 147:.\Generated_Source\PSoC5/SPIS_1_INT.c ****     /* `#END` */
 148:.\Generated_Source\PSoC5/SPIS_1_INT.c **** 
 149:.\Generated_Source\PSoC5/SPIS_1_INT.c ****     #if(SPIS_1_RX_SOFTWARE_BUF_ENABLED)
 150:.\Generated_Source\PSoC5/SPIS_1_INT.c ****         tmpStatus = SPIS_1_GET_STATUS_RX(SPIS_1_swStatusRx);
 151:.\Generated_Source\PSoC5/SPIS_1_INT.c ****         SPIS_1_swStatusRx = tmpStatus;
 152:.\Generated_Source\PSoC5/SPIS_1_INT.c ****         /* See if RX data FIFO has some data and if it can be moved to the RX Buffer */
 153:.\Generated_Source\PSoC5/SPIS_1_INT.c ****         while((SPIS_1_swStatusRx & SPIS_1_STS_RX_FIFO_NOT_EMPTY) != 0u)
 154:.\Generated_Source\PSoC5/SPIS_1_INT.c ****         {
 155:.\Generated_Source\PSoC5/SPIS_1_INT.c ****             rxData = CY_GET_REG8(SPIS_1_RXDATA_PTR);
 156:.\Generated_Source\PSoC5/SPIS_1_INT.c **** 
 157:.\Generated_Source\PSoC5/SPIS_1_INT.c ****             /* Set next pointer. */
 158:.\Generated_Source\PSoC5/SPIS_1_INT.c ****             SPIS_1_rxBufferWrite++;
 159:.\Generated_Source\PSoC5/SPIS_1_INT.c ****             if(SPIS_1_rxBufferWrite >= SPIS_1_RX_BUFFER_SIZE)
 160:.\Generated_Source\PSoC5/SPIS_1_INT.c ****             {
 161:.\Generated_Source\PSoC5/SPIS_1_INT.c ****                 SPIS_1_rxBufferWrite = 0u;
 162:.\Generated_Source\PSoC5/SPIS_1_INT.c ****             }
 163:.\Generated_Source\PSoC5/SPIS_1_INT.c **** 
ARM GAS  C:\Users\Brian\AppData\Local\Temp\ccFHA7eh.s 			page 5


 164:.\Generated_Source\PSoC5/SPIS_1_INT.c ****             if(SPIS_1_rxBufferWrite == SPIS_1_rxBufferRead)
 165:.\Generated_Source\PSoC5/SPIS_1_INT.c ****             {
 166:.\Generated_Source\PSoC5/SPIS_1_INT.c ****                 SPIS_1_rxBufferRead++;
 167:.\Generated_Source\PSoC5/SPIS_1_INT.c ****                 if(SPIS_1_rxBufferRead >= SPIS_1_RX_BUFFER_SIZE)
 168:.\Generated_Source\PSoC5/SPIS_1_INT.c ****                 {
 169:.\Generated_Source\PSoC5/SPIS_1_INT.c ****                     SPIS_1_rxBufferRead = 0u;
 170:.\Generated_Source\PSoC5/SPIS_1_INT.c ****                 }
 171:.\Generated_Source\PSoC5/SPIS_1_INT.c ****                 SPIS_1_rxBufferFull = 1u;
 172:.\Generated_Source\PSoC5/SPIS_1_INT.c ****             }
 173:.\Generated_Source\PSoC5/SPIS_1_INT.c **** 
 174:.\Generated_Source\PSoC5/SPIS_1_INT.c ****             /* Move data from the FIFO to the Buffer */
 175:.\Generated_Source\PSoC5/SPIS_1_INT.c ****             SPIS_1_rxBuffer[SPIS_1_rxBufferWrite] = rxData;
 176:.\Generated_Source\PSoC5/SPIS_1_INT.c **** 
 177:.\Generated_Source\PSoC5/SPIS_1_INT.c ****             tmpStatus = SPIS_1_GET_STATUS_RX(SPIS_1_swStatusRx);
 178:.\Generated_Source\PSoC5/SPIS_1_INT.c ****             SPIS_1_swStatusRx = tmpStatus;
 179:.\Generated_Source\PSoC5/SPIS_1_INT.c ****         }
 180:.\Generated_Source\PSoC5/SPIS_1_INT.c ****     #endif /* SPIS_1_RX_SOFTWARE_BUF_ENABLED */
 181:.\Generated_Source\PSoC5/SPIS_1_INT.c **** 
 182:.\Generated_Source\PSoC5/SPIS_1_INT.c ****     /* User code required at end of ISR (Optional) */
 183:.\Generated_Source\PSoC5/SPIS_1_INT.c ****     /* `#START SPIS_1_RX_ISR_END` */
 184:.\Generated_Source\PSoC5/SPIS_1_INT.c **** 
 185:.\Generated_Source\PSoC5/SPIS_1_INT.c ****     /* `#END` */
 186:.\Generated_Source\PSoC5/SPIS_1_INT.c **** 
 187:.\Generated_Source\PSoC5/SPIS_1_INT.c **** }
  66              		.loc 1 187 0
  67 0004 BD46     		mov	sp, r7
  68 0006 80BC     		pop	{r7}
  69 0008 7047     		bx	lr
  70              		.cfi_endproc
  71              	.LFE1:
  72              		.size	SPIS_1_RX_ISR, .-SPIS_1_RX_ISR
  73 000a 00BF     		.text
  74              	.Letext0: