ARM GAS  C:\Users\Brian\AppData\Local\Temp\ccUvNigR.s 			page 1


   1              		.syntax unified
   2              		.cpu cortex-m3
   3              		.fpu softvfp
   4              		.eabi_attribute 20, 1
   5              		.eabi_attribute 21, 1
   6              		.eabi_attribute 23, 3
   7              		.eabi_attribute 24, 1
   8              		.eabi_attribute 25, 1
   9              		.eabi_attribute 26, 1
  10              		.eabi_attribute 30, 6
  11              		.eabi_attribute 34, 1
  12              		.eabi_attribute 18, 4
  13              		.thumb
  14              		.file	"SPIS_1_PM.c"
  15              		.text
  16              	.Ltext0:
  17              		.cfi_sections	.debug_frame
  18              		.data
  19              		.align	2
  20              		.type	SPIS_1_backup, %object
  21              		.size	SPIS_1_backup, 2
  22              	SPIS_1_backup:
  23 0000 00       		.byte	0
  24 0001 07       		.byte	7
  25 0002 0000     		.section	.text.SPIS_1_SaveConfig,"ax",%progbits
  26              		.align	2
  27              		.global	SPIS_1_SaveConfig
  28              		.thumb
  29              		.thumb_func
  30              		.type	SPIS_1_SaveConfig, %function
  31              	SPIS_1_SaveConfig:
  32              	.LFB0:
  33              		.file 1 ".\\Generated_Source\\PSoC5\\SPIS_1_PM.c"
   1:.\Generated_Source\PSoC5/SPIS_1_PM.c **** /*******************************************************************************
   2:.\Generated_Source\PSoC5/SPIS_1_PM.c **** * File Name: SPIS_1_PM.c
   3:.\Generated_Source\PSoC5/SPIS_1_PM.c **** * Version 2.60
   4:.\Generated_Source\PSoC5/SPIS_1_PM.c **** *
   5:.\Generated_Source\PSoC5/SPIS_1_PM.c **** * Description:
   6:.\Generated_Source\PSoC5/SPIS_1_PM.c **** *  This file contains the setup, control and status commands to support
   7:.\Generated_Source\PSoC5/SPIS_1_PM.c **** *  component operations in low power mode.
   8:.\Generated_Source\PSoC5/SPIS_1_PM.c **** *
   9:.\Generated_Source\PSoC5/SPIS_1_PM.c **** * Note:
  10:.\Generated_Source\PSoC5/SPIS_1_PM.c **** *
  11:.\Generated_Source\PSoC5/SPIS_1_PM.c **** ********************************************************************************
  12:.\Generated_Source\PSoC5/SPIS_1_PM.c **** * Copyright 2008-2013, Cypress Semiconductor Corporation.  All rights reserved.
  13:.\Generated_Source\PSoC5/SPIS_1_PM.c **** * You may use this file only in accordance with the license, terms, conditions,
  14:.\Generated_Source\PSoC5/SPIS_1_PM.c **** * disclaimers, and limitations in the end user license agreement accompanying
  15:.\Generated_Source\PSoC5/SPIS_1_PM.c **** * the software package with which this file was provided.
  16:.\Generated_Source\PSoC5/SPIS_1_PM.c **** *******************************************************************************/
  17:.\Generated_Source\PSoC5/SPIS_1_PM.c **** 
  18:.\Generated_Source\PSoC5/SPIS_1_PM.c **** #include "SPIS_1_PVT.h"
  19:.\Generated_Source\PSoC5/SPIS_1_PM.c **** 
  20:.\Generated_Source\PSoC5/SPIS_1_PM.c **** static SPIS_1_BACKUP_STRUCT SPIS_1_backup = 
  21:.\Generated_Source\PSoC5/SPIS_1_PM.c **** {
  22:.\Generated_Source\PSoC5/SPIS_1_PM.c ****     SPIS_1_DISABLED,
  23:.\Generated_Source\PSoC5/SPIS_1_PM.c ****     SPIS_1_BITCTR_INIT,
  24:.\Generated_Source\PSoC5/SPIS_1_PM.c ****     #if(CY_UDB_V0)
ARM GAS  C:\Users\Brian\AppData\Local\Temp\ccUvNigR.s 			page 2


  25:.\Generated_Source\PSoC5/SPIS_1_PM.c ****         SPIS_1_TX_INIT_INTERRUPTS_MASK,
  26:.\Generated_Source\PSoC5/SPIS_1_PM.c ****         SPIS_1_RX_INIT_INTERRUPTS_MASK
  27:.\Generated_Source\PSoC5/SPIS_1_PM.c ****     #endif /* CY_UDB_V0 */
  28:.\Generated_Source\PSoC5/SPIS_1_PM.c **** };
  29:.\Generated_Source\PSoC5/SPIS_1_PM.c **** 
  30:.\Generated_Source\PSoC5/SPIS_1_PM.c **** 
  31:.\Generated_Source\PSoC5/SPIS_1_PM.c **** /*******************************************************************************
  32:.\Generated_Source\PSoC5/SPIS_1_PM.c **** * Function Name: SPIS_1_SaveConfig
  33:.\Generated_Source\PSoC5/SPIS_1_PM.c **** ********************************************************************************
  34:.\Generated_Source\PSoC5/SPIS_1_PM.c **** *
  35:.\Generated_Source\PSoC5/SPIS_1_PM.c **** * Summary:
  36:.\Generated_Source\PSoC5/SPIS_1_PM.c **** *  Saves SPIM configuration.
  37:.\Generated_Source\PSoC5/SPIS_1_PM.c **** *
  38:.\Generated_Source\PSoC5/SPIS_1_PM.c **** * Parameters:
  39:.\Generated_Source\PSoC5/SPIS_1_PM.c **** *  None.
  40:.\Generated_Source\PSoC5/SPIS_1_PM.c **** *
  41:.\Generated_Source\PSoC5/SPIS_1_PM.c **** * Return:
  42:.\Generated_Source\PSoC5/SPIS_1_PM.c **** *  None.
  43:.\Generated_Source\PSoC5/SPIS_1_PM.c **** *
  44:.\Generated_Source\PSoC5/SPIS_1_PM.c **** * Global Variables:
  45:.\Generated_Source\PSoC5/SPIS_1_PM.c **** *  SPIS_1_backup - modified when non-retention registers are saved.
  46:.\Generated_Source\PSoC5/SPIS_1_PM.c **** *
  47:.\Generated_Source\PSoC5/SPIS_1_PM.c **** * Reentrant:
  48:.\Generated_Source\PSoC5/SPIS_1_PM.c **** *  No.
  49:.\Generated_Source\PSoC5/SPIS_1_PM.c **** *
  50:.\Generated_Source\PSoC5/SPIS_1_PM.c **** *******************************************************************************/
  51:.\Generated_Source\PSoC5/SPIS_1_PM.c **** void SPIS_1_SaveConfig(void) 
  52:.\Generated_Source\PSoC5/SPIS_1_PM.c **** {
  34              		.loc 1 52 0
  35              		.cfi_startproc
  36              		@ args = 0, pretend = 0, frame = 0
  37              		@ frame_needed = 1, uses_anonymous_args = 0
  38              		@ link register save eliminated.
  39 0000 80B4     		push	{r7}
  40              	.LCFI0:
  41              		.cfi_def_cfa_offset 4
  42              		.cfi_offset 7, -4
  43 0002 00AF     		add	r7, sp, #0
  44              	.LCFI1:
  45              		.cfi_def_cfa_register 7
  53:.\Generated_Source\PSoC5/SPIS_1_PM.c ****     /* Store Status Mask registers */
  54:.\Generated_Source\PSoC5/SPIS_1_PM.c ****     #if (CY_UDB_V0)
  55:.\Generated_Source\PSoC5/SPIS_1_PM.c **** 
  56:.\Generated_Source\PSoC5/SPIS_1_PM.c ****        SPIS_1_backup.saveSrTxIntMask = SPIS_1_TX_STATUS_MASK_REG;
  57:.\Generated_Source\PSoC5/SPIS_1_PM.c ****        SPIS_1_backup.saveSrRxIntMask = SPIS_1_RX_STATUS_MASK_REG;
  58:.\Generated_Source\PSoC5/SPIS_1_PM.c ****        SPIS_1_backup.cntrPeriod      = SPIS_1_COUNTER_PERIOD_REG;
  59:.\Generated_Source\PSoC5/SPIS_1_PM.c **** 
  60:.\Generated_Source\PSoC5/SPIS_1_PM.c ****     #endif /* CY_UDB_V0 */
  61:.\Generated_Source\PSoC5/SPIS_1_PM.c **** }
  46              		.loc 1 61 0
  47 0004 BD46     		mov	sp, r7
  48 0006 80BC     		pop	{r7}
  49 0008 7047     		bx	lr
  50              		.cfi_endproc
  51              	.LFE0:
  52              		.size	SPIS_1_SaveConfig, .-SPIS_1_SaveConfig
  53 000a 00BF     		.section	.text.SPIS_1_RestoreConfig,"ax",%progbits
ARM GAS  C:\Users\Brian\AppData\Local\Temp\ccUvNigR.s 			page 3


  54              		.align	2
  55              		.global	SPIS_1_RestoreConfig
  56              		.thumb
  57              		.thumb_func
  58              		.type	SPIS_1_RestoreConfig, %function
  59              	SPIS_1_RestoreConfig:
  60              	.LFB1:
  62:.\Generated_Source\PSoC5/SPIS_1_PM.c **** 
  63:.\Generated_Source\PSoC5/SPIS_1_PM.c **** 
  64:.\Generated_Source\PSoC5/SPIS_1_PM.c **** /*******************************************************************************
  65:.\Generated_Source\PSoC5/SPIS_1_PM.c **** * Function Name: SPIS_1_RestoreConfig
  66:.\Generated_Source\PSoC5/SPIS_1_PM.c **** ********************************************************************************
  67:.\Generated_Source\PSoC5/SPIS_1_PM.c **** *
  68:.\Generated_Source\PSoC5/SPIS_1_PM.c **** * Summary:
  69:.\Generated_Source\PSoC5/SPIS_1_PM.c **** *  Restores SPIS configuration.
  70:.\Generated_Source\PSoC5/SPIS_1_PM.c **** *
  71:.\Generated_Source\PSoC5/SPIS_1_PM.c **** * Parameters:
  72:.\Generated_Source\PSoC5/SPIS_1_PM.c **** *  None.
  73:.\Generated_Source\PSoC5/SPIS_1_PM.c **** *
  74:.\Generated_Source\PSoC5/SPIS_1_PM.c **** * Return:
  75:.\Generated_Source\PSoC5/SPIS_1_PM.c **** *  None.
  76:.\Generated_Source\PSoC5/SPIS_1_PM.c **** *
  77:.\Generated_Source\PSoC5/SPIS_1_PM.c **** * Global Variables:
  78:.\Generated_Source\PSoC5/SPIS_1_PM.c **** *  SPIS_1_backup - used when non-retention registers are restored.
  79:.\Generated_Source\PSoC5/SPIS_1_PM.c **** *
  80:.\Generated_Source\PSoC5/SPIS_1_PM.c **** * Side Effects:
  81:.\Generated_Source\PSoC5/SPIS_1_PM.c **** *  If this API is called without first calling SaveConfig then in the following
  82:.\Generated_Source\PSoC5/SPIS_1_PM.c **** *  registers will be default values from Customizer:
  83:.\Generated_Source\PSoC5/SPIS_1_PM.c **** *  SPIS_1_STATUS_MASK_REG and SPIS_1_COUNTER_PERIOD_REG.
  84:.\Generated_Source\PSoC5/SPIS_1_PM.c **** *
  85:.\Generated_Source\PSoC5/SPIS_1_PM.c **** *******************************************************************************/
  86:.\Generated_Source\PSoC5/SPIS_1_PM.c **** void SPIS_1_RestoreConfig(void) 
  87:.\Generated_Source\PSoC5/SPIS_1_PM.c **** {
  61              		.loc 1 87 0
  62              		.cfi_startproc
  63              		@ args = 0, pretend = 0, frame = 0
  64              		@ frame_needed = 1, uses_anonymous_args = 0
  65              		@ link register save eliminated.
  66 0000 80B4     		push	{r7}
  67              	.LCFI2:
  68              		.cfi_def_cfa_offset 4
  69              		.cfi_offset 7, -4
  70 0002 00AF     		add	r7, sp, #0
  71              	.LCFI3:
  72              		.cfi_def_cfa_register 7
  88:.\Generated_Source\PSoC5/SPIS_1_PM.c ****     /* Restore the data, saved by SaveConfig() function */
  89:.\Generated_Source\PSoC5/SPIS_1_PM.c ****     #if (CY_UDB_V0)
  90:.\Generated_Source\PSoC5/SPIS_1_PM.c **** 
  91:.\Generated_Source\PSoC5/SPIS_1_PM.c ****         SPIS_1_TX_STATUS_MASK_REG = SPIS_1_backup.saveSrTxIntMask;
  92:.\Generated_Source\PSoC5/SPIS_1_PM.c ****         SPIS_1_RX_STATUS_MASK_REG = SPIS_1_backup.saveSrRxIntMask;
  93:.\Generated_Source\PSoC5/SPIS_1_PM.c ****         SPIS_1_COUNTER_PERIOD_REG = SPIS_1_backup.cntrPeriod;
  94:.\Generated_Source\PSoC5/SPIS_1_PM.c **** 
  95:.\Generated_Source\PSoC5/SPIS_1_PM.c ****     #endif /* CY_UDB_V0 */
  96:.\Generated_Source\PSoC5/SPIS_1_PM.c **** }
  73              		.loc 1 96 0
  74 0004 BD46     		mov	sp, r7
  75 0006 80BC     		pop	{r7}
ARM GAS  C:\Users\Brian\AppData\Local\Temp\ccUvNigR.s 			page 4


  76 0008 7047     		bx	lr
  77              		.cfi_endproc
  78              	.LFE1:
  79              		.size	SPIS_1_RestoreConfig, .-SPIS_1_RestoreConfig
  80 000a 00BF     		.section	.text.SPIS_1_Sleep,"ax",%progbits
  81              		.align	2
  82              		.global	SPIS_1_Sleep
  83              		.thumb
  84              		.thumb_func
  85              		.type	SPIS_1_Sleep, %function
  86              	SPIS_1_Sleep:
  87              	.LFB2:
  97:.\Generated_Source\PSoC5/SPIS_1_PM.c **** 
  98:.\Generated_Source\PSoC5/SPIS_1_PM.c **** 
  99:.\Generated_Source\PSoC5/SPIS_1_PM.c **** /*******************************************************************************
 100:.\Generated_Source\PSoC5/SPIS_1_PM.c **** * Function Name: SPIS_1_Sleep
 101:.\Generated_Source\PSoC5/SPIS_1_PM.c **** ********************************************************************************
 102:.\Generated_Source\PSoC5/SPIS_1_PM.c **** *
 103:.\Generated_Source\PSoC5/SPIS_1_PM.c **** * Summary:
 104:.\Generated_Source\PSoC5/SPIS_1_PM.c **** *  Prepare SPIM Component goes to sleep.
 105:.\Generated_Source\PSoC5/SPIS_1_PM.c **** *
 106:.\Generated_Source\PSoC5/SPIS_1_PM.c **** * Parameters:
 107:.\Generated_Source\PSoC5/SPIS_1_PM.c **** *  None.
 108:.\Generated_Source\PSoC5/SPIS_1_PM.c **** *
 109:.\Generated_Source\PSoC5/SPIS_1_PM.c **** * Return:
 110:.\Generated_Source\PSoC5/SPIS_1_PM.c **** *  None.
 111:.\Generated_Source\PSoC5/SPIS_1_PM.c **** *
 112:.\Generated_Source\PSoC5/SPIS_1_PM.c **** * Global Variables:
 113:.\Generated_Source\PSoC5/SPIS_1_PM.c **** *  SPIS_1_backup - modified when non-retention registers are saved.
 114:.\Generated_Source\PSoC5/SPIS_1_PM.c **** *
 115:.\Generated_Source\PSoC5/SPIS_1_PM.c **** * Reentrant:
 116:.\Generated_Source\PSoC5/SPIS_1_PM.c **** *  No.
 117:.\Generated_Source\PSoC5/SPIS_1_PM.c **** *
 118:.\Generated_Source\PSoC5/SPIS_1_PM.c **** *******************************************************************************/
 119:.\Generated_Source\PSoC5/SPIS_1_PM.c **** void SPIS_1_Sleep(void) 
 120:.\Generated_Source\PSoC5/SPIS_1_PM.c **** {
  88              		.loc 1 120 0
  89              		.cfi_startproc
  90              		@ args = 0, pretend = 0, frame = 0
  91              		@ frame_needed = 1, uses_anonymous_args = 0
  92 0000 80B5     		push	{r7, lr}
  93              	.LCFI4:
  94              		.cfi_def_cfa_offset 8
  95              		.cfi_offset 7, -8
  96              		.cfi_offset 14, -4
  97 0002 00AF     		add	r7, sp, #0
  98              	.LCFI5:
  99              		.cfi_def_cfa_register 7
 121:.\Generated_Source\PSoC5/SPIS_1_PM.c ****     /* Save components enable state */
 122:.\Generated_Source\PSoC5/SPIS_1_PM.c ****     if ((SPIS_1_TX_STATUS_ACTL_REG & SPIS_1_INT_ENABLE) != 0u)
 100              		.loc 1 122 0
 101 0004 46F29443 		movw	r3, #25748
 102 0008 C4F20003 		movt	r3, 16384
 103 000c 1B78     		ldrb	r3, [r3, #0]
 104 000e DBB2     		uxtb	r3, r3
 105 0010 03F01003 		and	r3, r3, #16
 106 0014 002B     		cmp	r3, #0
ARM GAS  C:\Users\Brian\AppData\Local\Temp\ccUvNigR.s 			page 5


 107 0016 07D0     		beq	.L4
 123:.\Generated_Source\PSoC5/SPIS_1_PM.c ****     {
 124:.\Generated_Source\PSoC5/SPIS_1_PM.c ****         SPIS_1_backup.enableState = 1u;
 108              		.loc 1 124 0
 109 0018 40F20003 		movw	r3, #:lower16:SPIS_1_backup
 110 001c C0F20003 		movt	r3, #:upper16:SPIS_1_backup
 111 0020 4FF00102 		mov	r2, #1
 112 0024 1A70     		strb	r2, [r3, #0]
 113 0026 06E0     		b	.L5
 114              	.L4:
 125:.\Generated_Source\PSoC5/SPIS_1_PM.c ****     }
 126:.\Generated_Source\PSoC5/SPIS_1_PM.c ****     else /* Components block is disabled */
 127:.\Generated_Source\PSoC5/SPIS_1_PM.c ****     {
 128:.\Generated_Source\PSoC5/SPIS_1_PM.c ****         SPIS_1_backup.enableState = 0u;
 115              		.loc 1 128 0
 116 0028 40F20003 		movw	r3, #:lower16:SPIS_1_backup
 117 002c C0F20003 		movt	r3, #:upper16:SPIS_1_backup
 118 0030 4FF00002 		mov	r2, #0
 119 0034 1A70     		strb	r2, [r3, #0]
 120              	.L5:
 129:.\Generated_Source\PSoC5/SPIS_1_PM.c ****     }
 130:.\Generated_Source\PSoC5/SPIS_1_PM.c **** 
 131:.\Generated_Source\PSoC5/SPIS_1_PM.c ****     SPIS_1_Stop();
 121              		.loc 1 131 0
 122 0036 FFF7FEFF 		bl	SPIS_1_Stop
 132:.\Generated_Source\PSoC5/SPIS_1_PM.c **** 
 133:.\Generated_Source\PSoC5/SPIS_1_PM.c ****     SPIS_1_SaveConfig();
 123              		.loc 1 133 0
 124 003a FFF7FEFF 		bl	SPIS_1_SaveConfig
 134:.\Generated_Source\PSoC5/SPIS_1_PM.c **** }
 125              		.loc 1 134 0
 126 003e 80BD     		pop	{r7, pc}
 127              		.cfi_endproc
 128              	.LFE2:
 129              		.size	SPIS_1_Sleep, .-SPIS_1_Sleep
 130              		.section	.text.SPIS_1_Wakeup,"ax",%progbits
 131              		.align	2
 132              		.global	SPIS_1_Wakeup
 133              		.thumb
 134              		.thumb_func
 135              		.type	SPIS_1_Wakeup, %function
 136              	SPIS_1_Wakeup:
 137              	.LFB3:
 135:.\Generated_Source\PSoC5/SPIS_1_PM.c **** 
 136:.\Generated_Source\PSoC5/SPIS_1_PM.c **** 
 137:.\Generated_Source\PSoC5/SPIS_1_PM.c **** /*******************************************************************************
 138:.\Generated_Source\PSoC5/SPIS_1_PM.c **** * Function Name: SPIS_1_Wakeup
 139:.\Generated_Source\PSoC5/SPIS_1_PM.c **** ********************************************************************************
 140:.\Generated_Source\PSoC5/SPIS_1_PM.c **** *
 141:.\Generated_Source\PSoC5/SPIS_1_PM.c **** * Summary:
 142:.\Generated_Source\PSoC5/SPIS_1_PM.c **** *  Prepare SPIM Component to wake up.
 143:.\Generated_Source\PSoC5/SPIS_1_PM.c **** *
 144:.\Generated_Source\PSoC5/SPIS_1_PM.c **** * Parameters:
 145:.\Generated_Source\PSoC5/SPIS_1_PM.c **** *  None.
 146:.\Generated_Source\PSoC5/SPIS_1_PM.c **** *
 147:.\Generated_Source\PSoC5/SPIS_1_PM.c **** * Return:
 148:.\Generated_Source\PSoC5/SPIS_1_PM.c **** *  None.
ARM GAS  C:\Users\Brian\AppData\Local\Temp\ccUvNigR.s 			page 6


 149:.\Generated_Source\PSoC5/SPIS_1_PM.c **** *
 150:.\Generated_Source\PSoC5/SPIS_1_PM.c **** * Global Variables:
 151:.\Generated_Source\PSoC5/SPIS_1_PM.c **** *  SPIS_1_backup - used when non-retention registers are restored.
 152:.\Generated_Source\PSoC5/SPIS_1_PM.c **** *  SPIS_1_txBufferWrite - modified every function call - resets to
 153:.\Generated_Source\PSoC5/SPIS_1_PM.c **** *  zero.
 154:.\Generated_Source\PSoC5/SPIS_1_PM.c **** *  SPIS_1_txBufferRead - modified every function call - resets to
 155:.\Generated_Source\PSoC5/SPIS_1_PM.c **** *  zero.
 156:.\Generated_Source\PSoC5/SPIS_1_PM.c **** *  SPIS_1_rxBufferWrite - modified every function call - resets to
 157:.\Generated_Source\PSoC5/SPIS_1_PM.c **** *  zero.
 158:.\Generated_Source\PSoC5/SPIS_1_PM.c **** *  SPIS_1_rxBufferRead - modified every function call - resets to
 159:.\Generated_Source\PSoC5/SPIS_1_PM.c **** *  zero.
 160:.\Generated_Source\PSoC5/SPIS_1_PM.c **** *
 161:.\Generated_Source\PSoC5/SPIS_1_PM.c **** * Reentrant:
 162:.\Generated_Source\PSoC5/SPIS_1_PM.c **** *  No.
 163:.\Generated_Source\PSoC5/SPIS_1_PM.c **** *
 164:.\Generated_Source\PSoC5/SPIS_1_PM.c **** *******************************************************************************/
 165:.\Generated_Source\PSoC5/SPIS_1_PM.c **** void SPIS_1_Wakeup(void) 
 166:.\Generated_Source\PSoC5/SPIS_1_PM.c **** {
 138              		.loc 1 166 0
 139              		.cfi_startproc
 140              		@ args = 0, pretend = 0, frame = 0
 141              		@ frame_needed = 1, uses_anonymous_args = 0
 142 0000 80B5     		push	{r7, lr}
 143              	.LCFI6:
 144              		.cfi_def_cfa_offset 8
 145              		.cfi_offset 7, -8
 146              		.cfi_offset 14, -4
 147 0002 00AF     		add	r7, sp, #0
 148              	.LCFI7:
 149              		.cfi_def_cfa_register 7
 167:.\Generated_Source\PSoC5/SPIS_1_PM.c ****     SPIS_1_RestoreConfig();
 150              		.loc 1 167 0
 151 0004 FFF7FEFF 		bl	SPIS_1_RestoreConfig
 168:.\Generated_Source\PSoC5/SPIS_1_PM.c **** 
 169:.\Generated_Source\PSoC5/SPIS_1_PM.c ****     #if (SPIS_1_TX_SOFTWARE_BUF_ENABLED)
 170:.\Generated_Source\PSoC5/SPIS_1_PM.c ****         SPIS_1_txBufferFull = 0u;
 171:.\Generated_Source\PSoC5/SPIS_1_PM.c ****         SPIS_1_txBufferRead = 0u;
 172:.\Generated_Source\PSoC5/SPIS_1_PM.c ****         SPIS_1_txBufferWrite = 0u;
 173:.\Generated_Source\PSoC5/SPIS_1_PM.c ****     #endif /* SPIS_1_TX_SOFTWARE_BUF_ENABLED */
 174:.\Generated_Source\PSoC5/SPIS_1_PM.c **** 
 175:.\Generated_Source\PSoC5/SPIS_1_PM.c ****     #if (SPIS_1_RX_SOFTWARE_BUF_ENABLED)
 176:.\Generated_Source\PSoC5/SPIS_1_PM.c ****         SPIS_1_rxBufferFull = 0u;
 177:.\Generated_Source\PSoC5/SPIS_1_PM.c ****         SPIS_1_rxBufferRead = 0u;
 178:.\Generated_Source\PSoC5/SPIS_1_PM.c ****         SPIS_1_rxBufferWrite = 0u;
 179:.\Generated_Source\PSoC5/SPIS_1_PM.c ****     #endif /* SPIS_1_RX_SOFTWARE_BUF_ENABLED */
 180:.\Generated_Source\PSoC5/SPIS_1_PM.c **** 
 181:.\Generated_Source\PSoC5/SPIS_1_PM.c ****     SPIS_1_ClearFIFO();
 152              		.loc 1 181 0
 153 0008 FFF7FEFF 		bl	SPIS_1_ClearFIFO
 182:.\Generated_Source\PSoC5/SPIS_1_PM.c **** 
 183:.\Generated_Source\PSoC5/SPIS_1_PM.c ****     /* Restore components block enable state */
 184:.\Generated_Source\PSoC5/SPIS_1_PM.c ****     if (SPIS_1_backup.enableState != 0u)
 154              		.loc 1 184 0
 155 000c 40F20003 		movw	r3, #:lower16:SPIS_1_backup
 156 0010 C0F20003 		movt	r3, #:upper16:SPIS_1_backup
 157 0014 1B78     		ldrb	r3, [r3, #0]	@ zero_extendqisi2
 158 0016 002B     		cmp	r3, #0
ARM GAS  C:\Users\Brian\AppData\Local\Temp\ccUvNigR.s 			page 7


 159 0018 01D0     		beq	.L6
 185:.\Generated_Source\PSoC5/SPIS_1_PM.c ****     {
 186:.\Generated_Source\PSoC5/SPIS_1_PM.c ****          /* Components block was enabled */
 187:.\Generated_Source\PSoC5/SPIS_1_PM.c ****          SPIS_1_Enable();
 160              		.loc 1 187 0
 161 001a FFF7FEFF 		bl	SPIS_1_Enable
 162              	.L6:
 188:.\Generated_Source\PSoC5/SPIS_1_PM.c ****     } /* Do nothing if components block was disabled */
 189:.\Generated_Source\PSoC5/SPIS_1_PM.c **** }
 163              		.loc 1 189 0
 164 001e 80BD     		pop	{r7, pc}
 165              		.cfi_endproc
 166              	.LFE3:
 167              		.size	SPIS_1_Wakeup, .-SPIS_1_Wakeup
 168              		.text
 169              	.Letext0:
 170              		.file 2 ".\\Generated_Source\\PSoC5\\cytypes.h"
 171              		.file 3 ".\\Generated_Source\\PSoC5\\SPIS_1.h"