ARM GAS  C:\Users\Brian\AppData\Local\Temp\cc5TmrUF.s 			page 1


   1              		.syntax unified
   2              		.cpu cortex-m3
   3              		.fpu softvfp
   4              		.eabi_attribute 20, 1
   5              		.eabi_attribute 21, 1
   6              		.eabi_attribute 23, 3
   7              		.eabi_attribute 24, 1
   8              		.eabi_attribute 25, 1
   9              		.eabi_attribute 26, 1
  10              		.eabi_attribute 30, 6
  11              		.eabi_attribute 34, 1
  12              		.eabi_attribute 18, 4
  13              		.thumb
  14              		.file	"TFTSHIELD_1_SPIM_1.c"
  15              		.text
  16              	.Ltext0:
  17              		.cfi_sections	.debug_frame
  18              		.global	TFTSHIELD_1_SPIM_1_initVar
  19              		.bss
  20              		.type	TFTSHIELD_1_SPIM_1_initVar, %object
  21              		.size	TFTSHIELD_1_SPIM_1_initVar, 1
  22              	TFTSHIELD_1_SPIM_1_initVar:
  23 0000 00       		.space	1
  24              		.comm	TFTSHIELD_1_SPIM_1_swStatusTx,1,1
  25              		.comm	TFTSHIELD_1_SPIM_1_swStatusRx,1,1
  26              		.section	.text.TFTSHIELD_1_SPIM_1_Init,"ax",%progbits
  27              		.align	2
  28              		.global	TFTSHIELD_1_SPIM_1_Init
  29              		.thumb
  30              		.thumb_func
  31              		.type	TFTSHIELD_1_SPIM_1_Init, %function
  32              	TFTSHIELD_1_SPIM_1_Init:
  33              	.LFB0:
  34              		.file 1 ".\\Generated_Source\\PSoC5\\TFTSHIELD_1_SPIM_1.c"
   1:.\Generated_Source\PSoC5/TFTSHIELD_1_SPIM_1.c **** /*******************************************************************************
   2:.\Generated_Source\PSoC5/TFTSHIELD_1_SPIM_1.c **** * File Name: TFTSHIELD_1_SPIM_1.c
   3:.\Generated_Source\PSoC5/TFTSHIELD_1_SPIM_1.c **** * Version 2.40
   4:.\Generated_Source\PSoC5/TFTSHIELD_1_SPIM_1.c **** *
   5:.\Generated_Source\PSoC5/TFTSHIELD_1_SPIM_1.c **** * Description:
   6:.\Generated_Source\PSoC5/TFTSHIELD_1_SPIM_1.c **** *  This file provides all API functionality of the SPI Master component.
   7:.\Generated_Source\PSoC5/TFTSHIELD_1_SPIM_1.c **** *
   8:.\Generated_Source\PSoC5/TFTSHIELD_1_SPIM_1.c **** * Note:
   9:.\Generated_Source\PSoC5/TFTSHIELD_1_SPIM_1.c **** *  None.
  10:.\Generated_Source\PSoC5/TFTSHIELD_1_SPIM_1.c **** *
  11:.\Generated_Source\PSoC5/TFTSHIELD_1_SPIM_1.c **** ********************************************************************************
  12:.\Generated_Source\PSoC5/TFTSHIELD_1_SPIM_1.c **** * Copyright 2008-2012, Cypress Semiconductor Corporation.  All rights reserved.
  13:.\Generated_Source\PSoC5/TFTSHIELD_1_SPIM_1.c **** * You may use this file only in accordance with the license, terms, conditions,
  14:.\Generated_Source\PSoC5/TFTSHIELD_1_SPIM_1.c **** * disclaimers, and limitations in the end user license agreement accompanying
  15:.\Generated_Source\PSoC5/TFTSHIELD_1_SPIM_1.c **** * the software package with which this file was provided.
  16:.\Generated_Source\PSoC5/TFTSHIELD_1_SPIM_1.c **** *******************************************************************************/
  17:.\Generated_Source\PSoC5/TFTSHIELD_1_SPIM_1.c **** 
  18:.\Generated_Source\PSoC5/TFTSHIELD_1_SPIM_1.c **** #include "TFTSHIELD_1_SPIM_1_PVT.h"
  19:.\Generated_Source\PSoC5/TFTSHIELD_1_SPIM_1.c **** 
  20:.\Generated_Source\PSoC5/TFTSHIELD_1_SPIM_1.c **** #if(TFTSHIELD_1_SPIM_1_TX_SOFTWARE_BUF_ENABLED)
  21:.\Generated_Source\PSoC5/TFTSHIELD_1_SPIM_1.c ****     volatile uint8 TFTSHIELD_1_SPIM_1_txBuffer[TFTSHIELD_1_SPIM_1_TX_BUFFER_SIZE] = {0u};
  22:.\Generated_Source\PSoC5/TFTSHIELD_1_SPIM_1.c ****     volatile uint8 TFTSHIELD_1_SPIM_1_txBufferFull;
  23:.\Generated_Source\PSoC5/TFTSHIELD_1_SPIM_1.c ****     volatile uint8 TFTSHIELD_1_SPIM_1_txBufferRead;
ARM GAS  C:\Users\Brian\AppData\Local\Temp\cc5TmrUF.s 			page 2


  24:.\Generated_Source\PSoC5/TFTSHIELD_1_SPIM_1.c ****     volatile uint8 TFTSHIELD_1_SPIM_1_txBufferWrite;
  25:.\Generated_Source\PSoC5/TFTSHIELD_1_SPIM_1.c **** #endif /* (TFTSHIELD_1_SPIM_1_TX_SOFTWARE_BUF_ENABLED) */
  26:.\Generated_Source\PSoC5/TFTSHIELD_1_SPIM_1.c **** 
  27:.\Generated_Source\PSoC5/TFTSHIELD_1_SPIM_1.c **** #if(TFTSHIELD_1_SPIM_1_RX_SOFTWARE_BUF_ENABLED)
  28:.\Generated_Source\PSoC5/TFTSHIELD_1_SPIM_1.c ****     volatile uint8 TFTSHIELD_1_SPIM_1_rxBuffer[TFTSHIELD_1_SPIM_1_RX_BUFFER_SIZE] = {0u};
  29:.\Generated_Source\PSoC5/TFTSHIELD_1_SPIM_1.c ****     volatile uint8 TFTSHIELD_1_SPIM_1_rxBufferFull;
  30:.\Generated_Source\PSoC5/TFTSHIELD_1_SPIM_1.c ****     volatile uint8 TFTSHIELD_1_SPIM_1_rxBufferRead;
  31:.\Generated_Source\PSoC5/TFTSHIELD_1_SPIM_1.c ****     volatile uint8 TFTSHIELD_1_SPIM_1_rxBufferWrite;
  32:.\Generated_Source\PSoC5/TFTSHIELD_1_SPIM_1.c **** #endif /* (TFTSHIELD_1_SPIM_1_RX_SOFTWARE_BUF_ENABLED) */
  33:.\Generated_Source\PSoC5/TFTSHIELD_1_SPIM_1.c **** 
  34:.\Generated_Source\PSoC5/TFTSHIELD_1_SPIM_1.c **** uint8 TFTSHIELD_1_SPIM_1_initVar = 0u;
  35:.\Generated_Source\PSoC5/TFTSHIELD_1_SPIM_1.c **** 
  36:.\Generated_Source\PSoC5/TFTSHIELD_1_SPIM_1.c **** volatile uint8 TFTSHIELD_1_SPIM_1_swStatusTx;
  37:.\Generated_Source\PSoC5/TFTSHIELD_1_SPIM_1.c **** volatile uint8 TFTSHIELD_1_SPIM_1_swStatusRx;
  38:.\Generated_Source\PSoC5/TFTSHIELD_1_SPIM_1.c **** 
  39:.\Generated_Source\PSoC5/TFTSHIELD_1_SPIM_1.c **** 
  40:.\Generated_Source\PSoC5/TFTSHIELD_1_SPIM_1.c **** /*******************************************************************************
  41:.\Generated_Source\PSoC5/TFTSHIELD_1_SPIM_1.c **** * Function Name: TFTSHIELD_1_SPIM_1_Init
  42:.\Generated_Source\PSoC5/TFTSHIELD_1_SPIM_1.c **** ********************************************************************************
  43:.\Generated_Source\PSoC5/TFTSHIELD_1_SPIM_1.c **** *
  44:.\Generated_Source\PSoC5/TFTSHIELD_1_SPIM_1.c **** * Summary:
  45:.\Generated_Source\PSoC5/TFTSHIELD_1_SPIM_1.c **** *  Inits/Restores default SPIM configuration provided with customizer.
  46:.\Generated_Source\PSoC5/TFTSHIELD_1_SPIM_1.c **** *
  47:.\Generated_Source\PSoC5/TFTSHIELD_1_SPIM_1.c **** * Parameters:
  48:.\Generated_Source\PSoC5/TFTSHIELD_1_SPIM_1.c **** *  None.
  49:.\Generated_Source\PSoC5/TFTSHIELD_1_SPIM_1.c **** *
  50:.\Generated_Source\PSoC5/TFTSHIELD_1_SPIM_1.c **** * Return:
  51:.\Generated_Source\PSoC5/TFTSHIELD_1_SPIM_1.c **** *  None.
  52:.\Generated_Source\PSoC5/TFTSHIELD_1_SPIM_1.c **** *
  53:.\Generated_Source\PSoC5/TFTSHIELD_1_SPIM_1.c **** * Side Effects:
  54:.\Generated_Source\PSoC5/TFTSHIELD_1_SPIM_1.c **** *  When this function is called it initializes all of the necessary parameters
  55:.\Generated_Source\PSoC5/TFTSHIELD_1_SPIM_1.c **** *  for execution. i.e. setting the initial interrupt mask, configuring the
  56:.\Generated_Source\PSoC5/TFTSHIELD_1_SPIM_1.c **** *  interrupt service routine, configuring the bit-counter parameters and
  57:.\Generated_Source\PSoC5/TFTSHIELD_1_SPIM_1.c **** *  clearing the FIFO and Status Register.
  58:.\Generated_Source\PSoC5/TFTSHIELD_1_SPIM_1.c **** *
  59:.\Generated_Source\PSoC5/TFTSHIELD_1_SPIM_1.c **** * Reentrant:
  60:.\Generated_Source\PSoC5/TFTSHIELD_1_SPIM_1.c **** *  No.
  61:.\Generated_Source\PSoC5/TFTSHIELD_1_SPIM_1.c **** *
  62:.\Generated_Source\PSoC5/TFTSHIELD_1_SPIM_1.c **** *******************************************************************************/
  63:.\Generated_Source\PSoC5/TFTSHIELD_1_SPIM_1.c **** void TFTSHIELD_1_SPIM_1_Init(void) 
  64:.\Generated_Source\PSoC5/TFTSHIELD_1_SPIM_1.c **** {
  35              		.loc 1 64 0
  36              		.cfi_startproc
  37              		@ args = 0, pretend = 0, frame = 0
  38              		@ frame_needed = 1, uses_anonymous_args = 0
  39 0000 80B5     		push	{r7, lr}
  40              	.LCFI0:
  41              		.cfi_def_cfa_offset 8
  42              		.cfi_offset 7, -8
  43              		.cfi_offset 14, -4
  44 0002 00AF     		add	r7, sp, #0
  45              	.LCFI1:
  46              		.cfi_def_cfa_register 7
  65:.\Generated_Source\PSoC5/TFTSHIELD_1_SPIM_1.c ****     /* Initialize the Bit counter */
  66:.\Generated_Source\PSoC5/TFTSHIELD_1_SPIM_1.c ****     TFTSHIELD_1_SPIM_1_COUNTER_PERIOD_REG = TFTSHIELD_1_SPIM_1_BITCTR_INIT;
  47              		.loc 1 66 0
  48 0004 46F28553 		movw	r3, #25989
ARM GAS  C:\Users\Brian\AppData\Local\Temp\cc5TmrUF.s 			page 3


  49 0008 C4F20003 		movt	r3, 16384
  50 000c 4FF00F02 		mov	r2, #15
  51 0010 1A70     		strb	r2, [r3, #0]
  67:.\Generated_Source\PSoC5/TFTSHIELD_1_SPIM_1.c **** 
  68:.\Generated_Source\PSoC5/TFTSHIELD_1_SPIM_1.c ****     /* Init TX ISR  */
  69:.\Generated_Source\PSoC5/TFTSHIELD_1_SPIM_1.c ****     #if(0u != TFTSHIELD_1_SPIM_1_INTERNAL_TX_INT_ENABLED)
  70:.\Generated_Source\PSoC5/TFTSHIELD_1_SPIM_1.c ****         CyIntDisable         (TFTSHIELD_1_SPIM_1_TX_ISR_NUMBER);
  52              		.loc 1 70 0
  53 0012 4EF28013 		movw	r3, #57728
  54 0016 CEF20003 		movt	r3, 57344
  55 001a 4FF00202 		mov	r2, #2
  56 001e 1A60     		str	r2, [r3, #0]
  71:.\Generated_Source\PSoC5/TFTSHIELD_1_SPIM_1.c ****         CyIntSetPriority     (TFTSHIELD_1_SPIM_1_TX_ISR_NUMBER,  TFTSHIELD_1_SPIM_1_TX_ISR_PRIORITY
  57              		.loc 1 71 0
  58 0020 4FF00100 		mov	r0, #1
  59 0024 4FF00701 		mov	r1, #7
  60 0028 FFF7FEFF 		bl	CyIntSetPriority
  72:.\Generated_Source\PSoC5/TFTSHIELD_1_SPIM_1.c ****         (void) CyIntSetVector(TFTSHIELD_1_SPIM_1_TX_ISR_NUMBER, &TFTSHIELD_1_SPIM_1_TX_ISR);
  61              		.loc 1 72 0
  62 002c 4FF00100 		mov	r0, #1
  63 0030 40F20001 		movw	r1, #:lower16:TFTSHIELD_1_SPIM_1_TX_ISR
  64 0034 C0F20001 		movt	r1, #:upper16:TFTSHIELD_1_SPIM_1_TX_ISR
  65 0038 FFF7FEFF 		bl	CyIntSetVector
  73:.\Generated_Source\PSoC5/TFTSHIELD_1_SPIM_1.c ****     #endif /* (0u != TFTSHIELD_1_SPIM_1_INTERNAL_TX_INT_ENABLED) */
  74:.\Generated_Source\PSoC5/TFTSHIELD_1_SPIM_1.c **** 
  75:.\Generated_Source\PSoC5/TFTSHIELD_1_SPIM_1.c ****     /* Init RX ISR  */
  76:.\Generated_Source\PSoC5/TFTSHIELD_1_SPIM_1.c ****     #if(0u != TFTSHIELD_1_SPIM_1_INTERNAL_RX_INT_ENABLED)
  77:.\Generated_Source\PSoC5/TFTSHIELD_1_SPIM_1.c ****         CyIntDisable         (TFTSHIELD_1_SPIM_1_RX_ISR_NUMBER);
  66              		.loc 1 77 0
  67 003c 4EF28013 		movw	r3, #57728
  68 0040 CEF20003 		movt	r3, 57344
  69 0044 4FF00102 		mov	r2, #1
  70 0048 1A60     		str	r2, [r3, #0]
  78:.\Generated_Source\PSoC5/TFTSHIELD_1_SPIM_1.c ****         CyIntSetPriority     (TFTSHIELD_1_SPIM_1_RX_ISR_NUMBER,  TFTSHIELD_1_SPIM_1_RX_ISR_PRIORITY
  71              		.loc 1 78 0
  72 004a 4FF00000 		mov	r0, #0
  73 004e 4FF00701 		mov	r1, #7
  74 0052 FFF7FEFF 		bl	CyIntSetPriority
  79:.\Generated_Source\PSoC5/TFTSHIELD_1_SPIM_1.c ****         (void) CyIntSetVector(TFTSHIELD_1_SPIM_1_RX_ISR_NUMBER, &TFTSHIELD_1_SPIM_1_RX_ISR);
  75              		.loc 1 79 0
  76 0056 4FF00000 		mov	r0, #0
  77 005a 40F20001 		movw	r1, #:lower16:TFTSHIELD_1_SPIM_1_RX_ISR
  78 005e C0F20001 		movt	r1, #:upper16:TFTSHIELD_1_SPIM_1_RX_ISR
  79 0062 FFF7FEFF 		bl	CyIntSetVector
  80:.\Generated_Source\PSoC5/TFTSHIELD_1_SPIM_1.c ****     #endif /* (0u != TFTSHIELD_1_SPIM_1_INTERNAL_RX_INT_ENABLED) */
  81:.\Generated_Source\PSoC5/TFTSHIELD_1_SPIM_1.c **** 
  82:.\Generated_Source\PSoC5/TFTSHIELD_1_SPIM_1.c ****     /* Clear any stray data from the RX and TX FIFO */
  83:.\Generated_Source\PSoC5/TFTSHIELD_1_SPIM_1.c ****     TFTSHIELD_1_SPIM_1_ClearFIFO();
  80              		.loc 1 83 0
  81 0066 FFF7FEFF 		bl	TFTSHIELD_1_SPIM_1_ClearFIFO
  84:.\Generated_Source\PSoC5/TFTSHIELD_1_SPIM_1.c **** 
  85:.\Generated_Source\PSoC5/TFTSHIELD_1_SPIM_1.c ****     #if(TFTSHIELD_1_SPIM_1_RX_SOFTWARE_BUF_ENABLED)
  86:.\Generated_Source\PSoC5/TFTSHIELD_1_SPIM_1.c ****         TFTSHIELD_1_SPIM_1_rxBufferFull  = 0u;
  87:.\Generated_Source\PSoC5/TFTSHIELD_1_SPIM_1.c ****         TFTSHIELD_1_SPIM_1_rxBufferRead  = 0u;
  88:.\Generated_Source\PSoC5/TFTSHIELD_1_SPIM_1.c ****         TFTSHIELD_1_SPIM_1_rxBufferWrite = 0u;
  89:.\Generated_Source\PSoC5/TFTSHIELD_1_SPIM_1.c ****     #endif /* (TFTSHIELD_1_SPIM_1_RX_SOFTWARE_BUF_ENABLED) */
  90:.\Generated_Source\PSoC5/TFTSHIELD_1_SPIM_1.c **** 
ARM GAS  C:\Users\Brian\AppData\Local\Temp\cc5TmrUF.s 			page 4


  91:.\Generated_Source\PSoC5/TFTSHIELD_1_SPIM_1.c ****     #if(TFTSHIELD_1_SPIM_1_TX_SOFTWARE_BUF_ENABLED)
  92:.\Generated_Source\PSoC5/TFTSHIELD_1_SPIM_1.c ****         TFTSHIELD_1_SPIM_1_txBufferFull  = 0u;
  93:.\Generated_Source\PSoC5/TFTSHIELD_1_SPIM_1.c ****         TFTSHIELD_1_SPIM_1_txBufferRead  = 0u;
  94:.\Generated_Source\PSoC5/TFTSHIELD_1_SPIM_1.c ****         TFTSHIELD_1_SPIM_1_txBufferWrite = 0u;
  95:.\Generated_Source\PSoC5/TFTSHIELD_1_SPIM_1.c ****     #endif /* (TFTSHIELD_1_SPIM_1_TX_SOFTWARE_BUF_ENABLED) */
  96:.\Generated_Source\PSoC5/TFTSHIELD_1_SPIM_1.c **** 
  97:.\Generated_Source\PSoC5/TFTSHIELD_1_SPIM_1.c ****     (void) TFTSHIELD_1_SPIM_1_ReadTxStatus(); /* Clear Tx status and swStatusTx */
  82              		.loc 1 97 0
  83 006a FFF7FEFF 		bl	TFTSHIELD_1_SPIM_1_ReadTxStatus
  98:.\Generated_Source\PSoC5/TFTSHIELD_1_SPIM_1.c ****     (void) TFTSHIELD_1_SPIM_1_ReadRxStatus(); /* Clear Rx status and swStatusRx */
  84              		.loc 1 98 0
  85 006e FFF7FEFF 		bl	TFTSHIELD_1_SPIM_1_ReadRxStatus
  99:.\Generated_Source\PSoC5/TFTSHIELD_1_SPIM_1.c **** 
 100:.\Generated_Source\PSoC5/TFTSHIELD_1_SPIM_1.c ****     /* Configure TX and RX interrupt mask */
 101:.\Generated_Source\PSoC5/TFTSHIELD_1_SPIM_1.c ****     TFTSHIELD_1_SPIM_1_TX_STATUS_MASK_REG = TFTSHIELD_1_SPIM_1_TX_INIT_INTERRUPTS_MASK;
  86              		.loc 1 101 0
  87 0072 46F28743 		movw	r3, #25735
  88 0076 C4F20003 		movt	r3, 16384
  89 007a 4FF00802 		mov	r2, #8
  90 007e 1A70     		strb	r2, [r3, #0]
 102:.\Generated_Source\PSoC5/TFTSHIELD_1_SPIM_1.c ****     TFTSHIELD_1_SPIM_1_RX_STATUS_MASK_REG = TFTSHIELD_1_SPIM_1_RX_INIT_INTERRUPTS_MASK;
  91              		.loc 1 102 0
  92 0080 46F28453 		movw	r3, #25988
  93 0084 C4F20003 		movt	r3, 16384
  94 0088 4FF00002 		mov	r2, #0
  95 008c 1A70     		strb	r2, [r3, #0]
 103:.\Generated_Source\PSoC5/TFTSHIELD_1_SPIM_1.c **** }
  96              		.loc 1 103 0
  97 008e 80BD     		pop	{r7, pc}
  98              		.cfi_endproc
  99              	.LFE0:
 100              		.size	TFTSHIELD_1_SPIM_1_Init, .-TFTSHIELD_1_SPIM_1_Init
 101              		.section	.text.TFTSHIELD_1_SPIM_1_Enable,"ax",%progbits
 102              		.align	2
 103              		.global	TFTSHIELD_1_SPIM_1_Enable
 104              		.thumb
 105              		.thumb_func
 106              		.type	TFTSHIELD_1_SPIM_1_Enable, %function
 107              	TFTSHIELD_1_SPIM_1_Enable:
 108              	.LFB1:
 104:.\Generated_Source\PSoC5/TFTSHIELD_1_SPIM_1.c **** 
 105:.\Generated_Source\PSoC5/TFTSHIELD_1_SPIM_1.c **** 
 106:.\Generated_Source\PSoC5/TFTSHIELD_1_SPIM_1.c **** /*******************************************************************************
 107:.\Generated_Source\PSoC5/TFTSHIELD_1_SPIM_1.c **** * Function Name: TFTSHIELD_1_SPIM_1_Enable
 108:.\Generated_Source\PSoC5/TFTSHIELD_1_SPIM_1.c **** ********************************************************************************
 109:.\Generated_Source\PSoC5/TFTSHIELD_1_SPIM_1.c **** *
 110:.\Generated_Source\PSoC5/TFTSHIELD_1_SPIM_1.c **** * Summary:
 111:.\Generated_Source\PSoC5/TFTSHIELD_1_SPIM_1.c **** *  Enable SPIM component.
 112:.\Generated_Source\PSoC5/TFTSHIELD_1_SPIM_1.c **** *
 113:.\Generated_Source\PSoC5/TFTSHIELD_1_SPIM_1.c **** * Parameters:
 114:.\Generated_Source\PSoC5/TFTSHIELD_1_SPIM_1.c **** *  None.
 115:.\Generated_Source\PSoC5/TFTSHIELD_1_SPIM_1.c **** *
 116:.\Generated_Source\PSoC5/TFTSHIELD_1_SPIM_1.c **** * Return:
 117:.\Generated_Source\PSoC5/TFTSHIELD_1_SPIM_1.c **** *  None.
 118:.\Generated_Source\PSoC5/TFTSHIELD_1_SPIM_1.c **** *
 119:.\Generated_Source\PSoC5/TFTSHIELD_1_SPIM_1.c **** *******************************************************************************/
 120:.\Generated_Source\PSoC5/TFTSHIELD_1_SPIM_1.c **** void TFTSHIELD_1_SPIM_1_Enable(void) 
ARM GAS  C:\Users\Brian\AppData\Local\Temp\cc5TmrUF.s 			page 5


 121:.\Generated_Source\PSoC5/TFTSHIELD_1_SPIM_1.c **** {
 109              		.loc 1 121 0
 110              		.cfi_startproc
 111              		@ args = 0, pretend = 0, frame = 8
 112              		@ frame_needed = 1, uses_anonymous_args = 0
 113 0000 80B5     		push	{r7, lr}
 114              	.LCFI2:
 115              		.cfi_def_cfa_offset 8
 116              		.cfi_offset 7, -8
 117              		.cfi_offset 14, -4
 118 0002 82B0     		sub	sp, sp, #8
 119              	.LCFI3:
 120              		.cfi_def_cfa_offset 16
 121 0004 00AF     		add	r7, sp, #0
 122              	.LCFI4:
 123              		.cfi_def_cfa_register 7
 122:.\Generated_Source\PSoC5/TFTSHIELD_1_SPIM_1.c ****     uint8 enableInterrupts;
 123:.\Generated_Source\PSoC5/TFTSHIELD_1_SPIM_1.c **** 
 124:.\Generated_Source\PSoC5/TFTSHIELD_1_SPIM_1.c ****     enableInterrupts = CyEnterCriticalSection();
 124              		.loc 1 124 0
 125 0006 FFF7FEFF 		bl	CyEnterCriticalSection
 126 000a 0346     		mov	r3, r0
 127 000c FB71     		strb	r3, [r7, #7]
 125:.\Generated_Source\PSoC5/TFTSHIELD_1_SPIM_1.c ****     TFTSHIELD_1_SPIM_1_COUNTER_CONTROL_REG |= TFTSHIELD_1_SPIM_1_CNTR_ENABLE;
 128              		.loc 1 125 0
 129 000e 46F29553 		movw	r3, #26005
 130 0012 C4F20003 		movt	r3, 16384
 131 0016 46F29552 		movw	r2, #26005
 132 001a C4F20002 		movt	r2, 16384
 133 001e 1278     		ldrb	r2, [r2, #0]
 134 0020 D2B2     		uxtb	r2, r2
 135 0022 42F02002 		orr	r2, r2, #32
 136 0026 D2B2     		uxtb	r2, r2
 137 0028 1A70     		strb	r2, [r3, #0]
 126:.\Generated_Source\PSoC5/TFTSHIELD_1_SPIM_1.c ****     TFTSHIELD_1_SPIM_1_TX_STATUS_ACTL_REG  |= TFTSHIELD_1_SPIM_1_INT_ENABLE;
 138              		.loc 1 126 0
 139 002a 46F29743 		movw	r3, #25751
 140 002e C4F20003 		movt	r3, 16384
 141 0032 46F29742 		movw	r2, #25751
 142 0036 C4F20002 		movt	r2, 16384
 143 003a 1278     		ldrb	r2, [r2, #0]
 144 003c D2B2     		uxtb	r2, r2
 145 003e 42F01002 		orr	r2, r2, #16
 146 0042 D2B2     		uxtb	r2, r2
 147 0044 1A70     		strb	r2, [r3, #0]
 127:.\Generated_Source\PSoC5/TFTSHIELD_1_SPIM_1.c ****     TFTSHIELD_1_SPIM_1_RX_STATUS_ACTL_REG  |= TFTSHIELD_1_SPIM_1_INT_ENABLE;
 148              		.loc 1 127 0
 149 0046 46F29453 		movw	r3, #26004
 150 004a C4F20003 		movt	r3, 16384
 151 004e 46F29452 		movw	r2, #26004
 152 0052 C4F20002 		movt	r2, 16384
 153 0056 1278     		ldrb	r2, [r2, #0]
 154 0058 D2B2     		uxtb	r2, r2
 155 005a 42F01002 		orr	r2, r2, #16
 156 005e D2B2     		uxtb	r2, r2
 157 0060 1A70     		strb	r2, [r3, #0]
 128:.\Generated_Source\PSoC5/TFTSHIELD_1_SPIM_1.c ****     CyExitCriticalSection(enableInterrupts);
ARM GAS  C:\Users\Brian\AppData\Local\Temp\cc5TmrUF.s 			page 6


 158              		.loc 1 128 0
 159 0062 FB79     		ldrb	r3, [r7, #7]	@ zero_extendqisi2
 160 0064 1846     		mov	r0, r3
 161 0066 FFF7FEFF 		bl	CyExitCriticalSection
 129:.\Generated_Source\PSoC5/TFTSHIELD_1_SPIM_1.c **** 
 130:.\Generated_Source\PSoC5/TFTSHIELD_1_SPIM_1.c ****     #if(0u != TFTSHIELD_1_SPIM_1_INTERNAL_CLOCK)
 131:.\Generated_Source\PSoC5/TFTSHIELD_1_SPIM_1.c ****         TFTSHIELD_1_SPIM_1_IntClock_Enable();
 132:.\Generated_Source\PSoC5/TFTSHIELD_1_SPIM_1.c ****     #endif /* (0u != TFTSHIELD_1_SPIM_1_INTERNAL_CLOCK) */
 133:.\Generated_Source\PSoC5/TFTSHIELD_1_SPIM_1.c **** 
 134:.\Generated_Source\PSoC5/TFTSHIELD_1_SPIM_1.c ****     TFTSHIELD_1_SPIM_1_EnableTxInt();
 162              		.loc 1 134 0
 163 006a FFF7FEFF 		bl	TFTSHIELD_1_SPIM_1_EnableTxInt
 135:.\Generated_Source\PSoC5/TFTSHIELD_1_SPIM_1.c ****     TFTSHIELD_1_SPIM_1_EnableRxInt();
 164              		.loc 1 135 0
 165 006e FFF7FEFF 		bl	TFTSHIELD_1_SPIM_1_EnableRxInt
 136:.\Generated_Source\PSoC5/TFTSHIELD_1_SPIM_1.c **** }
 166              		.loc 1 136 0
 167 0072 07F10807 		add	r7, r7, #8
 168 0076 BD46     		mov	sp, r7
 169 0078 80BD     		pop	{r7, pc}
 170              		.cfi_endproc
 171              	.LFE1:
 172              		.size	TFTSHIELD_1_SPIM_1_Enable, .-TFTSHIELD_1_SPIM_1_Enable
 173              		.section	.text.TFTSHIELD_1_SPIM_1_Start,"ax",%progbits
 174              		.align	2
 175              		.global	TFTSHIELD_1_SPIM_1_Start
 176              		.thumb
 177              		.thumb_func
 178              		.type	TFTSHIELD_1_SPIM_1_Start, %function
 179              	TFTSHIELD_1_SPIM_1_Start:
 180              	.LFB2:
 137:.\Generated_Source\PSoC5/TFTSHIELD_1_SPIM_1.c **** 
 138:.\Generated_Source\PSoC5/TFTSHIELD_1_SPIM_1.c **** 
 139:.\Generated_Source\PSoC5/TFTSHIELD_1_SPIM_1.c **** /*******************************************************************************
 140:.\Generated_Source\PSoC5/TFTSHIELD_1_SPIM_1.c **** * Function Name: TFTSHIELD_1_SPIM_1_Start
 141:.\Generated_Source\PSoC5/TFTSHIELD_1_SPIM_1.c **** ********************************************************************************
 142:.\Generated_Source\PSoC5/TFTSHIELD_1_SPIM_1.c **** *
 143:.\Generated_Source\PSoC5/TFTSHIELD_1_SPIM_1.c **** * Summary:
 144:.\Generated_Source\PSoC5/TFTSHIELD_1_SPIM_1.c **** *  Initialize and Enable the SPI Master component.
 145:.\Generated_Source\PSoC5/TFTSHIELD_1_SPIM_1.c **** *
 146:.\Generated_Source\PSoC5/TFTSHIELD_1_SPIM_1.c **** * Parameters:
 147:.\Generated_Source\PSoC5/TFTSHIELD_1_SPIM_1.c **** *  None.
 148:.\Generated_Source\PSoC5/TFTSHIELD_1_SPIM_1.c **** *
 149:.\Generated_Source\PSoC5/TFTSHIELD_1_SPIM_1.c **** * Return:
 150:.\Generated_Source\PSoC5/TFTSHIELD_1_SPIM_1.c **** *  None.
 151:.\Generated_Source\PSoC5/TFTSHIELD_1_SPIM_1.c **** *
 152:.\Generated_Source\PSoC5/TFTSHIELD_1_SPIM_1.c **** * Global variables:
 153:.\Generated_Source\PSoC5/TFTSHIELD_1_SPIM_1.c **** *  TFTSHIELD_1_SPIM_1_initVar - used to check initial configuration, modified on
 154:.\Generated_Source\PSoC5/TFTSHIELD_1_SPIM_1.c **** *  first function call.
 155:.\Generated_Source\PSoC5/TFTSHIELD_1_SPIM_1.c **** *
 156:.\Generated_Source\PSoC5/TFTSHIELD_1_SPIM_1.c **** * Theory:
 157:.\Generated_Source\PSoC5/TFTSHIELD_1_SPIM_1.c **** *  Enable the clock input to enable operation.
 158:.\Generated_Source\PSoC5/TFTSHIELD_1_SPIM_1.c **** *
 159:.\Generated_Source\PSoC5/TFTSHIELD_1_SPIM_1.c **** * Reentrant:
 160:.\Generated_Source\PSoC5/TFTSHIELD_1_SPIM_1.c **** *  No.
 161:.\Generated_Source\PSoC5/TFTSHIELD_1_SPIM_1.c **** *
 162:.\Generated_Source\PSoC5/TFTSHIELD_1_SPIM_1.c **** *******************************************************************************/
ARM GAS  C:\Users\Brian\AppData\Local\Temp\cc5TmrUF.s 			page 7


 163:.\Generated_Source\PSoC5/TFTSHIELD_1_SPIM_1.c **** void TFTSHIELD_1_SPIM_1_Start(void) 
 164:.\Generated_Source\PSoC5/TFTSHIELD_1_SPIM_1.c **** {
 181              		.loc 1 164 0
 182              		.cfi_startproc
 183              		@ args = 0, pretend = 0, frame = 0
 184              		@ frame_needed = 1, uses_anonymous_args = 0
 185 0000 80B5     		push	{r7, lr}
 186              	.LCFI5:
 187              		.cfi_def_cfa_offset 8
 188              		.cfi_offset 7, -8
 189              		.cfi_offset 14, -4
 190 0002 00AF     		add	r7, sp, #0
 191              	.LCFI6:
 192              		.cfi_def_cfa_register 7
 165:.\Generated_Source\PSoC5/TFTSHIELD_1_SPIM_1.c ****     if(0u == TFTSHIELD_1_SPIM_1_initVar)
 193              		.loc 1 165 0
 194 0004 40F20003 		movw	r3, #:lower16:TFTSHIELD_1_SPIM_1_initVar
 195 0008 C0F20003 		movt	r3, #:upper16:TFTSHIELD_1_SPIM_1_initVar
 196 000c 1B78     		ldrb	r3, [r3, #0]	@ zero_extendqisi2
 197 000e 002B     		cmp	r3, #0
 198 0010 08D1     		bne	.L4
 166:.\Generated_Source\PSoC5/TFTSHIELD_1_SPIM_1.c ****     {
 167:.\Generated_Source\PSoC5/TFTSHIELD_1_SPIM_1.c ****         TFTSHIELD_1_SPIM_1_Init();
 199              		.loc 1 167 0
 200 0012 FFF7FEFF 		bl	TFTSHIELD_1_SPIM_1_Init
 168:.\Generated_Source\PSoC5/TFTSHIELD_1_SPIM_1.c ****         TFTSHIELD_1_SPIM_1_initVar = 1u;
 201              		.loc 1 168 0
 202 0016 40F20003 		movw	r3, #:lower16:TFTSHIELD_1_SPIM_1_initVar
 203 001a C0F20003 		movt	r3, #:upper16:TFTSHIELD_1_SPIM_1_initVar
 204 001e 4FF00102 		mov	r2, #1
 205 0022 1A70     		strb	r2, [r3, #0]
 206              	.L4:
 169:.\Generated_Source\PSoC5/TFTSHIELD_1_SPIM_1.c ****     }
 170:.\Generated_Source\PSoC5/TFTSHIELD_1_SPIM_1.c **** 
 171:.\Generated_Source\PSoC5/TFTSHIELD_1_SPIM_1.c ****     TFTSHIELD_1_SPIM_1_Enable();
 207              		.loc 1 171 0
 208 0024 FFF7FEFF 		bl	TFTSHIELD_1_SPIM_1_Enable
 172:.\Generated_Source\PSoC5/TFTSHIELD_1_SPIM_1.c **** }
 209              		.loc 1 172 0
 210 0028 80BD     		pop	{r7, pc}
 211              		.cfi_endproc
 212              	.LFE2:
 213              		.size	TFTSHIELD_1_SPIM_1_Start, .-TFTSHIELD_1_SPIM_1_Start
 214 002a 00BF     		.section	.text.TFTSHIELD_1_SPIM_1_Stop,"ax",%progbits
 215              		.align	2
 216              		.global	TFTSHIELD_1_SPIM_1_Stop
 217              		.thumb
 218              		.thumb_func
 219              		.type	TFTSHIELD_1_SPIM_1_Stop, %function
 220              	TFTSHIELD_1_SPIM_1_Stop:
 221              	.LFB3:
 173:.\Generated_Source\PSoC5/TFTSHIELD_1_SPIM_1.c **** 
 174:.\Generated_Source\PSoC5/TFTSHIELD_1_SPIM_1.c **** 
 175:.\Generated_Source\PSoC5/TFTSHIELD_1_SPIM_1.c **** /*******************************************************************************
 176:.\Generated_Source\PSoC5/TFTSHIELD_1_SPIM_1.c **** * Function Name: TFTSHIELD_1_SPIM_1_Stop
 177:.\Generated_Source\PSoC5/TFTSHIELD_1_SPIM_1.c **** ********************************************************************************
 178:.\Generated_Source\PSoC5/TFTSHIELD_1_SPIM_1.c **** *
ARM GAS  C:\Users\Brian\AppData\Local\Temp\cc5TmrUF.s 			page 8


 179:.\Generated_Source\PSoC5/TFTSHIELD_1_SPIM_1.c **** * Summary:
 180:.\Generated_Source\PSoC5/TFTSHIELD_1_SPIM_1.c **** *  Disable the SPI Master component.
 181:.\Generated_Source\PSoC5/TFTSHIELD_1_SPIM_1.c **** *
 182:.\Generated_Source\PSoC5/TFTSHIELD_1_SPIM_1.c **** * Parameters:
 183:.\Generated_Source\PSoC5/TFTSHIELD_1_SPIM_1.c **** *  None.
 184:.\Generated_Source\PSoC5/TFTSHIELD_1_SPIM_1.c **** *
 185:.\Generated_Source\PSoC5/TFTSHIELD_1_SPIM_1.c **** * Return:
 186:.\Generated_Source\PSoC5/TFTSHIELD_1_SPIM_1.c **** *  None.
 187:.\Generated_Source\PSoC5/TFTSHIELD_1_SPIM_1.c **** *
 188:.\Generated_Source\PSoC5/TFTSHIELD_1_SPIM_1.c **** * Theory:
 189:.\Generated_Source\PSoC5/TFTSHIELD_1_SPIM_1.c **** *  Disable the clock input to enable operation.
 190:.\Generated_Source\PSoC5/TFTSHIELD_1_SPIM_1.c **** *
 191:.\Generated_Source\PSoC5/TFTSHIELD_1_SPIM_1.c **** *******************************************************************************/
 192:.\Generated_Source\PSoC5/TFTSHIELD_1_SPIM_1.c **** void TFTSHIELD_1_SPIM_1_Stop(void) 
 193:.\Generated_Source\PSoC5/TFTSHIELD_1_SPIM_1.c **** {
 222              		.loc 1 193 0
 223              		.cfi_startproc
 224              		@ args = 0, pretend = 0, frame = 8
 225              		@ frame_needed = 1, uses_anonymous_args = 0
 226 0000 80B5     		push	{r7, lr}
 227              	.LCFI7:
 228              		.cfi_def_cfa_offset 8
 229              		.cfi_offset 7, -8
 230              		.cfi_offset 14, -4
 231 0002 82B0     		sub	sp, sp, #8
 232              	.LCFI8:
 233              		.cfi_def_cfa_offset 16
 234 0004 00AF     		add	r7, sp, #0
 235              	.LCFI9:
 236              		.cfi_def_cfa_register 7
 194:.\Generated_Source\PSoC5/TFTSHIELD_1_SPIM_1.c ****     uint8 enableInterrupts;
 195:.\Generated_Source\PSoC5/TFTSHIELD_1_SPIM_1.c **** 
 196:.\Generated_Source\PSoC5/TFTSHIELD_1_SPIM_1.c ****     enableInterrupts = CyEnterCriticalSection();
 237              		.loc 1 196 0
 238 0006 FFF7FEFF 		bl	CyEnterCriticalSection
 239 000a 0346     		mov	r3, r0
 240 000c FB71     		strb	r3, [r7, #7]
 197:.\Generated_Source\PSoC5/TFTSHIELD_1_SPIM_1.c ****     TFTSHIELD_1_SPIM_1_TX_STATUS_ACTL_REG &= ((uint8) ~TFTSHIELD_1_SPIM_1_INT_ENABLE);
 241              		.loc 1 197 0
 242 000e 46F29743 		movw	r3, #25751
 243 0012 C4F20003 		movt	r3, 16384
 244 0016 46F29742 		movw	r2, #25751
 245 001a C4F20002 		movt	r2, 16384
 246 001e 1278     		ldrb	r2, [r2, #0]
 247 0020 D2B2     		uxtb	r2, r2
 248 0022 22F01002 		bic	r2, r2, #16
 249 0026 D2B2     		uxtb	r2, r2
 250 0028 1A70     		strb	r2, [r3, #0]
 198:.\Generated_Source\PSoC5/TFTSHIELD_1_SPIM_1.c ****     TFTSHIELD_1_SPIM_1_RX_STATUS_ACTL_REG &= ((uint8) ~TFTSHIELD_1_SPIM_1_INT_ENABLE);
 251              		.loc 1 198 0
 252 002a 46F29453 		movw	r3, #26004
 253 002e C4F20003 		movt	r3, 16384
 254 0032 46F29452 		movw	r2, #26004
 255 0036 C4F20002 		movt	r2, 16384
 256 003a 1278     		ldrb	r2, [r2, #0]
 257 003c D2B2     		uxtb	r2, r2
 258 003e 22F01002 		bic	r2, r2, #16
ARM GAS  C:\Users\Brian\AppData\Local\Temp\cc5TmrUF.s 			page 9


 259 0042 D2B2     		uxtb	r2, r2
 260 0044 1A70     		strb	r2, [r3, #0]
 199:.\Generated_Source\PSoC5/TFTSHIELD_1_SPIM_1.c ****     CyExitCriticalSection(enableInterrupts);
 261              		.loc 1 199 0
 262 0046 FB79     		ldrb	r3, [r7, #7]	@ zero_extendqisi2
 263 0048 1846     		mov	r0, r3
 264 004a FFF7FEFF 		bl	CyExitCriticalSection
 200:.\Generated_Source\PSoC5/TFTSHIELD_1_SPIM_1.c **** 
 201:.\Generated_Source\PSoC5/TFTSHIELD_1_SPIM_1.c ****     #if(0u != TFTSHIELD_1_SPIM_1_INTERNAL_CLOCK)
 202:.\Generated_Source\PSoC5/TFTSHIELD_1_SPIM_1.c ****         TFTSHIELD_1_SPIM_1_IntClock_Disable();
 203:.\Generated_Source\PSoC5/TFTSHIELD_1_SPIM_1.c ****     #endif /* (0u != TFTSHIELD_1_SPIM_1_INTERNAL_CLOCK) */
 204:.\Generated_Source\PSoC5/TFTSHIELD_1_SPIM_1.c **** 
 205:.\Generated_Source\PSoC5/TFTSHIELD_1_SPIM_1.c ****     TFTSHIELD_1_SPIM_1_DisableTxInt();
 265              		.loc 1 205 0
 266 004e FFF7FEFF 		bl	TFTSHIELD_1_SPIM_1_DisableTxInt
 206:.\Generated_Source\PSoC5/TFTSHIELD_1_SPIM_1.c ****     TFTSHIELD_1_SPIM_1_DisableRxInt();
 267              		.loc 1 206 0
 268 0052 FFF7FEFF 		bl	TFTSHIELD_1_SPIM_1_DisableRxInt
 207:.\Generated_Source\PSoC5/TFTSHIELD_1_SPIM_1.c **** }
 269              		.loc 1 207 0
 270 0056 07F10807 		add	r7, r7, #8
 271 005a BD46     		mov	sp, r7
 272 005c 80BD     		pop	{r7, pc}
 273              		.cfi_endproc
 274              	.LFE3:
 275              		.size	TFTSHIELD_1_SPIM_1_Stop, .-TFTSHIELD_1_SPIM_1_Stop
 276 005e 00BF     		.section	.text.TFTSHIELD_1_SPIM_1_EnableTxInt,"ax",%progbits
 277              		.align	2
 278              		.global	TFTSHIELD_1_SPIM_1_EnableTxInt
 279              		.thumb
 280              		.thumb_func
 281              		.type	TFTSHIELD_1_SPIM_1_EnableTxInt, %function
 282              	TFTSHIELD_1_SPIM_1_EnableTxInt:
 283              	.LFB4:
 208:.\Generated_Source\PSoC5/TFTSHIELD_1_SPIM_1.c **** 
 209:.\Generated_Source\PSoC5/TFTSHIELD_1_SPIM_1.c **** 
 210:.\Generated_Source\PSoC5/TFTSHIELD_1_SPIM_1.c **** /*******************************************************************************
 211:.\Generated_Source\PSoC5/TFTSHIELD_1_SPIM_1.c **** * Function Name: TFTSHIELD_1_SPIM_1_EnableTxInt
 212:.\Generated_Source\PSoC5/TFTSHIELD_1_SPIM_1.c **** ********************************************************************************
 213:.\Generated_Source\PSoC5/TFTSHIELD_1_SPIM_1.c **** *
 214:.\Generated_Source\PSoC5/TFTSHIELD_1_SPIM_1.c **** * Summary:
 215:.\Generated_Source\PSoC5/TFTSHIELD_1_SPIM_1.c **** *  Enable internal Tx interrupt generation.
 216:.\Generated_Source\PSoC5/TFTSHIELD_1_SPIM_1.c **** *
 217:.\Generated_Source\PSoC5/TFTSHIELD_1_SPIM_1.c **** * Parameters:
 218:.\Generated_Source\PSoC5/TFTSHIELD_1_SPIM_1.c **** *  None.
 219:.\Generated_Source\PSoC5/TFTSHIELD_1_SPIM_1.c **** *
 220:.\Generated_Source\PSoC5/TFTSHIELD_1_SPIM_1.c **** * Return:
 221:.\Generated_Source\PSoC5/TFTSHIELD_1_SPIM_1.c **** *  None.
 222:.\Generated_Source\PSoC5/TFTSHIELD_1_SPIM_1.c **** *
 223:.\Generated_Source\PSoC5/TFTSHIELD_1_SPIM_1.c **** * Theory:
 224:.\Generated_Source\PSoC5/TFTSHIELD_1_SPIM_1.c **** *  Enable the internal Tx interrupt output -or- the interrupt component itself.
 225:.\Generated_Source\PSoC5/TFTSHIELD_1_SPIM_1.c **** *
 226:.\Generated_Source\PSoC5/TFTSHIELD_1_SPIM_1.c **** *******************************************************************************/
 227:.\Generated_Source\PSoC5/TFTSHIELD_1_SPIM_1.c **** void TFTSHIELD_1_SPIM_1_EnableTxInt(void) 
 228:.\Generated_Source\PSoC5/TFTSHIELD_1_SPIM_1.c **** {
 284              		.loc 1 228 0
 285              		.cfi_startproc
ARM GAS  C:\Users\Brian\AppData\Local\Temp\cc5TmrUF.s 			page 10


 286              		@ args = 0, pretend = 0, frame = 0
 287              		@ frame_needed = 1, uses_anonymous_args = 0
 288              		@ link register save eliminated.
 289 0000 80B4     		push	{r7}
 290              	.LCFI10:
 291              		.cfi_def_cfa_offset 4
 292              		.cfi_offset 7, -4
 293 0002 00AF     		add	r7, sp, #0
 294              	.LCFI11:
 295              		.cfi_def_cfa_register 7
 229:.\Generated_Source\PSoC5/TFTSHIELD_1_SPIM_1.c ****     #if(0u != TFTSHIELD_1_SPIM_1_INTERNAL_TX_INT_ENABLED)
 230:.\Generated_Source\PSoC5/TFTSHIELD_1_SPIM_1.c ****         CyIntEnable(TFTSHIELD_1_SPIM_1_TX_ISR_NUMBER);
 296              		.loc 1 230 0
 297 0004 4FF46143 		mov	r3, #57600
 298 0008 CEF20003 		movt	r3, 57344
 299 000c 4FF00202 		mov	r2, #2
 300 0010 1A60     		str	r2, [r3, #0]
 231:.\Generated_Source\PSoC5/TFTSHIELD_1_SPIM_1.c ****     #endif /* (0u != TFTSHIELD_1_SPIM_1_INTERNAL_TX_INT_ENABLED) */
 232:.\Generated_Source\PSoC5/TFTSHIELD_1_SPIM_1.c **** }
 301              		.loc 1 232 0
 302 0012 BD46     		mov	sp, r7
 303 0014 80BC     		pop	{r7}
 304 0016 7047     		bx	lr
 305              		.cfi_endproc
 306              	.LFE4:
 307              		.size	TFTSHIELD_1_SPIM_1_EnableTxInt, .-TFTSHIELD_1_SPIM_1_EnableTxInt
 308              		.section	.text.TFTSHIELD_1_SPIM_1_EnableRxInt,"ax",%progbits
 309              		.align	2
 310              		.global	TFTSHIELD_1_SPIM_1_EnableRxInt
 311              		.thumb
 312              		.thumb_func
 313              		.type	TFTSHIELD_1_SPIM_1_EnableRxInt, %function
 314              	TFTSHIELD_1_SPIM_1_EnableRxInt:
 315              	.LFB5:
 233:.\Generated_Source\PSoC5/TFTSHIELD_1_SPIM_1.c **** 
 234:.\Generated_Source\PSoC5/TFTSHIELD_1_SPIM_1.c **** 
 235:.\Generated_Source\PSoC5/TFTSHIELD_1_SPIM_1.c **** /*******************************************************************************
 236:.\Generated_Source\PSoC5/TFTSHIELD_1_SPIM_1.c **** * Function Name: TFTSHIELD_1_SPIM_1_EnableRxInt
 237:.\Generated_Source\PSoC5/TFTSHIELD_1_SPIM_1.c **** ********************************************************************************
 238:.\Generated_Source\PSoC5/TFTSHIELD_1_SPIM_1.c **** *
 239:.\Generated_Source\PSoC5/TFTSHIELD_1_SPIM_1.c **** * Summary:
 240:.\Generated_Source\PSoC5/TFTSHIELD_1_SPIM_1.c **** *  Enable internal Rx interrupt generation.
 241:.\Generated_Source\PSoC5/TFTSHIELD_1_SPIM_1.c **** *
 242:.\Generated_Source\PSoC5/TFTSHIELD_1_SPIM_1.c **** * Parameters:
 243:.\Generated_Source\PSoC5/TFTSHIELD_1_SPIM_1.c **** *  None.
 244:.\Generated_Source\PSoC5/TFTSHIELD_1_SPIM_1.c **** *
 245:.\Generated_Source\PSoC5/TFTSHIELD_1_SPIM_1.c **** * Return:
 246:.\Generated_Source\PSoC5/TFTSHIELD_1_SPIM_1.c **** *  None.
 247:.\Generated_Source\PSoC5/TFTSHIELD_1_SPIM_1.c **** *
 248:.\Generated_Source\PSoC5/TFTSHIELD_1_SPIM_1.c **** * Theory:
 249:.\Generated_Source\PSoC5/TFTSHIELD_1_SPIM_1.c **** *  Enable the internal Rx interrupt output -or- the interrupt component itself.
 250:.\Generated_Source\PSoC5/TFTSHIELD_1_SPIM_1.c **** *
 251:.\Generated_Source\PSoC5/TFTSHIELD_1_SPIM_1.c **** *******************************************************************************/
 252:.\Generated_Source\PSoC5/TFTSHIELD_1_SPIM_1.c **** void TFTSHIELD_1_SPIM_1_EnableRxInt(void) 
 253:.\Generated_Source\PSoC5/TFTSHIELD_1_SPIM_1.c **** {
 316              		.loc 1 253 0
 317              		.cfi_startproc
ARM GAS  C:\Users\Brian\AppData\Local\Temp\cc5TmrUF.s 			page 11


 318              		@ args = 0, pretend = 0, frame = 0
 319              		@ frame_needed = 1, uses_anonymous_args = 0
 320              		@ link register save eliminated.
 321 0000 80B4     		push	{r7}
 322              	.LCFI12:
 323              		.cfi_def_cfa_offset 4
 324              		.cfi_offset 7, -4
 325 0002 00AF     		add	r7, sp, #0
 326              	.LCFI13:
 327              		.cfi_def_cfa_register 7
 254:.\Generated_Source\PSoC5/TFTSHIELD_1_SPIM_1.c ****     #if(0u != TFTSHIELD_1_SPIM_1_INTERNAL_RX_INT_ENABLED)
 255:.\Generated_Source\PSoC5/TFTSHIELD_1_SPIM_1.c ****         CyIntEnable(TFTSHIELD_1_SPIM_1_RX_ISR_NUMBER);
 328              		.loc 1 255 0
 329 0004 4FF46143 		mov	r3, #57600
 330 0008 CEF20003 		movt	r3, 57344
 331 000c 4FF00102 		mov	r2, #1
 332 0010 1A60     		str	r2, [r3, #0]
 256:.\Generated_Source\PSoC5/TFTSHIELD_1_SPIM_1.c ****     #endif /* (0u != TFTSHIELD_1_SPIM_1_INTERNAL_RX_INT_ENABLED) */
 257:.\Generated_Source\PSoC5/TFTSHIELD_1_SPIM_1.c **** }
 333              		.loc 1 257 0
 334 0012 BD46     		mov	sp, r7
 335 0014 80BC     		pop	{r7}
 336 0016 7047     		bx	lr
 337              		.cfi_endproc
 338              	.LFE5:
 339              		.size	TFTSHIELD_1_SPIM_1_EnableRxInt, .-TFTSHIELD_1_SPIM_1_EnableRxInt
 340              		.section	.text.TFTSHIELD_1_SPIM_1_DisableTxInt,"ax",%progbits
 341              		.align	2
 342              		.global	TFTSHIELD_1_SPIM_1_DisableTxInt
 343              		.thumb
 344              		.thumb_func
 345              		.type	TFTSHIELD_1_SPIM_1_DisableTxInt, %function
 346              	TFTSHIELD_1_SPIM_1_DisableTxInt:
 347              	.LFB6:
 258:.\Generated_Source\PSoC5/TFTSHIELD_1_SPIM_1.c **** 
 259:.\Generated_Source\PSoC5/TFTSHIELD_1_SPIM_1.c **** 
 260:.\Generated_Source\PSoC5/TFTSHIELD_1_SPIM_1.c **** /*******************************************************************************
 261:.\Generated_Source\PSoC5/TFTSHIELD_1_SPIM_1.c **** * Function Name: TFTSHIELD_1_SPIM_1_DisableTxInt
 262:.\Generated_Source\PSoC5/TFTSHIELD_1_SPIM_1.c **** ********************************************************************************
 263:.\Generated_Source\PSoC5/TFTSHIELD_1_SPIM_1.c **** *
 264:.\Generated_Source\PSoC5/TFTSHIELD_1_SPIM_1.c **** * Summary:
 265:.\Generated_Source\PSoC5/TFTSHIELD_1_SPIM_1.c **** *  Disable internal Tx interrupt generation.
 266:.\Generated_Source\PSoC5/TFTSHIELD_1_SPIM_1.c **** *
 267:.\Generated_Source\PSoC5/TFTSHIELD_1_SPIM_1.c **** * Parameters:
 268:.\Generated_Source\PSoC5/TFTSHIELD_1_SPIM_1.c **** *  None.
 269:.\Generated_Source\PSoC5/TFTSHIELD_1_SPIM_1.c **** *
 270:.\Generated_Source\PSoC5/TFTSHIELD_1_SPIM_1.c **** * Return:
 271:.\Generated_Source\PSoC5/TFTSHIELD_1_SPIM_1.c **** *  None.
 272:.\Generated_Source\PSoC5/TFTSHIELD_1_SPIM_1.c **** *
 273:.\Generated_Source\PSoC5/TFTSHIELD_1_SPIM_1.c **** * Theory:
 274:.\Generated_Source\PSoC5/TFTSHIELD_1_SPIM_1.c **** *  Disable the internal Tx interrupt output -or- the interrupt component itself.
 275:.\Generated_Source\PSoC5/TFTSHIELD_1_SPIM_1.c **** *
 276:.\Generated_Source\PSoC5/TFTSHIELD_1_SPIM_1.c **** *******************************************************************************/
 277:.\Generated_Source\PSoC5/TFTSHIELD_1_SPIM_1.c **** void TFTSHIELD_1_SPIM_1_DisableTxInt(void) 
 278:.\Generated_Source\PSoC5/TFTSHIELD_1_SPIM_1.c **** {
 348              		.loc 1 278 0
 349              		.cfi_startproc
ARM GAS  C:\Users\Brian\AppData\Local\Temp\cc5TmrUF.s 			page 12


 350              		@ args = 0, pretend = 0, frame = 0
 351              		@ frame_needed = 1, uses_anonymous_args = 0
 352              		@ link register save eliminated.
 353 0000 80B4     		push	{r7}
 354              	.LCFI14:
 355              		.cfi_def_cfa_offset 4
 356              		.cfi_offset 7, -4
 357 0002 00AF     		add	r7, sp, #0
 358              	.LCFI15:
 359              		.cfi_def_cfa_register 7
 279:.\Generated_Source\PSoC5/TFTSHIELD_1_SPIM_1.c ****     #if(0u != TFTSHIELD_1_SPIM_1_INTERNAL_TX_INT_ENABLED)
 280:.\Generated_Source\PSoC5/TFTSHIELD_1_SPIM_1.c ****         CyIntDisable(TFTSHIELD_1_SPIM_1_TX_ISR_NUMBER);
 360              		.loc 1 280 0
 361 0004 4EF28013 		movw	r3, #57728
 362 0008 CEF20003 		movt	r3, 57344
 363 000c 4FF00202 		mov	r2, #2
 364 0010 1A60     		str	r2, [r3, #0]
 281:.\Generated_Source\PSoC5/TFTSHIELD_1_SPIM_1.c ****     #endif /* (0u != TFTSHIELD_1_SPIM_1_INTERNAL_TX_INT_ENABLED) */
 282:.\Generated_Source\PSoC5/TFTSHIELD_1_SPIM_1.c **** }
 365              		.loc 1 282 0
 366 0012 BD46     		mov	sp, r7
 367 0014 80BC     		pop	{r7}
 368 0016 7047     		bx	lr
 369              		.cfi_endproc
 370              	.LFE6:
 371              		.size	TFTSHIELD_1_SPIM_1_DisableTxInt, .-TFTSHIELD_1_SPIM_1_DisableTxInt
 372              		.section	.text.TFTSHIELD_1_SPIM_1_DisableRxInt,"ax",%progbits
 373              		.align	2
 374              		.global	TFTSHIELD_1_SPIM_1_DisableRxInt
 375              		.thumb
 376              		.thumb_func
 377              		.type	TFTSHIELD_1_SPIM_1_DisableRxInt, %function
 378              	TFTSHIELD_1_SPIM_1_DisableRxInt:
 379              	.LFB7:
 283:.\Generated_Source\PSoC5/TFTSHIELD_1_SPIM_1.c **** 
 284:.\Generated_Source\PSoC5/TFTSHIELD_1_SPIM_1.c **** 
 285:.\Generated_Source\PSoC5/TFTSHIELD_1_SPIM_1.c **** /*******************************************************************************
 286:.\Generated_Source\PSoC5/TFTSHIELD_1_SPIM_1.c **** * Function Name: TFTSHIELD_1_SPIM_1_DisableRxInt
 287:.\Generated_Source\PSoC5/TFTSHIELD_1_SPIM_1.c **** ********************************************************************************
 288:.\Generated_Source\PSoC5/TFTSHIELD_1_SPIM_1.c **** *
 289:.\Generated_Source\PSoC5/TFTSHIELD_1_SPIM_1.c **** * Summary:
 290:.\Generated_Source\PSoC5/TFTSHIELD_1_SPIM_1.c **** *  Disable internal Rx interrupt generation.
 291:.\Generated_Source\PSoC5/TFTSHIELD_1_SPIM_1.c **** *
 292:.\Generated_Source\PSoC5/TFTSHIELD_1_SPIM_1.c **** * Parameters:
 293:.\Generated_Source\PSoC5/TFTSHIELD_1_SPIM_1.c **** *  None.
 294:.\Generated_Source\PSoC5/TFTSHIELD_1_SPIM_1.c **** *
 295:.\Generated_Source\PSoC5/TFTSHIELD_1_SPIM_1.c **** * Return:
 296:.\Generated_Source\PSoC5/TFTSHIELD_1_SPIM_1.c **** *  None.
 297:.\Generated_Source\PSoC5/TFTSHIELD_1_SPIM_1.c **** *
 298:.\Generated_Source\PSoC5/TFTSHIELD_1_SPIM_1.c **** * Theory:
 299:.\Generated_Source\PSoC5/TFTSHIELD_1_SPIM_1.c **** *  Disable the internal Rx interrupt output -or- the interrupt component itself.
 300:.\Generated_Source\PSoC5/TFTSHIELD_1_SPIM_1.c **** *
 301:.\Generated_Source\PSoC5/TFTSHIELD_1_SPIM_1.c **** *******************************************************************************/
 302:.\Generated_Source\PSoC5/TFTSHIELD_1_SPIM_1.c **** void TFTSHIELD_1_SPIM_1_DisableRxInt(void) 
 303:.\Generated_Source\PSoC5/TFTSHIELD_1_SPIM_1.c **** {
 380              		.loc 1 303 0
 381              		.cfi_startproc
ARM GAS  C:\Users\Brian\AppData\Local\Temp\cc5TmrUF.s 			page 13


 382              		@ args = 0, pretend = 0, frame = 0
 383              		@ frame_needed = 1, uses_anonymous_args = 0
 384              		@ link register save eliminated.
 385 0000 80B4     		push	{r7}
 386              	.LCFI16:
 387              		.cfi_def_cfa_offset 4
 388              		.cfi_offset 7, -4
 389 0002 00AF     		add	r7, sp, #0
 390              	.LCFI17:
 391              		.cfi_def_cfa_register 7
 304:.\Generated_Source\PSoC5/TFTSHIELD_1_SPIM_1.c ****     #if(0u != TFTSHIELD_1_SPIM_1_INTERNAL_RX_INT_ENABLED)
 305:.\Generated_Source\PSoC5/TFTSHIELD_1_SPIM_1.c ****         CyIntDisable(TFTSHIELD_1_SPIM_1_RX_ISR_NUMBER);
 392              		.loc 1 305 0
 393 0004 4EF28013 		movw	r3, #57728
 394 0008 CEF20003 		movt	r3, 57344
 395 000c 4FF00102 		mov	r2, #1
 396 0010 1A60     		str	r2, [r3, #0]
 306:.\Generated_Source\PSoC5/TFTSHIELD_1_SPIM_1.c ****     #endif /* (0u != TFTSHIELD_1_SPIM_1_INTERNAL_RX_INT_ENABLED) */
 307:.\Generated_Source\PSoC5/TFTSHIELD_1_SPIM_1.c **** }
 397              		.loc 1 307 0
 398 0012 BD46     		mov	sp, r7
 399 0014 80BC     		pop	{r7}
 400 0016 7047     		bx	lr
 401              		.cfi_endproc
 402              	.LFE7:
 403              		.size	TFTSHIELD_1_SPIM_1_DisableRxInt, .-TFTSHIELD_1_SPIM_1_DisableRxInt
 404              		.section	.text.TFTSHIELD_1_SPIM_1_SetTxInterruptMode,"ax",%progbits
 405              		.align	2
 406              		.global	TFTSHIELD_1_SPIM_1_SetTxInterruptMode
 407              		.thumb
 408              		.thumb_func
 409              		.type	TFTSHIELD_1_SPIM_1_SetTxInterruptMode, %function
 410              	TFTSHIELD_1_SPIM_1_SetTxInterruptMode:
 411              	.LFB8:
 308:.\Generated_Source\PSoC5/TFTSHIELD_1_SPIM_1.c **** 
 309:.\Generated_Source\PSoC5/TFTSHIELD_1_SPIM_1.c **** 
 310:.\Generated_Source\PSoC5/TFTSHIELD_1_SPIM_1.c **** /*******************************************************************************
 311:.\Generated_Source\PSoC5/TFTSHIELD_1_SPIM_1.c **** * Function Name: TFTSHIELD_1_SPIM_1_SetTxInterruptMode
 312:.\Generated_Source\PSoC5/TFTSHIELD_1_SPIM_1.c **** ********************************************************************************
 313:.\Generated_Source\PSoC5/TFTSHIELD_1_SPIM_1.c **** *
 314:.\Generated_Source\PSoC5/TFTSHIELD_1_SPIM_1.c **** * Summary:
 315:.\Generated_Source\PSoC5/TFTSHIELD_1_SPIM_1.c **** *  Configure which status bits trigger an interrupt event.
 316:.\Generated_Source\PSoC5/TFTSHIELD_1_SPIM_1.c **** *
 317:.\Generated_Source\PSoC5/TFTSHIELD_1_SPIM_1.c **** * Parameters:
 318:.\Generated_Source\PSoC5/TFTSHIELD_1_SPIM_1.c **** *  intSrc: An or'd combination of the desired status bit masks (defined in the
 319:.\Generated_Source\PSoC5/TFTSHIELD_1_SPIM_1.c **** *  header file).
 320:.\Generated_Source\PSoC5/TFTSHIELD_1_SPIM_1.c **** *
 321:.\Generated_Source\PSoC5/TFTSHIELD_1_SPIM_1.c **** * Return:
 322:.\Generated_Source\PSoC5/TFTSHIELD_1_SPIM_1.c **** *  None.
 323:.\Generated_Source\PSoC5/TFTSHIELD_1_SPIM_1.c **** *
 324:.\Generated_Source\PSoC5/TFTSHIELD_1_SPIM_1.c **** * Theory:
 325:.\Generated_Source\PSoC5/TFTSHIELD_1_SPIM_1.c **** *  Enables the output of specific status bits to the interrupt controller.
 326:.\Generated_Source\PSoC5/TFTSHIELD_1_SPIM_1.c **** *
 327:.\Generated_Source\PSoC5/TFTSHIELD_1_SPIM_1.c **** *******************************************************************************/
 328:.\Generated_Source\PSoC5/TFTSHIELD_1_SPIM_1.c **** void TFTSHIELD_1_SPIM_1_SetTxInterruptMode(uint8 intSrc) 
 329:.\Generated_Source\PSoC5/TFTSHIELD_1_SPIM_1.c **** {
 412              		.loc 1 329 0
ARM GAS  C:\Users\Brian\AppData\Local\Temp\cc5TmrUF.s 			page 14


 413              		.cfi_startproc
 414              		@ args = 0, pretend = 0, frame = 8
 415              		@ frame_needed = 1, uses_anonymous_args = 0
 416              		@ link register save eliminated.
 417 0000 80B4     		push	{r7}
 418              	.LCFI18:
 419              		.cfi_def_cfa_offset 4
 420              		.cfi_offset 7, -4
 421 0002 83B0     		sub	sp, sp, #12
 422              	.LCFI19:
 423              		.cfi_def_cfa_offset 16
 424 0004 00AF     		add	r7, sp, #0
 425              	.LCFI20:
 426              		.cfi_def_cfa_register 7
 427 0006 0346     		mov	r3, r0
 428 0008 FB71     		strb	r3, [r7, #7]
 330:.\Generated_Source\PSoC5/TFTSHIELD_1_SPIM_1.c ****     TFTSHIELD_1_SPIM_1_TX_STATUS_MASK_REG = intSrc;
 429              		.loc 1 330 0
 430 000a 46F28743 		movw	r3, #25735
 431 000e C4F20003 		movt	r3, 16384
 432 0012 FA79     		ldrb	r2, [r7, #7]
 433 0014 1A70     		strb	r2, [r3, #0]
 331:.\Generated_Source\PSoC5/TFTSHIELD_1_SPIM_1.c **** }
 434              		.loc 1 331 0
 435 0016 07F10C07 		add	r7, r7, #12
 436 001a BD46     		mov	sp, r7
 437 001c 80BC     		pop	{r7}
 438 001e 7047     		bx	lr
 439              		.cfi_endproc
 440              	.LFE8:
 441              		.size	TFTSHIELD_1_SPIM_1_SetTxInterruptMode, .-TFTSHIELD_1_SPIM_1_SetTxInterruptMode
 442              		.section	.text.TFTSHIELD_1_SPIM_1_SetRxInterruptMode,"ax",%progbits
 443              		.align	2
 444              		.global	TFTSHIELD_1_SPIM_1_SetRxInterruptMode
 445              		.thumb
 446              		.thumb_func
 447              		.type	TFTSHIELD_1_SPIM_1_SetRxInterruptMode, %function
 448              	TFTSHIELD_1_SPIM_1_SetRxInterruptMode:
 449              	.LFB9:
 332:.\Generated_Source\PSoC5/TFTSHIELD_1_SPIM_1.c **** 
 333:.\Generated_Source\PSoC5/TFTSHIELD_1_SPIM_1.c **** 
 334:.\Generated_Source\PSoC5/TFTSHIELD_1_SPIM_1.c **** /*******************************************************************************
 335:.\Generated_Source\PSoC5/TFTSHIELD_1_SPIM_1.c **** * Function Name: TFTSHIELD_1_SPIM_1_SetRxInterruptMode
 336:.\Generated_Source\PSoC5/TFTSHIELD_1_SPIM_1.c **** ********************************************************************************
 337:.\Generated_Source\PSoC5/TFTSHIELD_1_SPIM_1.c **** *
 338:.\Generated_Source\PSoC5/TFTSHIELD_1_SPIM_1.c **** * Summary:
 339:.\Generated_Source\PSoC5/TFTSHIELD_1_SPIM_1.c **** *  Configure which status bits trigger an interrupt event.
 340:.\Generated_Source\PSoC5/TFTSHIELD_1_SPIM_1.c **** *
 341:.\Generated_Source\PSoC5/TFTSHIELD_1_SPIM_1.c **** * Parameters:
 342:.\Generated_Source\PSoC5/TFTSHIELD_1_SPIM_1.c **** *  intSrc: An or'd combination of the desired status bit masks (defined in the
 343:.\Generated_Source\PSoC5/TFTSHIELD_1_SPIM_1.c **** *  header file).
 344:.\Generated_Source\PSoC5/TFTSHIELD_1_SPIM_1.c **** *
 345:.\Generated_Source\PSoC5/TFTSHIELD_1_SPIM_1.c **** * Return:
 346:.\Generated_Source\PSoC5/TFTSHIELD_1_SPIM_1.c **** *  None.
 347:.\Generated_Source\PSoC5/TFTSHIELD_1_SPIM_1.c **** *
 348:.\Generated_Source\PSoC5/TFTSHIELD_1_SPIM_1.c **** * Theory:
 349:.\Generated_Source\PSoC5/TFTSHIELD_1_SPIM_1.c **** *  Enables the output of specific status bits to the interrupt controller.
ARM GAS  C:\Users\Brian\AppData\Local\Temp\cc5TmrUF.s 			page 15


 350:.\Generated_Source\PSoC5/TFTSHIELD_1_SPIM_1.c **** *
 351:.\Generated_Source\PSoC5/TFTSHIELD_1_SPIM_1.c **** *******************************************************************************/
 352:.\Generated_Source\PSoC5/TFTSHIELD_1_SPIM_1.c **** void TFTSHIELD_1_SPIM_1_SetRxInterruptMode(uint8 intSrc) 
 353:.\Generated_Source\PSoC5/TFTSHIELD_1_SPIM_1.c **** {
 450              		.loc 1 353 0
 451              		.cfi_startproc
 452              		@ args = 0, pretend = 0, frame = 8
 453              		@ frame_needed = 1, uses_anonymous_args = 0
 454              		@ link register save eliminated.
 455 0000 80B4     		push	{r7}
 456              	.LCFI21:
 457              		.cfi_def_cfa_offset 4
 458              		.cfi_offset 7, -4
 459 0002 83B0     		sub	sp, sp, #12
 460              	.LCFI22:
 461              		.cfi_def_cfa_offset 16
 462 0004 00AF     		add	r7, sp, #0
 463              	.LCFI23:
 464              		.cfi_def_cfa_register 7
 465 0006 0346     		mov	r3, r0
 466 0008 FB71     		strb	r3, [r7, #7]
 354:.\Generated_Source\PSoC5/TFTSHIELD_1_SPIM_1.c ****     TFTSHIELD_1_SPIM_1_RX_STATUS_MASK_REG  = intSrc;
 467              		.loc 1 354 0
 468 000a 46F28453 		movw	r3, #25988
 469 000e C4F20003 		movt	r3, 16384
 470 0012 FA79     		ldrb	r2, [r7, #7]
 471 0014 1A70     		strb	r2, [r3, #0]
 355:.\Generated_Source\PSoC5/TFTSHIELD_1_SPIM_1.c **** }
 472              		.loc 1 355 0
 473 0016 07F10C07 		add	r7, r7, #12
 474 001a BD46     		mov	sp, r7
 475 001c 80BC     		pop	{r7}
 476 001e 7047     		bx	lr
 477              		.cfi_endproc
 478              	.LFE9:
 479              		.size	TFTSHIELD_1_SPIM_1_SetRxInterruptMode, .-TFTSHIELD_1_SPIM_1_SetRxInterruptMode
 480              		.section	.text.TFTSHIELD_1_SPIM_1_ReadTxStatus,"ax",%progbits
 481              		.align	2
 482              		.global	TFTSHIELD_1_SPIM_1_ReadTxStatus
 483              		.thumb
 484              		.thumb_func
 485              		.type	TFTSHIELD_1_SPIM_1_ReadTxStatus, %function
 486              	TFTSHIELD_1_SPIM_1_ReadTxStatus:
 487              	.LFB10:
 356:.\Generated_Source\PSoC5/TFTSHIELD_1_SPIM_1.c **** 
 357:.\Generated_Source\PSoC5/TFTSHIELD_1_SPIM_1.c **** 
 358:.\Generated_Source\PSoC5/TFTSHIELD_1_SPIM_1.c **** /*******************************************************************************
 359:.\Generated_Source\PSoC5/TFTSHIELD_1_SPIM_1.c **** * Function Name: TFTSHIELD_1_SPIM_1_ReadTxStatus
 360:.\Generated_Source\PSoC5/TFTSHIELD_1_SPIM_1.c **** ********************************************************************************
 361:.\Generated_Source\PSoC5/TFTSHIELD_1_SPIM_1.c **** *
 362:.\Generated_Source\PSoC5/TFTSHIELD_1_SPIM_1.c **** * Summary:
 363:.\Generated_Source\PSoC5/TFTSHIELD_1_SPIM_1.c **** *  Read the Tx status register for the component.
 364:.\Generated_Source\PSoC5/TFTSHIELD_1_SPIM_1.c **** *
 365:.\Generated_Source\PSoC5/TFTSHIELD_1_SPIM_1.c **** * Parameters:
 366:.\Generated_Source\PSoC5/TFTSHIELD_1_SPIM_1.c **** *  None.
 367:.\Generated_Source\PSoC5/TFTSHIELD_1_SPIM_1.c **** *
 368:.\Generated_Source\PSoC5/TFTSHIELD_1_SPIM_1.c **** * Return:
ARM GAS  C:\Users\Brian\AppData\Local\Temp\cc5TmrUF.s 			page 16


 369:.\Generated_Source\PSoC5/TFTSHIELD_1_SPIM_1.c **** *  Contents of the Tx status register.
 370:.\Generated_Source\PSoC5/TFTSHIELD_1_SPIM_1.c **** *
 371:.\Generated_Source\PSoC5/TFTSHIELD_1_SPIM_1.c **** * Global variables:
 372:.\Generated_Source\PSoC5/TFTSHIELD_1_SPIM_1.c **** *  TFTSHIELD_1_SPIM_1_swStatusTx - used to store in software status register,
 373:.\Generated_Source\PSoC5/TFTSHIELD_1_SPIM_1.c **** *  modified every function call - resets to zero.
 374:.\Generated_Source\PSoC5/TFTSHIELD_1_SPIM_1.c **** *
 375:.\Generated_Source\PSoC5/TFTSHIELD_1_SPIM_1.c **** * Theory:
 376:.\Generated_Source\PSoC5/TFTSHIELD_1_SPIM_1.c **** *  Allows the user and the API to read the Tx status register for error
 377:.\Generated_Source\PSoC5/TFTSHIELD_1_SPIM_1.c **** *  detection and flow control.
 378:.\Generated_Source\PSoC5/TFTSHIELD_1_SPIM_1.c **** *
 379:.\Generated_Source\PSoC5/TFTSHIELD_1_SPIM_1.c **** * Side Effects:
 380:.\Generated_Source\PSoC5/TFTSHIELD_1_SPIM_1.c **** *  Clear Tx status register of the component.
 381:.\Generated_Source\PSoC5/TFTSHIELD_1_SPIM_1.c **** *
 382:.\Generated_Source\PSoC5/TFTSHIELD_1_SPIM_1.c **** * Reentrant:
 383:.\Generated_Source\PSoC5/TFTSHIELD_1_SPIM_1.c **** *  No.
 384:.\Generated_Source\PSoC5/TFTSHIELD_1_SPIM_1.c **** *
 385:.\Generated_Source\PSoC5/TFTSHIELD_1_SPIM_1.c **** *******************************************************************************/
 386:.\Generated_Source\PSoC5/TFTSHIELD_1_SPIM_1.c **** uint8 TFTSHIELD_1_SPIM_1_ReadTxStatus(void) 
 387:.\Generated_Source\PSoC5/TFTSHIELD_1_SPIM_1.c **** {
 488              		.loc 1 387 0
 489              		.cfi_startproc
 490              		@ args = 0, pretend = 0, frame = 8
 491              		@ frame_needed = 1, uses_anonymous_args = 0
 492              		@ link register save eliminated.
 493 0000 80B4     		push	{r7}
 494              	.LCFI24:
 495              		.cfi_def_cfa_offset 4
 496              		.cfi_offset 7, -4
 497 0002 83B0     		sub	sp, sp, #12
 498              	.LCFI25:
 499              		.cfi_def_cfa_offset 16
 500 0004 00AF     		add	r7, sp, #0
 501              	.LCFI26:
 502              		.cfi_def_cfa_register 7
 388:.\Generated_Source\PSoC5/TFTSHIELD_1_SPIM_1.c ****     uint8 tmpStatus;
 389:.\Generated_Source\PSoC5/TFTSHIELD_1_SPIM_1.c **** 
 390:.\Generated_Source\PSoC5/TFTSHIELD_1_SPIM_1.c ****     #if(TFTSHIELD_1_SPIM_1_TX_SOFTWARE_BUF_ENABLED)
 391:.\Generated_Source\PSoC5/TFTSHIELD_1_SPIM_1.c ****         /* Disable TX interrupt to protect global veriables */
 392:.\Generated_Source\PSoC5/TFTSHIELD_1_SPIM_1.c ****         TFTSHIELD_1_SPIM_1_DisableTxInt();
 393:.\Generated_Source\PSoC5/TFTSHIELD_1_SPIM_1.c **** 
 394:.\Generated_Source\PSoC5/TFTSHIELD_1_SPIM_1.c ****         tmpStatus = TFTSHIELD_1_SPIM_1_GET_STATUS_TX(TFTSHIELD_1_SPIM_1_swStatusTx);
 395:.\Generated_Source\PSoC5/TFTSHIELD_1_SPIM_1.c ****         TFTSHIELD_1_SPIM_1_swStatusTx = 0u;
 396:.\Generated_Source\PSoC5/TFTSHIELD_1_SPIM_1.c **** 
 397:.\Generated_Source\PSoC5/TFTSHIELD_1_SPIM_1.c ****         TFTSHIELD_1_SPIM_1_EnableTxInt();
 398:.\Generated_Source\PSoC5/TFTSHIELD_1_SPIM_1.c **** 
 399:.\Generated_Source\PSoC5/TFTSHIELD_1_SPIM_1.c ****     #else
 400:.\Generated_Source\PSoC5/TFTSHIELD_1_SPIM_1.c **** 
 401:.\Generated_Source\PSoC5/TFTSHIELD_1_SPIM_1.c ****         tmpStatus = TFTSHIELD_1_SPIM_1_TX_STATUS_REG;
 503              		.loc 1 401 0
 504 0006 46F26743 		movw	r3, #25703
 505 000a C4F20003 		movt	r3, 16384
 506 000e 1B78     		ldrb	r3, [r3, #0]
 507 0010 FB71     		strb	r3, [r7, #7]
 402:.\Generated_Source\PSoC5/TFTSHIELD_1_SPIM_1.c **** 
 403:.\Generated_Source\PSoC5/TFTSHIELD_1_SPIM_1.c ****     #endif /* (TFTSHIELD_1_SPIM_1_TX_SOFTWARE_BUF_ENABLED) */
 404:.\Generated_Source\PSoC5/TFTSHIELD_1_SPIM_1.c **** 
 405:.\Generated_Source\PSoC5/TFTSHIELD_1_SPIM_1.c ****     return(tmpStatus);
ARM GAS  C:\Users\Brian\AppData\Local\Temp\cc5TmrUF.s 			page 17


 508              		.loc 1 405 0
 509 0012 FB79     		ldrb	r3, [r7, #7]	@ zero_extendqisi2
 406:.\Generated_Source\PSoC5/TFTSHIELD_1_SPIM_1.c **** }
 510              		.loc 1 406 0
 511 0014 1846     		mov	r0, r3
 512 0016 07F10C07 		add	r7, r7, #12
 513 001a BD46     		mov	sp, r7
 514 001c 80BC     		pop	{r7}
 515 001e 7047     		bx	lr
 516              		.cfi_endproc
 517              	.LFE10:
 518              		.size	TFTSHIELD_1_SPIM_1_ReadTxStatus, .-TFTSHIELD_1_SPIM_1_ReadTxStatus
 519              		.section	.text.TFTSHIELD_1_SPIM_1_ReadRxStatus,"ax",%progbits
 520              		.align	2
 521              		.global	TFTSHIELD_1_SPIM_1_ReadRxStatus
 522              		.thumb
 523              		.thumb_func
 524              		.type	TFTSHIELD_1_SPIM_1_ReadRxStatus, %function
 525              	TFTSHIELD_1_SPIM_1_ReadRxStatus:
 526              	.LFB11:
 407:.\Generated_Source\PSoC5/TFTSHIELD_1_SPIM_1.c **** 
 408:.\Generated_Source\PSoC5/TFTSHIELD_1_SPIM_1.c **** 
 409:.\Generated_Source\PSoC5/TFTSHIELD_1_SPIM_1.c **** /*******************************************************************************
 410:.\Generated_Source\PSoC5/TFTSHIELD_1_SPIM_1.c **** * Function Name: TFTSHIELD_1_SPIM_1_ReadRxStatus
 411:.\Generated_Source\PSoC5/TFTSHIELD_1_SPIM_1.c **** ********************************************************************************
 412:.\Generated_Source\PSoC5/TFTSHIELD_1_SPIM_1.c **** *
 413:.\Generated_Source\PSoC5/TFTSHIELD_1_SPIM_1.c **** * Summary:
 414:.\Generated_Source\PSoC5/TFTSHIELD_1_SPIM_1.c **** *  Read the Rx status register for the component.
 415:.\Generated_Source\PSoC5/TFTSHIELD_1_SPIM_1.c **** *
 416:.\Generated_Source\PSoC5/TFTSHIELD_1_SPIM_1.c **** * Parameters:
 417:.\Generated_Source\PSoC5/TFTSHIELD_1_SPIM_1.c **** *  None.
 418:.\Generated_Source\PSoC5/TFTSHIELD_1_SPIM_1.c **** *
 419:.\Generated_Source\PSoC5/TFTSHIELD_1_SPIM_1.c **** * Return:
 420:.\Generated_Source\PSoC5/TFTSHIELD_1_SPIM_1.c **** *  Contents of the Rx status register.
 421:.\Generated_Source\PSoC5/TFTSHIELD_1_SPIM_1.c **** *
 422:.\Generated_Source\PSoC5/TFTSHIELD_1_SPIM_1.c **** * Global variables:
 423:.\Generated_Source\PSoC5/TFTSHIELD_1_SPIM_1.c **** *  TFTSHIELD_1_SPIM_1_swStatusRx - used to store in software Rx status register,
 424:.\Generated_Source\PSoC5/TFTSHIELD_1_SPIM_1.c **** *  modified every function call - resets to zero.
 425:.\Generated_Source\PSoC5/TFTSHIELD_1_SPIM_1.c **** *
 426:.\Generated_Source\PSoC5/TFTSHIELD_1_SPIM_1.c **** * Theory:
 427:.\Generated_Source\PSoC5/TFTSHIELD_1_SPIM_1.c **** *  Allows the user and the API to read the Rx status register for error
 428:.\Generated_Source\PSoC5/TFTSHIELD_1_SPIM_1.c **** *  detection and flow control.
 429:.\Generated_Source\PSoC5/TFTSHIELD_1_SPIM_1.c **** *
 430:.\Generated_Source\PSoC5/TFTSHIELD_1_SPIM_1.c **** * Side Effects:
 431:.\Generated_Source\PSoC5/TFTSHIELD_1_SPIM_1.c **** *  Clear Rx status register of the component.
 432:.\Generated_Source\PSoC5/TFTSHIELD_1_SPIM_1.c **** *
 433:.\Generated_Source\PSoC5/TFTSHIELD_1_SPIM_1.c **** * Reentrant:
 434:.\Generated_Source\PSoC5/TFTSHIELD_1_SPIM_1.c **** *  No.
 435:.\Generated_Source\PSoC5/TFTSHIELD_1_SPIM_1.c **** *
 436:.\Generated_Source\PSoC5/TFTSHIELD_1_SPIM_1.c **** *******************************************************************************/
 437:.\Generated_Source\PSoC5/TFTSHIELD_1_SPIM_1.c **** uint8 TFTSHIELD_1_SPIM_1_ReadRxStatus(void) 
 438:.\Generated_Source\PSoC5/TFTSHIELD_1_SPIM_1.c **** {
 527              		.loc 1 438 0
 528              		.cfi_startproc
 529              		@ args = 0, pretend = 0, frame = 8
 530              		@ frame_needed = 1, uses_anonymous_args = 0
 531              		@ link register save eliminated.
ARM GAS  C:\Users\Brian\AppData\Local\Temp\cc5TmrUF.s 			page 18


 532 0000 80B4     		push	{r7}
 533              	.LCFI27:
 534              		.cfi_def_cfa_offset 4
 535              		.cfi_offset 7, -4
 536 0002 83B0     		sub	sp, sp, #12
 537              	.LCFI28:
 538              		.cfi_def_cfa_offset 16
 539 0004 00AF     		add	r7, sp, #0
 540              	.LCFI29:
 541              		.cfi_def_cfa_register 7
 439:.\Generated_Source\PSoC5/TFTSHIELD_1_SPIM_1.c ****     uint8 tmpStatus;
 440:.\Generated_Source\PSoC5/TFTSHIELD_1_SPIM_1.c **** 
 441:.\Generated_Source\PSoC5/TFTSHIELD_1_SPIM_1.c ****     #if(TFTSHIELD_1_SPIM_1_RX_SOFTWARE_BUF_ENABLED)
 442:.\Generated_Source\PSoC5/TFTSHIELD_1_SPIM_1.c ****         /* Disable RX interrupt to protect global veriables */
 443:.\Generated_Source\PSoC5/TFTSHIELD_1_SPIM_1.c ****         TFTSHIELD_1_SPIM_1_DisableRxInt();
 444:.\Generated_Source\PSoC5/TFTSHIELD_1_SPIM_1.c **** 
 445:.\Generated_Source\PSoC5/TFTSHIELD_1_SPIM_1.c ****         tmpStatus = TFTSHIELD_1_SPIM_1_GET_STATUS_RX(TFTSHIELD_1_SPIM_1_swStatusRx);
 446:.\Generated_Source\PSoC5/TFTSHIELD_1_SPIM_1.c ****         TFTSHIELD_1_SPIM_1_swStatusRx = 0u;
 447:.\Generated_Source\PSoC5/TFTSHIELD_1_SPIM_1.c **** 
 448:.\Generated_Source\PSoC5/TFTSHIELD_1_SPIM_1.c ****         TFTSHIELD_1_SPIM_1_EnableRxInt();
 449:.\Generated_Source\PSoC5/TFTSHIELD_1_SPIM_1.c **** 
 450:.\Generated_Source\PSoC5/TFTSHIELD_1_SPIM_1.c ****     #else
 451:.\Generated_Source\PSoC5/TFTSHIELD_1_SPIM_1.c **** 
 452:.\Generated_Source\PSoC5/TFTSHIELD_1_SPIM_1.c ****         tmpStatus = TFTSHIELD_1_SPIM_1_RX_STATUS_REG;
 542              		.loc 1 452 0
 543 0006 46F26453 		movw	r3, #25956
 544 000a C4F20003 		movt	r3, 16384
 545 000e 1B78     		ldrb	r3, [r3, #0]
 546 0010 FB71     		strb	r3, [r7, #7]
 453:.\Generated_Source\PSoC5/TFTSHIELD_1_SPIM_1.c **** 
 454:.\Generated_Source\PSoC5/TFTSHIELD_1_SPIM_1.c ****     #endif /* (TFTSHIELD_1_SPIM_1_RX_SOFTWARE_BUF_ENABLED) */
 455:.\Generated_Source\PSoC5/TFTSHIELD_1_SPIM_1.c **** 
 456:.\Generated_Source\PSoC5/TFTSHIELD_1_SPIM_1.c ****     return(tmpStatus);
 547              		.loc 1 456 0
 548 0012 FB79     		ldrb	r3, [r7, #7]	@ zero_extendqisi2
 457:.\Generated_Source\PSoC5/TFTSHIELD_1_SPIM_1.c **** }
 549              		.loc 1 457 0
 550 0014 1846     		mov	r0, r3
 551 0016 07F10C07 		add	r7, r7, #12
 552 001a BD46     		mov	sp, r7
 553 001c 80BC     		pop	{r7}
 554 001e 7047     		bx	lr
 555              		.cfi_endproc
 556              	.LFE11:
 557              		.size	TFTSHIELD_1_SPIM_1_ReadRxStatus, .-TFTSHIELD_1_SPIM_1_ReadRxStatus
 558              		.section	.text.TFTSHIELD_1_SPIM_1_WriteTxData,"ax",%progbits
 559              		.align	2
 560              		.global	TFTSHIELD_1_SPIM_1_WriteTxData
 561              		.thumb
 562              		.thumb_func
 563              		.type	TFTSHIELD_1_SPIM_1_WriteTxData, %function
 564              	TFTSHIELD_1_SPIM_1_WriteTxData:
 565              	.LFB12:
 458:.\Generated_Source\PSoC5/TFTSHIELD_1_SPIM_1.c **** 
 459:.\Generated_Source\PSoC5/TFTSHIELD_1_SPIM_1.c **** 
 460:.\Generated_Source\PSoC5/TFTSHIELD_1_SPIM_1.c **** /*******************************************************************************
 461:.\Generated_Source\PSoC5/TFTSHIELD_1_SPIM_1.c **** * Function Name: TFTSHIELD_1_SPIM_1_WriteTxData
ARM GAS  C:\Users\Brian\AppData\Local\Temp\cc5TmrUF.s 			page 19


 462:.\Generated_Source\PSoC5/TFTSHIELD_1_SPIM_1.c **** ********************************************************************************
 463:.\Generated_Source\PSoC5/TFTSHIELD_1_SPIM_1.c **** *
 464:.\Generated_Source\PSoC5/TFTSHIELD_1_SPIM_1.c **** * Summary:
 465:.\Generated_Source\PSoC5/TFTSHIELD_1_SPIM_1.c **** *  Write a byte of data to be sent across the SPI.
 466:.\Generated_Source\PSoC5/TFTSHIELD_1_SPIM_1.c **** *
 467:.\Generated_Source\PSoC5/TFTSHIELD_1_SPIM_1.c **** * Parameters:
 468:.\Generated_Source\PSoC5/TFTSHIELD_1_SPIM_1.c **** *  txDataByte: The data value to send across the SPI.
 469:.\Generated_Source\PSoC5/TFTSHIELD_1_SPIM_1.c **** *
 470:.\Generated_Source\PSoC5/TFTSHIELD_1_SPIM_1.c **** * Return:
 471:.\Generated_Source\PSoC5/TFTSHIELD_1_SPIM_1.c **** *  None.
 472:.\Generated_Source\PSoC5/TFTSHIELD_1_SPIM_1.c **** *
 473:.\Generated_Source\PSoC5/TFTSHIELD_1_SPIM_1.c **** * Global variables:
 474:.\Generated_Source\PSoC5/TFTSHIELD_1_SPIM_1.c **** *  TFTSHIELD_1_SPIM_1_txBufferWrite - used for the account of the bytes which
 475:.\Generated_Source\PSoC5/TFTSHIELD_1_SPIM_1.c **** *  have been written down in the TX software buffer, modified every function
 476:.\Generated_Source\PSoC5/TFTSHIELD_1_SPIM_1.c **** *  call if TX Software Buffer is used.
 477:.\Generated_Source\PSoC5/TFTSHIELD_1_SPIM_1.c **** *  TFTSHIELD_1_SPIM_1_txBufferRead - used for the account of the bytes which
 478:.\Generated_Source\PSoC5/TFTSHIELD_1_SPIM_1.c **** *  have been read from the TX software buffer.
 479:.\Generated_Source\PSoC5/TFTSHIELD_1_SPIM_1.c **** *  TFTSHIELD_1_SPIM_1_txBuffer[TFTSHIELD_1_SPIM_1_TX_BUFFER_SIZE] - used to store
 480:.\Generated_Source\PSoC5/TFTSHIELD_1_SPIM_1.c **** *  data to sending, modified every function call if TX Software Buffer is used.
 481:.\Generated_Source\PSoC5/TFTSHIELD_1_SPIM_1.c **** *
 482:.\Generated_Source\PSoC5/TFTSHIELD_1_SPIM_1.c **** * Theory:
 483:.\Generated_Source\PSoC5/TFTSHIELD_1_SPIM_1.c **** *  Allows the user to transmit any byte of data in a single transfer.
 484:.\Generated_Source\PSoC5/TFTSHIELD_1_SPIM_1.c **** *
 485:.\Generated_Source\PSoC5/TFTSHIELD_1_SPIM_1.c **** * Side Effects:
 486:.\Generated_Source\PSoC5/TFTSHIELD_1_SPIM_1.c **** *  If this function is called again before the previous byte is finished then
 487:.\Generated_Source\PSoC5/TFTSHIELD_1_SPIM_1.c **** *  the next byte will be appended to the transfer with no time between
 488:.\Generated_Source\PSoC5/TFTSHIELD_1_SPIM_1.c **** *  the byte transfers. Clear Tx status register of the component.
 489:.\Generated_Source\PSoC5/TFTSHIELD_1_SPIM_1.c **** *
 490:.\Generated_Source\PSoC5/TFTSHIELD_1_SPIM_1.c **** * Reentrant:
 491:.\Generated_Source\PSoC5/TFTSHIELD_1_SPIM_1.c **** *  No.
 492:.\Generated_Source\PSoC5/TFTSHIELD_1_SPIM_1.c **** *
 493:.\Generated_Source\PSoC5/TFTSHIELD_1_SPIM_1.c **** *******************************************************************************/
 494:.\Generated_Source\PSoC5/TFTSHIELD_1_SPIM_1.c **** void TFTSHIELD_1_SPIM_1_WriteTxData(uint8 txData) 
 495:.\Generated_Source\PSoC5/TFTSHIELD_1_SPIM_1.c **** {
 566              		.loc 1 495 0
 567              		.cfi_startproc
 568              		@ args = 0, pretend = 0, frame = 8
 569              		@ frame_needed = 1, uses_anonymous_args = 0
 570              		@ link register save eliminated.
 571 0000 80B4     		push	{r7}
 572              	.LCFI30:
 573              		.cfi_def_cfa_offset 4
 574              		.cfi_offset 7, -4
 575 0002 83B0     		sub	sp, sp, #12
 576              	.LCFI31:
 577              		.cfi_def_cfa_offset 16
 578 0004 00AF     		add	r7, sp, #0
 579              	.LCFI32:
 580              		.cfi_def_cfa_register 7
 581 0006 0346     		mov	r3, r0
 582 0008 FB71     		strb	r3, [r7, #7]
 496:.\Generated_Source\PSoC5/TFTSHIELD_1_SPIM_1.c ****     #if(TFTSHIELD_1_SPIM_1_TX_SOFTWARE_BUF_ENABLED)
 497:.\Generated_Source\PSoC5/TFTSHIELD_1_SPIM_1.c **** 
 498:.\Generated_Source\PSoC5/TFTSHIELD_1_SPIM_1.c ****         uint8 tempStatus;
 499:.\Generated_Source\PSoC5/TFTSHIELD_1_SPIM_1.c ****         uint8 tmpTxBufferRead;
 500:.\Generated_Source\PSoC5/TFTSHIELD_1_SPIM_1.c **** 
 501:.\Generated_Source\PSoC5/TFTSHIELD_1_SPIM_1.c ****         /* Block if TX buffer is FULL: don't overwrite */
ARM GAS  C:\Users\Brian\AppData\Local\Temp\cc5TmrUF.s 			page 20


 502:.\Generated_Source\PSoC5/TFTSHIELD_1_SPIM_1.c ****         do
 503:.\Generated_Source\PSoC5/TFTSHIELD_1_SPIM_1.c ****         {
 504:.\Generated_Source\PSoC5/TFTSHIELD_1_SPIM_1.c ****             tmpTxBufferRead = TFTSHIELD_1_SPIM_1_txBufferRead;
 505:.\Generated_Source\PSoC5/TFTSHIELD_1_SPIM_1.c ****             if(0u == tmpTxBufferRead)
 506:.\Generated_Source\PSoC5/TFTSHIELD_1_SPIM_1.c ****             {
 507:.\Generated_Source\PSoC5/TFTSHIELD_1_SPIM_1.c ****                 tmpTxBufferRead = (TFTSHIELD_1_SPIM_1_TX_BUFFER_SIZE - 1u);
 508:.\Generated_Source\PSoC5/TFTSHIELD_1_SPIM_1.c ****             }
 509:.\Generated_Source\PSoC5/TFTSHIELD_1_SPIM_1.c ****             else
 510:.\Generated_Source\PSoC5/TFTSHIELD_1_SPIM_1.c ****             {
 511:.\Generated_Source\PSoC5/TFTSHIELD_1_SPIM_1.c ****                 tmpTxBufferRead--;
 512:.\Generated_Source\PSoC5/TFTSHIELD_1_SPIM_1.c ****             }
 513:.\Generated_Source\PSoC5/TFTSHIELD_1_SPIM_1.c **** 
 514:.\Generated_Source\PSoC5/TFTSHIELD_1_SPIM_1.c ****         }while(tmpTxBufferRead == TFTSHIELD_1_SPIM_1_txBufferWrite);
 515:.\Generated_Source\PSoC5/TFTSHIELD_1_SPIM_1.c **** 
 516:.\Generated_Source\PSoC5/TFTSHIELD_1_SPIM_1.c ****         /* Disable TX interrupt to protect global veriables */
 517:.\Generated_Source\PSoC5/TFTSHIELD_1_SPIM_1.c ****         TFTSHIELD_1_SPIM_1_DisableTxInt();
 518:.\Generated_Source\PSoC5/TFTSHIELD_1_SPIM_1.c **** 
 519:.\Generated_Source\PSoC5/TFTSHIELD_1_SPIM_1.c ****         tempStatus = TFTSHIELD_1_SPIM_1_GET_STATUS_TX(TFTSHIELD_1_SPIM_1_swStatusTx);
 520:.\Generated_Source\PSoC5/TFTSHIELD_1_SPIM_1.c ****         TFTSHIELD_1_SPIM_1_swStatusTx = tempStatus;
 521:.\Generated_Source\PSoC5/TFTSHIELD_1_SPIM_1.c **** 
 522:.\Generated_Source\PSoC5/TFTSHIELD_1_SPIM_1.c **** 
 523:.\Generated_Source\PSoC5/TFTSHIELD_1_SPIM_1.c ****         if((TFTSHIELD_1_SPIM_1_txBufferRead == TFTSHIELD_1_SPIM_1_txBufferWrite) &&
 524:.\Generated_Source\PSoC5/TFTSHIELD_1_SPIM_1.c ****            (0u != (TFTSHIELD_1_SPIM_1_swStatusTx & TFTSHIELD_1_SPIM_1_STS_TX_FIFO_NOT_FULL)))
 525:.\Generated_Source\PSoC5/TFTSHIELD_1_SPIM_1.c ****         {
 526:.\Generated_Source\PSoC5/TFTSHIELD_1_SPIM_1.c ****             /* Add directly to the TX FIFO */
 527:.\Generated_Source\PSoC5/TFTSHIELD_1_SPIM_1.c ****             CY_SET_REG8(TFTSHIELD_1_SPIM_1_TXDATA_PTR, txData);
 528:.\Generated_Source\PSoC5/TFTSHIELD_1_SPIM_1.c ****         }
 529:.\Generated_Source\PSoC5/TFTSHIELD_1_SPIM_1.c ****         else
 530:.\Generated_Source\PSoC5/TFTSHIELD_1_SPIM_1.c ****         {
 531:.\Generated_Source\PSoC5/TFTSHIELD_1_SPIM_1.c ****             /* Add to the TX software buffer */
 532:.\Generated_Source\PSoC5/TFTSHIELD_1_SPIM_1.c ****             TFTSHIELD_1_SPIM_1_txBufferWrite++;
 533:.\Generated_Source\PSoC5/TFTSHIELD_1_SPIM_1.c ****             if(TFTSHIELD_1_SPIM_1_txBufferWrite >= TFTSHIELD_1_SPIM_1_TX_BUFFER_SIZE)
 534:.\Generated_Source\PSoC5/TFTSHIELD_1_SPIM_1.c ****             {
 535:.\Generated_Source\PSoC5/TFTSHIELD_1_SPIM_1.c ****                 TFTSHIELD_1_SPIM_1_txBufferWrite = 0u;
 536:.\Generated_Source\PSoC5/TFTSHIELD_1_SPIM_1.c ****             }
 537:.\Generated_Source\PSoC5/TFTSHIELD_1_SPIM_1.c **** 
 538:.\Generated_Source\PSoC5/TFTSHIELD_1_SPIM_1.c ****             if(TFTSHIELD_1_SPIM_1_txBufferWrite == TFTSHIELD_1_SPIM_1_txBufferRead)
 539:.\Generated_Source\PSoC5/TFTSHIELD_1_SPIM_1.c ****             {
 540:.\Generated_Source\PSoC5/TFTSHIELD_1_SPIM_1.c ****                 TFTSHIELD_1_SPIM_1_txBufferRead++;
 541:.\Generated_Source\PSoC5/TFTSHIELD_1_SPIM_1.c ****                 if(TFTSHIELD_1_SPIM_1_txBufferRead >= TFTSHIELD_1_SPIM_1_TX_BUFFER_SIZE)
 542:.\Generated_Source\PSoC5/TFTSHIELD_1_SPIM_1.c ****                 {
 543:.\Generated_Source\PSoC5/TFTSHIELD_1_SPIM_1.c ****                     TFTSHIELD_1_SPIM_1_txBufferRead = 0u;
 544:.\Generated_Source\PSoC5/TFTSHIELD_1_SPIM_1.c ****                 }
 545:.\Generated_Source\PSoC5/TFTSHIELD_1_SPIM_1.c ****                 TFTSHIELD_1_SPIM_1_txBufferFull = 1u;
 546:.\Generated_Source\PSoC5/TFTSHIELD_1_SPIM_1.c ****             }
 547:.\Generated_Source\PSoC5/TFTSHIELD_1_SPIM_1.c **** 
 548:.\Generated_Source\PSoC5/TFTSHIELD_1_SPIM_1.c ****             TFTSHIELD_1_SPIM_1_txBuffer[TFTSHIELD_1_SPIM_1_txBufferWrite] = txData;
 549:.\Generated_Source\PSoC5/TFTSHIELD_1_SPIM_1.c **** 
 550:.\Generated_Source\PSoC5/TFTSHIELD_1_SPIM_1.c ****             TFTSHIELD_1_SPIM_1_TX_STATUS_MASK_REG |= TFTSHIELD_1_SPIM_1_STS_TX_FIFO_NOT_FULL;
 551:.\Generated_Source\PSoC5/TFTSHIELD_1_SPIM_1.c ****         }
 552:.\Generated_Source\PSoC5/TFTSHIELD_1_SPIM_1.c **** 
 553:.\Generated_Source\PSoC5/TFTSHIELD_1_SPIM_1.c ****         TFTSHIELD_1_SPIM_1_EnableTxInt();
 554:.\Generated_Source\PSoC5/TFTSHIELD_1_SPIM_1.c **** 
 555:.\Generated_Source\PSoC5/TFTSHIELD_1_SPIM_1.c ****     #else
 556:.\Generated_Source\PSoC5/TFTSHIELD_1_SPIM_1.c **** 
 557:.\Generated_Source\PSoC5/TFTSHIELD_1_SPIM_1.c ****         while(0u == (TFTSHIELD_1_SPIM_1_TX_STATUS_REG & TFTSHIELD_1_SPIM_1_STS_TX_FIFO_NOT_FULL))
 583              		.loc 1 557 0
ARM GAS  C:\Users\Brian\AppData\Local\Temp\cc5TmrUF.s 			page 21


 584 000a 00BF     		nop
 585              	.L17:
 586              		.loc 1 557 0 is_stmt 0 discriminator 1
 587 000c 46F26743 		movw	r3, #25703
 588 0010 C4F20003 		movt	r3, 16384
 589 0014 1B78     		ldrb	r3, [r3, #0]
 590 0016 DBB2     		uxtb	r3, r3
 591 0018 03F00403 		and	r3, r3, #4
 592 001c 002B     		cmp	r3, #0
 593 001e F5D0     		beq	.L17
 558:.\Generated_Source\PSoC5/TFTSHIELD_1_SPIM_1.c ****         {
 559:.\Generated_Source\PSoC5/TFTSHIELD_1_SPIM_1.c ****             ; /* Wait for room in FIFO */
 560:.\Generated_Source\PSoC5/TFTSHIELD_1_SPIM_1.c ****         }
 561:.\Generated_Source\PSoC5/TFTSHIELD_1_SPIM_1.c **** 
 562:.\Generated_Source\PSoC5/TFTSHIELD_1_SPIM_1.c ****         /* Put byte in TX FIFO */
 563:.\Generated_Source\PSoC5/TFTSHIELD_1_SPIM_1.c ****         CY_SET_REG8(TFTSHIELD_1_SPIM_1_TXDATA_PTR, txData);
 594              		.loc 1 563 0 is_stmt 1
 595 0020 46F24743 		movw	r3, #25671
 596 0024 C4F20003 		movt	r3, 16384
 597 0028 FA79     		ldrb	r2, [r7, #7]
 598 002a 1A70     		strb	r2, [r3, #0]
 564:.\Generated_Source\PSoC5/TFTSHIELD_1_SPIM_1.c **** 
 565:.\Generated_Source\PSoC5/TFTSHIELD_1_SPIM_1.c ****     #endif /* (TFTSHIELD_1_SPIM_1_TX_SOFTWARE_BUF_ENABLED) */
 566:.\Generated_Source\PSoC5/TFTSHIELD_1_SPIM_1.c **** }
 599              		.loc 1 566 0
 600 002c 07F10C07 		add	r7, r7, #12
 601 0030 BD46     		mov	sp, r7
 602 0032 80BC     		pop	{r7}
 603 0034 7047     		bx	lr
 604              		.cfi_endproc
 605              	.LFE12:
 606              		.size	TFTSHIELD_1_SPIM_1_WriteTxData, .-TFTSHIELD_1_SPIM_1_WriteTxData
 607 0036 00BF     		.section	.text.TFTSHIELD_1_SPIM_1_ReadRxData,"ax",%progbits
 608              		.align	2
 609              		.global	TFTSHIELD_1_SPIM_1_ReadRxData
 610              		.thumb
 611              		.thumb_func
 612              		.type	TFTSHIELD_1_SPIM_1_ReadRxData, %function
 613              	TFTSHIELD_1_SPIM_1_ReadRxData:
 614              	.LFB13:
 567:.\Generated_Source\PSoC5/TFTSHIELD_1_SPIM_1.c **** 
 568:.\Generated_Source\PSoC5/TFTSHIELD_1_SPIM_1.c **** 
 569:.\Generated_Source\PSoC5/TFTSHIELD_1_SPIM_1.c **** /*******************************************************************************
 570:.\Generated_Source\PSoC5/TFTSHIELD_1_SPIM_1.c **** * Function Name: TFTSHIELD_1_SPIM_1_ReadRxData
 571:.\Generated_Source\PSoC5/TFTSHIELD_1_SPIM_1.c **** ********************************************************************************
 572:.\Generated_Source\PSoC5/TFTSHIELD_1_SPIM_1.c **** *
 573:.\Generated_Source\PSoC5/TFTSHIELD_1_SPIM_1.c **** * Summary:
 574:.\Generated_Source\PSoC5/TFTSHIELD_1_SPIM_1.c **** *  Read the next byte of data received across the SPI.
 575:.\Generated_Source\PSoC5/TFTSHIELD_1_SPIM_1.c **** *
 576:.\Generated_Source\PSoC5/TFTSHIELD_1_SPIM_1.c **** * Parameters:
 577:.\Generated_Source\PSoC5/TFTSHIELD_1_SPIM_1.c **** *  None.
 578:.\Generated_Source\PSoC5/TFTSHIELD_1_SPIM_1.c **** *
 579:.\Generated_Source\PSoC5/TFTSHIELD_1_SPIM_1.c **** * Return:
 580:.\Generated_Source\PSoC5/TFTSHIELD_1_SPIM_1.c **** *  The next byte of data read from the FIFO.
 581:.\Generated_Source\PSoC5/TFTSHIELD_1_SPIM_1.c **** *
 582:.\Generated_Source\PSoC5/TFTSHIELD_1_SPIM_1.c **** * Global variables:
 583:.\Generated_Source\PSoC5/TFTSHIELD_1_SPIM_1.c **** *  TFTSHIELD_1_SPIM_1_rxBufferWrite - used for the account of the bytes which
ARM GAS  C:\Users\Brian\AppData\Local\Temp\cc5TmrUF.s 			page 22


 584:.\Generated_Source\PSoC5/TFTSHIELD_1_SPIM_1.c **** *  have been written down in the RX software buffer.
 585:.\Generated_Source\PSoC5/TFTSHIELD_1_SPIM_1.c **** *  TFTSHIELD_1_SPIM_1_rxBufferRead - used for the account of the bytes which
 586:.\Generated_Source\PSoC5/TFTSHIELD_1_SPIM_1.c **** *  have been read from the RX software buffer, modified every function
 587:.\Generated_Source\PSoC5/TFTSHIELD_1_SPIM_1.c **** *  call if RX Software Buffer is used.
 588:.\Generated_Source\PSoC5/TFTSHIELD_1_SPIM_1.c **** *  TFTSHIELD_1_SPIM_1_rxBuffer[TFTSHIELD_1_SPIM_1_RX_BUFFER_SIZE] - used to store
 589:.\Generated_Source\PSoC5/TFTSHIELD_1_SPIM_1.c **** *  received data.
 590:.\Generated_Source\PSoC5/TFTSHIELD_1_SPIM_1.c **** *
 591:.\Generated_Source\PSoC5/TFTSHIELD_1_SPIM_1.c **** * Theory:
 592:.\Generated_Source\PSoC5/TFTSHIELD_1_SPIM_1.c **** *  Allows the user to read a byte of data received.
 593:.\Generated_Source\PSoC5/TFTSHIELD_1_SPIM_1.c **** *
 594:.\Generated_Source\PSoC5/TFTSHIELD_1_SPIM_1.c **** * Side Effects:
 595:.\Generated_Source\PSoC5/TFTSHIELD_1_SPIM_1.c **** *  Will return invalid data if the FIFO is empty. The user should Call
 596:.\Generated_Source\PSoC5/TFTSHIELD_1_SPIM_1.c **** *  GetRxBufferSize() and if it returns a non-zero value then it is safe to call
 597:.\Generated_Source\PSoC5/TFTSHIELD_1_SPIM_1.c **** *  ReadByte() function.
 598:.\Generated_Source\PSoC5/TFTSHIELD_1_SPIM_1.c **** *
 599:.\Generated_Source\PSoC5/TFTSHIELD_1_SPIM_1.c **** * Reentrant:
 600:.\Generated_Source\PSoC5/TFTSHIELD_1_SPIM_1.c **** *  No.
 601:.\Generated_Source\PSoC5/TFTSHIELD_1_SPIM_1.c **** *
 602:.\Generated_Source\PSoC5/TFTSHIELD_1_SPIM_1.c **** *******************************************************************************/
 603:.\Generated_Source\PSoC5/TFTSHIELD_1_SPIM_1.c **** uint8 TFTSHIELD_1_SPIM_1_ReadRxData(void) 
 604:.\Generated_Source\PSoC5/TFTSHIELD_1_SPIM_1.c **** {
 615              		.loc 1 604 0
 616              		.cfi_startproc
 617              		@ args = 0, pretend = 0, frame = 8
 618              		@ frame_needed = 1, uses_anonymous_args = 0
 619              		@ link register save eliminated.
 620 0000 80B4     		push	{r7}
 621              	.LCFI33:
 622              		.cfi_def_cfa_offset 4
 623              		.cfi_offset 7, -4
 624 0002 83B0     		sub	sp, sp, #12
 625              	.LCFI34:
 626              		.cfi_def_cfa_offset 16
 627 0004 00AF     		add	r7, sp, #0
 628              	.LCFI35:
 629              		.cfi_def_cfa_register 7
 605:.\Generated_Source\PSoC5/TFTSHIELD_1_SPIM_1.c ****     uint8 rxData;
 606:.\Generated_Source\PSoC5/TFTSHIELD_1_SPIM_1.c **** 
 607:.\Generated_Source\PSoC5/TFTSHIELD_1_SPIM_1.c ****     #if(TFTSHIELD_1_SPIM_1_RX_SOFTWARE_BUF_ENABLED)
 608:.\Generated_Source\PSoC5/TFTSHIELD_1_SPIM_1.c **** 
 609:.\Generated_Source\PSoC5/TFTSHIELD_1_SPIM_1.c ****         /* Disable RX interrupt to protect global veriables */
 610:.\Generated_Source\PSoC5/TFTSHIELD_1_SPIM_1.c ****         TFTSHIELD_1_SPIM_1_DisableRxInt();
 611:.\Generated_Source\PSoC5/TFTSHIELD_1_SPIM_1.c **** 
 612:.\Generated_Source\PSoC5/TFTSHIELD_1_SPIM_1.c ****         if(TFTSHIELD_1_SPIM_1_rxBufferRead != TFTSHIELD_1_SPIM_1_rxBufferWrite)
 613:.\Generated_Source\PSoC5/TFTSHIELD_1_SPIM_1.c ****         {
 614:.\Generated_Source\PSoC5/TFTSHIELD_1_SPIM_1.c ****             if(0u == TFTSHIELD_1_SPIM_1_rxBufferFull)
 615:.\Generated_Source\PSoC5/TFTSHIELD_1_SPIM_1.c ****             {
 616:.\Generated_Source\PSoC5/TFTSHIELD_1_SPIM_1.c ****                 TFTSHIELD_1_SPIM_1_rxBufferRead++;
 617:.\Generated_Source\PSoC5/TFTSHIELD_1_SPIM_1.c ****                 if(TFTSHIELD_1_SPIM_1_rxBufferRead >= TFTSHIELD_1_SPIM_1_RX_BUFFER_SIZE)
 618:.\Generated_Source\PSoC5/TFTSHIELD_1_SPIM_1.c ****                 {
 619:.\Generated_Source\PSoC5/TFTSHIELD_1_SPIM_1.c ****                     TFTSHIELD_1_SPIM_1_rxBufferRead = 0u;
 620:.\Generated_Source\PSoC5/TFTSHIELD_1_SPIM_1.c ****                 }
 621:.\Generated_Source\PSoC5/TFTSHIELD_1_SPIM_1.c ****             }
 622:.\Generated_Source\PSoC5/TFTSHIELD_1_SPIM_1.c ****             else
 623:.\Generated_Source\PSoC5/TFTSHIELD_1_SPIM_1.c ****             {
 624:.\Generated_Source\PSoC5/TFTSHIELD_1_SPIM_1.c ****                 TFTSHIELD_1_SPIM_1_rxBufferFull = 0u;
 625:.\Generated_Source\PSoC5/TFTSHIELD_1_SPIM_1.c ****             }
ARM GAS  C:\Users\Brian\AppData\Local\Temp\cc5TmrUF.s 			page 23


 626:.\Generated_Source\PSoC5/TFTSHIELD_1_SPIM_1.c ****         }
 627:.\Generated_Source\PSoC5/TFTSHIELD_1_SPIM_1.c **** 
 628:.\Generated_Source\PSoC5/TFTSHIELD_1_SPIM_1.c ****         rxData = TFTSHIELD_1_SPIM_1_rxBuffer[TFTSHIELD_1_SPIM_1_rxBufferRead];
 629:.\Generated_Source\PSoC5/TFTSHIELD_1_SPIM_1.c **** 
 630:.\Generated_Source\PSoC5/TFTSHIELD_1_SPIM_1.c ****         TFTSHIELD_1_SPIM_1_EnableRxInt();
 631:.\Generated_Source\PSoC5/TFTSHIELD_1_SPIM_1.c **** 
 632:.\Generated_Source\PSoC5/TFTSHIELD_1_SPIM_1.c ****     #else
 633:.\Generated_Source\PSoC5/TFTSHIELD_1_SPIM_1.c **** 
 634:.\Generated_Source\PSoC5/TFTSHIELD_1_SPIM_1.c ****         rxData = CY_GET_REG8(TFTSHIELD_1_SPIM_1_RXDATA_PTR);
 630              		.loc 1 634 0
 631 0006 46F25743 		movw	r3, #25687
 632 000a C4F20003 		movt	r3, 16384
 633 000e 1B78     		ldrb	r3, [r3, #0]
 634 0010 FB71     		strb	r3, [r7, #7]
 635:.\Generated_Source\PSoC5/TFTSHIELD_1_SPIM_1.c **** 
 636:.\Generated_Source\PSoC5/TFTSHIELD_1_SPIM_1.c ****     #endif /* (TFTSHIELD_1_SPIM_1_RX_SOFTWARE_BUF_ENABLED) */
 637:.\Generated_Source\PSoC5/TFTSHIELD_1_SPIM_1.c **** 
 638:.\Generated_Source\PSoC5/TFTSHIELD_1_SPIM_1.c ****     return(rxData);
 635              		.loc 1 638 0
 636 0012 FB79     		ldrb	r3, [r7, #7]	@ zero_extendqisi2
 639:.\Generated_Source\PSoC5/TFTSHIELD_1_SPIM_1.c **** }
 637              		.loc 1 639 0
 638 0014 1846     		mov	r0, r3
 639 0016 07F10C07 		add	r7, r7, #12
 640 001a BD46     		mov	sp, r7
 641 001c 80BC     		pop	{r7}
 642 001e 7047     		bx	lr
 643              		.cfi_endproc
 644              	.LFE13:
 645              		.size	TFTSHIELD_1_SPIM_1_ReadRxData, .-TFTSHIELD_1_SPIM_1_ReadRxData
 646              		.section	.text.TFTSHIELD_1_SPIM_1_GetRxBufferSize,"ax",%progbits
 647              		.align	2
 648              		.global	TFTSHIELD_1_SPIM_1_GetRxBufferSize
 649              		.thumb
 650              		.thumb_func
 651              		.type	TFTSHIELD_1_SPIM_1_GetRxBufferSize, %function
 652              	TFTSHIELD_1_SPIM_1_GetRxBufferSize:
 653              	.LFB14:
 640:.\Generated_Source\PSoC5/TFTSHIELD_1_SPIM_1.c **** 
 641:.\Generated_Source\PSoC5/TFTSHIELD_1_SPIM_1.c **** 
 642:.\Generated_Source\PSoC5/TFTSHIELD_1_SPIM_1.c **** /*******************************************************************************
 643:.\Generated_Source\PSoC5/TFTSHIELD_1_SPIM_1.c **** * Function Name: TFTSHIELD_1_SPIM_1_GetRxBufferSize
 644:.\Generated_Source\PSoC5/TFTSHIELD_1_SPIM_1.c **** ********************************************************************************
 645:.\Generated_Source\PSoC5/TFTSHIELD_1_SPIM_1.c **** *
 646:.\Generated_Source\PSoC5/TFTSHIELD_1_SPIM_1.c **** * Summary:
 647:.\Generated_Source\PSoC5/TFTSHIELD_1_SPIM_1.c **** *  Returns the number of bytes/words of data currently held in the RX buffer.
 648:.\Generated_Source\PSoC5/TFTSHIELD_1_SPIM_1.c **** *  If RX Software Buffer not used then function return 0 if FIFO empty or 1 if
 649:.\Generated_Source\PSoC5/TFTSHIELD_1_SPIM_1.c **** *  FIFO not empty. In another case function return size of RX Software Buffer.
 650:.\Generated_Source\PSoC5/TFTSHIELD_1_SPIM_1.c **** *
 651:.\Generated_Source\PSoC5/TFTSHIELD_1_SPIM_1.c **** * Parameters:
 652:.\Generated_Source\PSoC5/TFTSHIELD_1_SPIM_1.c **** *  None.
 653:.\Generated_Source\PSoC5/TFTSHIELD_1_SPIM_1.c **** *
 654:.\Generated_Source\PSoC5/TFTSHIELD_1_SPIM_1.c **** * Return:
 655:.\Generated_Source\PSoC5/TFTSHIELD_1_SPIM_1.c **** *  Integer count of the number of bytes/words in the RX buffer.
 656:.\Generated_Source\PSoC5/TFTSHIELD_1_SPIM_1.c **** *
 657:.\Generated_Source\PSoC5/TFTSHIELD_1_SPIM_1.c **** * Global variables:
 658:.\Generated_Source\PSoC5/TFTSHIELD_1_SPIM_1.c **** *  TFTSHIELD_1_SPIM_1_rxBufferWrite - used for the account of the bytes which
ARM GAS  C:\Users\Brian\AppData\Local\Temp\cc5TmrUF.s 			page 24


 659:.\Generated_Source\PSoC5/TFTSHIELD_1_SPIM_1.c **** *  have been written down in the RX software buffer.
 660:.\Generated_Source\PSoC5/TFTSHIELD_1_SPIM_1.c **** *  TFTSHIELD_1_SPIM_1_rxBufferRead - used for the account of the bytes which
 661:.\Generated_Source\PSoC5/TFTSHIELD_1_SPIM_1.c **** *  have been read from the RX software buffer.
 662:.\Generated_Source\PSoC5/TFTSHIELD_1_SPIM_1.c **** *
 663:.\Generated_Source\PSoC5/TFTSHIELD_1_SPIM_1.c **** * Side Effects:
 664:.\Generated_Source\PSoC5/TFTSHIELD_1_SPIM_1.c **** *  Clear status register of the component.
 665:.\Generated_Source\PSoC5/TFTSHIELD_1_SPIM_1.c **** *
 666:.\Generated_Source\PSoC5/TFTSHIELD_1_SPIM_1.c **** *******************************************************************************/
 667:.\Generated_Source\PSoC5/TFTSHIELD_1_SPIM_1.c **** uint8 TFTSHIELD_1_SPIM_1_GetRxBufferSize(void) 
 668:.\Generated_Source\PSoC5/TFTSHIELD_1_SPIM_1.c **** {
 654              		.loc 1 668 0
 655              		.cfi_startproc
 656              		@ args = 0, pretend = 0, frame = 8
 657              		@ frame_needed = 1, uses_anonymous_args = 0
 658              		@ link register save eliminated.
 659 0000 80B4     		push	{r7}
 660              	.LCFI36:
 661              		.cfi_def_cfa_offset 4
 662              		.cfi_offset 7, -4
 663 0002 83B0     		sub	sp, sp, #12
 664              	.LCFI37:
 665              		.cfi_def_cfa_offset 16
 666 0004 00AF     		add	r7, sp, #0
 667              	.LCFI38:
 668              		.cfi_def_cfa_register 7
 669:.\Generated_Source\PSoC5/TFTSHIELD_1_SPIM_1.c ****     uint8 size;
 670:.\Generated_Source\PSoC5/TFTSHIELD_1_SPIM_1.c **** 
 671:.\Generated_Source\PSoC5/TFTSHIELD_1_SPIM_1.c ****     #if(TFTSHIELD_1_SPIM_1_RX_SOFTWARE_BUF_ENABLED)
 672:.\Generated_Source\PSoC5/TFTSHIELD_1_SPIM_1.c **** 
 673:.\Generated_Source\PSoC5/TFTSHIELD_1_SPIM_1.c ****         /* Disable RX interrupt to protect global veriables */
 674:.\Generated_Source\PSoC5/TFTSHIELD_1_SPIM_1.c ****         TFTSHIELD_1_SPIM_1_DisableRxInt();
 675:.\Generated_Source\PSoC5/TFTSHIELD_1_SPIM_1.c **** 
 676:.\Generated_Source\PSoC5/TFTSHIELD_1_SPIM_1.c ****         if(TFTSHIELD_1_SPIM_1_rxBufferRead == TFTSHIELD_1_SPIM_1_rxBufferWrite)
 677:.\Generated_Source\PSoC5/TFTSHIELD_1_SPIM_1.c ****         {
 678:.\Generated_Source\PSoC5/TFTSHIELD_1_SPIM_1.c ****             size = 0u;
 679:.\Generated_Source\PSoC5/TFTSHIELD_1_SPIM_1.c ****         }
 680:.\Generated_Source\PSoC5/TFTSHIELD_1_SPIM_1.c ****         else if(TFTSHIELD_1_SPIM_1_rxBufferRead < TFTSHIELD_1_SPIM_1_rxBufferWrite)
 681:.\Generated_Source\PSoC5/TFTSHIELD_1_SPIM_1.c ****         {
 682:.\Generated_Source\PSoC5/TFTSHIELD_1_SPIM_1.c ****             size = (TFTSHIELD_1_SPIM_1_rxBufferWrite - TFTSHIELD_1_SPIM_1_rxBufferRead);
 683:.\Generated_Source\PSoC5/TFTSHIELD_1_SPIM_1.c ****         }
 684:.\Generated_Source\PSoC5/TFTSHIELD_1_SPIM_1.c ****         else
 685:.\Generated_Source\PSoC5/TFTSHIELD_1_SPIM_1.c ****         {
 686:.\Generated_Source\PSoC5/TFTSHIELD_1_SPIM_1.c ****             size = (TFTSHIELD_1_SPIM_1_RX_BUFFER_SIZE - TFTSHIELD_1_SPIM_1_rxBufferRead) + TFTSHIEL
 687:.\Generated_Source\PSoC5/TFTSHIELD_1_SPIM_1.c ****         }
 688:.\Generated_Source\PSoC5/TFTSHIELD_1_SPIM_1.c **** 
 689:.\Generated_Source\PSoC5/TFTSHIELD_1_SPIM_1.c ****         TFTSHIELD_1_SPIM_1_EnableRxInt();
 690:.\Generated_Source\PSoC5/TFTSHIELD_1_SPIM_1.c **** 
 691:.\Generated_Source\PSoC5/TFTSHIELD_1_SPIM_1.c ****     #else
 692:.\Generated_Source\PSoC5/TFTSHIELD_1_SPIM_1.c **** 
 693:.\Generated_Source\PSoC5/TFTSHIELD_1_SPIM_1.c ****         /* We can only know if there is data in the RX FIFO */
 694:.\Generated_Source\PSoC5/TFTSHIELD_1_SPIM_1.c ****         size = (0u != (TFTSHIELD_1_SPIM_1_RX_STATUS_REG & TFTSHIELD_1_SPIM_1_STS_RX_FIFO_NOT_EMPTY)
 669              		.loc 1 694 0
 670 0006 46F26453 		movw	r3, #25956
 671 000a C4F20003 		movt	r3, 16384
 672 000e 1B78     		ldrb	r3, [r3, #0]
 673 0010 DBB2     		uxtb	r3, r3
 674 0012 03F02003 		and	r3, r3, #32
ARM GAS  C:\Users\Brian\AppData\Local\Temp\cc5TmrUF.s 			page 25


 675 0016 002B     		cmp	r3, #0
 676 0018 02D0     		beq	.L21
 677              		.loc 1 694 0 is_stmt 0 discriminator 1
 678 001a 4FF00103 		mov	r3, #1
 679 001e 01E0     		b	.L22
 680              	.L21:
 681              		.loc 1 694 0 discriminator 2
 682 0020 4FF00003 		mov	r3, #0
 683              	.L22:
 684              		.loc 1 694 0 discriminator 3
 685 0024 FB71     		strb	r3, [r7, #7]
 695:.\Generated_Source\PSoC5/TFTSHIELD_1_SPIM_1.c **** 
 696:.\Generated_Source\PSoC5/TFTSHIELD_1_SPIM_1.c ****     #endif /* (TFTSHIELD_1_SPIM_1_TX_SOFTWARE_BUF_ENABLED) */
 697:.\Generated_Source\PSoC5/TFTSHIELD_1_SPIM_1.c **** 
 698:.\Generated_Source\PSoC5/TFTSHIELD_1_SPIM_1.c ****     return(size);
 686              		.loc 1 698 0 is_stmt 1 discriminator 3
 687 0026 FB79     		ldrb	r3, [r7, #7]	@ zero_extendqisi2
 699:.\Generated_Source\PSoC5/TFTSHIELD_1_SPIM_1.c **** }
 688              		.loc 1 699 0 discriminator 3
 689 0028 1846     		mov	r0, r3
 690 002a 07F10C07 		add	r7, r7, #12
 691 002e BD46     		mov	sp, r7
 692 0030 80BC     		pop	{r7}
 693 0032 7047     		bx	lr
 694              		.cfi_endproc
 695              	.LFE14:
 696              		.size	TFTSHIELD_1_SPIM_1_GetRxBufferSize, .-TFTSHIELD_1_SPIM_1_GetRxBufferSize
 697              		.section	.text.TFTSHIELD_1_SPIM_1_GetTxBufferSize,"ax",%progbits
 698              		.align	2
 699              		.global	TFTSHIELD_1_SPIM_1_GetTxBufferSize
 700              		.thumb
 701              		.thumb_func
 702              		.type	TFTSHIELD_1_SPIM_1_GetTxBufferSize, %function
 703              	TFTSHIELD_1_SPIM_1_GetTxBufferSize:
 704              	.LFB15:
 700:.\Generated_Source\PSoC5/TFTSHIELD_1_SPIM_1.c **** 
 701:.\Generated_Source\PSoC5/TFTSHIELD_1_SPIM_1.c **** 
 702:.\Generated_Source\PSoC5/TFTSHIELD_1_SPIM_1.c **** /*******************************************************************************
 703:.\Generated_Source\PSoC5/TFTSHIELD_1_SPIM_1.c **** * Function Name: TFTSHIELD_1_SPIM_1_GetTxBufferSize
 704:.\Generated_Source\PSoC5/TFTSHIELD_1_SPIM_1.c **** ********************************************************************************
 705:.\Generated_Source\PSoC5/TFTSHIELD_1_SPIM_1.c **** *
 706:.\Generated_Source\PSoC5/TFTSHIELD_1_SPIM_1.c **** * Summary:
 707:.\Generated_Source\PSoC5/TFTSHIELD_1_SPIM_1.c **** *  Returns the number of bytes/words of data currently held in the TX buffer.
 708:.\Generated_Source\PSoC5/TFTSHIELD_1_SPIM_1.c **** *  If TX Software Buffer not used then function return 0 - if FIFO empty, 1 - if
 709:.\Generated_Source\PSoC5/TFTSHIELD_1_SPIM_1.c **** *  FIFO not full, 4 - if FIFO full. In another case function return size of TX
 710:.\Generated_Source\PSoC5/TFTSHIELD_1_SPIM_1.c **** *  Software Buffer.
 711:.\Generated_Source\PSoC5/TFTSHIELD_1_SPIM_1.c **** *
 712:.\Generated_Source\PSoC5/TFTSHIELD_1_SPIM_1.c **** * Parameters:
 713:.\Generated_Source\PSoC5/TFTSHIELD_1_SPIM_1.c **** *  None.
 714:.\Generated_Source\PSoC5/TFTSHIELD_1_SPIM_1.c **** *
 715:.\Generated_Source\PSoC5/TFTSHIELD_1_SPIM_1.c **** * Return:
 716:.\Generated_Source\PSoC5/TFTSHIELD_1_SPIM_1.c **** *  Integer count of the number of bytes/words in the TX buffer.
 717:.\Generated_Source\PSoC5/TFTSHIELD_1_SPIM_1.c **** *
 718:.\Generated_Source\PSoC5/TFTSHIELD_1_SPIM_1.c **** * Global variables:
 719:.\Generated_Source\PSoC5/TFTSHIELD_1_SPIM_1.c **** *  TFTSHIELD_1_SPIM_1_txBufferWrite - used for the account of the bytes which
 720:.\Generated_Source\PSoC5/TFTSHIELD_1_SPIM_1.c **** *  have been written down in the TX software buffer.
 721:.\Generated_Source\PSoC5/TFTSHIELD_1_SPIM_1.c **** *  TFTSHIELD_1_SPIM_1_txBufferRead - used for the account of the bytes which
ARM GAS  C:\Users\Brian\AppData\Local\Temp\cc5TmrUF.s 			page 26


 722:.\Generated_Source\PSoC5/TFTSHIELD_1_SPIM_1.c **** *  have been read from the TX software buffer.
 723:.\Generated_Source\PSoC5/TFTSHIELD_1_SPIM_1.c **** *
 724:.\Generated_Source\PSoC5/TFTSHIELD_1_SPIM_1.c **** * Side Effects:
 725:.\Generated_Source\PSoC5/TFTSHIELD_1_SPIM_1.c **** *  Clear status register of the component.
 726:.\Generated_Source\PSoC5/TFTSHIELD_1_SPIM_1.c **** *
 727:.\Generated_Source\PSoC5/TFTSHIELD_1_SPIM_1.c **** *******************************************************************************/
 728:.\Generated_Source\PSoC5/TFTSHIELD_1_SPIM_1.c **** uint8  TFTSHIELD_1_SPIM_1_GetTxBufferSize(void) 
 729:.\Generated_Source\PSoC5/TFTSHIELD_1_SPIM_1.c **** {
 705              		.loc 1 729 0
 706              		.cfi_startproc
 707              		@ args = 0, pretend = 0, frame = 8
 708              		@ frame_needed = 1, uses_anonymous_args = 0
 709              		@ link register save eliminated.
 710 0000 80B4     		push	{r7}
 711              	.LCFI39:
 712              		.cfi_def_cfa_offset 4
 713              		.cfi_offset 7, -4
 714 0002 83B0     		sub	sp, sp, #12
 715              	.LCFI40:
 716              		.cfi_def_cfa_offset 16
 717 0004 00AF     		add	r7, sp, #0
 718              	.LCFI41:
 719              		.cfi_def_cfa_register 7
 730:.\Generated_Source\PSoC5/TFTSHIELD_1_SPIM_1.c ****     uint8 size;
 731:.\Generated_Source\PSoC5/TFTSHIELD_1_SPIM_1.c **** 
 732:.\Generated_Source\PSoC5/TFTSHIELD_1_SPIM_1.c ****     #if(TFTSHIELD_1_SPIM_1_TX_SOFTWARE_BUF_ENABLED)
 733:.\Generated_Source\PSoC5/TFTSHIELD_1_SPIM_1.c ****         /* Disable TX interrupt to protect global veriables */
 734:.\Generated_Source\PSoC5/TFTSHIELD_1_SPIM_1.c ****         TFTSHIELD_1_SPIM_1_DisableTxInt();
 735:.\Generated_Source\PSoC5/TFTSHIELD_1_SPIM_1.c **** 
 736:.\Generated_Source\PSoC5/TFTSHIELD_1_SPIM_1.c ****         if(TFTSHIELD_1_SPIM_1_txBufferRead == TFTSHIELD_1_SPIM_1_txBufferWrite)
 737:.\Generated_Source\PSoC5/TFTSHIELD_1_SPIM_1.c ****         {
 738:.\Generated_Source\PSoC5/TFTSHIELD_1_SPIM_1.c ****             size = 0u;
 739:.\Generated_Source\PSoC5/TFTSHIELD_1_SPIM_1.c ****         }
 740:.\Generated_Source\PSoC5/TFTSHIELD_1_SPIM_1.c ****         else if(TFTSHIELD_1_SPIM_1_txBufferRead < TFTSHIELD_1_SPIM_1_txBufferWrite)
 741:.\Generated_Source\PSoC5/TFTSHIELD_1_SPIM_1.c ****         {
 742:.\Generated_Source\PSoC5/TFTSHIELD_1_SPIM_1.c ****             size = (TFTSHIELD_1_SPIM_1_txBufferWrite - TFTSHIELD_1_SPIM_1_txBufferRead);
 743:.\Generated_Source\PSoC5/TFTSHIELD_1_SPIM_1.c ****         }
 744:.\Generated_Source\PSoC5/TFTSHIELD_1_SPIM_1.c ****         else
 745:.\Generated_Source\PSoC5/TFTSHIELD_1_SPIM_1.c ****         {
 746:.\Generated_Source\PSoC5/TFTSHIELD_1_SPIM_1.c ****             size = (TFTSHIELD_1_SPIM_1_TX_BUFFER_SIZE - TFTSHIELD_1_SPIM_1_txBufferRead) + TFTSHIEL
 747:.\Generated_Source\PSoC5/TFTSHIELD_1_SPIM_1.c ****         }
 748:.\Generated_Source\PSoC5/TFTSHIELD_1_SPIM_1.c **** 
 749:.\Generated_Source\PSoC5/TFTSHIELD_1_SPIM_1.c ****         TFTSHIELD_1_SPIM_1_EnableTxInt();
 750:.\Generated_Source\PSoC5/TFTSHIELD_1_SPIM_1.c **** 
 751:.\Generated_Source\PSoC5/TFTSHIELD_1_SPIM_1.c ****     #else
 752:.\Generated_Source\PSoC5/TFTSHIELD_1_SPIM_1.c **** 
 753:.\Generated_Source\PSoC5/TFTSHIELD_1_SPIM_1.c ****         size = TFTSHIELD_1_SPIM_1_TX_STATUS_REG;
 720              		.loc 1 753 0
 721 0006 46F26743 		movw	r3, #25703
 722 000a C4F20003 		movt	r3, 16384
 723 000e 1B78     		ldrb	r3, [r3, #0]
 724 0010 FB71     		strb	r3, [r7, #7]
 754:.\Generated_Source\PSoC5/TFTSHIELD_1_SPIM_1.c **** 
 755:.\Generated_Source\PSoC5/TFTSHIELD_1_SPIM_1.c ****         if(0u != (size & TFTSHIELD_1_SPIM_1_STS_TX_FIFO_EMPTY))
 725              		.loc 1 755 0
 726 0012 FB79     		ldrb	r3, [r7, #7]	@ zero_extendqisi2
 727 0014 03F00203 		and	r3, r3, #2
ARM GAS  C:\Users\Brian\AppData\Local\Temp\cc5TmrUF.s 			page 27


 728 0018 002B     		cmp	r3, #0
 729 001a 03D0     		beq	.L25
 756:.\Generated_Source\PSoC5/TFTSHIELD_1_SPIM_1.c ****         {
 757:.\Generated_Source\PSoC5/TFTSHIELD_1_SPIM_1.c ****             size = 0u;
 730              		.loc 1 757 0
 731 001c 4FF00003 		mov	r3, #0
 732 0020 FB71     		strb	r3, [r7, #7]
 733 0022 0BE0     		b	.L26
 734              	.L25:
 758:.\Generated_Source\PSoC5/TFTSHIELD_1_SPIM_1.c ****         }
 759:.\Generated_Source\PSoC5/TFTSHIELD_1_SPIM_1.c ****         else if(0u != (size & TFTSHIELD_1_SPIM_1_STS_TX_FIFO_NOT_FULL))
 735              		.loc 1 759 0
 736 0024 FB79     		ldrb	r3, [r7, #7]	@ zero_extendqisi2
 737 0026 03F00403 		and	r3, r3, #4
 738 002a 002B     		cmp	r3, #0
 739 002c 03D0     		beq	.L27
 760:.\Generated_Source\PSoC5/TFTSHIELD_1_SPIM_1.c ****         {
 761:.\Generated_Source\PSoC5/TFTSHIELD_1_SPIM_1.c ****             size = 1u;
 740              		.loc 1 761 0
 741 002e 4FF00103 		mov	r3, #1
 742 0032 FB71     		strb	r3, [r7, #7]
 743 0034 02E0     		b	.L26
 744              	.L27:
 762:.\Generated_Source\PSoC5/TFTSHIELD_1_SPIM_1.c ****         }
 763:.\Generated_Source\PSoC5/TFTSHIELD_1_SPIM_1.c ****         else
 764:.\Generated_Source\PSoC5/TFTSHIELD_1_SPIM_1.c ****         {
 765:.\Generated_Source\PSoC5/TFTSHIELD_1_SPIM_1.c ****             size = TFTSHIELD_1_SPIM_1_FIFO_SIZE;
 745              		.loc 1 765 0
 746 0036 4FF00403 		mov	r3, #4
 747 003a FB71     		strb	r3, [r7, #7]
 748              	.L26:
 766:.\Generated_Source\PSoC5/TFTSHIELD_1_SPIM_1.c ****         }
 767:.\Generated_Source\PSoC5/TFTSHIELD_1_SPIM_1.c **** 
 768:.\Generated_Source\PSoC5/TFTSHIELD_1_SPIM_1.c ****     #endif /* (TFTSHIELD_1_SPIM_1_TX_SOFTWARE_BUF_ENABLED) */
 769:.\Generated_Source\PSoC5/TFTSHIELD_1_SPIM_1.c **** 
 770:.\Generated_Source\PSoC5/TFTSHIELD_1_SPIM_1.c ****     return(size);
 749              		.loc 1 770 0
 750 003c FB79     		ldrb	r3, [r7, #7]	@ zero_extendqisi2
 771:.\Generated_Source\PSoC5/TFTSHIELD_1_SPIM_1.c **** }
 751              		.loc 1 771 0
 752 003e 1846     		mov	r0, r3
 753 0040 07F10C07 		add	r7, r7, #12
 754 0044 BD46     		mov	sp, r7
 755 0046 80BC     		pop	{r7}
 756 0048 7047     		bx	lr
 757              		.cfi_endproc
 758              	.LFE15:
 759              		.size	TFTSHIELD_1_SPIM_1_GetTxBufferSize, .-TFTSHIELD_1_SPIM_1_GetTxBufferSize
 760 004a 00BF     		.section	.text.TFTSHIELD_1_SPIM_1_ClearRxBuffer,"ax",%progbits
 761              		.align	2
 762              		.global	TFTSHIELD_1_SPIM_1_ClearRxBuffer
 763              		.thumb
 764              		.thumb_func
 765              		.type	TFTSHIELD_1_SPIM_1_ClearRxBuffer, %function
 766              	TFTSHIELD_1_SPIM_1_ClearRxBuffer:
 767              	.LFB16:
 772:.\Generated_Source\PSoC5/TFTSHIELD_1_SPIM_1.c **** 
ARM GAS  C:\Users\Brian\AppData\Local\Temp\cc5TmrUF.s 			page 28


 773:.\Generated_Source\PSoC5/TFTSHIELD_1_SPIM_1.c **** 
 774:.\Generated_Source\PSoC5/TFTSHIELD_1_SPIM_1.c **** /*******************************************************************************
 775:.\Generated_Source\PSoC5/TFTSHIELD_1_SPIM_1.c **** * Function Name: TFTSHIELD_1_SPIM_1_ClearRxBuffer
 776:.\Generated_Source\PSoC5/TFTSHIELD_1_SPIM_1.c **** ********************************************************************************
 777:.\Generated_Source\PSoC5/TFTSHIELD_1_SPIM_1.c **** *
 778:.\Generated_Source\PSoC5/TFTSHIELD_1_SPIM_1.c **** * Summary:
 779:.\Generated_Source\PSoC5/TFTSHIELD_1_SPIM_1.c **** *  Clear the RX RAM buffer by setting the read and write pointers both to zero.
 780:.\Generated_Source\PSoC5/TFTSHIELD_1_SPIM_1.c **** *
 781:.\Generated_Source\PSoC5/TFTSHIELD_1_SPIM_1.c **** * Parameters:
 782:.\Generated_Source\PSoC5/TFTSHIELD_1_SPIM_1.c **** *  None.
 783:.\Generated_Source\PSoC5/TFTSHIELD_1_SPIM_1.c **** *
 784:.\Generated_Source\PSoC5/TFTSHIELD_1_SPIM_1.c **** * Return:
 785:.\Generated_Source\PSoC5/TFTSHIELD_1_SPIM_1.c **** *  None.
 786:.\Generated_Source\PSoC5/TFTSHIELD_1_SPIM_1.c **** *
 787:.\Generated_Source\PSoC5/TFTSHIELD_1_SPIM_1.c **** * Global variables:
 788:.\Generated_Source\PSoC5/TFTSHIELD_1_SPIM_1.c **** *  TFTSHIELD_1_SPIM_1_rxBufferWrite - used for the account of the bytes which
 789:.\Generated_Source\PSoC5/TFTSHIELD_1_SPIM_1.c **** *  have been written down in the RX software buffer, modified every function
 790:.\Generated_Source\PSoC5/TFTSHIELD_1_SPIM_1.c **** *  call - resets to zero.
 791:.\Generated_Source\PSoC5/TFTSHIELD_1_SPIM_1.c **** *  TFTSHIELD_1_SPIM_1_rxBufferRead - used for the account of the bytes which
 792:.\Generated_Source\PSoC5/TFTSHIELD_1_SPIM_1.c **** *  have been read from the RX software buffer, modified every function call -
 793:.\Generated_Source\PSoC5/TFTSHIELD_1_SPIM_1.c **** *  resets to zero.
 794:.\Generated_Source\PSoC5/TFTSHIELD_1_SPIM_1.c **** *
 795:.\Generated_Source\PSoC5/TFTSHIELD_1_SPIM_1.c **** * Theory:
 796:.\Generated_Source\PSoC5/TFTSHIELD_1_SPIM_1.c **** *  Setting the pointers to zero makes the system believe there is no data to
 797:.\Generated_Source\PSoC5/TFTSHIELD_1_SPIM_1.c **** *  read and writing will resume at address 0 overwriting any data that may have
 798:.\Generated_Source\PSoC5/TFTSHIELD_1_SPIM_1.c **** *  remained in the RAM.
 799:.\Generated_Source\PSoC5/TFTSHIELD_1_SPIM_1.c **** *
 800:.\Generated_Source\PSoC5/TFTSHIELD_1_SPIM_1.c **** * Side Effects:
 801:.\Generated_Source\PSoC5/TFTSHIELD_1_SPIM_1.c **** *  Any received data not read from the RAM buffer will be lost when overwritten.
 802:.\Generated_Source\PSoC5/TFTSHIELD_1_SPIM_1.c **** *
 803:.\Generated_Source\PSoC5/TFTSHIELD_1_SPIM_1.c **** * Reentrant:
 804:.\Generated_Source\PSoC5/TFTSHIELD_1_SPIM_1.c **** *  No.
 805:.\Generated_Source\PSoC5/TFTSHIELD_1_SPIM_1.c **** *
 806:.\Generated_Source\PSoC5/TFTSHIELD_1_SPIM_1.c **** *******************************************************************************/
 807:.\Generated_Source\PSoC5/TFTSHIELD_1_SPIM_1.c **** void TFTSHIELD_1_SPIM_1_ClearRxBuffer(void) 
 808:.\Generated_Source\PSoC5/TFTSHIELD_1_SPIM_1.c **** {
 768              		.loc 1 808 0
 769              		.cfi_startproc
 770              		@ args = 0, pretend = 0, frame = 0
 771              		@ frame_needed = 1, uses_anonymous_args = 0
 772              		@ link register save eliminated.
 773 0000 80B4     		push	{r7}
 774              	.LCFI42:
 775              		.cfi_def_cfa_offset 4
 776              		.cfi_offset 7, -4
 777 0002 00AF     		add	r7, sp, #0
 778              	.LCFI43:
 779              		.cfi_def_cfa_register 7
 809:.\Generated_Source\PSoC5/TFTSHIELD_1_SPIM_1.c ****     /* Clear Hardware RX FIFO */
 810:.\Generated_Source\PSoC5/TFTSHIELD_1_SPIM_1.c ****     while(0u !=(TFTSHIELD_1_SPIM_1_RX_STATUS_REG & TFTSHIELD_1_SPIM_1_STS_RX_FIFO_NOT_EMPTY))
 780              		.loc 1 810 0
 781 0004 04E0     		b	.L30
 782              	.L31:
 811:.\Generated_Source\PSoC5/TFTSHIELD_1_SPIM_1.c ****     {
 812:.\Generated_Source\PSoC5/TFTSHIELD_1_SPIM_1.c ****         (void) CY_GET_REG8(TFTSHIELD_1_SPIM_1_RXDATA_PTR);
 783              		.loc 1 812 0
 784 0006 46F25743 		movw	r3, #25687
ARM GAS  C:\Users\Brian\AppData\Local\Temp\cc5TmrUF.s 			page 29


 785 000a C4F20003 		movt	r3, 16384
 786 000e 1B78     		ldrb	r3, [r3, #0]
 787              	.L30:
 810:.\Generated_Source\PSoC5/TFTSHIELD_1_SPIM_1.c ****     while(0u !=(TFTSHIELD_1_SPIM_1_RX_STATUS_REG & TFTSHIELD_1_SPIM_1_STS_RX_FIFO_NOT_EMPTY))
 788              		.loc 1 810 0 discriminator 1
 789 0010 46F26453 		movw	r3, #25956
 790 0014 C4F20003 		movt	r3, 16384
 791 0018 1B78     		ldrb	r3, [r3, #0]
 792 001a DBB2     		uxtb	r3, r3
 793 001c 03F02003 		and	r3, r3, #32
 794 0020 002B     		cmp	r3, #0
 795 0022 F0D1     		bne	.L31
 813:.\Generated_Source\PSoC5/TFTSHIELD_1_SPIM_1.c ****     }
 814:.\Generated_Source\PSoC5/TFTSHIELD_1_SPIM_1.c **** 
 815:.\Generated_Source\PSoC5/TFTSHIELD_1_SPIM_1.c ****     #if(TFTSHIELD_1_SPIM_1_RX_SOFTWARE_BUF_ENABLED)
 816:.\Generated_Source\PSoC5/TFTSHIELD_1_SPIM_1.c ****         /* Disable RX interrupt to protect global veriables */
 817:.\Generated_Source\PSoC5/TFTSHIELD_1_SPIM_1.c ****         TFTSHIELD_1_SPIM_1_DisableRxInt();
 818:.\Generated_Source\PSoC5/TFTSHIELD_1_SPIM_1.c **** 
 819:.\Generated_Source\PSoC5/TFTSHIELD_1_SPIM_1.c ****         TFTSHIELD_1_SPIM_1_rxBufferFull  = 0u;
 820:.\Generated_Source\PSoC5/TFTSHIELD_1_SPIM_1.c ****         TFTSHIELD_1_SPIM_1_rxBufferRead  = 0u;
 821:.\Generated_Source\PSoC5/TFTSHIELD_1_SPIM_1.c ****         TFTSHIELD_1_SPIM_1_rxBufferWrite = 0u;
 822:.\Generated_Source\PSoC5/TFTSHIELD_1_SPIM_1.c **** 
 823:.\Generated_Source\PSoC5/TFTSHIELD_1_SPIM_1.c ****         TFTSHIELD_1_SPIM_1_EnableRxInt();
 824:.\Generated_Source\PSoC5/TFTSHIELD_1_SPIM_1.c ****     #endif /* (TFTSHIELD_1_SPIM_1_RX_SOFTWARE_BUF_ENABLED) */
 825:.\Generated_Source\PSoC5/TFTSHIELD_1_SPIM_1.c **** }
 796              		.loc 1 825 0
 797 0024 BD46     		mov	sp, r7
 798 0026 80BC     		pop	{r7}
 799 0028 7047     		bx	lr
 800              		.cfi_endproc
 801              	.LFE16:
 802              		.size	TFTSHIELD_1_SPIM_1_ClearRxBuffer, .-TFTSHIELD_1_SPIM_1_ClearRxBuffer
 803 002a 00BF     		.section	.text.TFTSHIELD_1_SPIM_1_ClearTxBuffer,"ax",%progbits
 804              		.align	2
 805              		.global	TFTSHIELD_1_SPIM_1_ClearTxBuffer
 806              		.thumb
 807              		.thumb_func
 808              		.type	TFTSHIELD_1_SPIM_1_ClearTxBuffer, %function
 809              	TFTSHIELD_1_SPIM_1_ClearTxBuffer:
 810              	.LFB17:
 826:.\Generated_Source\PSoC5/TFTSHIELD_1_SPIM_1.c **** 
 827:.\Generated_Source\PSoC5/TFTSHIELD_1_SPIM_1.c **** 
 828:.\Generated_Source\PSoC5/TFTSHIELD_1_SPIM_1.c **** /*******************************************************************************
 829:.\Generated_Source\PSoC5/TFTSHIELD_1_SPIM_1.c **** * Function Name: TFTSHIELD_1_SPIM_1_ClearTxBuffer
 830:.\Generated_Source\PSoC5/TFTSHIELD_1_SPIM_1.c **** ********************************************************************************
 831:.\Generated_Source\PSoC5/TFTSHIELD_1_SPIM_1.c **** *
 832:.\Generated_Source\PSoC5/TFTSHIELD_1_SPIM_1.c **** * Summary:
 833:.\Generated_Source\PSoC5/TFTSHIELD_1_SPIM_1.c **** *  Clear the TX RAM buffer by setting the read and write pointers both to zero.
 834:.\Generated_Source\PSoC5/TFTSHIELD_1_SPIM_1.c **** *
 835:.\Generated_Source\PSoC5/TFTSHIELD_1_SPIM_1.c **** * Parameters:
 836:.\Generated_Source\PSoC5/TFTSHIELD_1_SPIM_1.c **** *  None.
 837:.\Generated_Source\PSoC5/TFTSHIELD_1_SPIM_1.c **** *
 838:.\Generated_Source\PSoC5/TFTSHIELD_1_SPIM_1.c **** * Return:
 839:.\Generated_Source\PSoC5/TFTSHIELD_1_SPIM_1.c **** *  None.
 840:.\Generated_Source\PSoC5/TFTSHIELD_1_SPIM_1.c **** *
 841:.\Generated_Source\PSoC5/TFTSHIELD_1_SPIM_1.c **** * Global variables:
 842:.\Generated_Source\PSoC5/TFTSHIELD_1_SPIM_1.c **** *  TFTSHIELD_1_SPIM_1_txBufferWrite - used for the account of the bytes which
ARM GAS  C:\Users\Brian\AppData\Local\Temp\cc5TmrUF.s 			page 30


 843:.\Generated_Source\PSoC5/TFTSHIELD_1_SPIM_1.c **** *  have been written down in the TX software buffer, modified every function
 844:.\Generated_Source\PSoC5/TFTSHIELD_1_SPIM_1.c **** *  call - resets to zero.
 845:.\Generated_Source\PSoC5/TFTSHIELD_1_SPIM_1.c **** *  TFTSHIELD_1_SPIM_1_txBufferRead - used for the account of the bytes which
 846:.\Generated_Source\PSoC5/TFTSHIELD_1_SPIM_1.c **** *  have been read from the TX software buffer, modified every function call -
 847:.\Generated_Source\PSoC5/TFTSHIELD_1_SPIM_1.c **** *  resets to zero.
 848:.\Generated_Source\PSoC5/TFTSHIELD_1_SPIM_1.c **** *
 849:.\Generated_Source\PSoC5/TFTSHIELD_1_SPIM_1.c **** * Theory:
 850:.\Generated_Source\PSoC5/TFTSHIELD_1_SPIM_1.c **** *  Setting the pointers to zero makes the system believe there is no data to
 851:.\Generated_Source\PSoC5/TFTSHIELD_1_SPIM_1.c **** *  read and writing will resume at address 0 overwriting any data that may have
 852:.\Generated_Source\PSoC5/TFTSHIELD_1_SPIM_1.c **** *  remained in the RAM.
 853:.\Generated_Source\PSoC5/TFTSHIELD_1_SPIM_1.c **** *
 854:.\Generated_Source\PSoC5/TFTSHIELD_1_SPIM_1.c **** * Side Effects:
 855:.\Generated_Source\PSoC5/TFTSHIELD_1_SPIM_1.c **** *  Any data not yet transmitted from the RAM buffer will be lost when
 856:.\Generated_Source\PSoC5/TFTSHIELD_1_SPIM_1.c **** *  overwritten.
 857:.\Generated_Source\PSoC5/TFTSHIELD_1_SPIM_1.c **** *
 858:.\Generated_Source\PSoC5/TFTSHIELD_1_SPIM_1.c **** * Reentrant:
 859:.\Generated_Source\PSoC5/TFTSHIELD_1_SPIM_1.c **** *  No.
 860:.\Generated_Source\PSoC5/TFTSHIELD_1_SPIM_1.c **** *
 861:.\Generated_Source\PSoC5/TFTSHIELD_1_SPIM_1.c **** *******************************************************************************/
 862:.\Generated_Source\PSoC5/TFTSHIELD_1_SPIM_1.c **** void TFTSHIELD_1_SPIM_1_ClearTxBuffer(void) 
 863:.\Generated_Source\PSoC5/TFTSHIELD_1_SPIM_1.c **** {
 811              		.loc 1 863 0
 812              		.cfi_startproc
 813              		@ args = 0, pretend = 0, frame = 8
 814              		@ frame_needed = 1, uses_anonymous_args = 0
 815 0000 80B5     		push	{r7, lr}
 816              	.LCFI44:
 817              		.cfi_def_cfa_offset 8
 818              		.cfi_offset 7, -8
 819              		.cfi_offset 14, -4
 820 0002 82B0     		sub	sp, sp, #8
 821              	.LCFI45:
 822              		.cfi_def_cfa_offset 16
 823 0004 00AF     		add	r7, sp, #0
 824              	.LCFI46:
 825              		.cfi_def_cfa_register 7
 864:.\Generated_Source\PSoC5/TFTSHIELD_1_SPIM_1.c ****     uint8 enableInterrupts;
 865:.\Generated_Source\PSoC5/TFTSHIELD_1_SPIM_1.c **** 
 866:.\Generated_Source\PSoC5/TFTSHIELD_1_SPIM_1.c ****     enableInterrupts = CyEnterCriticalSection();
 826              		.loc 1 866 0
 827 0006 FFF7FEFF 		bl	CyEnterCriticalSection
 828 000a 0346     		mov	r3, r0
 829 000c FB71     		strb	r3, [r7, #7]
 867:.\Generated_Source\PSoC5/TFTSHIELD_1_SPIM_1.c ****     /* Clear TX FIFO */
 868:.\Generated_Source\PSoC5/TFTSHIELD_1_SPIM_1.c ****     TFTSHIELD_1_SPIM_1_AUX_CONTROL_DP0_REG |= ((uint8)  TFTSHIELD_1_SPIM_1_TX_FIFO_CLR);
 830              		.loc 1 868 0
 831 000e 46F29743 		movw	r3, #25751
 832 0012 C4F20003 		movt	r3, 16384
 833 0016 46F29742 		movw	r2, #25751
 834 001a C4F20002 		movt	r2, 16384
 835 001e 1278     		ldrb	r2, [r2, #0]
 836 0020 D2B2     		uxtb	r2, r2
 837 0022 42F00102 		orr	r2, r2, #1
 838 0026 D2B2     		uxtb	r2, r2
 839 0028 1A70     		strb	r2, [r3, #0]
 869:.\Generated_Source\PSoC5/TFTSHIELD_1_SPIM_1.c ****     TFTSHIELD_1_SPIM_1_AUX_CONTROL_DP0_REG &= ((uint8) ~TFTSHIELD_1_SPIM_1_TX_FIFO_CLR);
 840              		.loc 1 869 0
ARM GAS  C:\Users\Brian\AppData\Local\Temp\cc5TmrUF.s 			page 31


 841 002a 46F29743 		movw	r3, #25751
 842 002e C4F20003 		movt	r3, 16384
 843 0032 46F29742 		movw	r2, #25751
 844 0036 C4F20002 		movt	r2, 16384
 845 003a 1278     		ldrb	r2, [r2, #0]
 846 003c D2B2     		uxtb	r2, r2
 847 003e 22F00102 		bic	r2, r2, #1
 848 0042 D2B2     		uxtb	r2, r2
 849 0044 1A70     		strb	r2, [r3, #0]
 870:.\Generated_Source\PSoC5/TFTSHIELD_1_SPIM_1.c **** 
 871:.\Generated_Source\PSoC5/TFTSHIELD_1_SPIM_1.c ****     #if(TFTSHIELD_1_SPIM_1_USE_SECOND_DATAPATH)
 872:.\Generated_Source\PSoC5/TFTSHIELD_1_SPIM_1.c ****         /* Clear TX FIFO for 2nd Datapath */
 873:.\Generated_Source\PSoC5/TFTSHIELD_1_SPIM_1.c ****         TFTSHIELD_1_SPIM_1_AUX_CONTROL_DP1_REG |= ((uint8)  TFTSHIELD_1_SPIM_1_TX_FIFO_CLR);
 874:.\Generated_Source\PSoC5/TFTSHIELD_1_SPIM_1.c ****         TFTSHIELD_1_SPIM_1_AUX_CONTROL_DP1_REG &= ((uint8) ~TFTSHIELD_1_SPIM_1_TX_FIFO_CLR);
 875:.\Generated_Source\PSoC5/TFTSHIELD_1_SPIM_1.c ****     #endif /* (TFTSHIELD_1_SPIM_1_USE_SECOND_DATAPATH) */
 876:.\Generated_Source\PSoC5/TFTSHIELD_1_SPIM_1.c ****     CyExitCriticalSection(enableInterrupts);
 850              		.loc 1 876 0
 851 0046 FB79     		ldrb	r3, [r7, #7]	@ zero_extendqisi2
 852 0048 1846     		mov	r0, r3
 853 004a FFF7FEFF 		bl	CyExitCriticalSection
 877:.\Generated_Source\PSoC5/TFTSHIELD_1_SPIM_1.c **** 
 878:.\Generated_Source\PSoC5/TFTSHIELD_1_SPIM_1.c ****     #if(TFTSHIELD_1_SPIM_1_TX_SOFTWARE_BUF_ENABLED)
 879:.\Generated_Source\PSoC5/TFTSHIELD_1_SPIM_1.c ****         /* Disable TX interrupt to protect global veriables */
 880:.\Generated_Source\PSoC5/TFTSHIELD_1_SPIM_1.c ****         TFTSHIELD_1_SPIM_1_DisableTxInt();
 881:.\Generated_Source\PSoC5/TFTSHIELD_1_SPIM_1.c **** 
 882:.\Generated_Source\PSoC5/TFTSHIELD_1_SPIM_1.c ****         TFTSHIELD_1_SPIM_1_txBufferFull  = 0u;
 883:.\Generated_Source\PSoC5/TFTSHIELD_1_SPIM_1.c ****         TFTSHIELD_1_SPIM_1_txBufferRead  = 0u;
 884:.\Generated_Source\PSoC5/TFTSHIELD_1_SPIM_1.c ****         TFTSHIELD_1_SPIM_1_txBufferWrite = 0u;
 885:.\Generated_Source\PSoC5/TFTSHIELD_1_SPIM_1.c **** 
 886:.\Generated_Source\PSoC5/TFTSHIELD_1_SPIM_1.c ****         /* Buffer is EMPTY: disable TX FIFO NOT FULL interrupt */
 887:.\Generated_Source\PSoC5/TFTSHIELD_1_SPIM_1.c ****         TFTSHIELD_1_SPIM_1_TX_STATUS_MASK_REG &= ((uint8) ~TFTSHIELD_1_SPIM_1_STS_TX_FIFO_NOT_FULL)
 888:.\Generated_Source\PSoC5/TFTSHIELD_1_SPIM_1.c **** 
 889:.\Generated_Source\PSoC5/TFTSHIELD_1_SPIM_1.c ****         TFTSHIELD_1_SPIM_1_EnableTxInt();
 890:.\Generated_Source\PSoC5/TFTSHIELD_1_SPIM_1.c ****     #endif /* (TFTSHIELD_1_SPIM_1_TX_SOFTWARE_BUF_ENABLED) */
 891:.\Generated_Source\PSoC5/TFTSHIELD_1_SPIM_1.c **** }
 854              		.loc 1 891 0
 855 004e 07F10807 		add	r7, r7, #8
 856 0052 BD46     		mov	sp, r7
 857 0054 80BD     		pop	{r7, pc}
 858              		.cfi_endproc
 859              	.LFE17:
 860              		.size	TFTSHIELD_1_SPIM_1_ClearTxBuffer, .-TFTSHIELD_1_SPIM_1_ClearTxBuffer
 861 0056 00BF     		.section	.text.TFTSHIELD_1_SPIM_1_PutArray,"ax",%progbits
 862              		.align	2
 863              		.global	TFTSHIELD_1_SPIM_1_PutArray
 864              		.thumb
 865              		.thumb_func
 866              		.type	TFTSHIELD_1_SPIM_1_PutArray, %function
 867              	TFTSHIELD_1_SPIM_1_PutArray:
 868              	.LFB18:
 892:.\Generated_Source\PSoC5/TFTSHIELD_1_SPIM_1.c **** 
 893:.\Generated_Source\PSoC5/TFTSHIELD_1_SPIM_1.c **** 
 894:.\Generated_Source\PSoC5/TFTSHIELD_1_SPIM_1.c **** #if(0u != TFTSHIELD_1_SPIM_1_BIDIRECTIONAL_MODE)
 895:.\Generated_Source\PSoC5/TFTSHIELD_1_SPIM_1.c ****     /*******************************************************************************
 896:.\Generated_Source\PSoC5/TFTSHIELD_1_SPIM_1.c ****     * Function Name: TFTSHIELD_1_SPIM_1_TxEnable
 897:.\Generated_Source\PSoC5/TFTSHIELD_1_SPIM_1.c ****     ********************************************************************************
 898:.\Generated_Source\PSoC5/TFTSHIELD_1_SPIM_1.c ****     *
ARM GAS  C:\Users\Brian\AppData\Local\Temp\cc5TmrUF.s 			page 32


 899:.\Generated_Source\PSoC5/TFTSHIELD_1_SPIM_1.c ****     * Summary:
 900:.\Generated_Source\PSoC5/TFTSHIELD_1_SPIM_1.c ****     *  If the SPI master is configured to use a single bi-directional pin then this
 901:.\Generated_Source\PSoC5/TFTSHIELD_1_SPIM_1.c ****     *  will set the bi-directional pin to transmit.
 902:.\Generated_Source\PSoC5/TFTSHIELD_1_SPIM_1.c ****     *
 903:.\Generated_Source\PSoC5/TFTSHIELD_1_SPIM_1.c ****     * Parameters:
 904:.\Generated_Source\PSoC5/TFTSHIELD_1_SPIM_1.c ****     *  None.
 905:.\Generated_Source\PSoC5/TFTSHIELD_1_SPIM_1.c ****     *
 906:.\Generated_Source\PSoC5/TFTSHIELD_1_SPIM_1.c ****     * Return:
 907:.\Generated_Source\PSoC5/TFTSHIELD_1_SPIM_1.c ****     *  None.
 908:.\Generated_Source\PSoC5/TFTSHIELD_1_SPIM_1.c ****     *
 909:.\Generated_Source\PSoC5/TFTSHIELD_1_SPIM_1.c ****     *******************************************************************************/
 910:.\Generated_Source\PSoC5/TFTSHIELD_1_SPIM_1.c ****     void TFTSHIELD_1_SPIM_1_TxEnable(void) 
 911:.\Generated_Source\PSoC5/TFTSHIELD_1_SPIM_1.c ****     {
 912:.\Generated_Source\PSoC5/TFTSHIELD_1_SPIM_1.c ****         TFTSHIELD_1_SPIM_1_CONTROL_REG |= TFTSHIELD_1_SPIM_1_CTRL_TX_SIGNAL_EN;
 913:.\Generated_Source\PSoC5/TFTSHIELD_1_SPIM_1.c ****     }
 914:.\Generated_Source\PSoC5/TFTSHIELD_1_SPIM_1.c **** 
 915:.\Generated_Source\PSoC5/TFTSHIELD_1_SPIM_1.c **** 
 916:.\Generated_Source\PSoC5/TFTSHIELD_1_SPIM_1.c ****     /*******************************************************************************
 917:.\Generated_Source\PSoC5/TFTSHIELD_1_SPIM_1.c ****     * Function Name: TFTSHIELD_1_SPIM_1_TxDisable
 918:.\Generated_Source\PSoC5/TFTSHIELD_1_SPIM_1.c ****     ********************************************************************************
 919:.\Generated_Source\PSoC5/TFTSHIELD_1_SPIM_1.c ****     *
 920:.\Generated_Source\PSoC5/TFTSHIELD_1_SPIM_1.c ****     * Summary:
 921:.\Generated_Source\PSoC5/TFTSHIELD_1_SPIM_1.c ****     *  If the SPI master is configured to use a single bi-directional pin then this
 922:.\Generated_Source\PSoC5/TFTSHIELD_1_SPIM_1.c ****     *  will set the bi-directional pin to receive.
 923:.\Generated_Source\PSoC5/TFTSHIELD_1_SPIM_1.c ****     *
 924:.\Generated_Source\PSoC5/TFTSHIELD_1_SPIM_1.c ****     * Parameters:
 925:.\Generated_Source\PSoC5/TFTSHIELD_1_SPIM_1.c ****     *  None.
 926:.\Generated_Source\PSoC5/TFTSHIELD_1_SPIM_1.c ****     *
 927:.\Generated_Source\PSoC5/TFTSHIELD_1_SPIM_1.c ****     * Return:
 928:.\Generated_Source\PSoC5/TFTSHIELD_1_SPIM_1.c ****     *  None.
 929:.\Generated_Source\PSoC5/TFTSHIELD_1_SPIM_1.c ****     *
 930:.\Generated_Source\PSoC5/TFTSHIELD_1_SPIM_1.c ****     *******************************************************************************/
 931:.\Generated_Source\PSoC5/TFTSHIELD_1_SPIM_1.c ****     void TFTSHIELD_1_SPIM_1_TxDisable(void) 
 932:.\Generated_Source\PSoC5/TFTSHIELD_1_SPIM_1.c ****     {
 933:.\Generated_Source\PSoC5/TFTSHIELD_1_SPIM_1.c ****         TFTSHIELD_1_SPIM_1_CONTROL_REG &= ((uint8) ~TFTSHIELD_1_SPIM_1_CTRL_TX_SIGNAL_EN);
 934:.\Generated_Source\PSoC5/TFTSHIELD_1_SPIM_1.c ****     }
 935:.\Generated_Source\PSoC5/TFTSHIELD_1_SPIM_1.c **** 
 936:.\Generated_Source\PSoC5/TFTSHIELD_1_SPIM_1.c **** #endif /* (0u != TFTSHIELD_1_SPIM_1_BIDIRECTIONAL_MODE) */
 937:.\Generated_Source\PSoC5/TFTSHIELD_1_SPIM_1.c **** 
 938:.\Generated_Source\PSoC5/TFTSHIELD_1_SPIM_1.c **** 
 939:.\Generated_Source\PSoC5/TFTSHIELD_1_SPIM_1.c **** /*******************************************************************************
 940:.\Generated_Source\PSoC5/TFTSHIELD_1_SPIM_1.c **** * Function Name: TFTSHIELD_1_SPIM_1_PutArray
 941:.\Generated_Source\PSoC5/TFTSHIELD_1_SPIM_1.c **** ********************************************************************************
 942:.\Generated_Source\PSoC5/TFTSHIELD_1_SPIM_1.c **** *
 943:.\Generated_Source\PSoC5/TFTSHIELD_1_SPIM_1.c **** * Summary:
 944:.\Generated_Source\PSoC5/TFTSHIELD_1_SPIM_1.c **** *  Write available data from ROM/RAM to the TX buffer while space is available
 945:.\Generated_Source\PSoC5/TFTSHIELD_1_SPIM_1.c **** *  in the TX buffer. Keep trying until all data is passed to the TX buffer.
 946:.\Generated_Source\PSoC5/TFTSHIELD_1_SPIM_1.c **** *
 947:.\Generated_Source\PSoC5/TFTSHIELD_1_SPIM_1.c **** * Parameters:
 948:.\Generated_Source\PSoC5/TFTSHIELD_1_SPIM_1.c **** *  *buffer: Pointer to the location in RAM containing the data to send
 949:.\Generated_Source\PSoC5/TFTSHIELD_1_SPIM_1.c **** *  byteCount: The number of bytes to move to the transmit buffer.
 950:.\Generated_Source\PSoC5/TFTSHIELD_1_SPIM_1.c **** *
 951:.\Generated_Source\PSoC5/TFTSHIELD_1_SPIM_1.c **** * Return:
 952:.\Generated_Source\PSoC5/TFTSHIELD_1_SPIM_1.c **** *  None.
 953:.\Generated_Source\PSoC5/TFTSHIELD_1_SPIM_1.c **** *
 954:.\Generated_Source\PSoC5/TFTSHIELD_1_SPIM_1.c **** * Side Effects:
 955:.\Generated_Source\PSoC5/TFTSHIELD_1_SPIM_1.c **** *  Will stay in this routine until all data has been sent.  May get locked in
ARM GAS  C:\Users\Brian\AppData\Local\Temp\cc5TmrUF.s 			page 33


 956:.\Generated_Source\PSoC5/TFTSHIELD_1_SPIM_1.c **** *  this loop if data is not being initiated by the master if there is not
 957:.\Generated_Source\PSoC5/TFTSHIELD_1_SPIM_1.c **** *  enough room in the TX FIFO.
 958:.\Generated_Source\PSoC5/TFTSHIELD_1_SPIM_1.c **** *
 959:.\Generated_Source\PSoC5/TFTSHIELD_1_SPIM_1.c **** * Reentrant:
 960:.\Generated_Source\PSoC5/TFTSHIELD_1_SPIM_1.c **** *  No.
 961:.\Generated_Source\PSoC5/TFTSHIELD_1_SPIM_1.c **** *
 962:.\Generated_Source\PSoC5/TFTSHIELD_1_SPIM_1.c **** *******************************************************************************/
 963:.\Generated_Source\PSoC5/TFTSHIELD_1_SPIM_1.c **** void TFTSHIELD_1_SPIM_1_PutArray(const uint8 buffer[], uint8 byteCount)
 964:.\Generated_Source\PSoC5/TFTSHIELD_1_SPIM_1.c ****                                                                           
 965:.\Generated_Source\PSoC5/TFTSHIELD_1_SPIM_1.c **** {
 869              		.loc 1 965 0
 870              		.cfi_startproc
 871              		@ args = 0, pretend = 0, frame = 16
 872              		@ frame_needed = 1, uses_anonymous_args = 0
 873 0000 80B5     		push	{r7, lr}
 874              	.LCFI47:
 875              		.cfi_def_cfa_offset 8
 876              		.cfi_offset 7, -8
 877              		.cfi_offset 14, -4
 878 0002 84B0     		sub	sp, sp, #16
 879              	.LCFI48:
 880              		.cfi_def_cfa_offset 24
 881 0004 00AF     		add	r7, sp, #0
 882              	.LCFI49:
 883              		.cfi_def_cfa_register 7
 884 0006 7860     		str	r0, [r7, #4]
 885 0008 0B46     		mov	r3, r1
 886 000a FB70     		strb	r3, [r7, #3]
 966:.\Generated_Source\PSoC5/TFTSHIELD_1_SPIM_1.c ****     uint8 bufIndex;
 967:.\Generated_Source\PSoC5/TFTSHIELD_1_SPIM_1.c **** 
 968:.\Generated_Source\PSoC5/TFTSHIELD_1_SPIM_1.c ****     bufIndex = 0u;
 887              		.loc 1 968 0
 888 000c 4FF00003 		mov	r3, #0
 889 0010 FB73     		strb	r3, [r7, #15]
 969:.\Generated_Source\PSoC5/TFTSHIELD_1_SPIM_1.c **** 
 970:.\Generated_Source\PSoC5/TFTSHIELD_1_SPIM_1.c ****     while(byteCount > 0u)
 890              		.loc 1 970 0
 891 0012 0EE0     		b	.L34
 892              	.L35:
 971:.\Generated_Source\PSoC5/TFTSHIELD_1_SPIM_1.c ****     {
 972:.\Generated_Source\PSoC5/TFTSHIELD_1_SPIM_1.c ****         TFTSHIELD_1_SPIM_1_WriteTxData(buffer[bufIndex]);
 893              		.loc 1 972 0
 894 0014 FB7B     		ldrb	r3, [r7, #15]	@ zero_extendqisi2
 895 0016 7A68     		ldr	r2, [r7, #4]
 896 0018 D318     		adds	r3, r2, r3
 897 001a 1B78     		ldrb	r3, [r3, #0]	@ zero_extendqisi2
 898 001c 1846     		mov	r0, r3
 899 001e FFF7FEFF 		bl	TFTSHIELD_1_SPIM_1_WriteTxData
 973:.\Generated_Source\PSoC5/TFTSHIELD_1_SPIM_1.c ****         bufIndex++;
 900              		.loc 1 973 0
 901 0022 FB7B     		ldrb	r3, [r7, #15]
 902 0024 03F10103 		add	r3, r3, #1
 903 0028 FB73     		strb	r3, [r7, #15]
 974:.\Generated_Source\PSoC5/TFTSHIELD_1_SPIM_1.c ****         byteCount--;
 904              		.loc 1 974 0
 905 002a FB78     		ldrb	r3, [r7, #3]
 906 002c 03F1FF33 		add	r3, r3, #-1
ARM GAS  C:\Users\Brian\AppData\Local\Temp\cc5TmrUF.s 			page 34


 907 0030 FB70     		strb	r3, [r7, #3]
 908              	.L34:
 970:.\Generated_Source\PSoC5/TFTSHIELD_1_SPIM_1.c ****     while(byteCount > 0u)
 909              		.loc 1 970 0 discriminator 1
 910 0032 FB78     		ldrb	r3, [r7, #3]	@ zero_extendqisi2
 911 0034 002B     		cmp	r3, #0
 912 0036 EDD1     		bne	.L35
 975:.\Generated_Source\PSoC5/TFTSHIELD_1_SPIM_1.c ****     }
 976:.\Generated_Source\PSoC5/TFTSHIELD_1_SPIM_1.c **** }
 913              		.loc 1 976 0
 914 0038 07F11007 		add	r7, r7, #16
 915 003c BD46     		mov	sp, r7
 916 003e 80BD     		pop	{r7, pc}
 917              		.cfi_endproc
 918              	.LFE18:
 919              		.size	TFTSHIELD_1_SPIM_1_PutArray, .-TFTSHIELD_1_SPIM_1_PutArray
 920              		.section	.text.TFTSHIELD_1_SPIM_1_ClearFIFO,"ax",%progbits
 921              		.align	2
 922              		.global	TFTSHIELD_1_SPIM_1_ClearFIFO
 923              		.thumb
 924              		.thumb_func
 925              		.type	TFTSHIELD_1_SPIM_1_ClearFIFO, %function
 926              	TFTSHIELD_1_SPIM_1_ClearFIFO:
 927              	.LFB19:
 977:.\Generated_Source\PSoC5/TFTSHIELD_1_SPIM_1.c **** 
 978:.\Generated_Source\PSoC5/TFTSHIELD_1_SPIM_1.c **** 
 979:.\Generated_Source\PSoC5/TFTSHIELD_1_SPIM_1.c **** /*******************************************************************************
 980:.\Generated_Source\PSoC5/TFTSHIELD_1_SPIM_1.c **** * Function Name: TFTSHIELD_1_SPIM_1_ClearFIFO
 981:.\Generated_Source\PSoC5/TFTSHIELD_1_SPIM_1.c **** ********************************************************************************
 982:.\Generated_Source\PSoC5/TFTSHIELD_1_SPIM_1.c **** *
 983:.\Generated_Source\PSoC5/TFTSHIELD_1_SPIM_1.c **** * Summary:
 984:.\Generated_Source\PSoC5/TFTSHIELD_1_SPIM_1.c **** *  Clear the RX and TX FIFO's of all data for a fresh start.
 985:.\Generated_Source\PSoC5/TFTSHIELD_1_SPIM_1.c **** *
 986:.\Generated_Source\PSoC5/TFTSHIELD_1_SPIM_1.c **** * Parameters:
 987:.\Generated_Source\PSoC5/TFTSHIELD_1_SPIM_1.c **** *  None.
 988:.\Generated_Source\PSoC5/TFTSHIELD_1_SPIM_1.c **** *
 989:.\Generated_Source\PSoC5/TFTSHIELD_1_SPIM_1.c **** * Return:
 990:.\Generated_Source\PSoC5/TFTSHIELD_1_SPIM_1.c **** *  None.
 991:.\Generated_Source\PSoC5/TFTSHIELD_1_SPIM_1.c **** *
 992:.\Generated_Source\PSoC5/TFTSHIELD_1_SPIM_1.c **** * Side Effects:
 993:.\Generated_Source\PSoC5/TFTSHIELD_1_SPIM_1.c **** *  Clear status register of the component.
 994:.\Generated_Source\PSoC5/TFTSHIELD_1_SPIM_1.c **** *
 995:.\Generated_Source\PSoC5/TFTSHIELD_1_SPIM_1.c **** *******************************************************************************/
 996:.\Generated_Source\PSoC5/TFTSHIELD_1_SPIM_1.c **** void TFTSHIELD_1_SPIM_1_ClearFIFO(void) 
 997:.\Generated_Source\PSoC5/TFTSHIELD_1_SPIM_1.c **** {
 928              		.loc 1 997 0
 929              		.cfi_startproc
 930              		@ args = 0, pretend = 0, frame = 8
 931              		@ frame_needed = 1, uses_anonymous_args = 0
 932 0000 80B5     		push	{r7, lr}
 933              	.LCFI50:
 934              		.cfi_def_cfa_offset 8
 935              		.cfi_offset 7, -8
 936              		.cfi_offset 14, -4
 937 0002 82B0     		sub	sp, sp, #8
 938              	.LCFI51:
 939              		.cfi_def_cfa_offset 16
ARM GAS  C:\Users\Brian\AppData\Local\Temp\cc5TmrUF.s 			page 35


 940 0004 00AF     		add	r7, sp, #0
 941              	.LCFI52:
 942              		.cfi_def_cfa_register 7
 998:.\Generated_Source\PSoC5/TFTSHIELD_1_SPIM_1.c ****     uint8 enableInterrupts;
 999:.\Generated_Source\PSoC5/TFTSHIELD_1_SPIM_1.c **** 
1000:.\Generated_Source\PSoC5/TFTSHIELD_1_SPIM_1.c ****     /* Clear Hardware RX FIFO */
1001:.\Generated_Source\PSoC5/TFTSHIELD_1_SPIM_1.c ****     while(0u !=(TFTSHIELD_1_SPIM_1_RX_STATUS_REG & TFTSHIELD_1_SPIM_1_STS_RX_FIFO_NOT_EMPTY))
 943              		.loc 1 1001 0
 944 0006 04E0     		b	.L37
 945              	.L38:
1002:.\Generated_Source\PSoC5/TFTSHIELD_1_SPIM_1.c ****     {
1003:.\Generated_Source\PSoC5/TFTSHIELD_1_SPIM_1.c ****         (void) CY_GET_REG8(TFTSHIELD_1_SPIM_1_RXDATA_PTR);
 946              		.loc 1 1003 0
 947 0008 46F25743 		movw	r3, #25687
 948 000c C4F20003 		movt	r3, 16384
 949 0010 1B78     		ldrb	r3, [r3, #0]
 950              	.L37:
1001:.\Generated_Source\PSoC5/TFTSHIELD_1_SPIM_1.c ****     while(0u !=(TFTSHIELD_1_SPIM_1_RX_STATUS_REG & TFTSHIELD_1_SPIM_1_STS_RX_FIFO_NOT_EMPTY))
 951              		.loc 1 1001 0 discriminator 1
 952 0012 46F26453 		movw	r3, #25956
 953 0016 C4F20003 		movt	r3, 16384
 954 001a 1B78     		ldrb	r3, [r3, #0]
 955 001c DBB2     		uxtb	r3, r3
 956 001e 03F02003 		and	r3, r3, #32
 957 0022 002B     		cmp	r3, #0
 958 0024 F0D1     		bne	.L38
1004:.\Generated_Source\PSoC5/TFTSHIELD_1_SPIM_1.c ****     }
1005:.\Generated_Source\PSoC5/TFTSHIELD_1_SPIM_1.c **** 
1006:.\Generated_Source\PSoC5/TFTSHIELD_1_SPIM_1.c ****     enableInterrupts = CyEnterCriticalSection();
 959              		.loc 1 1006 0
 960 0026 FFF7FEFF 		bl	CyEnterCriticalSection
 961 002a 0346     		mov	r3, r0
 962 002c FB71     		strb	r3, [r7, #7]
1007:.\Generated_Source\PSoC5/TFTSHIELD_1_SPIM_1.c ****     /* Clear TX FIFO */
1008:.\Generated_Source\PSoC5/TFTSHIELD_1_SPIM_1.c ****     TFTSHIELD_1_SPIM_1_AUX_CONTROL_DP0_REG |= ((uint8)  TFTSHIELD_1_SPIM_1_TX_FIFO_CLR);
 963              		.loc 1 1008 0
 964 002e 46F29743 		movw	r3, #25751
 965 0032 C4F20003 		movt	r3, 16384
 966 0036 46F29742 		movw	r2, #25751
 967 003a C4F20002 		movt	r2, 16384
 968 003e 1278     		ldrb	r2, [r2, #0]
 969 0040 D2B2     		uxtb	r2, r2
 970 0042 42F00102 		orr	r2, r2, #1
 971 0046 D2B2     		uxtb	r2, r2
 972 0048 1A70     		strb	r2, [r3, #0]
1009:.\Generated_Source\PSoC5/TFTSHIELD_1_SPIM_1.c ****     TFTSHIELD_1_SPIM_1_AUX_CONTROL_DP0_REG &= ((uint8) ~TFTSHIELD_1_SPIM_1_TX_FIFO_CLR);
 973              		.loc 1 1009 0
 974 004a 46F29743 		movw	r3, #25751
 975 004e C4F20003 		movt	r3, 16384
 976 0052 46F29742 		movw	r2, #25751
 977 0056 C4F20002 		movt	r2, 16384
 978 005a 1278     		ldrb	r2, [r2, #0]
 979 005c D2B2     		uxtb	r2, r2
 980 005e 22F00102 		bic	r2, r2, #1
 981 0062 D2B2     		uxtb	r2, r2
 982 0064 1A70     		strb	r2, [r3, #0]
1010:.\Generated_Source\PSoC5/TFTSHIELD_1_SPIM_1.c **** 
ARM GAS  C:\Users\Brian\AppData\Local\Temp\cc5TmrUF.s 			page 36


1011:.\Generated_Source\PSoC5/TFTSHIELD_1_SPIM_1.c ****     #if(TFTSHIELD_1_SPIM_1_USE_SECOND_DATAPATH)
1012:.\Generated_Source\PSoC5/TFTSHIELD_1_SPIM_1.c ****         /* Clear TX FIFO for 2nd Datapath */
1013:.\Generated_Source\PSoC5/TFTSHIELD_1_SPIM_1.c ****         TFTSHIELD_1_SPIM_1_AUX_CONTROL_DP1_REG |= ((uint8)  TFTSHIELD_1_SPIM_1_TX_FIFO_CLR);
1014:.\Generated_Source\PSoC5/TFTSHIELD_1_SPIM_1.c ****         TFTSHIELD_1_SPIM_1_AUX_CONTROL_DP1_REG &= ((uint8) ~TFTSHIELD_1_SPIM_1_TX_FIFO_CLR);
1015:.\Generated_Source\PSoC5/TFTSHIELD_1_SPIM_1.c ****     #endif /* (TFTSHIELD_1_SPIM_1_USE_SECOND_DATAPATH) */
1016:.\Generated_Source\PSoC5/TFTSHIELD_1_SPIM_1.c ****     CyExitCriticalSection(enableInterrupts);
 983              		.loc 1 1016 0
 984 0066 FB79     		ldrb	r3, [r7, #7]	@ zero_extendqisi2
 985 0068 1846     		mov	r0, r3
 986 006a FFF7FEFF 		bl	CyExitCriticalSection
1017:.\Generated_Source\PSoC5/TFTSHIELD_1_SPIM_1.c **** }
 987              		.loc 1 1017 0
 988 006e 07F10807 		add	r7, r7, #8
 989 0072 BD46     		mov	sp, r7
 990 0074 80BD     		pop	{r7, pc}
 991              		.cfi_endproc
 992              	.LFE19:
 993              		.size	TFTSHIELD_1_SPIM_1_ClearFIFO, .-TFTSHIELD_1_SPIM_1_ClearFIFO
 994 0076 00BF     		.section	.text.TFTSHIELD_1_SPIM_1_EnableInt,"ax",%progbits
 995              		.align	2
 996              		.global	TFTSHIELD_1_SPIM_1_EnableInt
 997              		.thumb
 998              		.thumb_func
 999              		.type	TFTSHIELD_1_SPIM_1_EnableInt, %function
 1000              	TFTSHIELD_1_SPIM_1_EnableInt:
 1001              	.LFB20:
1018:.\Generated_Source\PSoC5/TFTSHIELD_1_SPIM_1.c **** 
1019:.\Generated_Source\PSoC5/TFTSHIELD_1_SPIM_1.c **** 
1020:.\Generated_Source\PSoC5/TFTSHIELD_1_SPIM_1.c **** /* Following functions are for version Compatibility, they are obsolete.
1021:.\Generated_Source\PSoC5/TFTSHIELD_1_SPIM_1.c **** *  Please do not use it in new projects.
1022:.\Generated_Source\PSoC5/TFTSHIELD_1_SPIM_1.c **** */
1023:.\Generated_Source\PSoC5/TFTSHIELD_1_SPIM_1.c **** 
1024:.\Generated_Source\PSoC5/TFTSHIELD_1_SPIM_1.c **** 
1025:.\Generated_Source\PSoC5/TFTSHIELD_1_SPIM_1.c **** /*******************************************************************************
1026:.\Generated_Source\PSoC5/TFTSHIELD_1_SPIM_1.c **** * Function Name: TFTSHIELD_1_SPIM_1_EnableInt
1027:.\Generated_Source\PSoC5/TFTSHIELD_1_SPIM_1.c **** ********************************************************************************
1028:.\Generated_Source\PSoC5/TFTSHIELD_1_SPIM_1.c **** *
1029:.\Generated_Source\PSoC5/TFTSHIELD_1_SPIM_1.c **** * Summary:
1030:.\Generated_Source\PSoC5/TFTSHIELD_1_SPIM_1.c **** *  Enable internal interrupt generation.
1031:.\Generated_Source\PSoC5/TFTSHIELD_1_SPIM_1.c **** *
1032:.\Generated_Source\PSoC5/TFTSHIELD_1_SPIM_1.c **** * Parameters:
1033:.\Generated_Source\PSoC5/TFTSHIELD_1_SPIM_1.c **** *  None.
1034:.\Generated_Source\PSoC5/TFTSHIELD_1_SPIM_1.c **** *
1035:.\Generated_Source\PSoC5/TFTSHIELD_1_SPIM_1.c **** * Return:
1036:.\Generated_Source\PSoC5/TFTSHIELD_1_SPIM_1.c **** *  None.
1037:.\Generated_Source\PSoC5/TFTSHIELD_1_SPIM_1.c **** *
1038:.\Generated_Source\PSoC5/TFTSHIELD_1_SPIM_1.c **** * Theory:
1039:.\Generated_Source\PSoC5/TFTSHIELD_1_SPIM_1.c **** *  Enable the internal interrupt output -or- the interrupt component itself.
1040:.\Generated_Source\PSoC5/TFTSHIELD_1_SPIM_1.c **** *
1041:.\Generated_Source\PSoC5/TFTSHIELD_1_SPIM_1.c **** *******************************************************************************/
1042:.\Generated_Source\PSoC5/TFTSHIELD_1_SPIM_1.c **** void TFTSHIELD_1_SPIM_1_EnableInt(void) 
1043:.\Generated_Source\PSoC5/TFTSHIELD_1_SPIM_1.c **** {
 1002              		.loc 1 1043 0
 1003              		.cfi_startproc
 1004              		@ args = 0, pretend = 0, frame = 0
 1005              		@ frame_needed = 1, uses_anonymous_args = 0
 1006 0000 80B5     		push	{r7, lr}
ARM GAS  C:\Users\Brian\AppData\Local\Temp\cc5TmrUF.s 			page 37


 1007              	.LCFI53:
 1008              		.cfi_def_cfa_offset 8
 1009              		.cfi_offset 7, -8
 1010              		.cfi_offset 14, -4
 1011 0002 00AF     		add	r7, sp, #0
 1012              	.LCFI54:
 1013              		.cfi_def_cfa_register 7
1044:.\Generated_Source\PSoC5/TFTSHIELD_1_SPIM_1.c ****     TFTSHIELD_1_SPIM_1_EnableRxInt();
 1014              		.loc 1 1044 0
 1015 0004 FFF7FEFF 		bl	TFTSHIELD_1_SPIM_1_EnableRxInt
1045:.\Generated_Source\PSoC5/TFTSHIELD_1_SPIM_1.c ****     TFTSHIELD_1_SPIM_1_EnableTxInt();
 1016              		.loc 1 1045 0
 1017 0008 FFF7FEFF 		bl	TFTSHIELD_1_SPIM_1_EnableTxInt
1046:.\Generated_Source\PSoC5/TFTSHIELD_1_SPIM_1.c **** }
 1018              		.loc 1 1046 0
 1019 000c 80BD     		pop	{r7, pc}
 1020              		.cfi_endproc
 1021              	.LFE20:
 1022              		.size	TFTSHIELD_1_SPIM_1_EnableInt, .-TFTSHIELD_1_SPIM_1_EnableInt
 1023 000e 00BF     		.section	.text.TFTSHIELD_1_SPIM_1_DisableInt,"ax",%progbits
 1024              		.align	2
 1025              		.global	TFTSHIELD_1_SPIM_1_DisableInt
 1026              		.thumb
 1027              		.thumb_func
 1028              		.type	TFTSHIELD_1_SPIM_1_DisableInt, %function
 1029              	TFTSHIELD_1_SPIM_1_DisableInt:
 1030              	.LFB21:
1047:.\Generated_Source\PSoC5/TFTSHIELD_1_SPIM_1.c **** 
1048:.\Generated_Source\PSoC5/TFTSHIELD_1_SPIM_1.c **** 
1049:.\Generated_Source\PSoC5/TFTSHIELD_1_SPIM_1.c **** /*******************************************************************************
1050:.\Generated_Source\PSoC5/TFTSHIELD_1_SPIM_1.c **** * Function Name: TFTSHIELD_1_SPIM_1_DisableInt
1051:.\Generated_Source\PSoC5/TFTSHIELD_1_SPIM_1.c **** ********************************************************************************
1052:.\Generated_Source\PSoC5/TFTSHIELD_1_SPIM_1.c **** *
1053:.\Generated_Source\PSoC5/TFTSHIELD_1_SPIM_1.c **** * Summary:
1054:.\Generated_Source\PSoC5/TFTSHIELD_1_SPIM_1.c **** *  Disable internal interrupt generation.
1055:.\Generated_Source\PSoC5/TFTSHIELD_1_SPIM_1.c **** *
1056:.\Generated_Source\PSoC5/TFTSHIELD_1_SPIM_1.c **** * Parameters:
1057:.\Generated_Source\PSoC5/TFTSHIELD_1_SPIM_1.c **** *  None.
1058:.\Generated_Source\PSoC5/TFTSHIELD_1_SPIM_1.c **** *
1059:.\Generated_Source\PSoC5/TFTSHIELD_1_SPIM_1.c **** * Return:
1060:.\Generated_Source\PSoC5/TFTSHIELD_1_SPIM_1.c **** *  None.
1061:.\Generated_Source\PSoC5/TFTSHIELD_1_SPIM_1.c **** *
1062:.\Generated_Source\PSoC5/TFTSHIELD_1_SPIM_1.c **** * Theory:
1063:.\Generated_Source\PSoC5/TFTSHIELD_1_SPIM_1.c **** *  Disable the internal interrupt output -or- the interrupt component itself.
1064:.\Generated_Source\PSoC5/TFTSHIELD_1_SPIM_1.c **** *
1065:.\Generated_Source\PSoC5/TFTSHIELD_1_SPIM_1.c **** *******************************************************************************/
1066:.\Generated_Source\PSoC5/TFTSHIELD_1_SPIM_1.c **** void TFTSHIELD_1_SPIM_1_DisableInt(void) 
1067:.\Generated_Source\PSoC5/TFTSHIELD_1_SPIM_1.c **** {
 1031              		.loc 1 1067 0
 1032              		.cfi_startproc
 1033              		@ args = 0, pretend = 0, frame = 0
 1034              		@ frame_needed = 1, uses_anonymous_args = 0
 1035 0000 80B5     		push	{r7, lr}
 1036              	.LCFI55:
 1037              		.cfi_def_cfa_offset 8
 1038              		.cfi_offset 7, -8
 1039              		.cfi_offset 14, -4
ARM GAS  C:\Users\Brian\AppData\Local\Temp\cc5TmrUF.s 			page 38


 1040 0002 00AF     		add	r7, sp, #0
 1041              	.LCFI56:
 1042              		.cfi_def_cfa_register 7
1068:.\Generated_Source\PSoC5/TFTSHIELD_1_SPIM_1.c ****     TFTSHIELD_1_SPIM_1_DisableTxInt();
 1043              		.loc 1 1068 0
 1044 0004 FFF7FEFF 		bl	TFTSHIELD_1_SPIM_1_DisableTxInt
1069:.\Generated_Source\PSoC5/TFTSHIELD_1_SPIM_1.c ****     TFTSHIELD_1_SPIM_1_DisableRxInt();
 1045              		.loc 1 1069 0
 1046 0008 FFF7FEFF 		bl	TFTSHIELD_1_SPIM_1_DisableRxInt
1070:.\Generated_Source\PSoC5/TFTSHIELD_1_SPIM_1.c **** }
 1047              		.loc 1 1070 0
 1048 000c 80BD     		pop	{r7, pc}
 1049              		.cfi_endproc
 1050              	.LFE21:
 1051              		.size	TFTSHIELD_1_SPIM_1_DisableInt, .-TFTSHIELD_1_SPIM_1_DisableInt
 1052 000e 00BF     		.section	.text.TFTSHIELD_1_SPIM_1_SetInterruptMode,"ax",%progbits
 1053              		.align	2
 1054              		.global	TFTSHIELD_1_SPIM_1_SetInterruptMode
 1055              		.thumb
 1056              		.thumb_func
 1057              		.type	TFTSHIELD_1_SPIM_1_SetInterruptMode, %function
 1058              	TFTSHIELD_1_SPIM_1_SetInterruptMode:
 1059              	.LFB22:
1071:.\Generated_Source\PSoC5/TFTSHIELD_1_SPIM_1.c **** 
1072:.\Generated_Source\PSoC5/TFTSHIELD_1_SPIM_1.c **** 
1073:.\Generated_Source\PSoC5/TFTSHIELD_1_SPIM_1.c **** /*******************************************************************************
1074:.\Generated_Source\PSoC5/TFTSHIELD_1_SPIM_1.c **** * Function Name: TFTSHIELD_1_SPIM_1_SetInterruptMode
1075:.\Generated_Source\PSoC5/TFTSHIELD_1_SPIM_1.c **** ********************************************************************************
1076:.\Generated_Source\PSoC5/TFTSHIELD_1_SPIM_1.c **** *
1077:.\Generated_Source\PSoC5/TFTSHIELD_1_SPIM_1.c **** * Summary:
1078:.\Generated_Source\PSoC5/TFTSHIELD_1_SPIM_1.c **** *  Configure which status bits trigger an interrupt event.
1079:.\Generated_Source\PSoC5/TFTSHIELD_1_SPIM_1.c **** *
1080:.\Generated_Source\PSoC5/TFTSHIELD_1_SPIM_1.c **** * Parameters:
1081:.\Generated_Source\PSoC5/TFTSHIELD_1_SPIM_1.c **** *  intSrc: An or'd combination of the desired status bit masks (defined in the
1082:.\Generated_Source\PSoC5/TFTSHIELD_1_SPIM_1.c **** *  header file).
1083:.\Generated_Source\PSoC5/TFTSHIELD_1_SPIM_1.c **** *
1084:.\Generated_Source\PSoC5/TFTSHIELD_1_SPIM_1.c **** * Return:
1085:.\Generated_Source\PSoC5/TFTSHIELD_1_SPIM_1.c **** *  None.
1086:.\Generated_Source\PSoC5/TFTSHIELD_1_SPIM_1.c **** *
1087:.\Generated_Source\PSoC5/TFTSHIELD_1_SPIM_1.c **** * Theory:
1088:.\Generated_Source\PSoC5/TFTSHIELD_1_SPIM_1.c **** *  Enables the output of specific status bits to the interrupt controller.
1089:.\Generated_Source\PSoC5/TFTSHIELD_1_SPIM_1.c **** *
1090:.\Generated_Source\PSoC5/TFTSHIELD_1_SPIM_1.c **** *******************************************************************************/
1091:.\Generated_Source\PSoC5/TFTSHIELD_1_SPIM_1.c **** void TFTSHIELD_1_SPIM_1_SetInterruptMode(uint8 intSrc) 
1092:.\Generated_Source\PSoC5/TFTSHIELD_1_SPIM_1.c **** {
 1060              		.loc 1 1092 0
 1061              		.cfi_startproc
 1062              		@ args = 0, pretend = 0, frame = 8
 1063              		@ frame_needed = 1, uses_anonymous_args = 0
 1064              		@ link register save eliminated.
 1065 0000 80B4     		push	{r7}
 1066              	.LCFI57:
 1067              		.cfi_def_cfa_offset 4
 1068              		.cfi_offset 7, -4
 1069 0002 83B0     		sub	sp, sp, #12
 1070              	.LCFI58:
 1071              		.cfi_def_cfa_offset 16
ARM GAS  C:\Users\Brian\AppData\Local\Temp\cc5TmrUF.s 			page 39


 1072 0004 00AF     		add	r7, sp, #0
 1073              	.LCFI59:
 1074              		.cfi_def_cfa_register 7
 1075 0006 0346     		mov	r3, r0
 1076 0008 FB71     		strb	r3, [r7, #7]
1093:.\Generated_Source\PSoC5/TFTSHIELD_1_SPIM_1.c ****     TFTSHIELD_1_SPIM_1_TX_STATUS_MASK_REG  = (intSrc & ((uint8) ~TFTSHIELD_1_SPIM_1_STS_SPI_IDLE));
 1077              		.loc 1 1093 0
 1078 000a 46F28743 		movw	r3, #25735
 1079 000e C4F20003 		movt	r3, 16384
 1080 0012 FA79     		ldrb	r2, [r7, #7]
 1081 0014 22F01002 		bic	r2, r2, #16
 1082 0018 D2B2     		uxtb	r2, r2
 1083 001a 1A70     		strb	r2, [r3, #0]
1094:.\Generated_Source\PSoC5/TFTSHIELD_1_SPIM_1.c ****     TFTSHIELD_1_SPIM_1_RX_STATUS_MASK_REG  =  intSrc;
 1084              		.loc 1 1094 0
 1085 001c 46F28453 		movw	r3, #25988
 1086 0020 C4F20003 		movt	r3, 16384
 1087 0024 FA79     		ldrb	r2, [r7, #7]
 1088 0026 1A70     		strb	r2, [r3, #0]
1095:.\Generated_Source\PSoC5/TFTSHIELD_1_SPIM_1.c **** }
 1089              		.loc 1 1095 0
 1090 0028 07F10C07 		add	r7, r7, #12
 1091 002c BD46     		mov	sp, r7
 1092 002e 80BC     		pop	{r7}
 1093 0030 7047     		bx	lr
 1094              		.cfi_endproc
 1095              	.LFE22:
 1096              		.size	TFTSHIELD_1_SPIM_1_SetInterruptMode, .-TFTSHIELD_1_SPIM_1_SetInterruptMode
 1097 0032 00BF     		.section	.text.TFTSHIELD_1_SPIM_1_ReadStatus,"ax",%progbits
 1098              		.align	2
 1099              		.global	TFTSHIELD_1_SPIM_1_ReadStatus
 1100              		.thumb
 1101              		.thumb_func
 1102              		.type	TFTSHIELD_1_SPIM_1_ReadStatus, %function
 1103              	TFTSHIELD_1_SPIM_1_ReadStatus:
 1104              	.LFB23:
1096:.\Generated_Source\PSoC5/TFTSHIELD_1_SPIM_1.c **** 
1097:.\Generated_Source\PSoC5/TFTSHIELD_1_SPIM_1.c **** 
1098:.\Generated_Source\PSoC5/TFTSHIELD_1_SPIM_1.c **** /*******************************************************************************
1099:.\Generated_Source\PSoC5/TFTSHIELD_1_SPIM_1.c **** * Function Name: TFTSHIELD_1_SPIM_1_ReadStatus
1100:.\Generated_Source\PSoC5/TFTSHIELD_1_SPIM_1.c **** ********************************************************************************
1101:.\Generated_Source\PSoC5/TFTSHIELD_1_SPIM_1.c **** *
1102:.\Generated_Source\PSoC5/TFTSHIELD_1_SPIM_1.c **** * Summary:
1103:.\Generated_Source\PSoC5/TFTSHIELD_1_SPIM_1.c **** *  Read the status register for the component.
1104:.\Generated_Source\PSoC5/TFTSHIELD_1_SPIM_1.c **** *
1105:.\Generated_Source\PSoC5/TFTSHIELD_1_SPIM_1.c **** * Parameters:
1106:.\Generated_Source\PSoC5/TFTSHIELD_1_SPIM_1.c **** *  None.
1107:.\Generated_Source\PSoC5/TFTSHIELD_1_SPIM_1.c **** *
1108:.\Generated_Source\PSoC5/TFTSHIELD_1_SPIM_1.c **** * Return:
1109:.\Generated_Source\PSoC5/TFTSHIELD_1_SPIM_1.c **** *  Contents of the status register.
1110:.\Generated_Source\PSoC5/TFTSHIELD_1_SPIM_1.c **** *
1111:.\Generated_Source\PSoC5/TFTSHIELD_1_SPIM_1.c **** * Global variables:
1112:.\Generated_Source\PSoC5/TFTSHIELD_1_SPIM_1.c **** *  TFTSHIELD_1_SPIM_1_swStatus - used to store in software status register,
1113:.\Generated_Source\PSoC5/TFTSHIELD_1_SPIM_1.c **** *  modified every function call - resets to zero.
1114:.\Generated_Source\PSoC5/TFTSHIELD_1_SPIM_1.c **** *
1115:.\Generated_Source\PSoC5/TFTSHIELD_1_SPIM_1.c **** * Theory:
1116:.\Generated_Source\PSoC5/TFTSHIELD_1_SPIM_1.c **** *  Allows the user and the API to read the status register for error detection
ARM GAS  C:\Users\Brian\AppData\Local\Temp\cc5TmrUF.s 			page 40


1117:.\Generated_Source\PSoC5/TFTSHIELD_1_SPIM_1.c **** *  and flow control.
1118:.\Generated_Source\PSoC5/TFTSHIELD_1_SPIM_1.c **** *
1119:.\Generated_Source\PSoC5/TFTSHIELD_1_SPIM_1.c **** * Side Effects:
1120:.\Generated_Source\PSoC5/TFTSHIELD_1_SPIM_1.c **** *  Clear status register of the component.
1121:.\Generated_Source\PSoC5/TFTSHIELD_1_SPIM_1.c **** *
1122:.\Generated_Source\PSoC5/TFTSHIELD_1_SPIM_1.c **** * Reentrant:
1123:.\Generated_Source\PSoC5/TFTSHIELD_1_SPIM_1.c **** *  No.
1124:.\Generated_Source\PSoC5/TFTSHIELD_1_SPIM_1.c **** *
1125:.\Generated_Source\PSoC5/TFTSHIELD_1_SPIM_1.c **** *******************************************************************************/
1126:.\Generated_Source\PSoC5/TFTSHIELD_1_SPIM_1.c **** uint8 TFTSHIELD_1_SPIM_1_ReadStatus(void) 
1127:.\Generated_Source\PSoC5/TFTSHIELD_1_SPIM_1.c **** {
 1105              		.loc 1 1127 0
 1106              		.cfi_startproc
 1107              		@ args = 0, pretend = 0, frame = 8
 1108              		@ frame_needed = 1, uses_anonymous_args = 0
 1109              		@ link register save eliminated.
 1110 0000 80B4     		push	{r7}
 1111              	.LCFI60:
 1112              		.cfi_def_cfa_offset 4
 1113              		.cfi_offset 7, -4
 1114 0002 83B0     		sub	sp, sp, #12
 1115              	.LCFI61:
 1116              		.cfi_def_cfa_offset 16
 1117 0004 00AF     		add	r7, sp, #0
 1118              	.LCFI62:
 1119              		.cfi_def_cfa_register 7
1128:.\Generated_Source\PSoC5/TFTSHIELD_1_SPIM_1.c ****     uint8 tmpStatus;
1129:.\Generated_Source\PSoC5/TFTSHIELD_1_SPIM_1.c **** 
1130:.\Generated_Source\PSoC5/TFTSHIELD_1_SPIM_1.c ****     #if(TFTSHIELD_1_SPIM_1_TX_SOFTWARE_BUF_ENABLED || TFTSHIELD_1_SPIM_1_RX_SOFTWARE_BUF_ENABLED)
1131:.\Generated_Source\PSoC5/TFTSHIELD_1_SPIM_1.c **** 
1132:.\Generated_Source\PSoC5/TFTSHIELD_1_SPIM_1.c ****         TFTSHIELD_1_SPIM_1_DisableInt();
1133:.\Generated_Source\PSoC5/TFTSHIELD_1_SPIM_1.c **** 
1134:.\Generated_Source\PSoC5/TFTSHIELD_1_SPIM_1.c ****         tmpStatus  = TFTSHIELD_1_SPIM_1_GET_STATUS_RX(TFTSHIELD_1_SPIM_1_swStatusRx);
1135:.\Generated_Source\PSoC5/TFTSHIELD_1_SPIM_1.c ****         tmpStatus |= TFTSHIELD_1_SPIM_1_GET_STATUS_TX(TFTSHIELD_1_SPIM_1_swStatusTx);
1136:.\Generated_Source\PSoC5/TFTSHIELD_1_SPIM_1.c ****         tmpStatus &= ((uint8) ~TFTSHIELD_1_SPIM_1_STS_SPI_IDLE);
1137:.\Generated_Source\PSoC5/TFTSHIELD_1_SPIM_1.c **** 
1138:.\Generated_Source\PSoC5/TFTSHIELD_1_SPIM_1.c ****         TFTSHIELD_1_SPIM_1_swStatusTx = 0u;
1139:.\Generated_Source\PSoC5/TFTSHIELD_1_SPIM_1.c ****         TFTSHIELD_1_SPIM_1_swStatusRx = 0u;
1140:.\Generated_Source\PSoC5/TFTSHIELD_1_SPIM_1.c **** 
1141:.\Generated_Source\PSoC5/TFTSHIELD_1_SPIM_1.c ****         TFTSHIELD_1_SPIM_1_EnableInt();
1142:.\Generated_Source\PSoC5/TFTSHIELD_1_SPIM_1.c **** 
1143:.\Generated_Source\PSoC5/TFTSHIELD_1_SPIM_1.c ****     #else
1144:.\Generated_Source\PSoC5/TFTSHIELD_1_SPIM_1.c **** 
1145:.\Generated_Source\PSoC5/TFTSHIELD_1_SPIM_1.c ****         tmpStatus  = TFTSHIELD_1_SPIM_1_RX_STATUS_REG;
 1120              		.loc 1 1145 0
 1121 0006 46F26453 		movw	r3, #25956
 1122 000a C4F20003 		movt	r3, 16384
 1123 000e 1B78     		ldrb	r3, [r3, #0]
 1124 0010 FB71     		strb	r3, [r7, #7]
1146:.\Generated_Source\PSoC5/TFTSHIELD_1_SPIM_1.c ****         tmpStatus |= TFTSHIELD_1_SPIM_1_TX_STATUS_REG;
 1125              		.loc 1 1146 0
 1126 0012 46F26743 		movw	r3, #25703
 1127 0016 C4F20003 		movt	r3, 16384
 1128 001a 1B78     		ldrb	r3, [r3, #0]
 1129 001c DAB2     		uxtb	r2, r3
 1130 001e FB79     		ldrb	r3, [r7, #7]
 1131 0020 1343     		orrs	r3, r3, r2
ARM GAS  C:\Users\Brian\AppData\Local\Temp\cc5TmrUF.s 			page 41


 1132 0022 FB71     		strb	r3, [r7, #7]
1147:.\Generated_Source\PSoC5/TFTSHIELD_1_SPIM_1.c ****         tmpStatus &= ((uint8) ~TFTSHIELD_1_SPIM_1_STS_SPI_IDLE);
 1133              		.loc 1 1147 0
 1134 0024 FB79     		ldrb	r3, [r7, #7]
 1135 0026 23F01003 		bic	r3, r3, #16
 1136 002a FB71     		strb	r3, [r7, #7]
1148:.\Generated_Source\PSoC5/TFTSHIELD_1_SPIM_1.c **** 
1149:.\Generated_Source\PSoC5/TFTSHIELD_1_SPIM_1.c ****     #endif /* (TFTSHIELD_1_SPIM_1_TX_SOFTWARE_BUF_ENABLED || TFTSHIELD_1_SPIM_1_RX_SOFTWARE_BUF_ENA
1150:.\Generated_Source\PSoC5/TFTSHIELD_1_SPIM_1.c **** 
1151:.\Generated_Source\PSoC5/TFTSHIELD_1_SPIM_1.c ****     return(tmpStatus);
 1137              		.loc 1 1151 0
 1138 002c FB79     		ldrb	r3, [r7, #7]	@ zero_extendqisi2
1152:.\Generated_Source\PSoC5/TFTSHIELD_1_SPIM_1.c **** }
 1139              		.loc 1 1152 0
 1140 002e 1846     		mov	r0, r3
 1141 0030 07F10C07 		add	r7, r7, #12
 1142 0034 BD46     		mov	sp, r7
 1143 0036 80BC     		pop	{r7}
 1144 0038 7047     		bx	lr
 1145              		.cfi_endproc
 1146              	.LFE23:
 1147              		.size	TFTSHIELD_1_SPIM_1_ReadStatus, .-TFTSHIELD_1_SPIM_1_ReadStatus
 1148 003a 00BF     		.text
 1149              	.Letext0:
 1150              		.file 2 ".\\Generated_Source\\PSoC5\\cytypes.h"