ARM GAS  C:\Users\Brian\AppData\Local\Temp\ccTQQTzl.s 			page 1


   1              		.syntax unified
   2              		.cpu cortex-m3
   3              		.fpu softvfp
   4              		.eabi_attribute 20, 1
   5              		.eabi_attribute 21, 1
   6              		.eabi_attribute 23, 3
   7              		.eabi_attribute 24, 1
   8              		.eabi_attribute 25, 1
   9              		.eabi_attribute 26, 1
  10              		.eabi_attribute 30, 6
  11              		.eabi_attribute 34, 1
  12              		.eabi_attribute 18, 4
  13              		.thumb
  14              		.file	"WaveDAC8_1_VDAC8.c"
  15              		.text
  16              	.Ltext0:
  17              		.cfi_sections	.debug_frame
  18              		.global	WaveDAC8_1_VDAC8_initVar
  19              		.bss
  20              		.type	WaveDAC8_1_VDAC8_initVar, %object
  21              		.size	WaveDAC8_1_VDAC8_initVar, 1
  22              	WaveDAC8_1_VDAC8_initVar:
  23 0000 00       		.space	1
  24              		.section	.text.WaveDAC8_1_VDAC8_Init,"ax",%progbits
  25              		.align	2
  26              		.global	WaveDAC8_1_VDAC8_Init
  27              		.thumb
  28              		.thumb_func
  29              		.type	WaveDAC8_1_VDAC8_Init, %function
  30              	WaveDAC8_1_VDAC8_Init:
  31              	.LFB0:
  32              		.file 1 ".\\Generated_Source\\PSoC5\\WaveDAC8_1_VDAC8.c"
   1:.\Generated_Source\PSoC5/WaveDAC8_1_VDAC8.c **** /*******************************************************************************
   2:.\Generated_Source\PSoC5/WaveDAC8_1_VDAC8.c **** * File Name: WaveDAC8_1_VDAC8.c  
   3:.\Generated_Source\PSoC5/WaveDAC8_1_VDAC8.c **** * Version 1.90
   4:.\Generated_Source\PSoC5/WaveDAC8_1_VDAC8.c **** *
   5:.\Generated_Source\PSoC5/WaveDAC8_1_VDAC8.c **** * Description:
   6:.\Generated_Source\PSoC5/WaveDAC8_1_VDAC8.c **** *  This file provides the source code to the API for the 8-bit Voltage DAC 
   7:.\Generated_Source\PSoC5/WaveDAC8_1_VDAC8.c **** *  (VDAC8) User Module.
   8:.\Generated_Source\PSoC5/WaveDAC8_1_VDAC8.c **** *
   9:.\Generated_Source\PSoC5/WaveDAC8_1_VDAC8.c **** * Note:
  10:.\Generated_Source\PSoC5/WaveDAC8_1_VDAC8.c **** *  Any unusual or non-standard behavior should be noted here. Other-
  11:.\Generated_Source\PSoC5/WaveDAC8_1_VDAC8.c **** *  wise, this section should remain blank.
  12:.\Generated_Source\PSoC5/WaveDAC8_1_VDAC8.c **** *
  13:.\Generated_Source\PSoC5/WaveDAC8_1_VDAC8.c **** ********************************************************************************
  14:.\Generated_Source\PSoC5/WaveDAC8_1_VDAC8.c **** * Copyright 2008-2012, Cypress Semiconductor Corporation.  All rights reserved.
  15:.\Generated_Source\PSoC5/WaveDAC8_1_VDAC8.c **** * You may use this file only in accordance with the license, terms, conditions, 
  16:.\Generated_Source\PSoC5/WaveDAC8_1_VDAC8.c **** * disclaimers, and limitations in the end user license agreement accompanying 
  17:.\Generated_Source\PSoC5/WaveDAC8_1_VDAC8.c **** * the software package with which this file was provided.
  18:.\Generated_Source\PSoC5/WaveDAC8_1_VDAC8.c **** *******************************************************************************/
  19:.\Generated_Source\PSoC5/WaveDAC8_1_VDAC8.c **** 
  20:.\Generated_Source\PSoC5/WaveDAC8_1_VDAC8.c **** #include "cytypes.h"
  21:.\Generated_Source\PSoC5/WaveDAC8_1_VDAC8.c **** #include "WaveDAC8_1_VDAC8.h"
  22:.\Generated_Source\PSoC5/WaveDAC8_1_VDAC8.c **** 
  23:.\Generated_Source\PSoC5/WaveDAC8_1_VDAC8.c **** #if (CY_PSOC5A)
  24:.\Generated_Source\PSoC5/WaveDAC8_1_VDAC8.c **** #include <CyLib.h>
  25:.\Generated_Source\PSoC5/WaveDAC8_1_VDAC8.c **** #endif /* CY_PSOC5A */
ARM GAS  C:\Users\Brian\AppData\Local\Temp\ccTQQTzl.s 			page 2


  26:.\Generated_Source\PSoC5/WaveDAC8_1_VDAC8.c **** 
  27:.\Generated_Source\PSoC5/WaveDAC8_1_VDAC8.c **** uint8 WaveDAC8_1_VDAC8_initVar = 0u;
  28:.\Generated_Source\PSoC5/WaveDAC8_1_VDAC8.c **** 
  29:.\Generated_Source\PSoC5/WaveDAC8_1_VDAC8.c **** #if (CY_PSOC5A)
  30:.\Generated_Source\PSoC5/WaveDAC8_1_VDAC8.c ****     static uint8 WaveDAC8_1_VDAC8_restoreVal = 0u;
  31:.\Generated_Source\PSoC5/WaveDAC8_1_VDAC8.c **** #endif /* CY_PSOC5A */
  32:.\Generated_Source\PSoC5/WaveDAC8_1_VDAC8.c **** 
  33:.\Generated_Source\PSoC5/WaveDAC8_1_VDAC8.c **** #if (CY_PSOC5A)
  34:.\Generated_Source\PSoC5/WaveDAC8_1_VDAC8.c ****     static WaveDAC8_1_VDAC8_backupStruct WaveDAC8_1_VDAC8_backup;
  35:.\Generated_Source\PSoC5/WaveDAC8_1_VDAC8.c **** #endif /* CY_PSOC5A */
  36:.\Generated_Source\PSoC5/WaveDAC8_1_VDAC8.c **** 
  37:.\Generated_Source\PSoC5/WaveDAC8_1_VDAC8.c **** 
  38:.\Generated_Source\PSoC5/WaveDAC8_1_VDAC8.c **** /*******************************************************************************
  39:.\Generated_Source\PSoC5/WaveDAC8_1_VDAC8.c **** * Function Name: WaveDAC8_1_VDAC8_Init
  40:.\Generated_Source\PSoC5/WaveDAC8_1_VDAC8.c **** ********************************************************************************
  41:.\Generated_Source\PSoC5/WaveDAC8_1_VDAC8.c **** * Summary:
  42:.\Generated_Source\PSoC5/WaveDAC8_1_VDAC8.c **** *  Initialize to the schematic state.
  43:.\Generated_Source\PSoC5/WaveDAC8_1_VDAC8.c **** * 
  44:.\Generated_Source\PSoC5/WaveDAC8_1_VDAC8.c **** * Parameters:
  45:.\Generated_Source\PSoC5/WaveDAC8_1_VDAC8.c **** *  void:
  46:.\Generated_Source\PSoC5/WaveDAC8_1_VDAC8.c **** *
  47:.\Generated_Source\PSoC5/WaveDAC8_1_VDAC8.c **** * Return:
  48:.\Generated_Source\PSoC5/WaveDAC8_1_VDAC8.c **** *  void
  49:.\Generated_Source\PSoC5/WaveDAC8_1_VDAC8.c **** *
  50:.\Generated_Source\PSoC5/WaveDAC8_1_VDAC8.c **** * Theory:
  51:.\Generated_Source\PSoC5/WaveDAC8_1_VDAC8.c **** *
  52:.\Generated_Source\PSoC5/WaveDAC8_1_VDAC8.c **** * Side Effects:
  53:.\Generated_Source\PSoC5/WaveDAC8_1_VDAC8.c **** *
  54:.\Generated_Source\PSoC5/WaveDAC8_1_VDAC8.c **** *******************************************************************************/
  55:.\Generated_Source\PSoC5/WaveDAC8_1_VDAC8.c **** void WaveDAC8_1_VDAC8_Init(void) 
  56:.\Generated_Source\PSoC5/WaveDAC8_1_VDAC8.c **** {
  33              		.loc 1 56 0
  34              		.cfi_startproc
  35              		@ args = 0, pretend = 0, frame = 0
  36              		@ frame_needed = 1, uses_anonymous_args = 0
  37 0000 80B5     		push	{r7, lr}
  38              	.LCFI0:
  39              		.cfi_def_cfa_offset 8
  40              		.cfi_offset 7, -8
  41              		.cfi_offset 14, -4
  42 0002 00AF     		add	r7, sp, #0
  43              	.LCFI1:
  44              		.cfi_def_cfa_register 7
  57:.\Generated_Source\PSoC5/WaveDAC8_1_VDAC8.c ****     WaveDAC8_1_VDAC8_CR0 = (WaveDAC8_1_VDAC8_MODE_V );
  45              		.loc 1 57 0
  46 0004 45F62803 		movw	r3, #22568
  47 0008 C4F20003 		movt	r3, 16384
  48 000c 4FF00002 		mov	r2, #0
  49 0010 1A70     		strb	r2, [r3, #0]
  58:.\Generated_Source\PSoC5/WaveDAC8_1_VDAC8.c **** 
  59:.\Generated_Source\PSoC5/WaveDAC8_1_VDAC8.c ****     /* Set default data source */
  60:.\Generated_Source\PSoC5/WaveDAC8_1_VDAC8.c ****     #if(WaveDAC8_1_VDAC8_DEFAULT_DATA_SRC != 0 )
  61:.\Generated_Source\PSoC5/WaveDAC8_1_VDAC8.c ****         WaveDAC8_1_VDAC8_CR1 = (WaveDAC8_1_VDAC8_DEFAULT_CNTL | WaveDAC8_1_VDAC8_DACBUS_ENABLE) ;
  62:.\Generated_Source\PSoC5/WaveDAC8_1_VDAC8.c ****     #else
  63:.\Generated_Source\PSoC5/WaveDAC8_1_VDAC8.c ****         WaveDAC8_1_VDAC8_CR1 = (WaveDAC8_1_VDAC8_DEFAULT_CNTL | WaveDAC8_1_VDAC8_DACBUS_DISABLE) ;
  50              		.loc 1 63 0
  51 0012 45F62903 		movw	r3, #22569
ARM GAS  C:\Users\Brian\AppData\Local\Temp\ccTQQTzl.s 			page 3


  52 0016 C4F20003 		movt	r3, 16384
  53 001a 4FF00002 		mov	r2, #0
  54 001e 1A70     		strb	r2, [r3, #0]
  64:.\Generated_Source\PSoC5/WaveDAC8_1_VDAC8.c ****     #endif /* (WaveDAC8_1_VDAC8_DEFAULT_DATA_SRC != 0 ) */
  65:.\Generated_Source\PSoC5/WaveDAC8_1_VDAC8.c **** 
  66:.\Generated_Source\PSoC5/WaveDAC8_1_VDAC8.c ****     /* Set default strobe mode */
  67:.\Generated_Source\PSoC5/WaveDAC8_1_VDAC8.c ****     #if(WaveDAC8_1_VDAC8_DEFAULT_STRB != 0)
  68:.\Generated_Source\PSoC5/WaveDAC8_1_VDAC8.c ****         WaveDAC8_1_VDAC8_Strobe |= WaveDAC8_1_VDAC8_STRB_EN ;
  55              		.loc 1 68 0
  56 0020 45F69723 		movw	r3, #23191
  57 0024 C4F20003 		movt	r3, 16384
  58 0028 45F69722 		movw	r2, #23191
  59 002c C4F20002 		movt	r2, 16384
  60 0030 1278     		ldrb	r2, [r2, #0]
  61 0032 D2B2     		uxtb	r2, r2
  62 0034 42F00802 		orr	r2, r2, #8
  63 0038 D2B2     		uxtb	r2, r2
  64 003a 1A70     		strb	r2, [r3, #0]
  69:.\Generated_Source\PSoC5/WaveDAC8_1_VDAC8.c ****     #endif/* (WaveDAC8_1_VDAC8_DEFAULT_STRB != 0) */
  70:.\Generated_Source\PSoC5/WaveDAC8_1_VDAC8.c **** 
  71:.\Generated_Source\PSoC5/WaveDAC8_1_VDAC8.c ****     /* Set default range */
  72:.\Generated_Source\PSoC5/WaveDAC8_1_VDAC8.c ****     WaveDAC8_1_VDAC8_SetRange(WaveDAC8_1_VDAC8_DEFAULT_RANGE); 
  65              		.loc 1 72 0
  66 003c 4FF00000 		mov	r0, #0
  67 0040 FFF7FEFF 		bl	WaveDAC8_1_VDAC8_SetRange
  73:.\Generated_Source\PSoC5/WaveDAC8_1_VDAC8.c **** 
  74:.\Generated_Source\PSoC5/WaveDAC8_1_VDAC8.c ****     /* Set default speed */
  75:.\Generated_Source\PSoC5/WaveDAC8_1_VDAC8.c ****     WaveDAC8_1_VDAC8_SetSpeed(WaveDAC8_1_VDAC8_DEFAULT_SPEED);
  68              		.loc 1 75 0
  69 0044 4FF00200 		mov	r0, #2
  70 0048 FFF7FEFF 		bl	WaveDAC8_1_VDAC8_SetSpeed
  76:.\Generated_Source\PSoC5/WaveDAC8_1_VDAC8.c **** }
  71              		.loc 1 76 0
  72 004c 80BD     		pop	{r7, pc}
  73              		.cfi_endproc
  74              	.LFE0:
  75              		.size	WaveDAC8_1_VDAC8_Init, .-WaveDAC8_1_VDAC8_Init
  76 004e 00BF     		.section	.text.WaveDAC8_1_VDAC8_Enable,"ax",%progbits
  77              		.align	2
  78              		.global	WaveDAC8_1_VDAC8_Enable
  79              		.thumb
  80              		.thumb_func
  81              		.type	WaveDAC8_1_VDAC8_Enable, %function
  82              	WaveDAC8_1_VDAC8_Enable:
  83              	.LFB1:
  77:.\Generated_Source\PSoC5/WaveDAC8_1_VDAC8.c **** 
  78:.\Generated_Source\PSoC5/WaveDAC8_1_VDAC8.c **** 
  79:.\Generated_Source\PSoC5/WaveDAC8_1_VDAC8.c **** /*******************************************************************************
  80:.\Generated_Source\PSoC5/WaveDAC8_1_VDAC8.c **** * Function Name: WaveDAC8_1_VDAC8_Enable
  81:.\Generated_Source\PSoC5/WaveDAC8_1_VDAC8.c **** ********************************************************************************
  82:.\Generated_Source\PSoC5/WaveDAC8_1_VDAC8.c **** * Summary:
  83:.\Generated_Source\PSoC5/WaveDAC8_1_VDAC8.c **** *  Enable the VDAC8
  84:.\Generated_Source\PSoC5/WaveDAC8_1_VDAC8.c **** * 
  85:.\Generated_Source\PSoC5/WaveDAC8_1_VDAC8.c **** * Parameters:
  86:.\Generated_Source\PSoC5/WaveDAC8_1_VDAC8.c **** *  void
  87:.\Generated_Source\PSoC5/WaveDAC8_1_VDAC8.c **** *
  88:.\Generated_Source\PSoC5/WaveDAC8_1_VDAC8.c **** * Return:
ARM GAS  C:\Users\Brian\AppData\Local\Temp\ccTQQTzl.s 			page 4


  89:.\Generated_Source\PSoC5/WaveDAC8_1_VDAC8.c **** *  void
  90:.\Generated_Source\PSoC5/WaveDAC8_1_VDAC8.c **** *
  91:.\Generated_Source\PSoC5/WaveDAC8_1_VDAC8.c **** * Theory:
  92:.\Generated_Source\PSoC5/WaveDAC8_1_VDAC8.c **** *
  93:.\Generated_Source\PSoC5/WaveDAC8_1_VDAC8.c **** * Side Effects:
  94:.\Generated_Source\PSoC5/WaveDAC8_1_VDAC8.c **** *
  95:.\Generated_Source\PSoC5/WaveDAC8_1_VDAC8.c **** *******************************************************************************/
  96:.\Generated_Source\PSoC5/WaveDAC8_1_VDAC8.c **** void WaveDAC8_1_VDAC8_Enable(void) 
  97:.\Generated_Source\PSoC5/WaveDAC8_1_VDAC8.c **** {
  84              		.loc 1 97 0
  85              		.cfi_startproc
  86              		@ args = 0, pretend = 0, frame = 0
  87              		@ frame_needed = 1, uses_anonymous_args = 0
  88              		@ link register save eliminated.
  89 0000 80B4     		push	{r7}
  90              	.LCFI2:
  91              		.cfi_def_cfa_offset 4
  92              		.cfi_offset 7, -4
  93 0002 00AF     		add	r7, sp, #0
  94              	.LCFI3:
  95              		.cfi_def_cfa_register 7
  98:.\Generated_Source\PSoC5/WaveDAC8_1_VDAC8.c ****     WaveDAC8_1_VDAC8_PWRMGR |= WaveDAC8_1_VDAC8_ACT_PWR_EN;
  96              		.loc 1 98 0
  97 0004 44F2A833 		movw	r3, #17320
  98 0008 C4F20003 		movt	r3, 16384
  99 000c 44F2A832 		movw	r2, #17320
 100 0010 C4F20002 		movt	r2, 16384
 101 0014 1278     		ldrb	r2, [r2, #0]
 102 0016 D2B2     		uxtb	r2, r2
 103 0018 42F00402 		orr	r2, r2, #4
 104 001c D2B2     		uxtb	r2, r2
 105 001e 1A70     		strb	r2, [r3, #0]
  99:.\Generated_Source\PSoC5/WaveDAC8_1_VDAC8.c ****     WaveDAC8_1_VDAC8_STBY_PWRMGR |= WaveDAC8_1_VDAC8_STBY_PWR_EN;
 106              		.loc 1 99 0
 107 0020 44F2B833 		movw	r3, #17336
 108 0024 C4F20003 		movt	r3, 16384
 109 0028 44F2B832 		movw	r2, #17336
 110 002c C4F20002 		movt	r2, 16384
 111 0030 1278     		ldrb	r2, [r2, #0]
 112 0032 D2B2     		uxtb	r2, r2
 113 0034 42F00402 		orr	r2, r2, #4
 114 0038 D2B2     		uxtb	r2, r2
 115 003a 1A70     		strb	r2, [r3, #0]
 100:.\Generated_Source\PSoC5/WaveDAC8_1_VDAC8.c **** 
 101:.\Generated_Source\PSoC5/WaveDAC8_1_VDAC8.c ****     /*This is to restore the value of register CR0 ,
 102:.\Generated_Source\PSoC5/WaveDAC8_1_VDAC8.c ****     which is modified  in Stop API , this prevents misbehaviour of VDAC */
 103:.\Generated_Source\PSoC5/WaveDAC8_1_VDAC8.c ****     #if (CY_PSOC5A)
 104:.\Generated_Source\PSoC5/WaveDAC8_1_VDAC8.c ****         if(WaveDAC8_1_VDAC8_restoreVal == 1u) 
 105:.\Generated_Source\PSoC5/WaveDAC8_1_VDAC8.c ****         {
 106:.\Generated_Source\PSoC5/WaveDAC8_1_VDAC8.c ****              WaveDAC8_1_VDAC8_CR0 = WaveDAC8_1_VDAC8_backup.data_value;
 107:.\Generated_Source\PSoC5/WaveDAC8_1_VDAC8.c ****              WaveDAC8_1_VDAC8_restoreVal = 0u;
 108:.\Generated_Source\PSoC5/WaveDAC8_1_VDAC8.c ****         }
 109:.\Generated_Source\PSoC5/WaveDAC8_1_VDAC8.c ****     #endif /* CY_PSOC5A */
 110:.\Generated_Source\PSoC5/WaveDAC8_1_VDAC8.c **** }
 116              		.loc 1 110 0
 117 003c BD46     		mov	sp, r7
 118 003e 80BC     		pop	{r7}
ARM GAS  C:\Users\Brian\AppData\Local\Temp\ccTQQTzl.s 			page 5


 119 0040 7047     		bx	lr
 120              		.cfi_endproc
 121              	.LFE1:
 122              		.size	WaveDAC8_1_VDAC8_Enable, .-WaveDAC8_1_VDAC8_Enable
 123 0042 00BF     		.section	.text.WaveDAC8_1_VDAC8_Start,"ax",%progbits
 124              		.align	2
 125              		.global	WaveDAC8_1_VDAC8_Start
 126              		.thumb
 127              		.thumb_func
 128              		.type	WaveDAC8_1_VDAC8_Start, %function
 129              	WaveDAC8_1_VDAC8_Start:
 130              	.LFB2:
 111:.\Generated_Source\PSoC5/WaveDAC8_1_VDAC8.c **** 
 112:.\Generated_Source\PSoC5/WaveDAC8_1_VDAC8.c **** 
 113:.\Generated_Source\PSoC5/WaveDAC8_1_VDAC8.c **** /*******************************************************************************
 114:.\Generated_Source\PSoC5/WaveDAC8_1_VDAC8.c **** * Function Name: WaveDAC8_1_VDAC8_Start
 115:.\Generated_Source\PSoC5/WaveDAC8_1_VDAC8.c **** ********************************************************************************
 116:.\Generated_Source\PSoC5/WaveDAC8_1_VDAC8.c **** *
 117:.\Generated_Source\PSoC5/WaveDAC8_1_VDAC8.c **** * Summary:
 118:.\Generated_Source\PSoC5/WaveDAC8_1_VDAC8.c **** *  The start function initializes the voltage DAC with the default values, 
 119:.\Generated_Source\PSoC5/WaveDAC8_1_VDAC8.c **** *  and sets the power to the given level.  A power level of 0, is the same as
 120:.\Generated_Source\PSoC5/WaveDAC8_1_VDAC8.c **** *  executing the stop function.
 121:.\Generated_Source\PSoC5/WaveDAC8_1_VDAC8.c **** *
 122:.\Generated_Source\PSoC5/WaveDAC8_1_VDAC8.c **** * Parameters:
 123:.\Generated_Source\PSoC5/WaveDAC8_1_VDAC8.c **** *  Power: Sets power level between off (0) and (3) high power
 124:.\Generated_Source\PSoC5/WaveDAC8_1_VDAC8.c **** *
 125:.\Generated_Source\PSoC5/WaveDAC8_1_VDAC8.c **** * Return:
 126:.\Generated_Source\PSoC5/WaveDAC8_1_VDAC8.c **** *  void 
 127:.\Generated_Source\PSoC5/WaveDAC8_1_VDAC8.c **** *
 128:.\Generated_Source\PSoC5/WaveDAC8_1_VDAC8.c **** * Global variables:
 129:.\Generated_Source\PSoC5/WaveDAC8_1_VDAC8.c **** *  WaveDAC8_1_VDAC8_initVar: Is modified when this function is called for the 
 130:.\Generated_Source\PSoC5/WaveDAC8_1_VDAC8.c **** *  first time. Is used to ensure that initialization happens only once.
 131:.\Generated_Source\PSoC5/WaveDAC8_1_VDAC8.c **** *
 132:.\Generated_Source\PSoC5/WaveDAC8_1_VDAC8.c **** *******************************************************************************/
 133:.\Generated_Source\PSoC5/WaveDAC8_1_VDAC8.c **** void WaveDAC8_1_VDAC8_Start(void)  
 134:.\Generated_Source\PSoC5/WaveDAC8_1_VDAC8.c **** {
 131              		.loc 1 134 0
 132              		.cfi_startproc
 133              		@ args = 0, pretend = 0, frame = 0
 134              		@ frame_needed = 1, uses_anonymous_args = 0
 135 0000 80B5     		push	{r7, lr}
 136              	.LCFI4:
 137              		.cfi_def_cfa_offset 8
 138              		.cfi_offset 7, -8
 139              		.cfi_offset 14, -4
 140 0002 00AF     		add	r7, sp, #0
 141              	.LCFI5:
 142              		.cfi_def_cfa_register 7
 135:.\Generated_Source\PSoC5/WaveDAC8_1_VDAC8.c ****     /* Hardware initiazation only needs to occure the first time */
 136:.\Generated_Source\PSoC5/WaveDAC8_1_VDAC8.c ****     if(WaveDAC8_1_VDAC8_initVar == 0u)
 143              		.loc 1 136 0
 144 0004 40F20003 		movw	r3, #:lower16:WaveDAC8_1_VDAC8_initVar
 145 0008 C0F20003 		movt	r3, #:upper16:WaveDAC8_1_VDAC8_initVar
 146 000c 1B78     		ldrb	r3, [r3, #0]	@ zero_extendqisi2
 147 000e 002B     		cmp	r3, #0
 148 0010 08D1     		bne	.L4
 137:.\Generated_Source\PSoC5/WaveDAC8_1_VDAC8.c ****     { 
ARM GAS  C:\Users\Brian\AppData\Local\Temp\ccTQQTzl.s 			page 6


 138:.\Generated_Source\PSoC5/WaveDAC8_1_VDAC8.c ****         WaveDAC8_1_VDAC8_Init();
 149              		.loc 1 138 0
 150 0012 FFF7FEFF 		bl	WaveDAC8_1_VDAC8_Init
 139:.\Generated_Source\PSoC5/WaveDAC8_1_VDAC8.c ****         WaveDAC8_1_VDAC8_initVar = 1u;
 151              		.loc 1 139 0
 152 0016 40F20003 		movw	r3, #:lower16:WaveDAC8_1_VDAC8_initVar
 153 001a C0F20003 		movt	r3, #:upper16:WaveDAC8_1_VDAC8_initVar
 154 001e 4FF00102 		mov	r2, #1
 155 0022 1A70     		strb	r2, [r3, #0]
 156              	.L4:
 140:.\Generated_Source\PSoC5/WaveDAC8_1_VDAC8.c ****     }
 141:.\Generated_Source\PSoC5/WaveDAC8_1_VDAC8.c **** 
 142:.\Generated_Source\PSoC5/WaveDAC8_1_VDAC8.c ****     /* Enable power to DAC */
 143:.\Generated_Source\PSoC5/WaveDAC8_1_VDAC8.c ****     WaveDAC8_1_VDAC8_Enable();
 157              		.loc 1 143 0
 158 0024 FFF7FEFF 		bl	WaveDAC8_1_VDAC8_Enable
 144:.\Generated_Source\PSoC5/WaveDAC8_1_VDAC8.c **** 
 145:.\Generated_Source\PSoC5/WaveDAC8_1_VDAC8.c ****     /* Set default value */
 146:.\Generated_Source\PSoC5/WaveDAC8_1_VDAC8.c ****     WaveDAC8_1_VDAC8_SetValue(WaveDAC8_1_VDAC8_DEFAULT_DATA); 
 159              		.loc 1 146 0
 160 0028 4FF06400 		mov	r0, #100
 161 002c FFF7FEFF 		bl	WaveDAC8_1_VDAC8_SetValue
 147:.\Generated_Source\PSoC5/WaveDAC8_1_VDAC8.c **** }
 162              		.loc 1 147 0
 163 0030 80BD     		pop	{r7, pc}
 164              		.cfi_endproc
 165              	.LFE2:
 166              		.size	WaveDAC8_1_VDAC8_Start, .-WaveDAC8_1_VDAC8_Start
 167 0032 00BF     		.section	.text.WaveDAC8_1_VDAC8_Stop,"ax",%progbits
 168              		.align	2
 169              		.global	WaveDAC8_1_VDAC8_Stop
 170              		.thumb
 171              		.thumb_func
 172              		.type	WaveDAC8_1_VDAC8_Stop, %function
 173              	WaveDAC8_1_VDAC8_Stop:
 174              	.LFB3:
 148:.\Generated_Source\PSoC5/WaveDAC8_1_VDAC8.c **** 
 149:.\Generated_Source\PSoC5/WaveDAC8_1_VDAC8.c **** 
 150:.\Generated_Source\PSoC5/WaveDAC8_1_VDAC8.c **** /*******************************************************************************
 151:.\Generated_Source\PSoC5/WaveDAC8_1_VDAC8.c **** * Function Name: WaveDAC8_1_VDAC8_Stop
 152:.\Generated_Source\PSoC5/WaveDAC8_1_VDAC8.c **** ********************************************************************************
 153:.\Generated_Source\PSoC5/WaveDAC8_1_VDAC8.c **** *
 154:.\Generated_Source\PSoC5/WaveDAC8_1_VDAC8.c **** * Summary:
 155:.\Generated_Source\PSoC5/WaveDAC8_1_VDAC8.c **** *  Powers down DAC to lowest power state.
 156:.\Generated_Source\PSoC5/WaveDAC8_1_VDAC8.c **** *
 157:.\Generated_Source\PSoC5/WaveDAC8_1_VDAC8.c **** * Parameters:
 158:.\Generated_Source\PSoC5/WaveDAC8_1_VDAC8.c **** *  void
 159:.\Generated_Source\PSoC5/WaveDAC8_1_VDAC8.c **** *
 160:.\Generated_Source\PSoC5/WaveDAC8_1_VDAC8.c **** * Return:
 161:.\Generated_Source\PSoC5/WaveDAC8_1_VDAC8.c **** *  void
 162:.\Generated_Source\PSoC5/WaveDAC8_1_VDAC8.c **** *
 163:.\Generated_Source\PSoC5/WaveDAC8_1_VDAC8.c **** * Theory:
 164:.\Generated_Source\PSoC5/WaveDAC8_1_VDAC8.c **** *
 165:.\Generated_Source\PSoC5/WaveDAC8_1_VDAC8.c **** * Side Effects:
 166:.\Generated_Source\PSoC5/WaveDAC8_1_VDAC8.c **** *
 167:.\Generated_Source\PSoC5/WaveDAC8_1_VDAC8.c **** *******************************************************************************/
 168:.\Generated_Source\PSoC5/WaveDAC8_1_VDAC8.c **** void WaveDAC8_1_VDAC8_Stop(void) 
ARM GAS  C:\Users\Brian\AppData\Local\Temp\ccTQQTzl.s 			page 7


 169:.\Generated_Source\PSoC5/WaveDAC8_1_VDAC8.c **** {
 175              		.loc 1 169 0
 176              		.cfi_startproc
 177              		@ args = 0, pretend = 0, frame = 0
 178              		@ frame_needed = 1, uses_anonymous_args = 0
 179              		@ link register save eliminated.
 180 0000 80B4     		push	{r7}
 181              	.LCFI6:
 182              		.cfi_def_cfa_offset 4
 183              		.cfi_offset 7, -4
 184 0002 00AF     		add	r7, sp, #0
 185              	.LCFI7:
 186              		.cfi_def_cfa_register 7
 170:.\Generated_Source\PSoC5/WaveDAC8_1_VDAC8.c ****     /* Disble power to DAC */
 171:.\Generated_Source\PSoC5/WaveDAC8_1_VDAC8.c ****     WaveDAC8_1_VDAC8_PWRMGR &= (uint8)(~WaveDAC8_1_VDAC8_ACT_PWR_EN);
 187              		.loc 1 171 0
 188 0004 44F2A833 		movw	r3, #17320
 189 0008 C4F20003 		movt	r3, 16384
 190 000c 44F2A832 		movw	r2, #17320
 191 0010 C4F20002 		movt	r2, 16384
 192 0014 1278     		ldrb	r2, [r2, #0]
 193 0016 D2B2     		uxtb	r2, r2
 194 0018 22F00402 		bic	r2, r2, #4
 195 001c D2B2     		uxtb	r2, r2
 196 001e 1A70     		strb	r2, [r3, #0]
 172:.\Generated_Source\PSoC5/WaveDAC8_1_VDAC8.c ****     WaveDAC8_1_VDAC8_STBY_PWRMGR &= (uint8)(~WaveDAC8_1_VDAC8_STBY_PWR_EN);
 197              		.loc 1 172 0
 198 0020 44F2B833 		movw	r3, #17336
 199 0024 C4F20003 		movt	r3, 16384
 200 0028 44F2B832 		movw	r2, #17336
 201 002c C4F20002 		movt	r2, 16384
 202 0030 1278     		ldrb	r2, [r2, #0]
 203 0032 D2B2     		uxtb	r2, r2
 204 0034 22F00402 		bic	r2, r2, #4
 205 0038 D2B2     		uxtb	r2, r2
 206 003a 1A70     		strb	r2, [r3, #0]
 173:.\Generated_Source\PSoC5/WaveDAC8_1_VDAC8.c **** 
 174:.\Generated_Source\PSoC5/WaveDAC8_1_VDAC8.c ****     /* This is a work around for PSoC5A  ,
 175:.\Generated_Source\PSoC5/WaveDAC8_1_VDAC8.c ****     this sets VDAC to current mode with output off */
 176:.\Generated_Source\PSoC5/WaveDAC8_1_VDAC8.c ****     #if (CY_PSOC5A)
 177:.\Generated_Source\PSoC5/WaveDAC8_1_VDAC8.c ****         WaveDAC8_1_VDAC8_backup.data_value = WaveDAC8_1_VDAC8_CR0;
 178:.\Generated_Source\PSoC5/WaveDAC8_1_VDAC8.c ****         WaveDAC8_1_VDAC8_CR0 = WaveDAC8_1_VDAC8_CUR_MODE_OUT_OFF;
 179:.\Generated_Source\PSoC5/WaveDAC8_1_VDAC8.c ****         WaveDAC8_1_VDAC8_restoreVal = 1u;
 180:.\Generated_Source\PSoC5/WaveDAC8_1_VDAC8.c ****     #endif /* CY_PSOC5A */
 181:.\Generated_Source\PSoC5/WaveDAC8_1_VDAC8.c **** }
 207              		.loc 1 181 0
 208 003c BD46     		mov	sp, r7
 209 003e 80BC     		pop	{r7}
 210 0040 7047     		bx	lr
 211              		.cfi_endproc
 212              	.LFE3:
 213              		.size	WaveDAC8_1_VDAC8_Stop, .-WaveDAC8_1_VDAC8_Stop
 214 0042 00BF     		.section	.text.WaveDAC8_1_VDAC8_SetSpeed,"ax",%progbits
 215              		.align	2
 216              		.global	WaveDAC8_1_VDAC8_SetSpeed
 217              		.thumb
 218              		.thumb_func
ARM GAS  C:\Users\Brian\AppData\Local\Temp\ccTQQTzl.s 			page 8


 219              		.type	WaveDAC8_1_VDAC8_SetSpeed, %function
 220              	WaveDAC8_1_VDAC8_SetSpeed:
 221              	.LFB4:
 182:.\Generated_Source\PSoC5/WaveDAC8_1_VDAC8.c **** 
 183:.\Generated_Source\PSoC5/WaveDAC8_1_VDAC8.c **** 
 184:.\Generated_Source\PSoC5/WaveDAC8_1_VDAC8.c **** /*******************************************************************************
 185:.\Generated_Source\PSoC5/WaveDAC8_1_VDAC8.c **** * Function Name: WaveDAC8_1_VDAC8_SetSpeed
 186:.\Generated_Source\PSoC5/WaveDAC8_1_VDAC8.c **** ********************************************************************************
 187:.\Generated_Source\PSoC5/WaveDAC8_1_VDAC8.c **** *
 188:.\Generated_Source\PSoC5/WaveDAC8_1_VDAC8.c **** * Summary:
 189:.\Generated_Source\PSoC5/WaveDAC8_1_VDAC8.c **** *  Set DAC speed
 190:.\Generated_Source\PSoC5/WaveDAC8_1_VDAC8.c **** *
 191:.\Generated_Source\PSoC5/WaveDAC8_1_VDAC8.c **** * Parameters:
 192:.\Generated_Source\PSoC5/WaveDAC8_1_VDAC8.c **** *  power: Sets speed value
 193:.\Generated_Source\PSoC5/WaveDAC8_1_VDAC8.c **** *
 194:.\Generated_Source\PSoC5/WaveDAC8_1_VDAC8.c **** * Return:
 195:.\Generated_Source\PSoC5/WaveDAC8_1_VDAC8.c **** *  void
 196:.\Generated_Source\PSoC5/WaveDAC8_1_VDAC8.c **** *
 197:.\Generated_Source\PSoC5/WaveDAC8_1_VDAC8.c **** * Theory:
 198:.\Generated_Source\PSoC5/WaveDAC8_1_VDAC8.c **** *
 199:.\Generated_Source\PSoC5/WaveDAC8_1_VDAC8.c **** * Side Effects:
 200:.\Generated_Source\PSoC5/WaveDAC8_1_VDAC8.c **** *
 201:.\Generated_Source\PSoC5/WaveDAC8_1_VDAC8.c **** *******************************************************************************/
 202:.\Generated_Source\PSoC5/WaveDAC8_1_VDAC8.c **** void WaveDAC8_1_VDAC8_SetSpeed(uint8 speed) 
 203:.\Generated_Source\PSoC5/WaveDAC8_1_VDAC8.c **** {
 222              		.loc 1 203 0
 223              		.cfi_startproc
 224              		@ args = 0, pretend = 0, frame = 8
 225              		@ frame_needed = 1, uses_anonymous_args = 0
 226              		@ link register save eliminated.
 227 0000 80B4     		push	{r7}
 228              	.LCFI8:
 229              		.cfi_def_cfa_offset 4
 230              		.cfi_offset 7, -4
 231 0002 83B0     		sub	sp, sp, #12
 232              	.LCFI9:
 233              		.cfi_def_cfa_offset 16
 234 0004 00AF     		add	r7, sp, #0
 235              	.LCFI10:
 236              		.cfi_def_cfa_register 7
 237 0006 0346     		mov	r3, r0
 238 0008 FB71     		strb	r3, [r7, #7]
 204:.\Generated_Source\PSoC5/WaveDAC8_1_VDAC8.c ****     /* Clear power mask then write in new value */
 205:.\Generated_Source\PSoC5/WaveDAC8_1_VDAC8.c ****     WaveDAC8_1_VDAC8_CR0 &= (uint8)(~WaveDAC8_1_VDAC8_HS_MASK);
 239              		.loc 1 205 0
 240 000a 45F62803 		movw	r3, #22568
 241 000e C4F20003 		movt	r3, 16384
 242 0012 45F62802 		movw	r2, #22568
 243 0016 C4F20002 		movt	r2, 16384
 244 001a 1278     		ldrb	r2, [r2, #0]
 245 001c D2B2     		uxtb	r2, r2
 246 001e 22F00202 		bic	r2, r2, #2
 247 0022 D2B2     		uxtb	r2, r2
 248 0024 1A70     		strb	r2, [r3, #0]
 206:.\Generated_Source\PSoC5/WaveDAC8_1_VDAC8.c ****     WaveDAC8_1_VDAC8_CR0 |=  (speed & WaveDAC8_1_VDAC8_HS_MASK);
 249              		.loc 1 206 0
 250 0026 45F62803 		movw	r3, #22568
ARM GAS  C:\Users\Brian\AppData\Local\Temp\ccTQQTzl.s 			page 9


 251 002a C4F20003 		movt	r3, 16384
 252 002e 45F62802 		movw	r2, #22568
 253 0032 C4F20002 		movt	r2, 16384
 254 0036 1278     		ldrb	r2, [r2, #0]
 255 0038 D1B2     		uxtb	r1, r2
 256 003a FA79     		ldrb	r2, [r7, #7]
 257 003c 02F00202 		and	r2, r2, #2
 258 0040 D2B2     		uxtb	r2, r2
 259 0042 0A43     		orrs	r2, r2, r1
 260 0044 D2B2     		uxtb	r2, r2
 261 0046 1A70     		strb	r2, [r3, #0]
 207:.\Generated_Source\PSoC5/WaveDAC8_1_VDAC8.c **** }
 262              		.loc 1 207 0
 263 0048 07F10C07 		add	r7, r7, #12
 264 004c BD46     		mov	sp, r7
 265 004e 80BC     		pop	{r7}
 266 0050 7047     		bx	lr
 267              		.cfi_endproc
 268              	.LFE4:
 269              		.size	WaveDAC8_1_VDAC8_SetSpeed, .-WaveDAC8_1_VDAC8_SetSpeed
 270 0052 00BF     		.section	.text.WaveDAC8_1_VDAC8_SetRange,"ax",%progbits
 271              		.align	2
 272              		.global	WaveDAC8_1_VDAC8_SetRange
 273              		.thumb
 274              		.thumb_func
 275              		.type	WaveDAC8_1_VDAC8_SetRange, %function
 276              	WaveDAC8_1_VDAC8_SetRange:
 277              	.LFB5:
 208:.\Generated_Source\PSoC5/WaveDAC8_1_VDAC8.c **** 
 209:.\Generated_Source\PSoC5/WaveDAC8_1_VDAC8.c **** 
 210:.\Generated_Source\PSoC5/WaveDAC8_1_VDAC8.c **** /*******************************************************************************
 211:.\Generated_Source\PSoC5/WaveDAC8_1_VDAC8.c **** * Function Name: WaveDAC8_1_VDAC8_SetRange
 212:.\Generated_Source\PSoC5/WaveDAC8_1_VDAC8.c **** ********************************************************************************
 213:.\Generated_Source\PSoC5/WaveDAC8_1_VDAC8.c **** *
 214:.\Generated_Source\PSoC5/WaveDAC8_1_VDAC8.c **** * Summary:
 215:.\Generated_Source\PSoC5/WaveDAC8_1_VDAC8.c **** *  Set one of three current ranges.
 216:.\Generated_Source\PSoC5/WaveDAC8_1_VDAC8.c **** *
 217:.\Generated_Source\PSoC5/WaveDAC8_1_VDAC8.c **** * Parameters:
 218:.\Generated_Source\PSoC5/WaveDAC8_1_VDAC8.c **** *  Range: Sets one of Three valid ranges.
 219:.\Generated_Source\PSoC5/WaveDAC8_1_VDAC8.c **** *
 220:.\Generated_Source\PSoC5/WaveDAC8_1_VDAC8.c **** * Return:
 221:.\Generated_Source\PSoC5/WaveDAC8_1_VDAC8.c **** *  void 
 222:.\Generated_Source\PSoC5/WaveDAC8_1_VDAC8.c **** *
 223:.\Generated_Source\PSoC5/WaveDAC8_1_VDAC8.c **** * Theory:
 224:.\Generated_Source\PSoC5/WaveDAC8_1_VDAC8.c **** *
 225:.\Generated_Source\PSoC5/WaveDAC8_1_VDAC8.c **** * Side Effects:
 226:.\Generated_Source\PSoC5/WaveDAC8_1_VDAC8.c **** *
 227:.\Generated_Source\PSoC5/WaveDAC8_1_VDAC8.c **** *******************************************************************************/
 228:.\Generated_Source\PSoC5/WaveDAC8_1_VDAC8.c **** void WaveDAC8_1_VDAC8_SetRange(uint8 range) 
 229:.\Generated_Source\PSoC5/WaveDAC8_1_VDAC8.c **** {
 278              		.loc 1 229 0
 279              		.cfi_startproc
 280              		@ args = 0, pretend = 0, frame = 8
 281              		@ frame_needed = 1, uses_anonymous_args = 0
 282 0000 80B5     		push	{r7, lr}
 283              	.LCFI11:
 284              		.cfi_def_cfa_offset 8
ARM GAS  C:\Users\Brian\AppData\Local\Temp\ccTQQTzl.s 			page 10


 285              		.cfi_offset 7, -8
 286              		.cfi_offset 14, -4
 287 0002 82B0     		sub	sp, sp, #8
 288              	.LCFI12:
 289              		.cfi_def_cfa_offset 16
 290 0004 00AF     		add	r7, sp, #0
 291              	.LCFI13:
 292              		.cfi_def_cfa_register 7
 293 0006 0346     		mov	r3, r0
 294 0008 FB71     		strb	r3, [r7, #7]
 230:.\Generated_Source\PSoC5/WaveDAC8_1_VDAC8.c ****     WaveDAC8_1_VDAC8_CR0 &= (uint8)(~WaveDAC8_1_VDAC8_RANGE_MASK);      /* Clear existing mode */
 295              		.loc 1 230 0
 296 000a 45F62803 		movw	r3, #22568
 297 000e C4F20003 		movt	r3, 16384
 298 0012 45F62802 		movw	r2, #22568
 299 0016 C4F20002 		movt	r2, 16384
 300 001a 1278     		ldrb	r2, [r2, #0]
 301 001c D2B2     		uxtb	r2, r2
 302 001e 22F00C02 		bic	r2, r2, #12
 303 0022 D2B2     		uxtb	r2, r2
 304 0024 1A70     		strb	r2, [r3, #0]
 231:.\Generated_Source\PSoC5/WaveDAC8_1_VDAC8.c ****     WaveDAC8_1_VDAC8_CR0 |= (range & WaveDAC8_1_VDAC8_RANGE_MASK);      /*  Set Range  */
 305              		.loc 1 231 0
 306 0026 45F62803 		movw	r3, #22568
 307 002a C4F20003 		movt	r3, 16384
 308 002e 45F62802 		movw	r2, #22568
 309 0032 C4F20002 		movt	r2, 16384
 310 0036 1278     		ldrb	r2, [r2, #0]
 311 0038 D1B2     		uxtb	r1, r2
 312 003a FA79     		ldrb	r2, [r7, #7]
 313 003c 02F00C02 		and	r2, r2, #12
 314 0040 D2B2     		uxtb	r2, r2
 315 0042 0A43     		orrs	r2, r2, r1
 316 0044 D2B2     		uxtb	r2, r2
 317 0046 1A70     		strb	r2, [r3, #0]
 232:.\Generated_Source\PSoC5/WaveDAC8_1_VDAC8.c ****     WaveDAC8_1_VDAC8_DacTrim();
 318              		.loc 1 232 0
 319 0048 FFF7FEFF 		bl	WaveDAC8_1_VDAC8_DacTrim
 233:.\Generated_Source\PSoC5/WaveDAC8_1_VDAC8.c **** }
 320              		.loc 1 233 0
 321 004c 07F10807 		add	r7, r7, #8
 322 0050 BD46     		mov	sp, r7
 323 0052 80BD     		pop	{r7, pc}
 324              		.cfi_endproc
 325              	.LFE5:
 326              		.size	WaveDAC8_1_VDAC8_SetRange, .-WaveDAC8_1_VDAC8_SetRange
 327              		.section	.text.WaveDAC8_1_VDAC8_SetValue,"ax",%progbits
 328              		.align	2
 329              		.global	WaveDAC8_1_VDAC8_SetValue
 330              		.thumb
 331              		.thumb_func
 332              		.type	WaveDAC8_1_VDAC8_SetValue, %function
 333              	WaveDAC8_1_VDAC8_SetValue:
 334              	.LFB6:
 234:.\Generated_Source\PSoC5/WaveDAC8_1_VDAC8.c **** 
 235:.\Generated_Source\PSoC5/WaveDAC8_1_VDAC8.c **** 
 236:.\Generated_Source\PSoC5/WaveDAC8_1_VDAC8.c **** /*******************************************************************************
ARM GAS  C:\Users\Brian\AppData\Local\Temp\ccTQQTzl.s 			page 11


 237:.\Generated_Source\PSoC5/WaveDAC8_1_VDAC8.c **** * Function Name: WaveDAC8_1_VDAC8_SetValue
 238:.\Generated_Source\PSoC5/WaveDAC8_1_VDAC8.c **** ********************************************************************************
 239:.\Generated_Source\PSoC5/WaveDAC8_1_VDAC8.c **** *
 240:.\Generated_Source\PSoC5/WaveDAC8_1_VDAC8.c **** * Summary:
 241:.\Generated_Source\PSoC5/WaveDAC8_1_VDAC8.c **** *  Set 8-bit DAC value
 242:.\Generated_Source\PSoC5/WaveDAC8_1_VDAC8.c **** *
 243:.\Generated_Source\PSoC5/WaveDAC8_1_VDAC8.c **** * Parameters:  
 244:.\Generated_Source\PSoC5/WaveDAC8_1_VDAC8.c **** *  value:  Sets DAC value between 0 and 255.
 245:.\Generated_Source\PSoC5/WaveDAC8_1_VDAC8.c **** *
 246:.\Generated_Source\PSoC5/WaveDAC8_1_VDAC8.c **** * Return: 
 247:.\Generated_Source\PSoC5/WaveDAC8_1_VDAC8.c **** *  void 
 248:.\Generated_Source\PSoC5/WaveDAC8_1_VDAC8.c **** *
 249:.\Generated_Source\PSoC5/WaveDAC8_1_VDAC8.c **** * Theory: 
 250:.\Generated_Source\PSoC5/WaveDAC8_1_VDAC8.c **** *
 251:.\Generated_Source\PSoC5/WaveDAC8_1_VDAC8.c **** * Side Effects:
 252:.\Generated_Source\PSoC5/WaveDAC8_1_VDAC8.c **** *
 253:.\Generated_Source\PSoC5/WaveDAC8_1_VDAC8.c **** *******************************************************************************/
 254:.\Generated_Source\PSoC5/WaveDAC8_1_VDAC8.c **** void WaveDAC8_1_VDAC8_SetValue(uint8 value) 
 255:.\Generated_Source\PSoC5/WaveDAC8_1_VDAC8.c **** {
 335              		.loc 1 255 0
 336              		.cfi_startproc
 337              		@ args = 0, pretend = 0, frame = 8
 338              		@ frame_needed = 1, uses_anonymous_args = 0
 339              		@ link register save eliminated.
 340 0000 80B4     		push	{r7}
 341              	.LCFI14:
 342              		.cfi_def_cfa_offset 4
 343              		.cfi_offset 7, -4
 344 0002 83B0     		sub	sp, sp, #12
 345              	.LCFI15:
 346              		.cfi_def_cfa_offset 16
 347 0004 00AF     		add	r7, sp, #0
 348              	.LCFI16:
 349              		.cfi_def_cfa_register 7
 350 0006 0346     		mov	r3, r0
 351 0008 FB71     		strb	r3, [r7, #7]
 256:.\Generated_Source\PSoC5/WaveDAC8_1_VDAC8.c ****     #if (CY_PSOC5A)
 257:.\Generated_Source\PSoC5/WaveDAC8_1_VDAC8.c ****         uint8 WaveDAC8_1_VDAC8_intrStatus = CyEnterCriticalSection();
 258:.\Generated_Source\PSoC5/WaveDAC8_1_VDAC8.c ****     #endif /* CY_PSOC5A */
 259:.\Generated_Source\PSoC5/WaveDAC8_1_VDAC8.c **** 
 260:.\Generated_Source\PSoC5/WaveDAC8_1_VDAC8.c ****     WaveDAC8_1_VDAC8_Data = value;                /*  Set Value  */
 352              		.loc 1 260 0
 353 000a 45F68233 		movw	r3, #23426
 354 000e C4F20003 		movt	r3, 16384
 355 0012 FA79     		ldrb	r2, [r7, #7]
 356 0014 1A70     		strb	r2, [r3, #0]
 261:.\Generated_Source\PSoC5/WaveDAC8_1_VDAC8.c **** 
 262:.\Generated_Source\PSoC5/WaveDAC8_1_VDAC8.c ****     /* PSOC5A requires a double write */
 263:.\Generated_Source\PSoC5/WaveDAC8_1_VDAC8.c ****     /* Exit Critical Section */
 264:.\Generated_Source\PSoC5/WaveDAC8_1_VDAC8.c ****     #if (CY_PSOC5A)
 265:.\Generated_Source\PSoC5/WaveDAC8_1_VDAC8.c ****         WaveDAC8_1_VDAC8_Data = value;
 266:.\Generated_Source\PSoC5/WaveDAC8_1_VDAC8.c ****         CyExitCriticalSection(WaveDAC8_1_VDAC8_intrStatus);
 267:.\Generated_Source\PSoC5/WaveDAC8_1_VDAC8.c ****     #endif /* CY_PSOC5A */
 268:.\Generated_Source\PSoC5/WaveDAC8_1_VDAC8.c **** }
 357              		.loc 1 268 0
 358 0016 07F10C07 		add	r7, r7, #12
 359 001a BD46     		mov	sp, r7
ARM GAS  C:\Users\Brian\AppData\Local\Temp\ccTQQTzl.s 			page 12


 360 001c 80BC     		pop	{r7}
 361 001e 7047     		bx	lr
 362              		.cfi_endproc
 363              	.LFE6:
 364              		.size	WaveDAC8_1_VDAC8_SetValue, .-WaveDAC8_1_VDAC8_SetValue
 365              		.section	.text.WaveDAC8_1_VDAC8_DacTrim,"ax",%progbits
 366              		.align	2
 367              		.global	WaveDAC8_1_VDAC8_DacTrim
 368              		.thumb
 369              		.thumb_func
 370              		.type	WaveDAC8_1_VDAC8_DacTrim, %function
 371              	WaveDAC8_1_VDAC8_DacTrim:
 372              	.LFB7:
 269:.\Generated_Source\PSoC5/WaveDAC8_1_VDAC8.c **** 
 270:.\Generated_Source\PSoC5/WaveDAC8_1_VDAC8.c **** 
 271:.\Generated_Source\PSoC5/WaveDAC8_1_VDAC8.c **** /*******************************************************************************
 272:.\Generated_Source\PSoC5/WaveDAC8_1_VDAC8.c **** * Function Name: WaveDAC8_1_VDAC8_DacTrim
 273:.\Generated_Source\PSoC5/WaveDAC8_1_VDAC8.c **** ********************************************************************************
 274:.\Generated_Source\PSoC5/WaveDAC8_1_VDAC8.c **** *
 275:.\Generated_Source\PSoC5/WaveDAC8_1_VDAC8.c **** * Summary:
 276:.\Generated_Source\PSoC5/WaveDAC8_1_VDAC8.c **** *  Set the trim value for the given range.
 277:.\Generated_Source\PSoC5/WaveDAC8_1_VDAC8.c **** *
 278:.\Generated_Source\PSoC5/WaveDAC8_1_VDAC8.c **** * Parameters:
 279:.\Generated_Source\PSoC5/WaveDAC8_1_VDAC8.c **** *  range:  1V or 4V range.  See constants.
 280:.\Generated_Source\PSoC5/WaveDAC8_1_VDAC8.c **** *
 281:.\Generated_Source\PSoC5/WaveDAC8_1_VDAC8.c **** * Return:
 282:.\Generated_Source\PSoC5/WaveDAC8_1_VDAC8.c **** *  void
 283:.\Generated_Source\PSoC5/WaveDAC8_1_VDAC8.c **** *
 284:.\Generated_Source\PSoC5/WaveDAC8_1_VDAC8.c **** * Theory: 
 285:.\Generated_Source\PSoC5/WaveDAC8_1_VDAC8.c **** *
 286:.\Generated_Source\PSoC5/WaveDAC8_1_VDAC8.c **** * Side Effects:
 287:.\Generated_Source\PSoC5/WaveDAC8_1_VDAC8.c **** *
 288:.\Generated_Source\PSoC5/WaveDAC8_1_VDAC8.c **** *******************************************************************************/
 289:.\Generated_Source\PSoC5/WaveDAC8_1_VDAC8.c **** void WaveDAC8_1_VDAC8_DacTrim(void) 
 290:.\Generated_Source\PSoC5/WaveDAC8_1_VDAC8.c **** {
 373              		.loc 1 290 0
 374              		.cfi_startproc
 375              		@ args = 0, pretend = 0, frame = 8
 376              		@ frame_needed = 1, uses_anonymous_args = 0
 377              		@ link register save eliminated.
 378 0000 80B4     		push	{r7}
 379              	.LCFI17:
 380              		.cfi_def_cfa_offset 4
 381              		.cfi_offset 7, -4
 382 0002 83B0     		sub	sp, sp, #12
 383              	.LCFI18:
 384              		.cfi_def_cfa_offset 16
 385 0004 00AF     		add	r7, sp, #0
 386              	.LCFI19:
 387              		.cfi_def_cfa_register 7
 291:.\Generated_Source\PSoC5/WaveDAC8_1_VDAC8.c ****     uint8 mode;
 292:.\Generated_Source\PSoC5/WaveDAC8_1_VDAC8.c **** 
 293:.\Generated_Source\PSoC5/WaveDAC8_1_VDAC8.c ****     mode = (uint8)((WaveDAC8_1_VDAC8_CR0 & WaveDAC8_1_VDAC8_RANGE_MASK) >> 2) + WaveDAC8_1_VDAC8_TR
 388              		.loc 1 293 0
 389 0006 45F62803 		movw	r3, #22568
 390 000a C4F20003 		movt	r3, 16384
 391 000e 1B78     		ldrb	r3, [r3, #0]
ARM GAS  C:\Users\Brian\AppData\Local\Temp\ccTQQTzl.s 			page 13


 392 0010 DBB2     		uxtb	r3, r3
 393 0012 03F00C03 		and	r3, r3, #12
 394 0016 4FEA9303 		lsr	r3, r3, #2
 395 001a DBB2     		uxtb	r3, r3
 396 001c 03F10603 		add	r3, r3, #6
 397 0020 FB71     		strb	r3, [r7, #7]
 294:.\Generated_Source\PSoC5/WaveDAC8_1_VDAC8.c ****     WaveDAC8_1_VDAC8_TR = CY_GET_XTND_REG8((uint8 *)(WaveDAC8_1_VDAC8_DAC_TRIM_BASE + mode));
 398              		.loc 1 294 0
 399 0022 44F20A63 		movw	r3, #17930
 400 0026 C4F20003 		movt	r3, 16384
 401 002a FA79     		ldrb	r2, [r7, #7]	@ zero_extendqisi2
 402 002c 02F19242 		add	r2, r2, #1224736768
 403 0030 02F59472 		add	r2, r2, #296
 404 0034 1278     		ldrb	r2, [r2, #0]
 405 0036 D2B2     		uxtb	r2, r2
 406 0038 1A70     		strb	r2, [r3, #0]
 295:.\Generated_Source\PSoC5/WaveDAC8_1_VDAC8.c **** }
 407              		.loc 1 295 0
 408 003a 07F10C07 		add	r7, r7, #12
 409 003e BD46     		mov	sp, r7
 410 0040 80BC     		pop	{r7}
 411 0042 7047     		bx	lr
 412              		.cfi_endproc
 413              	.LFE7:
 414              		.size	WaveDAC8_1_VDAC8_DacTrim, .-WaveDAC8_1_VDAC8_DacTrim
 415              		.text
 416              	.Letext0:
 417              		.file 2 ".\\Generated_Source\\PSoC5\\cytypes.h"