ARM GAS  C:\Users\Brian\AppData\Local\Temp\cch7EoJf.s 			page 1


   1              		.syntax unified
   2              		.cpu cortex-m3
   3              		.fpu softvfp
   4              		.eabi_attribute 20, 1
   5              		.eabi_attribute 21, 1
   6              		.eabi_attribute 23, 3
   7              		.eabi_attribute 24, 1
   8              		.eabi_attribute 25, 1
   9              		.eabi_attribute 26, 1
  10              		.eabi_attribute 30, 6
  11              		.eabi_attribute 34, 1
  12              		.eabi_attribute 18, 4
  13              		.thumb
  14              		.file	"ADC_DelSig_1_INT.c"
  15              		.text
  16              	.Ltext0:
  17              		.cfi_sections	.debug_frame
  18              		.section	.text.ADC_DelSig_1_ISR1,"ax",%progbits
  19              		.align	2
  20              		.global	ADC_DelSig_1_ISR1
  21              		.thumb
  22              		.thumb_func
  23              		.type	ADC_DelSig_1_ISR1, %function
  24              	ADC_DelSig_1_ISR1:
  25              	.LFB0:
  26              		.file 1 ".\\Generated_Source\\PSoC5\\ADC_DelSig_1_INT.c"
   1:.\Generated_Source\PSoC5/ADC_DelSig_1_INT.c **** /*******************************************************************************
   2:.\Generated_Source\PSoC5/ADC_DelSig_1_INT.c **** * File Name: ADC_DelSig_1_INT.c
   3:.\Generated_Source\PSoC5/ADC_DelSig_1_INT.c **** * Version 3.0
   4:.\Generated_Source\PSoC5/ADC_DelSig_1_INT.c **** *
   5:.\Generated_Source\PSoC5/ADC_DelSig_1_INT.c **** * Description:
   6:.\Generated_Source\PSoC5/ADC_DelSig_1_INT.c **** *  This file contains the code that operates during the ADC_DelSig interrupt
   7:.\Generated_Source\PSoC5/ADC_DelSig_1_INT.c **** *  service routine.
   8:.\Generated_Source\PSoC5/ADC_DelSig_1_INT.c **** *
   9:.\Generated_Source\PSoC5/ADC_DelSig_1_INT.c **** * Note:
  10:.\Generated_Source\PSoC5/ADC_DelSig_1_INT.c **** *
  11:.\Generated_Source\PSoC5/ADC_DelSig_1_INT.c **** ********************************************************************************
  12:.\Generated_Source\PSoC5/ADC_DelSig_1_INT.c **** * Copyright 2008-2013, Cypress Semiconductor Corporation.  All rights reserved.
  13:.\Generated_Source\PSoC5/ADC_DelSig_1_INT.c **** * You may use this file only in accordance with the license, terms, conditions,
  14:.\Generated_Source\PSoC5/ADC_DelSig_1_INT.c **** * disclaimers, and limitations in the end user license agreement accompanying
  15:.\Generated_Source\PSoC5/ADC_DelSig_1_INT.c **** * the software package with which this file was provided.
  16:.\Generated_Source\PSoC5/ADC_DelSig_1_INT.c **** *******************************************************************************/
  17:.\Generated_Source\PSoC5/ADC_DelSig_1_INT.c **** 
  18:.\Generated_Source\PSoC5/ADC_DelSig_1_INT.c **** #include "ADC_DelSig_1.h"
  19:.\Generated_Source\PSoC5/ADC_DelSig_1_INT.c **** 
  20:.\Generated_Source\PSoC5/ADC_DelSig_1_INT.c **** 
  21:.\Generated_Source\PSoC5/ADC_DelSig_1_INT.c **** /*******************************************************************************
  22:.\Generated_Source\PSoC5/ADC_DelSig_1_INT.c **** * Custom Declarations and Variables
  23:.\Generated_Source\PSoC5/ADC_DelSig_1_INT.c **** * - add user include files, prototypes and variables between the following
  24:.\Generated_Source\PSoC5/ADC_DelSig_1_INT.c **** *   #START and #END tags
  25:.\Generated_Source\PSoC5/ADC_DelSig_1_INT.c **** *******************************************************************************/
  26:.\Generated_Source\PSoC5/ADC_DelSig_1_INT.c **** /* `#START ADC_SYS_VAR`  */
  27:.\Generated_Source\PSoC5/ADC_DelSig_1_INT.c **** 
  28:.\Generated_Source\PSoC5/ADC_DelSig_1_INT.c **** /* `#END`  */
  29:.\Generated_Source\PSoC5/ADC_DelSig_1_INT.c **** 
  30:.\Generated_Source\PSoC5/ADC_DelSig_1_INT.c **** 
  31:.\Generated_Source\PSoC5/ADC_DelSig_1_INT.c **** #if(ADC_DelSig_1_IRQ_REMOVE == 0u)
ARM GAS  C:\Users\Brian\AppData\Local\Temp\cch7EoJf.s 			page 2


  32:.\Generated_Source\PSoC5/ADC_DelSig_1_INT.c **** 
  33:.\Generated_Source\PSoC5/ADC_DelSig_1_INT.c **** 
  34:.\Generated_Source\PSoC5/ADC_DelSig_1_INT.c ****     /*****************************************************************************
  35:.\Generated_Source\PSoC5/ADC_DelSig_1_INT.c ****     * Function Name: ADC_DelSig_1_ISR1
  36:.\Generated_Source\PSoC5/ADC_DelSig_1_INT.c ****     ******************************************************************************
  37:.\Generated_Source\PSoC5/ADC_DelSig_1_INT.c ****     *
  38:.\Generated_Source\PSoC5/ADC_DelSig_1_INT.c ****     * Summary:
  39:.\Generated_Source\PSoC5/ADC_DelSig_1_INT.c ****     *  Handle Interrupt Service Routine.
  40:.\Generated_Source\PSoC5/ADC_DelSig_1_INT.c ****     *
  41:.\Generated_Source\PSoC5/ADC_DelSig_1_INT.c ****     * Parameters:
  42:.\Generated_Source\PSoC5/ADC_DelSig_1_INT.c ****     *  None
  43:.\Generated_Source\PSoC5/ADC_DelSig_1_INT.c ****     *
  44:.\Generated_Source\PSoC5/ADC_DelSig_1_INT.c ****     * Return:
  45:.\Generated_Source\PSoC5/ADC_DelSig_1_INT.c ****     *  None
  46:.\Generated_Source\PSoC5/ADC_DelSig_1_INT.c ****     *
  47:.\Generated_Source\PSoC5/ADC_DelSig_1_INT.c ****     * Reentrant:
  48:.\Generated_Source\PSoC5/ADC_DelSig_1_INT.c ****     *  No
  49:.\Generated_Source\PSoC5/ADC_DelSig_1_INT.c ****     *
  50:.\Generated_Source\PSoC5/ADC_DelSig_1_INT.c ****     *****************************************************************************/
  51:.\Generated_Source\PSoC5/ADC_DelSig_1_INT.c ****     CY_ISR( ADC_DelSig_1_ISR1)
  52:.\Generated_Source\PSoC5/ADC_DelSig_1_INT.c ****     {
  27              		.loc 1 52 0
  28              		.cfi_startproc
  29              		@ args = 0, pretend = 0, frame = 0
  30              		@ frame_needed = 1, uses_anonymous_args = 0
  31              		@ link register save eliminated.
  32 0000 80B4     		push	{r7}
  33              	.LCFI0:
  34              		.cfi_def_cfa_offset 4
  35              		.cfi_offset 7, -4
  36 0002 00AF     		add	r7, sp, #0
  37              	.LCFI1:
  38              		.cfi_def_cfa_register 7
  53:.\Generated_Source\PSoC5/ADC_DelSig_1_INT.c ****         /**************************************************************************
  54:.\Generated_Source\PSoC5/ADC_DelSig_1_INT.c ****         *  Custom Code
  55:.\Generated_Source\PSoC5/ADC_DelSig_1_INT.c ****         *  - add user ISR code between the following #START and #END tags
  56:.\Generated_Source\PSoC5/ADC_DelSig_1_INT.c ****         **************************************************************************/
  57:.\Generated_Source\PSoC5/ADC_DelSig_1_INT.c ****         /* `#START MAIN_ADC_ISR1`  */
  58:.\Generated_Source\PSoC5/ADC_DelSig_1_INT.c **** 
  59:.\Generated_Source\PSoC5/ADC_DelSig_1_INT.c ****         /* `#END`  */
  60:.\Generated_Source\PSoC5/ADC_DelSig_1_INT.c **** 
  61:.\Generated_Source\PSoC5/ADC_DelSig_1_INT.c ****         /* Stop the conversion if conversion mode is single sample and resolution
  62:.\Generated_Source\PSoC5/ADC_DelSig_1_INT.c ****         *  is above 16 bits.
  63:.\Generated_Source\PSoC5/ADC_DelSig_1_INT.c ****         */
  64:.\Generated_Source\PSoC5/ADC_DelSig_1_INT.c ****         #if(ADC_DelSig_1_CFG1_RESOLUTION > 16 && \
  65:.\Generated_Source\PSoC5/ADC_DelSig_1_INT.c ****             ADC_DelSig_1_CFG1_CONV_MODE == ADC_DelSig_1_MODE_SINGLE_SAMPLE)
  66:.\Generated_Source\PSoC5/ADC_DelSig_1_INT.c ****             ADC_DelSig_1_StopConvert();
  67:.\Generated_Source\PSoC5/ADC_DelSig_1_INT.c ****             /* Software flag for checking conversion complete or not. Will be used when
  68:.\Generated_Source\PSoC5/ADC_DelSig_1_INT.c ****             *  resolution is above 16 bits and conversion mode is single sample 
  69:.\Generated_Source\PSoC5/ADC_DelSig_1_INT.c **** 			*/
  70:.\Generated_Source\PSoC5/ADC_DelSig_1_INT.c ****             ADC_DelSig_1_convDone = ADC_DelSig_1_DEC_CONV_DONE;
  71:.\Generated_Source\PSoC5/ADC_DelSig_1_INT.c ****         #endif /* Single sample conversion mode with resolution above 16 bits */
  72:.\Generated_Source\PSoC5/ADC_DelSig_1_INT.c **** 
  73:.\Generated_Source\PSoC5/ADC_DelSig_1_INT.c ****     }
  39              		.loc 1 73 0
  40 0004 BD46     		mov	sp, r7
  41 0006 80BC     		pop	{r7}
ARM GAS  C:\Users\Brian\AppData\Local\Temp\cch7EoJf.s 			page 3


  42 0008 7047     		bx	lr
  43              		.cfi_endproc
  44              	.LFE0:
  45              		.size	ADC_DelSig_1_ISR1, .-ADC_DelSig_1_ISR1
  46 000a 00BF     		.section	.text.ADC_DelSig_1_ISR2,"ax",%progbits
  47              		.align	2
  48              		.global	ADC_DelSig_1_ISR2
  49              		.thumb
  50              		.thumb_func
  51              		.type	ADC_DelSig_1_ISR2, %function
  52              	ADC_DelSig_1_ISR2:
  53              	.LFB1:
  74:.\Generated_Source\PSoC5/ADC_DelSig_1_INT.c **** 
  75:.\Generated_Source\PSoC5/ADC_DelSig_1_INT.c **** 
  76:.\Generated_Source\PSoC5/ADC_DelSig_1_INT.c ****     /*****************************************************************************
  77:.\Generated_Source\PSoC5/ADC_DelSig_1_INT.c ****     * Function Name: ADC_DelSig_1_ISR2
  78:.\Generated_Source\PSoC5/ADC_DelSig_1_INT.c ****     ******************************************************************************
  79:.\Generated_Source\PSoC5/ADC_DelSig_1_INT.c ****     *
  80:.\Generated_Source\PSoC5/ADC_DelSig_1_INT.c ****     * Summary:
  81:.\Generated_Source\PSoC5/ADC_DelSig_1_INT.c ****     *  Handle Interrupt Service Routine.
  82:.\Generated_Source\PSoC5/ADC_DelSig_1_INT.c ****     *
  83:.\Generated_Source\PSoC5/ADC_DelSig_1_INT.c ****     * Parameters:
  84:.\Generated_Source\PSoC5/ADC_DelSig_1_INT.c ****     *  None
  85:.\Generated_Source\PSoC5/ADC_DelSig_1_INT.c ****     *
  86:.\Generated_Source\PSoC5/ADC_DelSig_1_INT.c ****     * Return:
  87:.\Generated_Source\PSoC5/ADC_DelSig_1_INT.c ****     *  None
  88:.\Generated_Source\PSoC5/ADC_DelSig_1_INT.c ****     *
  89:.\Generated_Source\PSoC5/ADC_DelSig_1_INT.c ****     * Reentrant:
  90:.\Generated_Source\PSoC5/ADC_DelSig_1_INT.c ****     *  No
  91:.\Generated_Source\PSoC5/ADC_DelSig_1_INT.c ****     *
  92:.\Generated_Source\PSoC5/ADC_DelSig_1_INT.c ****     *****************************************************************************/
  93:.\Generated_Source\PSoC5/ADC_DelSig_1_INT.c ****     CY_ISR( ADC_DelSig_1_ISR2)
  94:.\Generated_Source\PSoC5/ADC_DelSig_1_INT.c ****     {
  54              		.loc 1 94 0
  55              		.cfi_startproc
  56              		@ args = 0, pretend = 0, frame = 0
  57              		@ frame_needed = 1, uses_anonymous_args = 0
  58              		@ link register save eliminated.
  59 0000 80B4     		push	{r7}
  60              	.LCFI2:
  61              		.cfi_def_cfa_offset 4
  62              		.cfi_offset 7, -4
  63 0002 00AF     		add	r7, sp, #0
  64              	.LCFI3:
  65              		.cfi_def_cfa_register 7
  95:.\Generated_Source\PSoC5/ADC_DelSig_1_INT.c ****         /***************************************************************************
  96:.\Generated_Source\PSoC5/ADC_DelSig_1_INT.c ****         *  Custom Code
  97:.\Generated_Source\PSoC5/ADC_DelSig_1_INT.c ****         *  - add user ISR code between the following #START and #END tags
  98:.\Generated_Source\PSoC5/ADC_DelSig_1_INT.c ****         **************************************************************************/
  99:.\Generated_Source\PSoC5/ADC_DelSig_1_INT.c ****         /* `#START MAIN_ADC_ISR2`  */
 100:.\Generated_Source\PSoC5/ADC_DelSig_1_INT.c **** 
 101:.\Generated_Source\PSoC5/ADC_DelSig_1_INT.c ****         /* `#END`  */
 102:.\Generated_Source\PSoC5/ADC_DelSig_1_INT.c **** 
 103:.\Generated_Source\PSoC5/ADC_DelSig_1_INT.c ****         /* Stop the conversion conversion mode is single sample and resolution
 104:.\Generated_Source\PSoC5/ADC_DelSig_1_INT.c ****         *  is above 16 bits.
 105:.\Generated_Source\PSoC5/ADC_DelSig_1_INT.c ****         */
 106:.\Generated_Source\PSoC5/ADC_DelSig_1_INT.c ****         #if(ADC_DelSig_1_CFG2_RESOLUTION > 16 && \
ARM GAS  C:\Users\Brian\AppData\Local\Temp\cch7EoJf.s 			page 4


 107:.\Generated_Source\PSoC5/ADC_DelSig_1_INT.c ****             ADC_DelSig_1_CFG2_CONVMODE == ADC_DelSig_1_MODE_SINGLE_SAMPLE)
 108:.\Generated_Source\PSoC5/ADC_DelSig_1_INT.c ****             ADC_DelSig_1_StopConvert();
 109:.\Generated_Source\PSoC5/ADC_DelSig_1_INT.c ****             /* Software flag for checking conversion complete or not. Will be used when
 110:.\Generated_Source\PSoC5/ADC_DelSig_1_INT.c ****             *   resolution is above 16 bits and conversion mode is single sample 
 111:.\Generated_Source\PSoC5/ADC_DelSig_1_INT.c **** 			*/
 112:.\Generated_Source\PSoC5/ADC_DelSig_1_INT.c ****             ADC_DelSig_1_convDone = ADC_DelSig_1_DEC_CONV_DONE;
 113:.\Generated_Source\PSoC5/ADC_DelSig_1_INT.c ****         #endif /* Single sample conversion mode with resolution above 16 bits */
 114:.\Generated_Source\PSoC5/ADC_DelSig_1_INT.c **** 
 115:.\Generated_Source\PSoC5/ADC_DelSig_1_INT.c ****     }
  66              		.loc 1 115 0
  67 0004 BD46     		mov	sp, r7
  68 0006 80BC     		pop	{r7}
  69 0008 7047     		bx	lr
  70              		.cfi_endproc
  71              	.LFE1:
  72              		.size	ADC_DelSig_1_ISR2, .-ADC_DelSig_1_ISR2
  73 000a 00BF     		.section	.text.ADC_DelSig_1_ISR3,"ax",%progbits
  74              		.align	2
  75              		.global	ADC_DelSig_1_ISR3
  76              		.thumb
  77              		.thumb_func
  78              		.type	ADC_DelSig_1_ISR3, %function
  79              	ADC_DelSig_1_ISR3:
  80              	.LFB2:
 116:.\Generated_Source\PSoC5/ADC_DelSig_1_INT.c **** 
 117:.\Generated_Source\PSoC5/ADC_DelSig_1_INT.c **** 
 118:.\Generated_Source\PSoC5/ADC_DelSig_1_INT.c ****     /*****************************************************************************
 119:.\Generated_Source\PSoC5/ADC_DelSig_1_INT.c ****     * Function Name: ADC_DelSig_1_ISR3
 120:.\Generated_Source\PSoC5/ADC_DelSig_1_INT.c ****     ******************************************************************************
 121:.\Generated_Source\PSoC5/ADC_DelSig_1_INT.c ****     *
 122:.\Generated_Source\PSoC5/ADC_DelSig_1_INT.c ****     * Summary:
 123:.\Generated_Source\PSoC5/ADC_DelSig_1_INT.c ****     *  Handle Interrupt Service Routine.
 124:.\Generated_Source\PSoC5/ADC_DelSig_1_INT.c ****     *
 125:.\Generated_Source\PSoC5/ADC_DelSig_1_INT.c ****     * Parameters:
 126:.\Generated_Source\PSoC5/ADC_DelSig_1_INT.c ****     *  None
 127:.\Generated_Source\PSoC5/ADC_DelSig_1_INT.c ****     *
 128:.\Generated_Source\PSoC5/ADC_DelSig_1_INT.c ****     * Return:
 129:.\Generated_Source\PSoC5/ADC_DelSig_1_INT.c ****     *  None
 130:.\Generated_Source\PSoC5/ADC_DelSig_1_INT.c ****     *
 131:.\Generated_Source\PSoC5/ADC_DelSig_1_INT.c ****     * Reentrant:
 132:.\Generated_Source\PSoC5/ADC_DelSig_1_INT.c ****     *  No
 133:.\Generated_Source\PSoC5/ADC_DelSig_1_INT.c ****     *
 134:.\Generated_Source\PSoC5/ADC_DelSig_1_INT.c ****     *****************************************************************************/
 135:.\Generated_Source\PSoC5/ADC_DelSig_1_INT.c ****     CY_ISR( ADC_DelSig_1_ISR3)
 136:.\Generated_Source\PSoC5/ADC_DelSig_1_INT.c ****     {
  81              		.loc 1 136 0
  82              		.cfi_startproc
  83              		@ args = 0, pretend = 0, frame = 0
  84              		@ frame_needed = 1, uses_anonymous_args = 0
  85              		@ link register save eliminated.
  86 0000 80B4     		push	{r7}
  87              	.LCFI4:
  88              		.cfi_def_cfa_offset 4
  89              		.cfi_offset 7, -4
  90 0002 00AF     		add	r7, sp, #0
  91              	.LCFI5:
  92              		.cfi_def_cfa_register 7
ARM GAS  C:\Users\Brian\AppData\Local\Temp\cch7EoJf.s 			page 5


 137:.\Generated_Source\PSoC5/ADC_DelSig_1_INT.c ****         /***************************************************************************
 138:.\Generated_Source\PSoC5/ADC_DelSig_1_INT.c ****         *  Custom Code
 139:.\Generated_Source\PSoC5/ADC_DelSig_1_INT.c ****         *  - add user ISR code between the following #START and #END tags
 140:.\Generated_Source\PSoC5/ADC_DelSig_1_INT.c ****         **************************************************************************/
 141:.\Generated_Source\PSoC5/ADC_DelSig_1_INT.c ****         /* `#START MAIN_ADC_ISR3`  */
 142:.\Generated_Source\PSoC5/ADC_DelSig_1_INT.c **** 
 143:.\Generated_Source\PSoC5/ADC_DelSig_1_INT.c ****         /* `#END`  */
 144:.\Generated_Source\PSoC5/ADC_DelSig_1_INT.c **** 
 145:.\Generated_Source\PSoC5/ADC_DelSig_1_INT.c ****         /* Stop the conversion if conversion mode is set to single sample and
 146:.\Generated_Source\PSoC5/ADC_DelSig_1_INT.c ****         *  resolution is above 16 bits.
 147:.\Generated_Source\PSoC5/ADC_DelSig_1_INT.c ****         */
 148:.\Generated_Source\PSoC5/ADC_DelSig_1_INT.c ****         #if(ADC_DelSig_1_CFG3_RESOLUTION > 16 && \
 149:.\Generated_Source\PSoC5/ADC_DelSig_1_INT.c ****             ADC_DelSig_1_CFG3_CONVMODE == ADC_DelSig_1_MODE_SINGLE_SAMPLE)
 150:.\Generated_Source\PSoC5/ADC_DelSig_1_INT.c ****             ADC_DelSig_1_StopConvert();
 151:.\Generated_Source\PSoC5/ADC_DelSig_1_INT.c ****             /* Software flag for checking conversion complete or not. Will be used when
 152:.\Generated_Source\PSoC5/ADC_DelSig_1_INT.c ****             *  resolution is above 16 bits and conversion mode is single sample 
 153:.\Generated_Source\PSoC5/ADC_DelSig_1_INT.c **** 			*/
 154:.\Generated_Source\PSoC5/ADC_DelSig_1_INT.c ****             ADC_DelSig_1_convDone = ADC_DelSig_1_DEC_CONV_DONE;
 155:.\Generated_Source\PSoC5/ADC_DelSig_1_INT.c ****         #endif /* Single sample conversion mode with resolution above 16 bits */
 156:.\Generated_Source\PSoC5/ADC_DelSig_1_INT.c ****     }
  93              		.loc 1 156 0
  94 0004 BD46     		mov	sp, r7
  95 0006 80BC     		pop	{r7}
  96 0008 7047     		bx	lr
  97              		.cfi_endproc
  98              	.LFE2:
  99              		.size	ADC_DelSig_1_ISR3, .-ADC_DelSig_1_ISR3
 100 000a 00BF     		.section	.text.ADC_DelSig_1_ISR4,"ax",%progbits
 101              		.align	2
 102              		.global	ADC_DelSig_1_ISR4
 103              		.thumb
 104              		.thumb_func
 105              		.type	ADC_DelSig_1_ISR4, %function
 106              	ADC_DelSig_1_ISR4:
 107              	.LFB3:
 157:.\Generated_Source\PSoC5/ADC_DelSig_1_INT.c **** 
 158:.\Generated_Source\PSoC5/ADC_DelSig_1_INT.c **** 
 159:.\Generated_Source\PSoC5/ADC_DelSig_1_INT.c ****     /*****************************************************************************
 160:.\Generated_Source\PSoC5/ADC_DelSig_1_INT.c ****     * Function Name: ADC_DelSig_1_ISR4
 161:.\Generated_Source\PSoC5/ADC_DelSig_1_INT.c ****     ******************************************************************************
 162:.\Generated_Source\PSoC5/ADC_DelSig_1_INT.c ****     *
 163:.\Generated_Source\PSoC5/ADC_DelSig_1_INT.c ****     * Summary:
 164:.\Generated_Source\PSoC5/ADC_DelSig_1_INT.c ****     *  Handle Interrupt Service Routine.
 165:.\Generated_Source\PSoC5/ADC_DelSig_1_INT.c ****     *
 166:.\Generated_Source\PSoC5/ADC_DelSig_1_INT.c ****     * Parameters:
 167:.\Generated_Source\PSoC5/ADC_DelSig_1_INT.c ****     *  None
 168:.\Generated_Source\PSoC5/ADC_DelSig_1_INT.c ****     *
 169:.\Generated_Source\PSoC5/ADC_DelSig_1_INT.c ****     * Return:
 170:.\Generated_Source\PSoC5/ADC_DelSig_1_INT.c ****     *  None
 171:.\Generated_Source\PSoC5/ADC_DelSig_1_INT.c ****     *
 172:.\Generated_Source\PSoC5/ADC_DelSig_1_INT.c ****     * Reentrant:
 173:.\Generated_Source\PSoC5/ADC_DelSig_1_INT.c ****     *  No
 174:.\Generated_Source\PSoC5/ADC_DelSig_1_INT.c ****     *
 175:.\Generated_Source\PSoC5/ADC_DelSig_1_INT.c ****     *****************************************************************************/
 176:.\Generated_Source\PSoC5/ADC_DelSig_1_INT.c ****     CY_ISR( ADC_DelSig_1_ISR4)
 177:.\Generated_Source\PSoC5/ADC_DelSig_1_INT.c ****     {
 108              		.loc 1 177 0
ARM GAS  C:\Users\Brian\AppData\Local\Temp\cch7EoJf.s 			page 6


 109              		.cfi_startproc
 110              		@ args = 0, pretend = 0, frame = 0
 111              		@ frame_needed = 1, uses_anonymous_args = 0
 112              		@ link register save eliminated.
 113 0000 80B4     		push	{r7}
 114              	.LCFI6:
 115              		.cfi_def_cfa_offset 4
 116              		.cfi_offset 7, -4
 117 0002 00AF     		add	r7, sp, #0
 118              	.LCFI7:
 119              		.cfi_def_cfa_register 7
 178:.\Generated_Source\PSoC5/ADC_DelSig_1_INT.c ****         /***************************************************************************
 179:.\Generated_Source\PSoC5/ADC_DelSig_1_INT.c ****         *  Custom Code
 180:.\Generated_Source\PSoC5/ADC_DelSig_1_INT.c ****         *  - add user ISR code between the following #START and #END tags
 181:.\Generated_Source\PSoC5/ADC_DelSig_1_INT.c ****         **************************************************************************/
 182:.\Generated_Source\PSoC5/ADC_DelSig_1_INT.c ****         /* `#START MAIN_ADC_ISR4`  */
 183:.\Generated_Source\PSoC5/ADC_DelSig_1_INT.c **** 
 184:.\Generated_Source\PSoC5/ADC_DelSig_1_INT.c ****         /* `#END`  */
 185:.\Generated_Source\PSoC5/ADC_DelSig_1_INT.c **** 
 186:.\Generated_Source\PSoC5/ADC_DelSig_1_INT.c ****         /* Stop the conversion if conversion mode is set to single sample and
 187:.\Generated_Source\PSoC5/ADC_DelSig_1_INT.c ****         *  resolution is above 16 bits.
 188:.\Generated_Source\PSoC5/ADC_DelSig_1_INT.c ****         */
 189:.\Generated_Source\PSoC5/ADC_DelSig_1_INT.c ****         #if(ADC_DelSig_1_CFG4_RESOLUTION > 16 && \
 190:.\Generated_Source\PSoC5/ADC_DelSig_1_INT.c ****             ADC_DelSig_1_CFG4_CONVMODE == ADC_DelSig_1_MODE_SINGLE_SAMPLE)
 191:.\Generated_Source\PSoC5/ADC_DelSig_1_INT.c ****             ADC_DelSig_1_StopConvert();
 192:.\Generated_Source\PSoC5/ADC_DelSig_1_INT.c ****             /* Software flag for checking conversion complete or not. Will be used when
 193:.\Generated_Source\PSoC5/ADC_DelSig_1_INT.c ****             *  resolution is above 16 bits and conversion mode is single sample 
 194:.\Generated_Source\PSoC5/ADC_DelSig_1_INT.c **** 			*/
 195:.\Generated_Source\PSoC5/ADC_DelSig_1_INT.c ****             ADC_DelSig_1_convDone = ADC_DelSig_1_DEC_CONV_DONE;
 196:.\Generated_Source\PSoC5/ADC_DelSig_1_INT.c ****         #endif /* Single sample conversion mode with resolution above 16 bits */
 197:.\Generated_Source\PSoC5/ADC_DelSig_1_INT.c ****     }
 120              		.loc 1 197 0
 121 0004 BD46     		mov	sp, r7
 122 0006 80BC     		pop	{r7}
 123 0008 7047     		bx	lr
 124              		.cfi_endproc
 125              	.LFE3:
 126              		.size	ADC_DelSig_1_ISR4, .-ADC_DelSig_1_ISR4
 127 000a 00BF     		.text
 128              	.Letext0: