ARM GAS  C:\Users\Brian\AppData\Local\Temp\ccVazoLc.s 			page 1


   1              		.syntax unified
   2              		.cpu cortex-m3
   3              		.fpu softvfp
   4              		.eabi_attribute 20, 1
   5              		.eabi_attribute 21, 1
   6              		.eabi_attribute 23, 3
   7              		.eabi_attribute 24, 1
   8              		.eabi_attribute 25, 1
   9              		.eabi_attribute 26, 1
  10              		.eabi_attribute 30, 6
  11              		.eabi_attribute 34, 1
  12              		.eabi_attribute 18, 4
  13              		.thumb
  14              		.file	"ADC_SAR_Seq_1_SAR.c"
  15              		.text
  16              	.Ltext0:
  17              		.cfi_sections	.debug_frame
  18              		.global	ADC_SAR_Seq_1_SAR_initVar
  19              		.bss
  20              		.type	ADC_SAR_Seq_1_SAR_initVar, %object
  21              		.size	ADC_SAR_Seq_1_SAR_initVar, 1
  22              	ADC_SAR_Seq_1_SAR_initVar:
  23 0000 00       		.space	1
  24              		.comm	ADC_SAR_Seq_1_SAR_offset,2,2
  25              		.comm	ADC_SAR_Seq_1_SAR_countsPerVolt,2,2
  26              		.comm	ADC_SAR_Seq_1_SAR_countsPer10Volt,4,4
  27              		.comm	ADC_SAR_Seq_1_SAR_shift,2,2
  28              		.section	.text.ADC_SAR_Seq_1_SAR_Start,"ax",%progbits
  29              		.align	2
  30              		.global	ADC_SAR_Seq_1_SAR_Start
  31              		.thumb
  32              		.thumb_func
  33              		.type	ADC_SAR_Seq_1_SAR_Start, %function
  34              	ADC_SAR_Seq_1_SAR_Start:
  35              	.LFB0:
  36              		.file 1 ".\\Generated_Source\\PSoC5\\ADC_SAR_Seq_1_SAR.c"
   1:.\Generated_Source\PSoC5/ADC_SAR_Seq_1_SAR.c **** /*******************************************************************************
   2:.\Generated_Source\PSoC5/ADC_SAR_Seq_1_SAR.c **** * File Name: ADC_SAR_Seq_1_SAR.c
   3:.\Generated_Source\PSoC5/ADC_SAR_Seq_1_SAR.c **** * Version 2.10
   4:.\Generated_Source\PSoC5/ADC_SAR_Seq_1_SAR.c **** *
   5:.\Generated_Source\PSoC5/ADC_SAR_Seq_1_SAR.c **** * Description:
   6:.\Generated_Source\PSoC5/ADC_SAR_Seq_1_SAR.c **** *  This file provides the source code to the API for the Successive
   7:.\Generated_Source\PSoC5/ADC_SAR_Seq_1_SAR.c **** *  approximation ADC Component.
   8:.\Generated_Source\PSoC5/ADC_SAR_Seq_1_SAR.c **** *
   9:.\Generated_Source\PSoC5/ADC_SAR_Seq_1_SAR.c **** * Note:
  10:.\Generated_Source\PSoC5/ADC_SAR_Seq_1_SAR.c **** *
  11:.\Generated_Source\PSoC5/ADC_SAR_Seq_1_SAR.c **** ********************************************************************************
  12:.\Generated_Source\PSoC5/ADC_SAR_Seq_1_SAR.c **** * Copyright 2008-2013, Cypress Semiconductor Corporation.  All rights reserved.
  13:.\Generated_Source\PSoC5/ADC_SAR_Seq_1_SAR.c **** * You may use this file only in accordance with the license, terms, conditions,
  14:.\Generated_Source\PSoC5/ADC_SAR_Seq_1_SAR.c **** * disclaimers, and limitations in the end user license agreement accompanying
  15:.\Generated_Source\PSoC5/ADC_SAR_Seq_1_SAR.c **** * the software package with which this file was provided.
  16:.\Generated_Source\PSoC5/ADC_SAR_Seq_1_SAR.c **** *******************************************************************************/
  17:.\Generated_Source\PSoC5/ADC_SAR_Seq_1_SAR.c **** 
  18:.\Generated_Source\PSoC5/ADC_SAR_Seq_1_SAR.c **** #include "CyLib.h"
  19:.\Generated_Source\PSoC5/ADC_SAR_Seq_1_SAR.c **** #include "ADC_SAR_Seq_1_SAR.h"
  20:.\Generated_Source\PSoC5/ADC_SAR_Seq_1_SAR.c **** 
  21:.\Generated_Source\PSoC5/ADC_SAR_Seq_1_SAR.c **** #if(ADC_SAR_Seq_1_SAR_DEFAULT_INTERNAL_CLK)
ARM GAS  C:\Users\Brian\AppData\Local\Temp\ccVazoLc.s 			page 2


  22:.\Generated_Source\PSoC5/ADC_SAR_Seq_1_SAR.c ****     #include "ADC_SAR_Seq_1_SAR_theACLK.h"
  23:.\Generated_Source\PSoC5/ADC_SAR_Seq_1_SAR.c **** #endif /* End ADC_SAR_Seq_1_SAR_DEFAULT_INTERNAL_CLK */
  24:.\Generated_Source\PSoC5/ADC_SAR_Seq_1_SAR.c **** 
  25:.\Generated_Source\PSoC5/ADC_SAR_Seq_1_SAR.c **** 
  26:.\Generated_Source\PSoC5/ADC_SAR_Seq_1_SAR.c **** /***************************************
  27:.\Generated_Source\PSoC5/ADC_SAR_Seq_1_SAR.c **** * Forward function references
  28:.\Generated_Source\PSoC5/ADC_SAR_Seq_1_SAR.c **** ***************************************/
  29:.\Generated_Source\PSoC5/ADC_SAR_Seq_1_SAR.c **** static void ADC_SAR_Seq_1_SAR_CalcGain(uint8 resolution);
  30:.\Generated_Source\PSoC5/ADC_SAR_Seq_1_SAR.c **** 
  31:.\Generated_Source\PSoC5/ADC_SAR_Seq_1_SAR.c **** 
  32:.\Generated_Source\PSoC5/ADC_SAR_Seq_1_SAR.c **** /***************************************
  33:.\Generated_Source\PSoC5/ADC_SAR_Seq_1_SAR.c **** * Global data allocation
  34:.\Generated_Source\PSoC5/ADC_SAR_Seq_1_SAR.c **** ***************************************/
  35:.\Generated_Source\PSoC5/ADC_SAR_Seq_1_SAR.c **** uint8 ADC_SAR_Seq_1_SAR_initVar = 0u;
  36:.\Generated_Source\PSoC5/ADC_SAR_Seq_1_SAR.c **** volatile int16 ADC_SAR_Seq_1_SAR_offset;
  37:.\Generated_Source\PSoC5/ADC_SAR_Seq_1_SAR.c **** volatile int16 ADC_SAR_Seq_1_SAR_countsPerVolt;     /* Obsolete Gain compensation */
  38:.\Generated_Source\PSoC5/ADC_SAR_Seq_1_SAR.c **** volatile int32 ADC_SAR_Seq_1_SAR_countsPer10Volt;   /* Gain compensation */
  39:.\Generated_Source\PSoC5/ADC_SAR_Seq_1_SAR.c **** volatile int16 ADC_SAR_Seq_1_SAR_shift;
  40:.\Generated_Source\PSoC5/ADC_SAR_Seq_1_SAR.c **** 
  41:.\Generated_Source\PSoC5/ADC_SAR_Seq_1_SAR.c **** 
  42:.\Generated_Source\PSoC5/ADC_SAR_Seq_1_SAR.c **** /*******************************************************************************
  43:.\Generated_Source\PSoC5/ADC_SAR_Seq_1_SAR.c **** * Function Name: ADC_SAR_Seq_1_SAR_Start
  44:.\Generated_Source\PSoC5/ADC_SAR_Seq_1_SAR.c **** ********************************************************************************
  45:.\Generated_Source\PSoC5/ADC_SAR_Seq_1_SAR.c **** *
  46:.\Generated_Source\PSoC5/ADC_SAR_Seq_1_SAR.c **** * Summary:
  47:.\Generated_Source\PSoC5/ADC_SAR_Seq_1_SAR.c **** *  This is the preferred method to begin component operation.
  48:.\Generated_Source\PSoC5/ADC_SAR_Seq_1_SAR.c **** *  ADC_SAR_Seq_1_SAR_Start() sets the initVar variable, calls the
  49:.\Generated_Source\PSoC5/ADC_SAR_Seq_1_SAR.c **** *  ADC_SAR_Seq_1_SAR_Init() function, and then calls the
  50:.\Generated_Source\PSoC5/ADC_SAR_Seq_1_SAR.c **** *  ADC_SAR_Seq_1_SAR_Enable() function.
  51:.\Generated_Source\PSoC5/ADC_SAR_Seq_1_SAR.c **** *
  52:.\Generated_Source\PSoC5/ADC_SAR_Seq_1_SAR.c **** * Parameters:
  53:.\Generated_Source\PSoC5/ADC_SAR_Seq_1_SAR.c **** *  None.
  54:.\Generated_Source\PSoC5/ADC_SAR_Seq_1_SAR.c **** *
  55:.\Generated_Source\PSoC5/ADC_SAR_Seq_1_SAR.c **** * Return:
  56:.\Generated_Source\PSoC5/ADC_SAR_Seq_1_SAR.c **** *  None.
  57:.\Generated_Source\PSoC5/ADC_SAR_Seq_1_SAR.c **** *
  58:.\Generated_Source\PSoC5/ADC_SAR_Seq_1_SAR.c **** * Global variables:
  59:.\Generated_Source\PSoC5/ADC_SAR_Seq_1_SAR.c **** *  The ADC_SAR_Seq_1_SAR_initVar variable is used to indicate when/if initial
  60:.\Generated_Source\PSoC5/ADC_SAR_Seq_1_SAR.c **** *  configuration of this component has happened. The variable is initialized to
  61:.\Generated_Source\PSoC5/ADC_SAR_Seq_1_SAR.c **** *  zero and set to 1 the first time ADC_Start() is called. This allows for
  62:.\Generated_Source\PSoC5/ADC_SAR_Seq_1_SAR.c **** *  component Re-Start without re-initialization in all subsequent calls to the
  63:.\Generated_Source\PSoC5/ADC_SAR_Seq_1_SAR.c **** *  ADC_SAR_Seq_1_SAR_Start() routine.
  64:.\Generated_Source\PSoC5/ADC_SAR_Seq_1_SAR.c **** *  If re-initialization of the component is required the variable should be set
  65:.\Generated_Source\PSoC5/ADC_SAR_Seq_1_SAR.c **** *  to zero before call of ADC_SAR_Seq_1_SAR_Start() routine, or the user may call
  66:.\Generated_Source\PSoC5/ADC_SAR_Seq_1_SAR.c **** *  ADC_SAR_Seq_1_SAR_Init() and ADC_SAR_Seq_1_SAR_Enable() as done in the
  67:.\Generated_Source\PSoC5/ADC_SAR_Seq_1_SAR.c **** *  ADC_SAR_Seq_1_SAR_Start() routine.
  68:.\Generated_Source\PSoC5/ADC_SAR_Seq_1_SAR.c **** *
  69:.\Generated_Source\PSoC5/ADC_SAR_Seq_1_SAR.c **** * Side Effect:
  70:.\Generated_Source\PSoC5/ADC_SAR_Seq_1_SAR.c **** *  If the initVar variable is already set, this function only calls the
  71:.\Generated_Source\PSoC5/ADC_SAR_Seq_1_SAR.c **** *  ADC_SAR_Seq_1_SAR_Enable() function.
  72:.\Generated_Source\PSoC5/ADC_SAR_Seq_1_SAR.c **** *
  73:.\Generated_Source\PSoC5/ADC_SAR_Seq_1_SAR.c **** *******************************************************************************/
  74:.\Generated_Source\PSoC5/ADC_SAR_Seq_1_SAR.c **** void ADC_SAR_Seq_1_SAR_Start(void)
  75:.\Generated_Source\PSoC5/ADC_SAR_Seq_1_SAR.c **** {
  37              		.loc 1 75 0
  38              		.cfi_startproc
  39              		@ args = 0, pretend = 0, frame = 0
ARM GAS  C:\Users\Brian\AppData\Local\Temp\ccVazoLc.s 			page 3


  40              		@ frame_needed = 1, uses_anonymous_args = 0
  41 0000 80B5     		push	{r7, lr}
  42              	.LCFI0:
  43              		.cfi_def_cfa_offset 8
  44              		.cfi_offset 7, -8
  45              		.cfi_offset 14, -4
  46 0002 00AF     		add	r7, sp, #0
  47              	.LCFI1:
  48              		.cfi_def_cfa_register 7
  76:.\Generated_Source\PSoC5/ADC_SAR_Seq_1_SAR.c **** 
  77:.\Generated_Source\PSoC5/ADC_SAR_Seq_1_SAR.c ****     /* If not Initialized then initialize all required hardware and software */
  78:.\Generated_Source\PSoC5/ADC_SAR_Seq_1_SAR.c ****     if(ADC_SAR_Seq_1_SAR_initVar == 0u)
  49              		.loc 1 78 0
  50 0004 40F20003 		movw	r3, #:lower16:ADC_SAR_Seq_1_SAR_initVar
  51 0008 C0F20003 		movt	r3, #:upper16:ADC_SAR_Seq_1_SAR_initVar
  52 000c 1B78     		ldrb	r3, [r3, #0]	@ zero_extendqisi2
  53 000e 002B     		cmp	r3, #0
  54 0010 08D1     		bne	.L2
  79:.\Generated_Source\PSoC5/ADC_SAR_Seq_1_SAR.c ****     {
  80:.\Generated_Source\PSoC5/ADC_SAR_Seq_1_SAR.c ****         ADC_SAR_Seq_1_SAR_Init();
  55              		.loc 1 80 0
  56 0012 FFF7FEFF 		bl	ADC_SAR_Seq_1_SAR_Init
  81:.\Generated_Source\PSoC5/ADC_SAR_Seq_1_SAR.c ****         ADC_SAR_Seq_1_SAR_initVar = 1u;
  57              		.loc 1 81 0
  58 0016 40F20003 		movw	r3, #:lower16:ADC_SAR_Seq_1_SAR_initVar
  59 001a C0F20003 		movt	r3, #:upper16:ADC_SAR_Seq_1_SAR_initVar
  60 001e 4FF00102 		mov	r2, #1
  61 0022 1A70     		strb	r2, [r3, #0]
  62              	.L2:
  82:.\Generated_Source\PSoC5/ADC_SAR_Seq_1_SAR.c ****     }
  83:.\Generated_Source\PSoC5/ADC_SAR_Seq_1_SAR.c ****     ADC_SAR_Seq_1_SAR_Enable();
  63              		.loc 1 83 0
  64 0024 FFF7FEFF 		bl	ADC_SAR_Seq_1_SAR_Enable
  84:.\Generated_Source\PSoC5/ADC_SAR_Seq_1_SAR.c **** }
  65              		.loc 1 84 0
  66 0028 80BD     		pop	{r7, pc}
  67              		.cfi_endproc
  68              	.LFE0:
  69              		.size	ADC_SAR_Seq_1_SAR_Start, .-ADC_SAR_Seq_1_SAR_Start
  70 002a 00BF     		.section	.text.ADC_SAR_Seq_1_SAR_Init,"ax",%progbits
  71              		.align	2
  72              		.global	ADC_SAR_Seq_1_SAR_Init
  73              		.thumb
  74              		.thumb_func
  75              		.type	ADC_SAR_Seq_1_SAR_Init, %function
  76              	ADC_SAR_Seq_1_SAR_Init:
  77              	.LFB1:
  85:.\Generated_Source\PSoC5/ADC_SAR_Seq_1_SAR.c **** 
  86:.\Generated_Source\PSoC5/ADC_SAR_Seq_1_SAR.c **** 
  87:.\Generated_Source\PSoC5/ADC_SAR_Seq_1_SAR.c **** /*******************************************************************************
  88:.\Generated_Source\PSoC5/ADC_SAR_Seq_1_SAR.c **** * Function Name: ADC_SAR_Seq_1_SAR_Init
  89:.\Generated_Source\PSoC5/ADC_SAR_Seq_1_SAR.c **** ********************************************************************************
  90:.\Generated_Source\PSoC5/ADC_SAR_Seq_1_SAR.c **** *
  91:.\Generated_Source\PSoC5/ADC_SAR_Seq_1_SAR.c **** * Summary:
  92:.\Generated_Source\PSoC5/ADC_SAR_Seq_1_SAR.c **** *  Initialize component's parameters to the parameters set by user in the
  93:.\Generated_Source\PSoC5/ADC_SAR_Seq_1_SAR.c **** *  customizer of the component placed onto schematic. Usually called in
  94:.\Generated_Source\PSoC5/ADC_SAR_Seq_1_SAR.c **** *  ADC_SAR_Seq_1_SAR_Start().
ARM GAS  C:\Users\Brian\AppData\Local\Temp\ccVazoLc.s 			page 4


  95:.\Generated_Source\PSoC5/ADC_SAR_Seq_1_SAR.c **** *
  96:.\Generated_Source\PSoC5/ADC_SAR_Seq_1_SAR.c **** * Parameters:
  97:.\Generated_Source\PSoC5/ADC_SAR_Seq_1_SAR.c **** *  None.
  98:.\Generated_Source\PSoC5/ADC_SAR_Seq_1_SAR.c **** *
  99:.\Generated_Source\PSoC5/ADC_SAR_Seq_1_SAR.c **** * Return:
 100:.\Generated_Source\PSoC5/ADC_SAR_Seq_1_SAR.c **** *  None.
 101:.\Generated_Source\PSoC5/ADC_SAR_Seq_1_SAR.c **** *
 102:.\Generated_Source\PSoC5/ADC_SAR_Seq_1_SAR.c **** * Global variables:
 103:.\Generated_Source\PSoC5/ADC_SAR_Seq_1_SAR.c **** *  The ADC_SAR_Seq_1_SAR_offset variable is initialized to 0.
 104:.\Generated_Source\PSoC5/ADC_SAR_Seq_1_SAR.c **** *
 105:.\Generated_Source\PSoC5/ADC_SAR_Seq_1_SAR.c **** *******************************************************************************/
 106:.\Generated_Source\PSoC5/ADC_SAR_Seq_1_SAR.c **** void ADC_SAR_Seq_1_SAR_Init(void)
 107:.\Generated_Source\PSoC5/ADC_SAR_Seq_1_SAR.c **** {
  78              		.loc 1 107 0
  79              		.cfi_startproc
  80              		@ args = 0, pretend = 0, frame = 0
  81              		@ frame_needed = 1, uses_anonymous_args = 0
  82 0000 80B5     		push	{r7, lr}
  83              	.LCFI2:
  84              		.cfi_def_cfa_offset 8
  85              		.cfi_offset 7, -8
  86              		.cfi_offset 14, -4
  87 0002 00AF     		add	r7, sp, #0
  88              	.LCFI3:
  89              		.cfi_def_cfa_register 7
 108:.\Generated_Source\PSoC5/ADC_SAR_Seq_1_SAR.c **** 
 109:.\Generated_Source\PSoC5/ADC_SAR_Seq_1_SAR.c ****     /* This is only valid if there is an internal clock */
 110:.\Generated_Source\PSoC5/ADC_SAR_Seq_1_SAR.c ****     #if(ADC_SAR_Seq_1_SAR_DEFAULT_INTERNAL_CLK)
 111:.\Generated_Source\PSoC5/ADC_SAR_Seq_1_SAR.c ****         ADC_SAR_Seq_1_SAR_theACLK_SetMode(CYCLK_DUTY);
 112:.\Generated_Source\PSoC5/ADC_SAR_Seq_1_SAR.c ****     #endif /* End ADC_SAR_Seq_1_SAR_DEFAULT_INTERNAL_CLK */
 113:.\Generated_Source\PSoC5/ADC_SAR_Seq_1_SAR.c **** 
 114:.\Generated_Source\PSoC5/ADC_SAR_Seq_1_SAR.c ****     #if(ADC_SAR_Seq_1_SAR_IRQ_REMOVE == 0u)
 115:.\Generated_Source\PSoC5/ADC_SAR_Seq_1_SAR.c ****         /* Start and set interrupt vector */
 116:.\Generated_Source\PSoC5/ADC_SAR_Seq_1_SAR.c ****         CyIntSetPriority(ADC_SAR_Seq_1_SAR_INTC_NUMBER, ADC_SAR_Seq_1_SAR_INTC_PRIOR_NUMBER);
 117:.\Generated_Source\PSoC5/ADC_SAR_Seq_1_SAR.c ****         (void)CyIntSetVector(ADC_SAR_Seq_1_SAR_INTC_NUMBER, &ADC_SAR_Seq_1_SAR_ISR);
 118:.\Generated_Source\PSoC5/ADC_SAR_Seq_1_SAR.c ****     #endif   /* End ADC_SAR_Seq_1_SAR_IRQ_REMOVE */
 119:.\Generated_Source\PSoC5/ADC_SAR_Seq_1_SAR.c **** 
 120:.\Generated_Source\PSoC5/ADC_SAR_Seq_1_SAR.c ****     /* Enable IRQ mode*/
 121:.\Generated_Source\PSoC5/ADC_SAR_Seq_1_SAR.c ****     ADC_SAR_Seq_1_SAR_SAR_CSR1_REG |= ADC_SAR_Seq_1_SAR_SAR_IRQ_MASK_EN | ADC_SAR_Seq_1_SAR_SAR_IRQ
  90              		.loc 1 121 0
  91 0004 45F60113 		movw	r3, #22785
  92 0008 C4F20003 		movt	r3, 16384
  93 000c 45F60112 		movw	r2, #22785
  94 0010 C4F20002 		movt	r2, 16384
  95 0014 1278     		ldrb	r2, [r2, #0]
  96 0016 D2B2     		uxtb	r2, r2
  97 0018 42F00602 		orr	r2, r2, #6
  98 001c D2B2     		uxtb	r2, r2
  99 001e 1A70     		strb	r2, [r3, #0]
 122:.\Generated_Source\PSoC5/ADC_SAR_Seq_1_SAR.c **** 
 123:.\Generated_Source\PSoC5/ADC_SAR_Seq_1_SAR.c ****     /*Set SAR ADC resolution ADC */
 124:.\Generated_Source\PSoC5/ADC_SAR_Seq_1_SAR.c ****     ADC_SAR_Seq_1_SAR_SetResolution(ADC_SAR_Seq_1_SAR_DEFAULT_RESOLUTION);
 100              		.loc 1 124 0
 101 0020 4FF00C00 		mov	r0, #12
 102 0024 FFF7FEFF 		bl	ADC_SAR_Seq_1_SAR_SetResolution
 125:.\Generated_Source\PSoC5/ADC_SAR_Seq_1_SAR.c ****     ADC_SAR_Seq_1_SAR_offset = 0;
 103              		.loc 1 125 0
ARM GAS  C:\Users\Brian\AppData\Local\Temp\ccVazoLc.s 			page 5


 104 0028 40F20003 		movw	r3, #:lower16:ADC_SAR_Seq_1_SAR_offset
 105 002c C0F20003 		movt	r3, #:upper16:ADC_SAR_Seq_1_SAR_offset
 106 0030 4FF00002 		mov	r2, #0
 107 0034 1A80     		strh	r2, [r3, #0]	@ movhi
 126:.\Generated_Source\PSoC5/ADC_SAR_Seq_1_SAR.c **** }
 108              		.loc 1 126 0
 109 0036 80BD     		pop	{r7, pc}
 110              		.cfi_endproc
 111              	.LFE1:
 112              		.size	ADC_SAR_Seq_1_SAR_Init, .-ADC_SAR_Seq_1_SAR_Init
 113              		.section	.text.ADC_SAR_Seq_1_SAR_Enable,"ax",%progbits
 114              		.align	2
 115              		.global	ADC_SAR_Seq_1_SAR_Enable
 116              		.thumb
 117              		.thumb_func
 118              		.type	ADC_SAR_Seq_1_SAR_Enable, %function
 119              	ADC_SAR_Seq_1_SAR_Enable:
 120              	.LFB2:
 127:.\Generated_Source\PSoC5/ADC_SAR_Seq_1_SAR.c **** 
 128:.\Generated_Source\PSoC5/ADC_SAR_Seq_1_SAR.c **** 
 129:.\Generated_Source\PSoC5/ADC_SAR_Seq_1_SAR.c **** /*******************************************************************************
 130:.\Generated_Source\PSoC5/ADC_SAR_Seq_1_SAR.c **** * Function Name: ADC_SAR_Seq_1_SAR_Enable
 131:.\Generated_Source\PSoC5/ADC_SAR_Seq_1_SAR.c **** ********************************************************************************
 132:.\Generated_Source\PSoC5/ADC_SAR_Seq_1_SAR.c **** *
 133:.\Generated_Source\PSoC5/ADC_SAR_Seq_1_SAR.c **** * Summary:
 134:.\Generated_Source\PSoC5/ADC_SAR_Seq_1_SAR.c **** *  Enables the reference, clock and power for SAR ADC.
 135:.\Generated_Source\PSoC5/ADC_SAR_Seq_1_SAR.c **** *
 136:.\Generated_Source\PSoC5/ADC_SAR_Seq_1_SAR.c **** * Parameters:
 137:.\Generated_Source\PSoC5/ADC_SAR_Seq_1_SAR.c **** *  None.
 138:.\Generated_Source\PSoC5/ADC_SAR_Seq_1_SAR.c **** *
 139:.\Generated_Source\PSoC5/ADC_SAR_Seq_1_SAR.c **** * Return:
 140:.\Generated_Source\PSoC5/ADC_SAR_Seq_1_SAR.c **** *  None.
 141:.\Generated_Source\PSoC5/ADC_SAR_Seq_1_SAR.c **** *
 142:.\Generated_Source\PSoC5/ADC_SAR_Seq_1_SAR.c **** *******************************************************************************/
 143:.\Generated_Source\PSoC5/ADC_SAR_Seq_1_SAR.c **** void ADC_SAR_Seq_1_SAR_Enable(void)
 144:.\Generated_Source\PSoC5/ADC_SAR_Seq_1_SAR.c **** {
 121              		.loc 1 144 0
 122              		.cfi_startproc
 123              		@ args = 0, pretend = 0, frame = 8
 124              		@ frame_needed = 1, uses_anonymous_args = 0
 125 0000 80B5     		push	{r7, lr}
 126              	.LCFI4:
 127              		.cfi_def_cfa_offset 8
 128              		.cfi_offset 7, -8
 129              		.cfi_offset 14, -4
 130 0002 82B0     		sub	sp, sp, #8
 131              	.LCFI5:
 132              		.cfi_def_cfa_offset 16
 133 0004 00AF     		add	r7, sp, #0
 134              	.LCFI6:
 135              		.cfi_def_cfa_register 7
 145:.\Generated_Source\PSoC5/ADC_SAR_Seq_1_SAR.c ****     uint8 tmpReg;
 146:.\Generated_Source\PSoC5/ADC_SAR_Seq_1_SAR.c ****     uint8 enableInterrupts;
 147:.\Generated_Source\PSoC5/ADC_SAR_Seq_1_SAR.c ****     enableInterrupts = CyEnterCriticalSection();
 136              		.loc 1 147 0
 137 0006 FFF7FEFF 		bl	CyEnterCriticalSection
 138 000a 0346     		mov	r3, r0
ARM GAS  C:\Users\Brian\AppData\Local\Temp\ccVazoLc.s 			page 6


 139 000c FB71     		strb	r3, [r7, #7]
 148:.\Generated_Source\PSoC5/ADC_SAR_Seq_1_SAR.c **** 
 149:.\Generated_Source\PSoC5/ADC_SAR_Seq_1_SAR.c ****     /* Enable the SAR ADC block in Active Power Mode */
 150:.\Generated_Source\PSoC5/ADC_SAR_Seq_1_SAR.c ****     ADC_SAR_Seq_1_SAR_PWRMGR_SAR_REG |= ADC_SAR_Seq_1_SAR_ACT_PWR_SAR_EN;
 140              		.loc 1 150 0
 141 000e 44F2AB33 		movw	r3, #17323
 142 0012 C4F20003 		movt	r3, 16384
 143 0016 44F2AB32 		movw	r2, #17323
 144 001a C4F20002 		movt	r2, 16384
 145 001e 1278     		ldrb	r2, [r2, #0]
 146 0020 D2B2     		uxtb	r2, r2
 147 0022 42F00102 		orr	r2, r2, #1
 148 0026 D2B2     		uxtb	r2, r2
 149 0028 1A70     		strb	r2, [r3, #0]
 151:.\Generated_Source\PSoC5/ADC_SAR_Seq_1_SAR.c **** 
 152:.\Generated_Source\PSoC5/ADC_SAR_Seq_1_SAR.c ****      /* Enable the SAR ADC in Standby Power Mode*/
 153:.\Generated_Source\PSoC5/ADC_SAR_Seq_1_SAR.c ****     ADC_SAR_Seq_1_SAR_STBY_PWRMGR_SAR_REG |= ADC_SAR_Seq_1_SAR_STBY_PWR_SAR_EN;
 150              		.loc 1 153 0
 151 002a 44F2BB33 		movw	r3, #17339
 152 002e C4F20003 		movt	r3, 16384
 153 0032 44F2BB32 		movw	r2, #17339
 154 0036 C4F20002 		movt	r2, 16384
 155 003a 1278     		ldrb	r2, [r2, #0]
 156 003c D2B2     		uxtb	r2, r2
 157 003e 42F00102 		orr	r2, r2, #1
 158 0042 D2B2     		uxtb	r2, r2
 159 0044 1A70     		strb	r2, [r3, #0]
 154:.\Generated_Source\PSoC5/ADC_SAR_Seq_1_SAR.c **** 
 155:.\Generated_Source\PSoC5/ADC_SAR_Seq_1_SAR.c ****     /* This is only valid if there is an internal clock */
 156:.\Generated_Source\PSoC5/ADC_SAR_Seq_1_SAR.c ****     #if(ADC_SAR_Seq_1_SAR_DEFAULT_INTERNAL_CLK)
 157:.\Generated_Source\PSoC5/ADC_SAR_Seq_1_SAR.c ****         ADC_SAR_Seq_1_SAR_PWRMGR_CLK_REG |= ADC_SAR_Seq_1_SAR_ACT_PWR_CLK_EN;
 158:.\Generated_Source\PSoC5/ADC_SAR_Seq_1_SAR.c ****         ADC_SAR_Seq_1_SAR_STBY_PWRMGR_CLK_REG |= ADC_SAR_Seq_1_SAR_STBY_PWR_CLK_EN;
 159:.\Generated_Source\PSoC5/ADC_SAR_Seq_1_SAR.c ****     #endif /* End ADC_SAR_Seq_1_SAR_DEFAULT_INTERNAL_CLK */
 160:.\Generated_Source\PSoC5/ADC_SAR_Seq_1_SAR.c **** 
 161:.\Generated_Source\PSoC5/ADC_SAR_Seq_1_SAR.c ****     /* Enable VCM buffer and Enable Int Ref Amp */
 162:.\Generated_Source\PSoC5/ADC_SAR_Seq_1_SAR.c ****     tmpReg = ADC_SAR_Seq_1_SAR_SAR_CSR3_REG;
 160              		.loc 1 162 0
 161 0046 45F60313 		movw	r3, #22787
 162 004a C4F20003 		movt	r3, 16384
 163 004e 1B78     		ldrb	r3, [r3, #0]
 164 0050 BB71     		strb	r3, [r7, #6]
 163:.\Generated_Source\PSoC5/ADC_SAR_Seq_1_SAR.c ****     tmpReg |= ADC_SAR_Seq_1_SAR_SAR_EN_BUF_VCM_EN;
 165              		.loc 1 163 0
 166 0052 BB79     		ldrb	r3, [r7, #6]
 167 0054 43F00203 		orr	r3, r3, #2
 168 0058 BB71     		strb	r3, [r7, #6]
 164:.\Generated_Source\PSoC5/ADC_SAR_Seq_1_SAR.c ****     /* PD_BUF_VREF is OFF in External reference or Vdda reference mode */
 165:.\Generated_Source\PSoC5/ADC_SAR_Seq_1_SAR.c ****     #if((ADC_SAR_Seq_1_SAR_DEFAULT_REFERENCE == ADC_SAR_Seq_1_SAR__EXT_REF) || \
 166:.\Generated_Source\PSoC5/ADC_SAR_Seq_1_SAR.c ****         (ADC_SAR_Seq_1_SAR_DEFAULT_RANGE == ADC_SAR_Seq_1_SAR__VNEG_VDDA_DIFF))
 167:.\Generated_Source\PSoC5/ADC_SAR_Seq_1_SAR.c ****         tmpReg &= (uint8)~ADC_SAR_Seq_1_SAR_SAR_EN_BUF_VREF_EN;
 168:.\Generated_Source\PSoC5/ADC_SAR_Seq_1_SAR.c ****     #else /* In INTREF or INTREF Bypassed this buffer is ON */
 169:.\Generated_Source\PSoC5/ADC_SAR_Seq_1_SAR.c ****         tmpReg |= ADC_SAR_Seq_1_SAR_SAR_EN_BUF_VREF_EN;
 169              		.loc 1 169 0
 170 005a BB79     		ldrb	r3, [r7, #6]
 171 005c 43F00103 		orr	r3, r3, #1
 172 0060 BB71     		strb	r3, [r7, #6]
 170:.\Generated_Source\PSoC5/ADC_SAR_Seq_1_SAR.c ****     #endif /* ADC_SAR_Seq_1_SAR_DEFAULT_REFERENCE == ADC_SAR_Seq_1_SAR__EXT_REF */
ARM GAS  C:\Users\Brian\AppData\Local\Temp\ccVazoLc.s 			page 7


 171:.\Generated_Source\PSoC5/ADC_SAR_Seq_1_SAR.c ****     ADC_SAR_Seq_1_SAR_SAR_CSR3_REG = tmpReg;
 173              		.loc 1 171 0
 174 0062 45F60313 		movw	r3, #22787
 175 0066 C4F20003 		movt	r3, 16384
 176 006a BA79     		ldrb	r2, [r7, #6]
 177 006c 1A70     		strb	r2, [r3, #0]
 172:.\Generated_Source\PSoC5/ADC_SAR_Seq_1_SAR.c **** 
 173:.\Generated_Source\PSoC5/ADC_SAR_Seq_1_SAR.c ****     /* Set reference for ADC */
 174:.\Generated_Source\PSoC5/ADC_SAR_Seq_1_SAR.c ****     #if(ADC_SAR_Seq_1_SAR_DEFAULT_RANGE == ADC_SAR_Seq_1_SAR__VNEG_VDDA_DIFF)
 175:.\Generated_Source\PSoC5/ADC_SAR_Seq_1_SAR.c ****         #if(ADC_SAR_Seq_1_SAR_DEFAULT_REFERENCE == ADC_SAR_Seq_1_SAR__EXT_REF)
 176:.\Generated_Source\PSoC5/ADC_SAR_Seq_1_SAR.c ****             ADC_SAR_Seq_1_SAR_SAR_CSR6_REG = ADC_SAR_Seq_1_SAR_INT_BYPASS_EXT_VREF; /* S2 */
 177:.\Generated_Source\PSoC5/ADC_SAR_Seq_1_SAR.c ****         #else /* Internal Vdda reference or obsolete bypass mode */
 178:.\Generated_Source\PSoC5/ADC_SAR_Seq_1_SAR.c ****             ADC_SAR_Seq_1_SAR_SAR_CSR6_REG = ADC_SAR_Seq_1_SAR_VDDA_VREF;           /* S7 */
 179:.\Generated_Source\PSoC5/ADC_SAR_Seq_1_SAR.c ****         #endif /* ADC_SAR_Seq_1_SAR_DEFAULT_REFERENCE == ADC_SAR_Seq_1_SAR__EXT_REF */
 180:.\Generated_Source\PSoC5/ADC_SAR_Seq_1_SAR.c ****     #else  /* Reference goes through internal buffer */
 181:.\Generated_Source\PSoC5/ADC_SAR_Seq_1_SAR.c ****         #if(ADC_SAR_Seq_1_SAR_DEFAULT_REFERENCE == ADC_SAR_Seq_1_SAR__INT_REF_NOT_BYPASSED)
 182:.\Generated_Source\PSoC5/ADC_SAR_Seq_1_SAR.c ****             ADC_SAR_Seq_1_SAR_SAR_CSR6_REG = ADC_SAR_Seq_1_SAR_INT_VREF;            /* S3 + S4 */
 183:.\Generated_Source\PSoC5/ADC_SAR_Seq_1_SAR.c ****         #else /* INTREF Bypassed of External */
 184:.\Generated_Source\PSoC5/ADC_SAR_Seq_1_SAR.c ****             ADC_SAR_Seq_1_SAR_SAR_CSR6_REG = ADC_SAR_Seq_1_SAR_INT_BYPASS_EXT_VREF; /* S2 */
 178              		.loc 1 184 0
 179 006e 45F60613 		movw	r3, #22790
 180 0072 C4F20003 		movt	r3, 16384
 181 0076 4FF00402 		mov	r2, #4
 182 007a 1A70     		strb	r2, [r3, #0]
 185:.\Generated_Source\PSoC5/ADC_SAR_Seq_1_SAR.c ****         #endif /* ADC_SAR_Seq_1_SAR_DEFAULT_REFERENCE == ADC_SAR_Seq_1_SAR__INT_REF_NOT_BYPASSED */
 186:.\Generated_Source\PSoC5/ADC_SAR_Seq_1_SAR.c ****     #endif /* VNEG_VDDA_DIFF */
 187:.\Generated_Source\PSoC5/ADC_SAR_Seq_1_SAR.c **** 
 188:.\Generated_Source\PSoC5/ADC_SAR_Seq_1_SAR.c ****     /* Low non-overlap delay for sampling clock signals (for 1MSPS) */
 189:.\Generated_Source\PSoC5/ADC_SAR_Seq_1_SAR.c ****     #if(ADC_SAR_Seq_1_SAR_HIGH_POWER_PULSE == 0u) /* MinPulseWidth <= 50 ns */
 190:.\Generated_Source\PSoC5/ADC_SAR_Seq_1_SAR.c ****         ADC_SAR_Seq_1_SAR_SAR_CSR5_REG &= (uint8)~ADC_SAR_Seq_1_SAR_SAR_DLY_INC;
 183              		.loc 1 190 0
 184 007c 45F60513 		movw	r3, #22789
 185 0080 C4F20003 		movt	r3, 16384
 186 0084 45F60512 		movw	r2, #22789
 187 0088 C4F20002 		movt	r2, 16384
 188 008c 1278     		ldrb	r2, [r2, #0]
 189 008e D2B2     		uxtb	r2, r2
 190 0090 22F04002 		bic	r2, r2, #64
 191 0094 D2B2     		uxtb	r2, r2
 192 0096 1A70     		strb	r2, [r3, #0]
 191:.\Generated_Source\PSoC5/ADC_SAR_Seq_1_SAR.c ****     #else /* Set High non-overlap delay for sampling clock signals (for <500KSPS)*/
 192:.\Generated_Source\PSoC5/ADC_SAR_Seq_1_SAR.c ****         ADC_SAR_Seq_1_SAR_SAR_CSR5_REG |= ADC_SAR_Seq_1_SAR_SAR_DLY_INC;
 193:.\Generated_Source\PSoC5/ADC_SAR_Seq_1_SAR.c ****     #endif /* ADC_SAR_Seq_1_SAR_CLOCK_FREQUENCY > (ADC_SAR_Seq_1_SAR_MAX_FREQUENCY / 2) */
 194:.\Generated_Source\PSoC5/ADC_SAR_Seq_1_SAR.c **** 
 195:.\Generated_Source\PSoC5/ADC_SAR_Seq_1_SAR.c ****      /* Delay control for comparator latch enable, low delay, (Default for 1MSPS) */
 196:.\Generated_Source\PSoC5/ADC_SAR_Seq_1_SAR.c ****     #if(ADC_SAR_Seq_1_SAR_HIGH_POWER_PULSE == 0u) /* MinPulseWidth <= 50 ns */
 197:.\Generated_Source\PSoC5/ADC_SAR_Seq_1_SAR.c ****         ADC_SAR_Seq_1_SAR_SAR_CSR5_REG |= ADC_SAR_Seq_1_SAR_SAR_DCEN;
 193              		.loc 1 197 0
 194 0098 45F60513 		movw	r3, #22789
 195 009c C4F20003 		movt	r3, 16384
 196 00a0 45F60512 		movw	r2, #22789
 197 00a4 C4F20002 		movt	r2, 16384
 198 00a8 1278     		ldrb	r2, [r2, #0]
 199 00aa D2B2     		uxtb	r2, r2
 200 00ac 42F02002 		orr	r2, r2, #32
 201 00b0 D2B2     		uxtb	r2, r2
 202 00b2 1A70     		strb	r2, [r3, #0]
ARM GAS  C:\Users\Brian\AppData\Local\Temp\ccVazoLc.s 			page 8


 198:.\Generated_Source\PSoC5/ADC_SAR_Seq_1_SAR.c ****     #else /* Delay control for comparator latch enable, high delay (for <500ksps)*/
 199:.\Generated_Source\PSoC5/ADC_SAR_Seq_1_SAR.c ****         ADC_SAR_Seq_1_SAR_SAR_CSR5_REG &= (uint8)~ADC_SAR_Seq_1_SAR_SAR_DCEN;
 200:.\Generated_Source\PSoC5/ADC_SAR_Seq_1_SAR.c ****     #endif /* ADC_SAR_Seq_1_SAR_CLOCK_FREQUENCY > (ADC_SAR_Seq_1_SAR_MAX_FREQUENCY / 2) */
 201:.\Generated_Source\PSoC5/ADC_SAR_Seq_1_SAR.c **** 
 202:.\Generated_Source\PSoC5/ADC_SAR_Seq_1_SAR.c ****     /* Set default power and other configurations for control register 0 in multiple lines */
 203:.\Generated_Source\PSoC5/ADC_SAR_Seq_1_SAR.c ****     ADC_SAR_Seq_1_SAR_SAR_CSR0_REG = (uint8)((uint8)ADC_SAR_Seq_1_SAR_DEFAULT_POWER << ADC_SAR_Seq_
 203              		.loc 1 203 0
 204 00b4 4FF4B243 		mov	r3, #22784
 205 00b8 C4F20003 		movt	r3, 16384
 206 00bc 4FF00802 		mov	r2, #8
 207 00c0 1A70     		strb	r2, [r3, #0]
 204:.\Generated_Source\PSoC5/ADC_SAR_Seq_1_SAR.c ****     /* SAR_HIZ_CLEAR:   Should not be used for LP */
 205:.\Generated_Source\PSoC5/ADC_SAR_Seq_1_SAR.c ****     #if ((CY_PSOC5LP) || (ADC_SAR_Seq_1_SAR_DEFAULT_REFERENCE != ADC_SAR_Seq_1_SAR__EXT_REF))
 206:.\Generated_Source\PSoC5/ADC_SAR_Seq_1_SAR.c ****         | ADC_SAR_Seq_1_SAR_SAR_HIZ_CLEAR
 207:.\Generated_Source\PSoC5/ADC_SAR_Seq_1_SAR.c ****     #endif /* SAR_HIZ_CLEAR */
 208:.\Generated_Source\PSoC5/ADC_SAR_Seq_1_SAR.c ****     /*Set Convertion mode */
 209:.\Generated_Source\PSoC5/ADC_SAR_Seq_1_SAR.c ****     #if(ADC_SAR_Seq_1_SAR_DEFAULT_CONV_MODE != ADC_SAR_Seq_1_SAR__FREE_RUNNING)      /* If triggere
 210:.\Generated_Source\PSoC5/ADC_SAR_Seq_1_SAR.c ****         | ADC_SAR_Seq_1_SAR_SAR_MX_SOF_UDB           /* source: UDB */
 211:.\Generated_Source\PSoC5/ADC_SAR_Seq_1_SAR.c ****         | ADC_SAR_Seq_1_SAR_SAR_SOF_MODE_EDGE        /* Set edge-sensitive sof source */
 212:.\Generated_Source\PSoC5/ADC_SAR_Seq_1_SAR.c ****     #endif /* ADC_SAR_Seq_1_SAR_DEFAULT_CONV_MODE */
 213:.\Generated_Source\PSoC5/ADC_SAR_Seq_1_SAR.c ****     ; /* end of multiple line initialization */
 214:.\Generated_Source\PSoC5/ADC_SAR_Seq_1_SAR.c **** 
 215:.\Generated_Source\PSoC5/ADC_SAR_Seq_1_SAR.c ****     ADC_SAR_Seq_1_SAR_SAR_TR0_REG = ADC_SAR_Seq_1_SAR_SAR_CAP_TRIM_2;
 208              		.loc 1 215 0
 209 00c2 44F21463 		movw	r3, #17940
 210 00c6 C4F20003 		movt	r3, 16384
 211 00ca 4FF00202 		mov	r2, #2
 212 00ce 1A70     		strb	r2, [r3, #0]
 216:.\Generated_Source\PSoC5/ADC_SAR_Seq_1_SAR.c **** 
 217:.\Generated_Source\PSoC5/ADC_SAR_Seq_1_SAR.c ****     /* Enable clock for SAR ADC*/
 218:.\Generated_Source\PSoC5/ADC_SAR_Seq_1_SAR.c ****     ADC_SAR_Seq_1_SAR_SAR_CLK_REG |= ADC_SAR_Seq_1_SAR_SAR_MX_CLK_EN;
 213              		.loc 1 218 0
 214 00d0 45F62733 		movw	r3, #23335
 215 00d4 C4F20003 		movt	r3, 16384
 216 00d8 45F62732 		movw	r2, #23335
 217 00dc C4F20002 		movt	r2, 16384
 218 00e0 1278     		ldrb	r2, [r2, #0]
 219 00e2 D2B2     		uxtb	r2, r2
 220 00e4 42F00802 		orr	r2, r2, #8
 221 00e8 D2B2     		uxtb	r2, r2
 222 00ea 1A70     		strb	r2, [r3, #0]
 219:.\Generated_Source\PSoC5/ADC_SAR_Seq_1_SAR.c **** 
 220:.\Generated_Source\PSoC5/ADC_SAR_Seq_1_SAR.c ****     CyDelayUs(10u); /* The block is ready to use 10 us after the enable signal is set high. */
 223              		.loc 1 220 0
 224 00ec 4FF00A00 		mov	r0, #10
 225 00f0 FFF7FEFF 		bl	CyDelayUs
 221:.\Generated_Source\PSoC5/ADC_SAR_Seq_1_SAR.c **** 
 222:.\Generated_Source\PSoC5/ADC_SAR_Seq_1_SAR.c ****     #if(ADC_SAR_Seq_1_SAR_IRQ_REMOVE == 0u)
 223:.\Generated_Source\PSoC5/ADC_SAR_Seq_1_SAR.c ****         /* Clear a pending interrupt */
 224:.\Generated_Source\PSoC5/ADC_SAR_Seq_1_SAR.c ****         CyIntClearPending(ADC_SAR_Seq_1_SAR_INTC_NUMBER);
 225:.\Generated_Source\PSoC5/ADC_SAR_Seq_1_SAR.c ****     #endif   /* End ADC_SAR_Seq_1_SAR_IRQ_REMOVE */
 226:.\Generated_Source\PSoC5/ADC_SAR_Seq_1_SAR.c **** 
 227:.\Generated_Source\PSoC5/ADC_SAR_Seq_1_SAR.c ****     CyExitCriticalSection(enableInterrupts);
 226              		.loc 1 227 0
 227 00f4 FB79     		ldrb	r3, [r7, #7]	@ zero_extendqisi2
 228 00f6 1846     		mov	r0, r3
 229 00f8 FFF7FEFF 		bl	CyExitCriticalSection
ARM GAS  C:\Users\Brian\AppData\Local\Temp\ccVazoLc.s 			page 9


 228:.\Generated_Source\PSoC5/ADC_SAR_Seq_1_SAR.c **** }
 230              		.loc 1 228 0
 231 00fc 07F10807 		add	r7, r7, #8
 232 0100 BD46     		mov	sp, r7
 233 0102 80BD     		pop	{r7, pc}
 234              		.cfi_endproc
 235              	.LFE2:
 236              		.size	ADC_SAR_Seq_1_SAR_Enable, .-ADC_SAR_Seq_1_SAR_Enable
 237              		.section	.text.ADC_SAR_Seq_1_SAR_Stop,"ax",%progbits
 238              		.align	2
 239              		.global	ADC_SAR_Seq_1_SAR_Stop
 240              		.thumb
 241              		.thumb_func
 242              		.type	ADC_SAR_Seq_1_SAR_Stop, %function
 243              	ADC_SAR_Seq_1_SAR_Stop:
 244              	.LFB3:
 229:.\Generated_Source\PSoC5/ADC_SAR_Seq_1_SAR.c **** 
 230:.\Generated_Source\PSoC5/ADC_SAR_Seq_1_SAR.c **** 
 231:.\Generated_Source\PSoC5/ADC_SAR_Seq_1_SAR.c **** /*******************************************************************************
 232:.\Generated_Source\PSoC5/ADC_SAR_Seq_1_SAR.c **** * Function Name: ADC_SAR_Seq_1_SAR_Stop
 233:.\Generated_Source\PSoC5/ADC_SAR_Seq_1_SAR.c **** ********************************************************************************
 234:.\Generated_Source\PSoC5/ADC_SAR_Seq_1_SAR.c **** *
 235:.\Generated_Source\PSoC5/ADC_SAR_Seq_1_SAR.c **** * Summary:
 236:.\Generated_Source\PSoC5/ADC_SAR_Seq_1_SAR.c **** *  Stops ADC conversions and puts the ADC into its lowest power mode.
 237:.\Generated_Source\PSoC5/ADC_SAR_Seq_1_SAR.c **** *
 238:.\Generated_Source\PSoC5/ADC_SAR_Seq_1_SAR.c **** * Parameters:
 239:.\Generated_Source\PSoC5/ADC_SAR_Seq_1_SAR.c **** *  None.
 240:.\Generated_Source\PSoC5/ADC_SAR_Seq_1_SAR.c **** *
 241:.\Generated_Source\PSoC5/ADC_SAR_Seq_1_SAR.c **** * Return:
 242:.\Generated_Source\PSoC5/ADC_SAR_Seq_1_SAR.c **** *  None.
 243:.\Generated_Source\PSoC5/ADC_SAR_Seq_1_SAR.c **** *
 244:.\Generated_Source\PSoC5/ADC_SAR_Seq_1_SAR.c **** *******************************************************************************/
 245:.\Generated_Source\PSoC5/ADC_SAR_Seq_1_SAR.c **** void ADC_SAR_Seq_1_SAR_Stop(void)
 246:.\Generated_Source\PSoC5/ADC_SAR_Seq_1_SAR.c **** {
 245              		.loc 1 246 0
 246              		.cfi_startproc
 247              		@ args = 0, pretend = 0, frame = 8
 248              		@ frame_needed = 1, uses_anonymous_args = 0
 249 0000 80B5     		push	{r7, lr}
 250              	.LCFI7:
 251              		.cfi_def_cfa_offset 8
 252              		.cfi_offset 7, -8
 253              		.cfi_offset 14, -4
 254 0002 82B0     		sub	sp, sp, #8
 255              	.LCFI8:
 256              		.cfi_def_cfa_offset 16
 257 0004 00AF     		add	r7, sp, #0
 258              	.LCFI9:
 259              		.cfi_def_cfa_register 7
 247:.\Generated_Source\PSoC5/ADC_SAR_Seq_1_SAR.c ****     uint8 enableInterrupts;
 248:.\Generated_Source\PSoC5/ADC_SAR_Seq_1_SAR.c ****     enableInterrupts = CyEnterCriticalSection();
 260              		.loc 1 248 0
 261 0006 FFF7FEFF 		bl	CyEnterCriticalSection
 262 000a 0346     		mov	r3, r0
 263 000c FB71     		strb	r3, [r7, #7]
 249:.\Generated_Source\PSoC5/ADC_SAR_Seq_1_SAR.c **** 
 250:.\Generated_Source\PSoC5/ADC_SAR_Seq_1_SAR.c ****     /* Stop all conversions */
ARM GAS  C:\Users\Brian\AppData\Local\Temp\ccVazoLc.s 			page 10


 251:.\Generated_Source\PSoC5/ADC_SAR_Seq_1_SAR.c ****     ADC_SAR_Seq_1_SAR_SAR_CSR0_REG &= (uint8)~ADC_SAR_Seq_1_SAR_SAR_SOF_START_CONV;
 264              		.loc 1 251 0
 265 000e 4FF4B243 		mov	r3, #22784
 266 0012 C4F20003 		movt	r3, 16384
 267 0016 4FF4B242 		mov	r2, #22784
 268 001a C4F20002 		movt	r2, 16384
 269 001e 1278     		ldrb	r2, [r2, #0]
 270 0020 D2B2     		uxtb	r2, r2
 271 0022 22F00102 		bic	r2, r2, #1
 272 0026 D2B2     		uxtb	r2, r2
 273 0028 1A70     		strb	r2, [r3, #0]
 252:.\Generated_Source\PSoC5/ADC_SAR_Seq_1_SAR.c ****     /* Disable the SAR ADC block in Active Power Mode */
 253:.\Generated_Source\PSoC5/ADC_SAR_Seq_1_SAR.c ****     ADC_SAR_Seq_1_SAR_PWRMGR_SAR_REG &= (uint8)~ADC_SAR_Seq_1_SAR_ACT_PWR_SAR_EN;
 274              		.loc 1 253 0
 275 002a 44F2AB33 		movw	r3, #17323
 276 002e C4F20003 		movt	r3, 16384
 277 0032 44F2AB32 		movw	r2, #17323
 278 0036 C4F20002 		movt	r2, 16384
 279 003a 1278     		ldrb	r2, [r2, #0]
 280 003c D2B2     		uxtb	r2, r2
 281 003e 22F00102 		bic	r2, r2, #1
 282 0042 D2B2     		uxtb	r2, r2
 283 0044 1A70     		strb	r2, [r3, #0]
 254:.\Generated_Source\PSoC5/ADC_SAR_Seq_1_SAR.c ****     /* Disable the SAR ADC in Standby Power Mode */
 255:.\Generated_Source\PSoC5/ADC_SAR_Seq_1_SAR.c ****     ADC_SAR_Seq_1_SAR_STBY_PWRMGR_SAR_REG &= (uint8)~ADC_SAR_Seq_1_SAR_STBY_PWR_SAR_EN;
 284              		.loc 1 255 0
 285 0046 44F2BB33 		movw	r3, #17339
 286 004a C4F20003 		movt	r3, 16384
 287 004e 44F2BB32 		movw	r2, #17339
 288 0052 C4F20002 		movt	r2, 16384
 289 0056 1278     		ldrb	r2, [r2, #0]
 290 0058 D2B2     		uxtb	r2, r2
 291 005a 22F00102 		bic	r2, r2, #1
 292 005e D2B2     		uxtb	r2, r2
 293 0060 1A70     		strb	r2, [r3, #0]
 256:.\Generated_Source\PSoC5/ADC_SAR_Seq_1_SAR.c **** 
 257:.\Generated_Source\PSoC5/ADC_SAR_Seq_1_SAR.c ****     /* This is only valid if there is an internal clock */
 258:.\Generated_Source\PSoC5/ADC_SAR_Seq_1_SAR.c ****     #if(ADC_SAR_Seq_1_SAR_DEFAULT_INTERNAL_CLK)
 259:.\Generated_Source\PSoC5/ADC_SAR_Seq_1_SAR.c ****         ADC_SAR_Seq_1_SAR_PWRMGR_CLK_REG &= (uint8)~ADC_SAR_Seq_1_SAR_ACT_PWR_CLK_EN;
 260:.\Generated_Source\PSoC5/ADC_SAR_Seq_1_SAR.c ****         ADC_SAR_Seq_1_SAR_STBY_PWRMGR_CLK_REG &= (uint8)~ADC_SAR_Seq_1_SAR_STBY_PWR_CLK_EN;
 261:.\Generated_Source\PSoC5/ADC_SAR_Seq_1_SAR.c ****     #endif /* End ADC_SAR_Seq_1_SAR_DEFAULT_INTERNAL_CLK */
 262:.\Generated_Source\PSoC5/ADC_SAR_Seq_1_SAR.c **** 
 263:.\Generated_Source\PSoC5/ADC_SAR_Seq_1_SAR.c ****     CyExitCriticalSection(enableInterrupts);
 294              		.loc 1 263 0
 295 0062 FB79     		ldrb	r3, [r7, #7]	@ zero_extendqisi2
 296 0064 1846     		mov	r0, r3
 297 0066 FFF7FEFF 		bl	CyExitCriticalSection
 264:.\Generated_Source\PSoC5/ADC_SAR_Seq_1_SAR.c **** 
 265:.\Generated_Source\PSoC5/ADC_SAR_Seq_1_SAR.c **** }
 298              		.loc 1 265 0
 299 006a 07F10807 		add	r7, r7, #8
 300 006e BD46     		mov	sp, r7
 301 0070 80BD     		pop	{r7, pc}
 302              		.cfi_endproc
 303              	.LFE3:
 304              		.size	ADC_SAR_Seq_1_SAR_Stop, .-ADC_SAR_Seq_1_SAR_Stop
 305 0072 00BF     		.section	.text.ADC_SAR_Seq_1_SAR_SetPower,"ax",%progbits
ARM GAS  C:\Users\Brian\AppData\Local\Temp\ccVazoLc.s 			page 11


 306              		.align	2
 307              		.global	ADC_SAR_Seq_1_SAR_SetPower
 308              		.thumb
 309              		.thumb_func
 310              		.type	ADC_SAR_Seq_1_SAR_SetPower, %function
 311              	ADC_SAR_Seq_1_SAR_SetPower:
 312              	.LFB4:
 266:.\Generated_Source\PSoC5/ADC_SAR_Seq_1_SAR.c **** 
 267:.\Generated_Source\PSoC5/ADC_SAR_Seq_1_SAR.c **** 
 268:.\Generated_Source\PSoC5/ADC_SAR_Seq_1_SAR.c **** /*******************************************************************************
 269:.\Generated_Source\PSoC5/ADC_SAR_Seq_1_SAR.c **** * Function Name: ADC_SAR_Seq_1_SAR_SetPower
 270:.\Generated_Source\PSoC5/ADC_SAR_Seq_1_SAR.c **** ********************************************************************************
 271:.\Generated_Source\PSoC5/ADC_SAR_Seq_1_SAR.c **** *
 272:.\Generated_Source\PSoC5/ADC_SAR_Seq_1_SAR.c **** * Summary:
 273:.\Generated_Source\PSoC5/ADC_SAR_Seq_1_SAR.c **** *  Sets the operational power of the ADC. You should use the higher power
 274:.\Generated_Source\PSoC5/ADC_SAR_Seq_1_SAR.c **** *  settings with faster clock speeds.
 275:.\Generated_Source\PSoC5/ADC_SAR_Seq_1_SAR.c **** *
 276:.\Generated_Source\PSoC5/ADC_SAR_Seq_1_SAR.c **** * Parameters:
 277:.\Generated_Source\PSoC5/ADC_SAR_Seq_1_SAR.c **** *  power:  Power setting for ADC
 278:.\Generated_Source\PSoC5/ADC_SAR_Seq_1_SAR.c **** *  0 ->    Normal
 279:.\Generated_Source\PSoC5/ADC_SAR_Seq_1_SAR.c **** *  1 ->    Medium power
 280:.\Generated_Source\PSoC5/ADC_SAR_Seq_1_SAR.c **** *  2 ->    1.25 power
 281:.\Generated_Source\PSoC5/ADC_SAR_Seq_1_SAR.c **** *  3 ->    Minimum power.
 282:.\Generated_Source\PSoC5/ADC_SAR_Seq_1_SAR.c **** *
 283:.\Generated_Source\PSoC5/ADC_SAR_Seq_1_SAR.c **** * Return:
 284:.\Generated_Source\PSoC5/ADC_SAR_Seq_1_SAR.c **** *  None.
 285:.\Generated_Source\PSoC5/ADC_SAR_Seq_1_SAR.c **** *
 286:.\Generated_Source\PSoC5/ADC_SAR_Seq_1_SAR.c **** *******************************************************************************/
 287:.\Generated_Source\PSoC5/ADC_SAR_Seq_1_SAR.c **** void ADC_SAR_Seq_1_SAR_SetPower(uint8 power)
 288:.\Generated_Source\PSoC5/ADC_SAR_Seq_1_SAR.c **** {
 313              		.loc 1 288 0
 314              		.cfi_startproc
 315              		@ args = 0, pretend = 0, frame = 16
 316              		@ frame_needed = 1, uses_anonymous_args = 0
 317              		@ link register save eliminated.
 318 0000 80B4     		push	{r7}
 319              	.LCFI10:
 320              		.cfi_def_cfa_offset 4
 321              		.cfi_offset 7, -4
 322 0002 85B0     		sub	sp, sp, #20
 323              	.LCFI11:
 324              		.cfi_def_cfa_offset 24
 325 0004 00AF     		add	r7, sp, #0
 326              	.LCFI12:
 327              		.cfi_def_cfa_register 7
 328 0006 0346     		mov	r3, r0
 329 0008 FB71     		strb	r3, [r7, #7]
 289:.\Generated_Source\PSoC5/ADC_SAR_Seq_1_SAR.c ****     uint8 tmpReg;
 290:.\Generated_Source\PSoC5/ADC_SAR_Seq_1_SAR.c **** 
 291:.\Generated_Source\PSoC5/ADC_SAR_Seq_1_SAR.c ****     /* mask off invalid power settings */
 292:.\Generated_Source\PSoC5/ADC_SAR_Seq_1_SAR.c ****     power &= ADC_SAR_Seq_1_SAR_SAR_API_POWER_MASK;
 330              		.loc 1 292 0
 331 000a FB79     		ldrb	r3, [r7, #7]
 332 000c 03F00303 		and	r3, r3, #3
 333 0010 FB71     		strb	r3, [r7, #7]
 293:.\Generated_Source\PSoC5/ADC_SAR_Seq_1_SAR.c **** 
 294:.\Generated_Source\PSoC5/ADC_SAR_Seq_1_SAR.c ****     /* Set Power parameter  */
ARM GAS  C:\Users\Brian\AppData\Local\Temp\ccVazoLc.s 			page 12


 295:.\Generated_Source\PSoC5/ADC_SAR_Seq_1_SAR.c ****     tmpReg = ADC_SAR_Seq_1_SAR_SAR_CSR0_REG & (uint8)~ADC_SAR_Seq_1_SAR_SAR_POWER_MASK;
 334              		.loc 1 295 0
 335 0012 4FF4B243 		mov	r3, #22784
 336 0016 C4F20003 		movt	r3, 16384
 337 001a 1B78     		ldrb	r3, [r3, #0]
 338 001c DBB2     		uxtb	r3, r3
 339 001e 03F03F03 		and	r3, r3, #63
 340 0022 FB73     		strb	r3, [r7, #15]
 296:.\Generated_Source\PSoC5/ADC_SAR_Seq_1_SAR.c ****     tmpReg |= (uint8)(power << ADC_SAR_Seq_1_SAR_SAR_POWER_SHIFT);
 341              		.loc 1 296 0
 342 0024 FB79     		ldrb	r3, [r7, #7]
 343 0026 4FEA8313 		lsl	r3, r3, #6
 344 002a DAB2     		uxtb	r2, r3
 345 002c FB7B     		ldrb	r3, [r7, #15]
 346 002e 1343     		orrs	r3, r3, r2
 347 0030 FB73     		strb	r3, [r7, #15]
 297:.\Generated_Source\PSoC5/ADC_SAR_Seq_1_SAR.c ****     ADC_SAR_Seq_1_SAR_SAR_CSR0_REG = tmpReg;
 348              		.loc 1 297 0
 349 0032 4FF4B243 		mov	r3, #22784
 350 0036 C4F20003 		movt	r3, 16384
 351 003a FA7B     		ldrb	r2, [r7, #15]
 352 003c 1A70     		strb	r2, [r3, #0]
 298:.\Generated_Source\PSoC5/ADC_SAR_Seq_1_SAR.c **** }
 353              		.loc 1 298 0
 354 003e 07F11407 		add	r7, r7, #20
 355 0042 BD46     		mov	sp, r7
 356 0044 80BC     		pop	{r7}
 357 0046 7047     		bx	lr
 358              		.cfi_endproc
 359              	.LFE4:
 360              		.size	ADC_SAR_Seq_1_SAR_SetPower, .-ADC_SAR_Seq_1_SAR_SetPower
 361              		.section	.text.ADC_SAR_Seq_1_SAR_SetResolution,"ax",%progbits
 362              		.align	2
 363              		.global	ADC_SAR_Seq_1_SAR_SetResolution
 364              		.thumb
 365              		.thumb_func
 366              		.type	ADC_SAR_Seq_1_SAR_SetResolution, %function
 367              	ADC_SAR_Seq_1_SAR_SetResolution:
 368              	.LFB5:
 299:.\Generated_Source\PSoC5/ADC_SAR_Seq_1_SAR.c **** 
 300:.\Generated_Source\PSoC5/ADC_SAR_Seq_1_SAR.c **** 
 301:.\Generated_Source\PSoC5/ADC_SAR_Seq_1_SAR.c **** /*******************************************************************************
 302:.\Generated_Source\PSoC5/ADC_SAR_Seq_1_SAR.c **** * Function Name: ADC_SAR_Seq_1_SAR_SetResolution
 303:.\Generated_Source\PSoC5/ADC_SAR_Seq_1_SAR.c **** ********************************************************************************
 304:.\Generated_Source\PSoC5/ADC_SAR_Seq_1_SAR.c **** *
 305:.\Generated_Source\PSoC5/ADC_SAR_Seq_1_SAR.c **** * Summary:
 306:.\Generated_Source\PSoC5/ADC_SAR_Seq_1_SAR.c **** *  Sets the Relution of the SAR.
 307:.\Generated_Source\PSoC5/ADC_SAR_Seq_1_SAR.c **** *
 308:.\Generated_Source\PSoC5/ADC_SAR_Seq_1_SAR.c **** * Parameters:
 309:.\Generated_Source\PSoC5/ADC_SAR_Seq_1_SAR.c **** *  resolution:
 310:.\Generated_Source\PSoC5/ADC_SAR_Seq_1_SAR.c **** *  12 ->    RES12
 311:.\Generated_Source\PSoC5/ADC_SAR_Seq_1_SAR.c **** *  10 ->    RES10
 312:.\Generated_Source\PSoC5/ADC_SAR_Seq_1_SAR.c **** *  8  ->    RES8
 313:.\Generated_Source\PSoC5/ADC_SAR_Seq_1_SAR.c **** *
 314:.\Generated_Source\PSoC5/ADC_SAR_Seq_1_SAR.c **** * Return:
 315:.\Generated_Source\PSoC5/ADC_SAR_Seq_1_SAR.c **** *  None.
 316:.\Generated_Source\PSoC5/ADC_SAR_Seq_1_SAR.c **** *
ARM GAS  C:\Users\Brian\AppData\Local\Temp\ccVazoLc.s 			page 13


 317:.\Generated_Source\PSoC5/ADC_SAR_Seq_1_SAR.c **** * Side Effects:
 318:.\Generated_Source\PSoC5/ADC_SAR_Seq_1_SAR.c **** *  The ADC resolution cannot be changed during a conversion cycle. The
 319:.\Generated_Source\PSoC5/ADC_SAR_Seq_1_SAR.c **** *  recommended best practice is to stop conversions with
 320:.\Generated_Source\PSoC5/ADC_SAR_Seq_1_SAR.c **** *  ADC_StopConvert(), change the resolution, then restart the
 321:.\Generated_Source\PSoC5/ADC_SAR_Seq_1_SAR.c **** *  conversions with ADC_StartConvert().
 322:.\Generated_Source\PSoC5/ADC_SAR_Seq_1_SAR.c **** *  If you decide not to stop conversions before calling this API, you
 323:.\Generated_Source\PSoC5/ADC_SAR_Seq_1_SAR.c **** *  should use ADC_IsEndConversion() to wait until conversion is complete
 324:.\Generated_Source\PSoC5/ADC_SAR_Seq_1_SAR.c **** *  before changing the resolution.
 325:.\Generated_Source\PSoC5/ADC_SAR_Seq_1_SAR.c **** *  If you call ADC_SetResolution() during a conversion, the resolution will
 326:.\Generated_Source\PSoC5/ADC_SAR_Seq_1_SAR.c **** *  not be changed until the current conversion is complete. Data will not be
 327:.\Generated_Source\PSoC5/ADC_SAR_Seq_1_SAR.c **** *  available in the new resolution for another 6 + "New Resolution(in bits)"
 328:.\Generated_Source\PSoC5/ADC_SAR_Seq_1_SAR.c **** *  clock cycles.
 329:.\Generated_Source\PSoC5/ADC_SAR_Seq_1_SAR.c **** *  You may need add a delay of this number of clock cycles after
 330:.\Generated_Source\PSoC5/ADC_SAR_Seq_1_SAR.c **** *  ADC_SetResolution() is called before data is valid again.
 331:.\Generated_Source\PSoC5/ADC_SAR_Seq_1_SAR.c **** *  Affects ADC_CountsTo_Volts(), ADC_CountsTo_mVolts(), and
 332:.\Generated_Source\PSoC5/ADC_SAR_Seq_1_SAR.c **** *  ADC_CountsTo_uVolts() by calculating the correct conversion between ADC
 333:.\Generated_Source\PSoC5/ADC_SAR_Seq_1_SAR.c **** *  counts and the applied input voltage. Calculation depends on resolution,
 334:.\Generated_Source\PSoC5/ADC_SAR_Seq_1_SAR.c **** *  input range, and voltage reference.
 335:.\Generated_Source\PSoC5/ADC_SAR_Seq_1_SAR.c **** *
 336:.\Generated_Source\PSoC5/ADC_SAR_Seq_1_SAR.c **** *******************************************************************************/
 337:.\Generated_Source\PSoC5/ADC_SAR_Seq_1_SAR.c **** void ADC_SAR_Seq_1_SAR_SetResolution(uint8 resolution)
 338:.\Generated_Source\PSoC5/ADC_SAR_Seq_1_SAR.c **** {
 369              		.loc 1 338 0
 370              		.cfi_startproc
 371              		@ args = 0, pretend = 0, frame = 16
 372              		@ frame_needed = 1, uses_anonymous_args = 0
 373 0000 80B5     		push	{r7, lr}
 374              	.LCFI13:
 375              		.cfi_def_cfa_offset 8
 376              		.cfi_offset 7, -8
 377              		.cfi_offset 14, -4
 378 0002 84B0     		sub	sp, sp, #16
 379              	.LCFI14:
 380              		.cfi_def_cfa_offset 24
 381 0004 00AF     		add	r7, sp, #0
 382              	.LCFI15:
 383              		.cfi_def_cfa_register 7
 384 0006 0346     		mov	r3, r0
 385 0008 FB71     		strb	r3, [r7, #7]
 339:.\Generated_Source\PSoC5/ADC_SAR_Seq_1_SAR.c ****     uint8 tmpReg;
 340:.\Generated_Source\PSoC5/ADC_SAR_Seq_1_SAR.c **** 
 341:.\Generated_Source\PSoC5/ADC_SAR_Seq_1_SAR.c ****     /* Set SAR ADC resolution and sample width: 18 conversion cycles at 12bits + 1 gap */
 342:.\Generated_Source\PSoC5/ADC_SAR_Seq_1_SAR.c ****     switch (resolution)
 386              		.loc 1 342 0
 387 000a FB79     		ldrb	r3, [r7, #7]	@ zero_extendqisi2
 388 000c 0A2B     		cmp	r3, #10
 389 000e 08D0     		beq	.L10
 390 0010 0C2B     		cmp	r3, #12
 391 0012 02D0     		beq	.L11
 392 0014 082B     		cmp	r3, #8
 393 0016 08D0     		beq	.L9
 394 0018 0BE0     		b	.L13
 395              	.L11:
 343:.\Generated_Source\PSoC5/ADC_SAR_Seq_1_SAR.c ****     {
 344:.\Generated_Source\PSoC5/ADC_SAR_Seq_1_SAR.c ****         case (uint8)ADC_SAR_Seq_1_SAR__BITS_12:
 345:.\Generated_Source\PSoC5/ADC_SAR_Seq_1_SAR.c ****             tmpReg = ADC_SAR_Seq_1_SAR_SAR_RESOLUTION_12BIT | ADC_SAR_Seq_1_SAR_SAR_SAMPLE_WIDTH;
 396              		.loc 1 345 0
ARM GAS  C:\Users\Brian\AppData\Local\Temp\ccVazoLc.s 			page 14


 397 001a 4FF0C403 		mov	r3, #196
 398 001e FB73     		strb	r3, [r7, #15]
 346:.\Generated_Source\PSoC5/ADC_SAR_Seq_1_SAR.c ****             break;
 399              		.loc 1 346 0
 400 0020 0FE0     		b	.L12
 401              	.L10:
 347:.\Generated_Source\PSoC5/ADC_SAR_Seq_1_SAR.c ****         case (uint8)ADC_SAR_Seq_1_SAR__BITS_10:
 348:.\Generated_Source\PSoC5/ADC_SAR_Seq_1_SAR.c ****             tmpReg = ADC_SAR_Seq_1_SAR_SAR_RESOLUTION_10BIT | ADC_SAR_Seq_1_SAR_SAR_SAMPLE_WIDTH;
 402              		.loc 1 348 0
 403 0022 4FF08403 		mov	r3, #132
 404 0026 FB73     		strb	r3, [r7, #15]
 349:.\Generated_Source\PSoC5/ADC_SAR_Seq_1_SAR.c ****             break;
 405              		.loc 1 349 0
 406 0028 0BE0     		b	.L12
 407              	.L9:
 350:.\Generated_Source\PSoC5/ADC_SAR_Seq_1_SAR.c ****         case (uint8)ADC_SAR_Seq_1_SAR__BITS_8:
 351:.\Generated_Source\PSoC5/ADC_SAR_Seq_1_SAR.c ****             tmpReg = ADC_SAR_Seq_1_SAR_SAR_RESOLUTION_8BIT | ADC_SAR_Seq_1_SAR_SAR_SAMPLE_WIDTH;
 408              		.loc 1 351 0
 409 002a 4FF04403 		mov	r3, #68
 410 002e FB73     		strb	r3, [r7, #15]
 352:.\Generated_Source\PSoC5/ADC_SAR_Seq_1_SAR.c ****             break;
 411              		.loc 1 352 0
 412 0030 07E0     		b	.L12
 413              	.L13:
 353:.\Generated_Source\PSoC5/ADC_SAR_Seq_1_SAR.c ****         default:
 354:.\Generated_Source\PSoC5/ADC_SAR_Seq_1_SAR.c ****             tmpReg = ADC_SAR_Seq_1_SAR_SAR_RESOLUTION_12BIT | ADC_SAR_Seq_1_SAR_SAR_SAMPLE_WIDTH;
 414              		.loc 1 354 0
 415 0032 4FF0C403 		mov	r3, #196
 416 0036 FB73     		strb	r3, [r7, #15]
 355:.\Generated_Source\PSoC5/ADC_SAR_Seq_1_SAR.c ****             /* Halt CPU in debug mode if resolution is out of valid range */
 356:.\Generated_Source\PSoC5/ADC_SAR_Seq_1_SAR.c ****             CYASSERT(0u != 0u);
 417              		.loc 1 356 0
 418 0038 4FF00000 		mov	r0, #0
 419 003c FFF7FEFF 		bl	CyHalt
 357:.\Generated_Source\PSoC5/ADC_SAR_Seq_1_SAR.c ****             break;
 420              		.loc 1 357 0
 421 0040 00BF     		nop
 422              	.L12:
 358:.\Generated_Source\PSoC5/ADC_SAR_Seq_1_SAR.c ****     }
 359:.\Generated_Source\PSoC5/ADC_SAR_Seq_1_SAR.c ****     ADC_SAR_Seq_1_SAR_SAR_CSR2_REG = tmpReg;
 423              		.loc 1 359 0
 424 0042 45F60213 		movw	r3, #22786
 425 0046 C4F20003 		movt	r3, 16384
 426 004a FA7B     		ldrb	r2, [r7, #15]
 427 004c 1A70     		strb	r2, [r3, #0]
 360:.\Generated_Source\PSoC5/ADC_SAR_Seq_1_SAR.c **** 
 361:.\Generated_Source\PSoC5/ADC_SAR_Seq_1_SAR.c ****      /* Calculate gain for convert counts to volts */
 362:.\Generated_Source\PSoC5/ADC_SAR_Seq_1_SAR.c ****     ADC_SAR_Seq_1_SAR_CalcGain(resolution);
 428              		.loc 1 362 0
 429 004e FB79     		ldrb	r3, [r7, #7]	@ zero_extendqisi2
 430 0050 1846     		mov	r0, r3
 431 0052 FFF7FEFF 		bl	ADC_SAR_Seq_1_SAR_CalcGain
 363:.\Generated_Source\PSoC5/ADC_SAR_Seq_1_SAR.c **** }
 432              		.loc 1 363 0
 433 0056 07F11007 		add	r7, r7, #16
 434 005a BD46     		mov	sp, r7
 435 005c 80BD     		pop	{r7, pc}
ARM GAS  C:\Users\Brian\AppData\Local\Temp\ccVazoLc.s 			page 15


 436              		.cfi_endproc
 437              	.LFE5:
 438              		.size	ADC_SAR_Seq_1_SAR_SetResolution, .-ADC_SAR_Seq_1_SAR_SetResolution
 439 005e 00BF     		.section	.text.ADC_SAR_Seq_1_SAR_StartConvert,"ax",%progbits
 440              		.align	2
 441              		.global	ADC_SAR_Seq_1_SAR_StartConvert
 442              		.thumb
 443              		.thumb_func
 444              		.type	ADC_SAR_Seq_1_SAR_StartConvert, %function
 445              	ADC_SAR_Seq_1_SAR_StartConvert:
 446              	.LFB6:
 364:.\Generated_Source\PSoC5/ADC_SAR_Seq_1_SAR.c **** 
 365:.\Generated_Source\PSoC5/ADC_SAR_Seq_1_SAR.c **** 
 366:.\Generated_Source\PSoC5/ADC_SAR_Seq_1_SAR.c **** #if(ADC_SAR_Seq_1_SAR_DEFAULT_CONV_MODE != ADC_SAR_Seq_1_SAR__HARDWARE_TRIGGER)
 367:.\Generated_Source\PSoC5/ADC_SAR_Seq_1_SAR.c **** 
 368:.\Generated_Source\PSoC5/ADC_SAR_Seq_1_SAR.c **** 
 369:.\Generated_Source\PSoC5/ADC_SAR_Seq_1_SAR.c ****     /*******************************************************************************
 370:.\Generated_Source\PSoC5/ADC_SAR_Seq_1_SAR.c ****     * Function Name: ADC_SAR_Seq_1_SAR_StartConvert
 371:.\Generated_Source\PSoC5/ADC_SAR_Seq_1_SAR.c ****     ********************************************************************************
 372:.\Generated_Source\PSoC5/ADC_SAR_Seq_1_SAR.c ****     *
 373:.\Generated_Source\PSoC5/ADC_SAR_Seq_1_SAR.c ****     * Summary:
 374:.\Generated_Source\PSoC5/ADC_SAR_Seq_1_SAR.c ****     *  Forces the ADC to initiate a conversion. In free-running mode, the ADC runs
 375:.\Generated_Source\PSoC5/ADC_SAR_Seq_1_SAR.c ****     *  continuously. In software trigger mode, the function also acts as a software
 376:.\Generated_Source\PSoC5/ADC_SAR_Seq_1_SAR.c ****     *  version of the SOC and every conversion must be triggered by
 377:.\Generated_Source\PSoC5/ADC_SAR_Seq_1_SAR.c ****     *  ADC_SAR_Seq_1_SAR_StartConvert(). This function is not available when the
 378:.\Generated_Source\PSoC5/ADC_SAR_Seq_1_SAR.c ****     *  Hardware Trigger sample mode is selected.
 379:.\Generated_Source\PSoC5/ADC_SAR_Seq_1_SAR.c ****     *
 380:.\Generated_Source\PSoC5/ADC_SAR_Seq_1_SAR.c ****     * Parameters:
 381:.\Generated_Source\PSoC5/ADC_SAR_Seq_1_SAR.c ****     *  None.
 382:.\Generated_Source\PSoC5/ADC_SAR_Seq_1_SAR.c ****     *
 383:.\Generated_Source\PSoC5/ADC_SAR_Seq_1_SAR.c ****     * Return:
 384:.\Generated_Source\PSoC5/ADC_SAR_Seq_1_SAR.c ****     *  None.
 385:.\Generated_Source\PSoC5/ADC_SAR_Seq_1_SAR.c ****     *
 386:.\Generated_Source\PSoC5/ADC_SAR_Seq_1_SAR.c ****     * Theory:
 387:.\Generated_Source\PSoC5/ADC_SAR_Seq_1_SAR.c ****     *  Forces the ADC to initiate a conversion. In Free Running mode, the ADC will
 388:.\Generated_Source\PSoC5/ADC_SAR_Seq_1_SAR.c ****     *  run continuously. In a software trigger mode the function also acts as a
 389:.\Generated_Source\PSoC5/ADC_SAR_Seq_1_SAR.c ****     *  software version of the SOC. Here every conversion has to be triggered by
 390:.\Generated_Source\PSoC5/ADC_SAR_Seq_1_SAR.c ****     *  the routine. This writes into the SOC bit in SAR_CTRL reg.
 391:.\Generated_Source\PSoC5/ADC_SAR_Seq_1_SAR.c ****     *
 392:.\Generated_Source\PSoC5/ADC_SAR_Seq_1_SAR.c ****     * Side Effects:
 393:.\Generated_Source\PSoC5/ADC_SAR_Seq_1_SAR.c ****     *  In a software trigger mode the function switches source for SOF from the
 394:.\Generated_Source\PSoC5/ADC_SAR_Seq_1_SAR.c ****     *  external pin to the internal SOF generation. Application should not call
 395:.\Generated_Source\PSoC5/ADC_SAR_Seq_1_SAR.c ****     *  StartConvert if external source used for SOF.
 396:.\Generated_Source\PSoC5/ADC_SAR_Seq_1_SAR.c ****     *
 397:.\Generated_Source\PSoC5/ADC_SAR_Seq_1_SAR.c ****     *******************************************************************************/
 398:.\Generated_Source\PSoC5/ADC_SAR_Seq_1_SAR.c ****     void ADC_SAR_Seq_1_SAR_StartConvert(void)
 399:.\Generated_Source\PSoC5/ADC_SAR_Seq_1_SAR.c ****     {
 447              		.loc 1 399 0
 448              		.cfi_startproc
 449              		@ args = 0, pretend = 0, frame = 0
 450              		@ frame_needed = 1, uses_anonymous_args = 0
 451              		@ link register save eliminated.
 452 0000 80B4     		push	{r7}
 453              	.LCFI16:
 454              		.cfi_def_cfa_offset 4
 455              		.cfi_offset 7, -4
 456 0002 00AF     		add	r7, sp, #0
ARM GAS  C:\Users\Brian\AppData\Local\Temp\ccVazoLc.s 			page 16


 457              	.LCFI17:
 458              		.cfi_def_cfa_register 7
 400:.\Generated_Source\PSoC5/ADC_SAR_Seq_1_SAR.c ****         #if(ADC_SAR_Seq_1_SAR_DEFAULT_CONV_MODE != ADC_SAR_Seq_1_SAR__FREE_RUNNING)  /* If software
 401:.\Generated_Source\PSoC5/ADC_SAR_Seq_1_SAR.c ****             ADC_SAR_Seq_1_SAR_SAR_CSR0_REG &= (uint8)~ADC_SAR_Seq_1_SAR_SAR_MX_SOF_UDB;   /* source
 402:.\Generated_Source\PSoC5/ADC_SAR_Seq_1_SAR.c ****         #endif /* End ADC_SAR_Seq_1_SAR_DEFAULT_CONV_MODE */
 403:.\Generated_Source\PSoC5/ADC_SAR_Seq_1_SAR.c **** 
 404:.\Generated_Source\PSoC5/ADC_SAR_Seq_1_SAR.c ****         /* Start the conversion */
 405:.\Generated_Source\PSoC5/ADC_SAR_Seq_1_SAR.c ****         ADC_SAR_Seq_1_SAR_SAR_CSR0_REG |= ADC_SAR_Seq_1_SAR_SAR_SOF_START_CONV;
 459              		.loc 1 405 0
 460 0004 4FF4B243 		mov	r3, #22784
 461 0008 C4F20003 		movt	r3, 16384
 462 000c 4FF4B242 		mov	r2, #22784
 463 0010 C4F20002 		movt	r2, 16384
 464 0014 1278     		ldrb	r2, [r2, #0]
 465 0016 D2B2     		uxtb	r2, r2
 466 0018 42F00102 		orr	r2, r2, #1
 467 001c D2B2     		uxtb	r2, r2
 468 001e 1A70     		strb	r2, [r3, #0]
 406:.\Generated_Source\PSoC5/ADC_SAR_Seq_1_SAR.c ****     }
 469              		.loc 1 406 0
 470 0020 BD46     		mov	sp, r7
 471 0022 80BC     		pop	{r7}
 472 0024 7047     		bx	lr
 473              		.cfi_endproc
 474              	.LFE6:
 475              		.size	ADC_SAR_Seq_1_SAR_StartConvert, .-ADC_SAR_Seq_1_SAR_StartConvert
 476 0026 00BF     		.section	.text.ADC_SAR_Seq_1_SAR_StopConvert,"ax",%progbits
 477              		.align	2
 478              		.global	ADC_SAR_Seq_1_SAR_StopConvert
 479              		.thumb
 480              		.thumb_func
 481              		.type	ADC_SAR_Seq_1_SAR_StopConvert, %function
 482              	ADC_SAR_Seq_1_SAR_StopConvert:
 483              	.LFB7:
 407:.\Generated_Source\PSoC5/ADC_SAR_Seq_1_SAR.c **** 
 408:.\Generated_Source\PSoC5/ADC_SAR_Seq_1_SAR.c **** 
 409:.\Generated_Source\PSoC5/ADC_SAR_Seq_1_SAR.c ****     /*******************************************************************************
 410:.\Generated_Source\PSoC5/ADC_SAR_Seq_1_SAR.c ****     * Function Name: ADC_SAR_Seq_1_SAR_StopConvert
 411:.\Generated_Source\PSoC5/ADC_SAR_Seq_1_SAR.c ****     ********************************************************************************
 412:.\Generated_Source\PSoC5/ADC_SAR_Seq_1_SAR.c ****     *
 413:.\Generated_Source\PSoC5/ADC_SAR_Seq_1_SAR.c ****     * Summary:
 414:.\Generated_Source\PSoC5/ADC_SAR_Seq_1_SAR.c ****     *  Forces the ADC to stop conversions. If a conversion is currently executing,
 415:.\Generated_Source\PSoC5/ADC_SAR_Seq_1_SAR.c ****     *  that conversion will complete, but no further conversions will occur. This
 416:.\Generated_Source\PSoC5/ADC_SAR_Seq_1_SAR.c ****     *  function is not available when the Hardware Trigger sample mode is selected.
 417:.\Generated_Source\PSoC5/ADC_SAR_Seq_1_SAR.c ****     *
 418:.\Generated_Source\PSoC5/ADC_SAR_Seq_1_SAR.c ****     * Parameters:
 419:.\Generated_Source\PSoC5/ADC_SAR_Seq_1_SAR.c ****     *  None.
 420:.\Generated_Source\PSoC5/ADC_SAR_Seq_1_SAR.c ****     *
 421:.\Generated_Source\PSoC5/ADC_SAR_Seq_1_SAR.c ****     * Return:
 422:.\Generated_Source\PSoC5/ADC_SAR_Seq_1_SAR.c ****     *  None.
 423:.\Generated_Source\PSoC5/ADC_SAR_Seq_1_SAR.c ****     *
 424:.\Generated_Source\PSoC5/ADC_SAR_Seq_1_SAR.c ****     * Theory:
 425:.\Generated_Source\PSoC5/ADC_SAR_Seq_1_SAR.c ****     *  Stops ADC conversion in Free Running mode.
 426:.\Generated_Source\PSoC5/ADC_SAR_Seq_1_SAR.c ****     *
 427:.\Generated_Source\PSoC5/ADC_SAR_Seq_1_SAR.c ****     * Side Effects:
 428:.\Generated_Source\PSoC5/ADC_SAR_Seq_1_SAR.c ****     *  In Software Trigger sample mode, this function sets a software version of the
 429:.\Generated_Source\PSoC5/ADC_SAR_Seq_1_SAR.c ****     *  SOC to low level and switches the SOC source to hardware SOC input.
ARM GAS  C:\Users\Brian\AppData\Local\Temp\ccVazoLc.s 			page 17


 430:.\Generated_Source\PSoC5/ADC_SAR_Seq_1_SAR.c ****     *
 431:.\Generated_Source\PSoC5/ADC_SAR_Seq_1_SAR.c ****     *******************************************************************************/
 432:.\Generated_Source\PSoC5/ADC_SAR_Seq_1_SAR.c ****     void ADC_SAR_Seq_1_SAR_StopConvert(void)
 433:.\Generated_Source\PSoC5/ADC_SAR_Seq_1_SAR.c ****     {
 484              		.loc 1 433 0
 485              		.cfi_startproc
 486              		@ args = 0, pretend = 0, frame = 0
 487              		@ frame_needed = 1, uses_anonymous_args = 0
 488              		@ link register save eliminated.
 489 0000 80B4     		push	{r7}
 490              	.LCFI18:
 491              		.cfi_def_cfa_offset 4
 492              		.cfi_offset 7, -4
 493 0002 00AF     		add	r7, sp, #0
 494              	.LCFI19:
 495              		.cfi_def_cfa_register 7
 434:.\Generated_Source\PSoC5/ADC_SAR_Seq_1_SAR.c ****         /* Stop all conversions */
 435:.\Generated_Source\PSoC5/ADC_SAR_Seq_1_SAR.c ****         ADC_SAR_Seq_1_SAR_SAR_CSR0_REG &= (uint8)~ADC_SAR_Seq_1_SAR_SAR_SOF_START_CONV;
 496              		.loc 1 435 0
 497 0004 4FF4B243 		mov	r3, #22784
 498 0008 C4F20003 		movt	r3, 16384
 499 000c 4FF4B242 		mov	r2, #22784
 500 0010 C4F20002 		movt	r2, 16384
 501 0014 1278     		ldrb	r2, [r2, #0]
 502 0016 D2B2     		uxtb	r2, r2
 503 0018 22F00102 		bic	r2, r2, #1
 504 001c D2B2     		uxtb	r2, r2
 505 001e 1A70     		strb	r2, [r3, #0]
 436:.\Generated_Source\PSoC5/ADC_SAR_Seq_1_SAR.c **** 
 437:.\Generated_Source\PSoC5/ADC_SAR_Seq_1_SAR.c ****         #if(ADC_SAR_Seq_1_SAR_DEFAULT_CONV_MODE != ADC_SAR_Seq_1_SAR__FREE_RUNNING)  /* If software
 438:.\Generated_Source\PSoC5/ADC_SAR_Seq_1_SAR.c ****             /* Return source to UDB for hardware SOF signal */
 439:.\Generated_Source\PSoC5/ADC_SAR_Seq_1_SAR.c ****             ADC_SAR_Seq_1_SAR_SAR_CSR0_REG |= ADC_SAR_Seq_1_SAR_SAR_MX_SOF_UDB;    /* source: UDB *
 440:.\Generated_Source\PSoC5/ADC_SAR_Seq_1_SAR.c ****         #endif /* End ADC_SAR_Seq_1_SAR_DEFAULT_CONV_MODE */
 441:.\Generated_Source\PSoC5/ADC_SAR_Seq_1_SAR.c **** 
 442:.\Generated_Source\PSoC5/ADC_SAR_Seq_1_SAR.c ****     }
 506              		.loc 1 442 0
 507 0020 BD46     		mov	sp, r7
 508 0022 80BC     		pop	{r7}
 509 0024 7047     		bx	lr
 510              		.cfi_endproc
 511              	.LFE7:
 512              		.size	ADC_SAR_Seq_1_SAR_StopConvert, .-ADC_SAR_Seq_1_SAR_StopConvert
 513 0026 00BF     		.section	.text.ADC_SAR_Seq_1_SAR_IsEndConversion,"ax",%progbits
 514              		.align	2
 515              		.global	ADC_SAR_Seq_1_SAR_IsEndConversion
 516              		.thumb
 517              		.thumb_func
 518              		.type	ADC_SAR_Seq_1_SAR_IsEndConversion, %function
 519              	ADC_SAR_Seq_1_SAR_IsEndConversion:
 520              	.LFB8:
 443:.\Generated_Source\PSoC5/ADC_SAR_Seq_1_SAR.c **** 
 444:.\Generated_Source\PSoC5/ADC_SAR_Seq_1_SAR.c **** #endif /* End ADC_SAR_Seq_1_SAR_DEFAULT_CONV_MODE != ADC_SAR_Seq_1_SAR__HARDWARE_TRIGGER */
 445:.\Generated_Source\PSoC5/ADC_SAR_Seq_1_SAR.c **** 
 446:.\Generated_Source\PSoC5/ADC_SAR_Seq_1_SAR.c **** 
 447:.\Generated_Source\PSoC5/ADC_SAR_Seq_1_SAR.c **** /*******************************************************************************
 448:.\Generated_Source\PSoC5/ADC_SAR_Seq_1_SAR.c **** * Function Name: ADC_SAR_Seq_1_SAR_IsEndConversion
 449:.\Generated_Source\PSoC5/ADC_SAR_Seq_1_SAR.c **** ********************************************************************************
ARM GAS  C:\Users\Brian\AppData\Local\Temp\ccVazoLc.s 			page 18


 450:.\Generated_Source\PSoC5/ADC_SAR_Seq_1_SAR.c **** *
 451:.\Generated_Source\PSoC5/ADC_SAR_Seq_1_SAR.c **** * Summary:
 452:.\Generated_Source\PSoC5/ADC_SAR_Seq_1_SAR.c **** *  Immediately returns the status of the conversion or does not return
 453:.\Generated_Source\PSoC5/ADC_SAR_Seq_1_SAR.c **** *  (blocking) until the conversion completes, depending on the retMode
 454:.\Generated_Source\PSoC5/ADC_SAR_Seq_1_SAR.c **** *  parameter.
 455:.\Generated_Source\PSoC5/ADC_SAR_Seq_1_SAR.c **** *
 456:.\Generated_Source\PSoC5/ADC_SAR_Seq_1_SAR.c **** * Parameters:
 457:.\Generated_Source\PSoC5/ADC_SAR_Seq_1_SAR.c **** *  retMode:  Check conversion return mode.
 458:.\Generated_Source\PSoC5/ADC_SAR_Seq_1_SAR.c **** *   ADC_SAR_Seq_1_SAR_RETURN_STATUS: Immediately returns the status. If the
 459:.\Generated_Source\PSoC5/ADC_SAR_Seq_1_SAR.c **** *     value returned is zero, the conversion is not complete, and this function
 460:.\Generated_Source\PSoC5/ADC_SAR_Seq_1_SAR.c **** *     should be retried until a nonzero result is returned.
 461:.\Generated_Source\PSoC5/ADC_SAR_Seq_1_SAR.c **** *   ADC_SAR_Seq_1_SAR_WAIT_FOR_RESULT: Does not return a result until the ADC
 462:.\Generated_Source\PSoC5/ADC_SAR_Seq_1_SAR.c **** *     conversion is complete.
 463:.\Generated_Source\PSoC5/ADC_SAR_Seq_1_SAR.c **** *
 464:.\Generated_Source\PSoC5/ADC_SAR_Seq_1_SAR.c **** * Return:
 465:.\Generated_Source\PSoC5/ADC_SAR_Seq_1_SAR.c **** *  (uint8)  0 =>  The ADC is still calculating the last result.
 466:.\Generated_Source\PSoC5/ADC_SAR_Seq_1_SAR.c **** *           1 =>  The last conversion is complete.
 467:.\Generated_Source\PSoC5/ADC_SAR_Seq_1_SAR.c **** *
 468:.\Generated_Source\PSoC5/ADC_SAR_Seq_1_SAR.c **** * Side Effects:
 469:.\Generated_Source\PSoC5/ADC_SAR_Seq_1_SAR.c **** *  This function reads the end of conversion status, which is cleared on read.
 470:.\Generated_Source\PSoC5/ADC_SAR_Seq_1_SAR.c **** *
 471:.\Generated_Source\PSoC5/ADC_SAR_Seq_1_SAR.c **** *******************************************************************************/
 472:.\Generated_Source\PSoC5/ADC_SAR_Seq_1_SAR.c **** uint8 ADC_SAR_Seq_1_SAR_IsEndConversion(uint8 retMode)
 473:.\Generated_Source\PSoC5/ADC_SAR_Seq_1_SAR.c **** {
 521              		.loc 1 473 0
 522              		.cfi_startproc
 523              		@ args = 0, pretend = 0, frame = 16
 524              		@ frame_needed = 1, uses_anonymous_args = 0
 525 0000 80B5     		push	{r7, lr}
 526              	.LCFI20:
 527              		.cfi_def_cfa_offset 8
 528              		.cfi_offset 7, -8
 529              		.cfi_offset 14, -4
 530 0002 84B0     		sub	sp, sp, #16
 531              	.LCFI21:
 532              		.cfi_def_cfa_offset 24
 533 0004 00AF     		add	r7, sp, #0
 534              	.LCFI22:
 535              		.cfi_def_cfa_register 7
 536 0006 0346     		mov	r3, r0
 537 0008 FB71     		strb	r3, [r7, #7]
 538              	.L18:
 474:.\Generated_Source\PSoC5/ADC_SAR_Seq_1_SAR.c ****     uint8 status;
 475:.\Generated_Source\PSoC5/ADC_SAR_Seq_1_SAR.c **** 
 476:.\Generated_Source\PSoC5/ADC_SAR_Seq_1_SAR.c ****     do
 477:.\Generated_Source\PSoC5/ADC_SAR_Seq_1_SAR.c ****     {
 478:.\Generated_Source\PSoC5/ADC_SAR_Seq_1_SAR.c ****         status = ADC_SAR_Seq_1_SAR_SAR_CSR1_REG & ADC_SAR_Seq_1_SAR_SAR_EOF_1;
 539              		.loc 1 478 0 discriminator 1
 540 000a 45F60113 		movw	r3, #22785
 541 000e C4F20003 		movt	r3, 16384
 542 0012 1B78     		ldrb	r3, [r3, #0]
 543 0014 DBB2     		uxtb	r3, r3
 544 0016 03F00103 		and	r3, r3, #1
 545 001a FB73     		strb	r3, [r7, #15]
 479:.\Generated_Source\PSoC5/ADC_SAR_Seq_1_SAR.c ****     } while ((status != ADC_SAR_Seq_1_SAR_SAR_EOF_1) && (retMode == ADC_SAR_Seq_1_SAR_WAIT_FOR_RESU
 546              		.loc 1 479 0 discriminator 1
 547 001c FB7B     		ldrb	r3, [r7, #15]	@ zero_extendqisi2
ARM GAS  C:\Users\Brian\AppData\Local\Temp\ccVazoLc.s 			page 19


 548 001e 012B     		cmp	r3, #1
 549 0020 02D0     		beq	.L17
 550 0022 FB79     		ldrb	r3, [r7, #7]	@ zero_extendqisi2
 551 0024 002B     		cmp	r3, #0
 552 0026 F0D0     		beq	.L18
 553              	.L17:
 480:.\Generated_Source\PSoC5/ADC_SAR_Seq_1_SAR.c ****     /* If convertion complete, wait until EOF bit released */
 481:.\Generated_Source\PSoC5/ADC_SAR_Seq_1_SAR.c ****     if(status == ADC_SAR_Seq_1_SAR_SAR_EOF_1)
 554              		.loc 1 481 0
 555 0028 FB7B     		ldrb	r3, [r7, #15]	@ zero_extendqisi2
 556 002a 012B     		cmp	r3, #1
 557 002c 08D1     		bne	.L19
 482:.\Generated_Source\PSoC5/ADC_SAR_Seq_1_SAR.c ****     {
 483:.\Generated_Source\PSoC5/ADC_SAR_Seq_1_SAR.c ****         /* wait one ADC clock to let the EOC status bit release */
 484:.\Generated_Source\PSoC5/ADC_SAR_Seq_1_SAR.c ****         CyDelayUs(1u);
 558              		.loc 1 484 0
 559 002e 4FF00100 		mov	r0, #1
 560 0032 FFF7FEFF 		bl	CyDelayUs
 485:.\Generated_Source\PSoC5/ADC_SAR_Seq_1_SAR.c ****         /* Do the unconditional read operation of the CSR1 register to make sure the EOC bit has be
 486:.\Generated_Source\PSoC5/ADC_SAR_Seq_1_SAR.c ****         CY_GET_REG8(ADC_SAR_Seq_1_SAR_SAR_CSR1_PTR);
 561              		.loc 1 486 0
 562 0036 45F60113 		movw	r3, #22785
 563 003a C4F20003 		movt	r3, 16384
 564 003e 1B78     		ldrb	r3, [r3, #0]
 565              	.L19:
 487:.\Generated_Source\PSoC5/ADC_SAR_Seq_1_SAR.c ****     }
 488:.\Generated_Source\PSoC5/ADC_SAR_Seq_1_SAR.c **** 
 489:.\Generated_Source\PSoC5/ADC_SAR_Seq_1_SAR.c ****     return(status);
 566              		.loc 1 489 0
 567 0040 FB7B     		ldrb	r3, [r7, #15]	@ zero_extendqisi2
 490:.\Generated_Source\PSoC5/ADC_SAR_Seq_1_SAR.c **** }
 568              		.loc 1 490 0
 569 0042 1846     		mov	r0, r3
 570 0044 07F11007 		add	r7, r7, #16
 571 0048 BD46     		mov	sp, r7
 572 004a 80BD     		pop	{r7, pc}
 573              		.cfi_endproc
 574              	.LFE8:
 575              		.size	ADC_SAR_Seq_1_SAR_IsEndConversion, .-ADC_SAR_Seq_1_SAR_IsEndConversion
 576              		.section	.text.ADC_SAR_Seq_1_SAR_GetResult8,"ax",%progbits
 577              		.align	2
 578              		.global	ADC_SAR_Seq_1_SAR_GetResult8
 579              		.thumb
 580              		.thumb_func
 581              		.type	ADC_SAR_Seq_1_SAR_GetResult8, %function
 582              	ADC_SAR_Seq_1_SAR_GetResult8:
 583              	.LFB9:
 491:.\Generated_Source\PSoC5/ADC_SAR_Seq_1_SAR.c **** 
 492:.\Generated_Source\PSoC5/ADC_SAR_Seq_1_SAR.c **** 
 493:.\Generated_Source\PSoC5/ADC_SAR_Seq_1_SAR.c **** /*******************************************************************************
 494:.\Generated_Source\PSoC5/ADC_SAR_Seq_1_SAR.c **** * Function Name: ADC_SAR_Seq_1_SAR_GetResult8
 495:.\Generated_Source\PSoC5/ADC_SAR_Seq_1_SAR.c **** ********************************************************************************
 496:.\Generated_Source\PSoC5/ADC_SAR_Seq_1_SAR.c **** *
 497:.\Generated_Source\PSoC5/ADC_SAR_Seq_1_SAR.c **** * Summary:
 498:.\Generated_Source\PSoC5/ADC_SAR_Seq_1_SAR.c **** *  Returns the result of an 8-bit conversion. If the resolution is set greater
 499:.\Generated_Source\PSoC5/ADC_SAR_Seq_1_SAR.c **** *  than 8 bits, the function returns the LSB of the result.
 500:.\Generated_Source\PSoC5/ADC_SAR_Seq_1_SAR.c **** *  ADC_SAR_Seq_1_SAR_IsEndConversion() should be called to verify that the data
ARM GAS  C:\Users\Brian\AppData\Local\Temp\ccVazoLc.s 			page 20


 501:.\Generated_Source\PSoC5/ADC_SAR_Seq_1_SAR.c **** *   sample is ready.
 502:.\Generated_Source\PSoC5/ADC_SAR_Seq_1_SAR.c **** *
 503:.\Generated_Source\PSoC5/ADC_SAR_Seq_1_SAR.c **** * Parameters:
 504:.\Generated_Source\PSoC5/ADC_SAR_Seq_1_SAR.c **** *  None.
 505:.\Generated_Source\PSoC5/ADC_SAR_Seq_1_SAR.c **** *
 506:.\Generated_Source\PSoC5/ADC_SAR_Seq_1_SAR.c **** * Return:
 507:.\Generated_Source\PSoC5/ADC_SAR_Seq_1_SAR.c **** *  The LSB of the last ADC conversion.
 508:.\Generated_Source\PSoC5/ADC_SAR_Seq_1_SAR.c **** *
 509:.\Generated_Source\PSoC5/ADC_SAR_Seq_1_SAR.c **** * Global Variables:
 510:.\Generated_Source\PSoC5/ADC_SAR_Seq_1_SAR.c **** *  ADC_SAR_Seq_1_SAR_shift - used to convert the ADC counts to the 2s
 511:.\Generated_Source\PSoC5/ADC_SAR_Seq_1_SAR.c **** *  compliment form.
 512:.\Generated_Source\PSoC5/ADC_SAR_Seq_1_SAR.c **** *
 513:.\Generated_Source\PSoC5/ADC_SAR_Seq_1_SAR.c **** * Side Effects:
 514:.\Generated_Source\PSoC5/ADC_SAR_Seq_1_SAR.c **** *  Converts the ADC counts to the 2s complement form.
 515:.\Generated_Source\PSoC5/ADC_SAR_Seq_1_SAR.c **** *
 516:.\Generated_Source\PSoC5/ADC_SAR_Seq_1_SAR.c **** *******************************************************************************/
 517:.\Generated_Source\PSoC5/ADC_SAR_Seq_1_SAR.c **** int8 ADC_SAR_Seq_1_SAR_GetResult8( void )
 518:.\Generated_Source\PSoC5/ADC_SAR_Seq_1_SAR.c **** {
 584              		.loc 1 518 0
 585              		.cfi_startproc
 586              		@ args = 0, pretend = 0, frame = 0
 587              		@ frame_needed = 1, uses_anonymous_args = 0
 588              		@ link register save eliminated.
 589 0000 80B4     		push	{r7}
 590              	.LCFI23:
 591              		.cfi_def_cfa_offset 4
 592              		.cfi_offset 7, -4
 593 0002 00AF     		add	r7, sp, #0
 594              	.LCFI24:
 595              		.cfi_def_cfa_register 7
 519:.\Generated_Source\PSoC5/ADC_SAR_Seq_1_SAR.c ****     return( (int8)ADC_SAR_Seq_1_SAR_SAR_WRK0_REG - (int8)ADC_SAR_Seq_1_SAR_shift);
 596              		.loc 1 519 0
 597 0004 45F6A033 		movw	r3, #23456
 598 0008 C4F20003 		movt	r3, 16384
 599 000c 1B78     		ldrb	r3, [r3, #0]
 600 000e DAB2     		uxtb	r2, r3
 601 0010 40F20003 		movw	r3, #:lower16:ADC_SAR_Seq_1_SAR_shift
 602 0014 C0F20003 		movt	r3, #:upper16:ADC_SAR_Seq_1_SAR_shift
 603 0018 1B88     		ldrh	r3, [r3, #0]	@ movhi
 604 001a 9BB2     		uxth	r3, r3
 605 001c DBB2     		uxtb	r3, r3
 606 001e D31A     		subs	r3, r2, r3
 607 0020 DBB2     		uxtb	r3, r3
 608 0022 DBB2     		uxtb	r3, r3
 609 0024 5BB2     		sxtb	r3, r3
 520:.\Generated_Source\PSoC5/ADC_SAR_Seq_1_SAR.c **** }
 610              		.loc 1 520 0
 611 0026 1846     		mov	r0, r3
 612 0028 BD46     		mov	sp, r7
 613 002a 80BC     		pop	{r7}
 614 002c 7047     		bx	lr
 615              		.cfi_endproc
 616              	.LFE9:
 617              		.size	ADC_SAR_Seq_1_SAR_GetResult8, .-ADC_SAR_Seq_1_SAR_GetResult8
 618 002e 00BF     		.section	.text.ADC_SAR_Seq_1_SAR_GetResult16,"ax",%progbits
 619              		.align	2
 620              		.global	ADC_SAR_Seq_1_SAR_GetResult16
ARM GAS  C:\Users\Brian\AppData\Local\Temp\ccVazoLc.s 			page 21


 621              		.thumb
 622              		.thumb_func
 623              		.type	ADC_SAR_Seq_1_SAR_GetResult16, %function
 624              	ADC_SAR_Seq_1_SAR_GetResult16:
 625              	.LFB10:
 521:.\Generated_Source\PSoC5/ADC_SAR_Seq_1_SAR.c **** 
 522:.\Generated_Source\PSoC5/ADC_SAR_Seq_1_SAR.c **** 
 523:.\Generated_Source\PSoC5/ADC_SAR_Seq_1_SAR.c **** /*******************************************************************************
 524:.\Generated_Source\PSoC5/ADC_SAR_Seq_1_SAR.c **** * Function Name: ADC_SAR_Seq_1_SAR_GetResult16
 525:.\Generated_Source\PSoC5/ADC_SAR_Seq_1_SAR.c **** ********************************************************************************
 526:.\Generated_Source\PSoC5/ADC_SAR_Seq_1_SAR.c **** *
 527:.\Generated_Source\PSoC5/ADC_SAR_Seq_1_SAR.c **** * Summary:
 528:.\Generated_Source\PSoC5/ADC_SAR_Seq_1_SAR.c **** *  Returns a 16-bit result for a conversion with a result that has a resolution
 529:.\Generated_Source\PSoC5/ADC_SAR_Seq_1_SAR.c **** *  of 8 to 12 bits.
 530:.\Generated_Source\PSoC5/ADC_SAR_Seq_1_SAR.c **** *  ADC_SAR_Seq_1_SAR_IsEndConversion() should be called to verify that the data
 531:.\Generated_Source\PSoC5/ADC_SAR_Seq_1_SAR.c **** *   sample is ready
 532:.\Generated_Source\PSoC5/ADC_SAR_Seq_1_SAR.c **** *
 533:.\Generated_Source\PSoC5/ADC_SAR_Seq_1_SAR.c **** * Parameters:
 534:.\Generated_Source\PSoC5/ADC_SAR_Seq_1_SAR.c **** *  None.
 535:.\Generated_Source\PSoC5/ADC_SAR_Seq_1_SAR.c **** *
 536:.\Generated_Source\PSoC5/ADC_SAR_Seq_1_SAR.c **** * Return:
 537:.\Generated_Source\PSoC5/ADC_SAR_Seq_1_SAR.c **** *  The 16-bit result of the last ADC conversion
 538:.\Generated_Source\PSoC5/ADC_SAR_Seq_1_SAR.c **** *
 539:.\Generated_Source\PSoC5/ADC_SAR_Seq_1_SAR.c **** * Global Variables:
 540:.\Generated_Source\PSoC5/ADC_SAR_Seq_1_SAR.c **** *  ADC_SAR_Seq_1_SAR_shift - used to convert the ADC counts to the 2s
 541:.\Generated_Source\PSoC5/ADC_SAR_Seq_1_SAR.c **** *  compliment form.
 542:.\Generated_Source\PSoC5/ADC_SAR_Seq_1_SAR.c **** *
 543:.\Generated_Source\PSoC5/ADC_SAR_Seq_1_SAR.c **** * Side Effects:
 544:.\Generated_Source\PSoC5/ADC_SAR_Seq_1_SAR.c **** *  Converts the ADC counts to the 2s complement form.
 545:.\Generated_Source\PSoC5/ADC_SAR_Seq_1_SAR.c **** *
 546:.\Generated_Source\PSoC5/ADC_SAR_Seq_1_SAR.c **** *******************************************************************************/
 547:.\Generated_Source\PSoC5/ADC_SAR_Seq_1_SAR.c **** int16 ADC_SAR_Seq_1_SAR_GetResult16( void )
 548:.\Generated_Source\PSoC5/ADC_SAR_Seq_1_SAR.c **** {
 626              		.loc 1 548 0
 627              		.cfi_startproc
 628              		@ args = 0, pretend = 0, frame = 8
 629              		@ frame_needed = 1, uses_anonymous_args = 0
 630              		@ link register save eliminated.
 631 0000 80B4     		push	{r7}
 632              	.LCFI25:
 633              		.cfi_def_cfa_offset 4
 634              		.cfi_offset 7, -4
 635 0002 83B0     		sub	sp, sp, #12
 636              	.LCFI26:
 637              		.cfi_def_cfa_offset 16
 638 0004 00AF     		add	r7, sp, #0
 639              	.LCFI27:
 640              		.cfi_def_cfa_register 7
 549:.\Generated_Source\PSoC5/ADC_SAR_Seq_1_SAR.c ****     uint16 res;
 550:.\Generated_Source\PSoC5/ADC_SAR_Seq_1_SAR.c **** 
 551:.\Generated_Source\PSoC5/ADC_SAR_Seq_1_SAR.c ****     res = CY_GET_REG16(ADC_SAR_Seq_1_SAR_SAR_WRK_PTR);
 641              		.loc 1 551 0
 642 0006 45F6A033 		movw	r3, #23456
 643 000a C4F20003 		movt	r3, 16384
 644 000e 1B88     		ldrh	r3, [r3, #0]	@ movhi
 645 0010 FB80     		strh	r3, [r7, #6]	@ movhi
 552:.\Generated_Source\PSoC5/ADC_SAR_Seq_1_SAR.c **** 
ARM GAS  C:\Users\Brian\AppData\Local\Temp\ccVazoLc.s 			page 22


 553:.\Generated_Source\PSoC5/ADC_SAR_Seq_1_SAR.c ****     return( (int16)res - ADC_SAR_Seq_1_SAR_shift );
 646              		.loc 1 553 0
 647 0012 40F20003 		movw	r3, #:lower16:ADC_SAR_Seq_1_SAR_shift
 648 0016 C0F20003 		movt	r3, #:upper16:ADC_SAR_Seq_1_SAR_shift
 649 001a 1B88     		ldrh	r3, [r3, #0]	@ movhi
 650 001c 9BB2     		uxth	r3, r3
 651 001e 9BB2     		uxth	r3, r3
 652 0020 FA88     		ldrh	r2, [r7, #6]	@ movhi
 653 0022 D31A     		subs	r3, r2, r3
 654 0024 9BB2     		uxth	r3, r3
 655 0026 9BB2     		uxth	r3, r3
 656 0028 1BB2     		sxth	r3, r3
 554:.\Generated_Source\PSoC5/ADC_SAR_Seq_1_SAR.c **** }
 657              		.loc 1 554 0
 658 002a 1846     		mov	r0, r3
 659 002c 07F10C07 		add	r7, r7, #12
 660 0030 BD46     		mov	sp, r7
 661 0032 80BC     		pop	{r7}
 662 0034 7047     		bx	lr
 663              		.cfi_endproc
 664              	.LFE10:
 665              		.size	ADC_SAR_Seq_1_SAR_GetResult16, .-ADC_SAR_Seq_1_SAR_GetResult16
 666 0036 00BF     		.section	.text.ADC_SAR_Seq_1_SAR_SetOffset,"ax",%progbits
 667              		.align	2
 668              		.global	ADC_SAR_Seq_1_SAR_SetOffset
 669              		.thumb
 670              		.thumb_func
 671              		.type	ADC_SAR_Seq_1_SAR_SetOffset, %function
 672              	ADC_SAR_Seq_1_SAR_SetOffset:
 673              	.LFB11:
 555:.\Generated_Source\PSoC5/ADC_SAR_Seq_1_SAR.c **** 
 556:.\Generated_Source\PSoC5/ADC_SAR_Seq_1_SAR.c **** 
 557:.\Generated_Source\PSoC5/ADC_SAR_Seq_1_SAR.c **** /*******************************************************************************
 558:.\Generated_Source\PSoC5/ADC_SAR_Seq_1_SAR.c **** * Function Name: ADC_SAR_Seq_1_SAR_SetOffset
 559:.\Generated_Source\PSoC5/ADC_SAR_Seq_1_SAR.c **** ********************************************************************************
 560:.\Generated_Source\PSoC5/ADC_SAR_Seq_1_SAR.c **** *
 561:.\Generated_Source\PSoC5/ADC_SAR_Seq_1_SAR.c **** * Summary:
 562:.\Generated_Source\PSoC5/ADC_SAR_Seq_1_SAR.c **** *  Sets the ADC offset, which is used by ADC_SAR_Seq_1_SAR_CountsTo_Volts(),
 563:.\Generated_Source\PSoC5/ADC_SAR_Seq_1_SAR.c **** *  ADC_SAR_Seq_1_SAR_CountsTo_mVolts(), and ADC_SAR_Seq_1_SAR_CountsTo_uVolts()
 564:.\Generated_Source\PSoC5/ADC_SAR_Seq_1_SAR.c **** *  to subtract the offset from the given reading before calculating the voltage
 565:.\Generated_Source\PSoC5/ADC_SAR_Seq_1_SAR.c **** *  conversion.
 566:.\Generated_Source\PSoC5/ADC_SAR_Seq_1_SAR.c **** *
 567:.\Generated_Source\PSoC5/ADC_SAR_Seq_1_SAR.c **** * Parameters:
 568:.\Generated_Source\PSoC5/ADC_SAR_Seq_1_SAR.c **** *  int16: This value is measured when the inputs are shorted or connected to
 569:.\Generated_Source\PSoC5/ADC_SAR_Seq_1_SAR.c ****    the same input voltage.
 570:.\Generated_Source\PSoC5/ADC_SAR_Seq_1_SAR.c **** *
 571:.\Generated_Source\PSoC5/ADC_SAR_Seq_1_SAR.c **** * Return:
 572:.\Generated_Source\PSoC5/ADC_SAR_Seq_1_SAR.c **** *  None.
 573:.\Generated_Source\PSoC5/ADC_SAR_Seq_1_SAR.c **** *
 574:.\Generated_Source\PSoC5/ADC_SAR_Seq_1_SAR.c **** * Global Variables:
 575:.\Generated_Source\PSoC5/ADC_SAR_Seq_1_SAR.c **** *  The ADC_SAR_Seq_1_SAR_offset variable modified. This variable is used for
 576:.\Generated_Source\PSoC5/ADC_SAR_Seq_1_SAR.c **** *  offset calibration purpose.
 577:.\Generated_Source\PSoC5/ADC_SAR_Seq_1_SAR.c **** *  Affects the ADC_SAR_Seq_1_SAR_CountsTo_Volts,
 578:.\Generated_Source\PSoC5/ADC_SAR_Seq_1_SAR.c **** *  ADC_SAR_Seq_1_SAR_CountsTo_mVolts, ADC_SAR_Seq_1_SAR_CountsTo_uVolts functions
 579:.\Generated_Source\PSoC5/ADC_SAR_Seq_1_SAR.c **** *  by subtracting the given offset.
 580:.\Generated_Source\PSoC5/ADC_SAR_Seq_1_SAR.c **** *
 581:.\Generated_Source\PSoC5/ADC_SAR_Seq_1_SAR.c **** *******************************************************************************/
ARM GAS  C:\Users\Brian\AppData\Local\Temp\ccVazoLc.s 			page 23


 582:.\Generated_Source\PSoC5/ADC_SAR_Seq_1_SAR.c **** void ADC_SAR_Seq_1_SAR_SetOffset(int16 offset)
 583:.\Generated_Source\PSoC5/ADC_SAR_Seq_1_SAR.c **** {
 674              		.loc 1 583 0
 675              		.cfi_startproc
 676              		@ args = 0, pretend = 0, frame = 8
 677              		@ frame_needed = 1, uses_anonymous_args = 0
 678              		@ link register save eliminated.
 679 0000 80B4     		push	{r7}
 680              	.LCFI28:
 681              		.cfi_def_cfa_offset 4
 682              		.cfi_offset 7, -4
 683 0002 83B0     		sub	sp, sp, #12
 684              	.LCFI29:
 685              		.cfi_def_cfa_offset 16
 686 0004 00AF     		add	r7, sp, #0
 687              	.LCFI30:
 688              		.cfi_def_cfa_register 7
 689 0006 0346     		mov	r3, r0
 690 0008 FB80     		strh	r3, [r7, #6]	@ movhi
 584:.\Generated_Source\PSoC5/ADC_SAR_Seq_1_SAR.c ****     ADC_SAR_Seq_1_SAR_offset = offset;
 691              		.loc 1 584 0
 692 000a 40F20003 		movw	r3, #:lower16:ADC_SAR_Seq_1_SAR_offset
 693 000e C0F20003 		movt	r3, #:upper16:ADC_SAR_Seq_1_SAR_offset
 694 0012 FA88     		ldrh	r2, [r7, #6]	@ movhi
 695 0014 1A80     		strh	r2, [r3, #0]	@ movhi
 585:.\Generated_Source\PSoC5/ADC_SAR_Seq_1_SAR.c **** }
 696              		.loc 1 585 0
 697 0016 07F10C07 		add	r7, r7, #12
 698 001a BD46     		mov	sp, r7
 699 001c 80BC     		pop	{r7}
 700 001e 7047     		bx	lr
 701              		.cfi_endproc
 702              	.LFE11:
 703              		.size	ADC_SAR_Seq_1_SAR_SetOffset, .-ADC_SAR_Seq_1_SAR_SetOffset
 704              		.section	.text.ADC_SAR_Seq_1_SAR_CalcGain,"ax",%progbits
 705              		.align	2
 706              		.thumb
 707              		.thumb_func
 708              		.type	ADC_SAR_Seq_1_SAR_CalcGain, %function
 709              	ADC_SAR_Seq_1_SAR_CalcGain:
 710              	.LFB12:
 586:.\Generated_Source\PSoC5/ADC_SAR_Seq_1_SAR.c **** 
 587:.\Generated_Source\PSoC5/ADC_SAR_Seq_1_SAR.c **** 
 588:.\Generated_Source\PSoC5/ADC_SAR_Seq_1_SAR.c **** /*******************************************************************************
 589:.\Generated_Source\PSoC5/ADC_SAR_Seq_1_SAR.c **** * Function Name: ADC_SAR_Seq_1_SAR_CalcGain
 590:.\Generated_Source\PSoC5/ADC_SAR_Seq_1_SAR.c **** ********************************************************************************
 591:.\Generated_Source\PSoC5/ADC_SAR_Seq_1_SAR.c **** *
 592:.\Generated_Source\PSoC5/ADC_SAR_Seq_1_SAR.c **** * Summary:
 593:.\Generated_Source\PSoC5/ADC_SAR_Seq_1_SAR.c **** *  This function calculates the ADC gain in counts per 10 volt.
 594:.\Generated_Source\PSoC5/ADC_SAR_Seq_1_SAR.c **** *
 595:.\Generated_Source\PSoC5/ADC_SAR_Seq_1_SAR.c **** * Parameters:
 596:.\Generated_Source\PSoC5/ADC_SAR_Seq_1_SAR.c **** *  uint8: resolution
 597:.\Generated_Source\PSoC5/ADC_SAR_Seq_1_SAR.c **** *
 598:.\Generated_Source\PSoC5/ADC_SAR_Seq_1_SAR.c **** * Return:
 599:.\Generated_Source\PSoC5/ADC_SAR_Seq_1_SAR.c **** *  None.
 600:.\Generated_Source\PSoC5/ADC_SAR_Seq_1_SAR.c **** *
 601:.\Generated_Source\PSoC5/ADC_SAR_Seq_1_SAR.c **** * Global Variables:
ARM GAS  C:\Users\Brian\AppData\Local\Temp\ccVazoLc.s 			page 24


 602:.\Generated_Source\PSoC5/ADC_SAR_Seq_1_SAR.c **** *  ADC_SAR_Seq_1_SAR_shift variable initialized. This variable is used to
 603:.\Generated_Source\PSoC5/ADC_SAR_Seq_1_SAR.c **** *  convert the ADC counts to the 2s compliment form.
 604:.\Generated_Source\PSoC5/ADC_SAR_Seq_1_SAR.c **** *  ADC_SAR_Seq_1_SAR_countsPer10Volt variable initialized. This variable is used
 605:.\Generated_Source\PSoC5/ADC_SAR_Seq_1_SAR.c **** *  for gain calibration purpose.
 606:.\Generated_Source\PSoC5/ADC_SAR_Seq_1_SAR.c **** *
 607:.\Generated_Source\PSoC5/ADC_SAR_Seq_1_SAR.c **** *******************************************************************************/
 608:.\Generated_Source\PSoC5/ADC_SAR_Seq_1_SAR.c **** static void ADC_SAR_Seq_1_SAR_CalcGain( uint8 resolution )
 609:.\Generated_Source\PSoC5/ADC_SAR_Seq_1_SAR.c **** {
 711              		.loc 1 609 0
 712              		.cfi_startproc
 713              		@ args = 0, pretend = 0, frame = 16
 714              		@ frame_needed = 1, uses_anonymous_args = 0
 715 0000 80B5     		push	{r7, lr}
 716              	.LCFI31:
 717              		.cfi_def_cfa_offset 8
 718              		.cfi_offset 7, -8
 719              		.cfi_offset 14, -4
 720 0002 84B0     		sub	sp, sp, #16
 721              	.LCFI32:
 722              		.cfi_def_cfa_offset 24
 723 0004 00AF     		add	r7, sp, #0
 724              	.LCFI33:
 725              		.cfi_def_cfa_register 7
 726 0006 0346     		mov	r3, r0
 727 0008 FB71     		strb	r3, [r7, #7]
 610:.\Generated_Source\PSoC5/ADC_SAR_Seq_1_SAR.c ****     int32 counts;
 611:.\Generated_Source\PSoC5/ADC_SAR_Seq_1_SAR.c ****     #if(!((ADC_SAR_Seq_1_SAR_DEFAULT_RANGE == ADC_SAR_Seq_1_SAR__VSS_TO_VREF) || \
 612:.\Generated_Source\PSoC5/ADC_SAR_Seq_1_SAR.c ****          (ADC_SAR_Seq_1_SAR_DEFAULT_RANGE == ADC_SAR_Seq_1_SAR__VSSA_TO_VDDA) || \
 613:.\Generated_Source\PSoC5/ADC_SAR_Seq_1_SAR.c ****          (ADC_SAR_Seq_1_SAR_DEFAULT_RANGE == ADC_SAR_Seq_1_SAR__VSSA_TO_VDAC)) )
 614:.\Generated_Source\PSoC5/ADC_SAR_Seq_1_SAR.c ****         uint16 diff_zero;
 615:.\Generated_Source\PSoC5/ADC_SAR_Seq_1_SAR.c ****     #endif /* End ADC_SAR_Seq_1_SAR_DEFAULT_RANGE */
 616:.\Generated_Source\PSoC5/ADC_SAR_Seq_1_SAR.c **** 
 617:.\Generated_Source\PSoC5/ADC_SAR_Seq_1_SAR.c ****     switch (resolution)
 728              		.loc 1 617 0
 729 000a FB79     		ldrb	r3, [r7, #7]	@ zero_extendqisi2
 730 000c 0A2B     		cmp	r3, #10
 731 000e 08D0     		beq	.L29
 732 0010 0C2B     		cmp	r3, #12
 733 0012 02D0     		beq	.L30
 734 0014 082B     		cmp	r3, #8
 735 0016 08D0     		beq	.L28
 736 0018 0BE0     		b	.L32
 737              	.L30:
 618:.\Generated_Source\PSoC5/ADC_SAR_Seq_1_SAR.c ****     {
 619:.\Generated_Source\PSoC5/ADC_SAR_Seq_1_SAR.c ****         case (uint8)ADC_SAR_Seq_1_SAR__BITS_12:
 620:.\Generated_Source\PSoC5/ADC_SAR_Seq_1_SAR.c ****             counts = (int32)ADC_SAR_Seq_1_SAR_SAR_WRK_MAX_12BIT;
 738              		.loc 1 620 0
 739 001a 4FF48053 		mov	r3, #4096
 740 001e FB60     		str	r3, [r7, #12]
 621:.\Generated_Source\PSoC5/ADC_SAR_Seq_1_SAR.c ****             #if(!((ADC_SAR_Seq_1_SAR_DEFAULT_RANGE == ADC_SAR_Seq_1_SAR__VSS_TO_VREF) || \
 622:.\Generated_Source\PSoC5/ADC_SAR_Seq_1_SAR.c ****                  (ADC_SAR_Seq_1_SAR_DEFAULT_RANGE == ADC_SAR_Seq_1_SAR__VSSA_TO_VDDA) || \
 623:.\Generated_Source\PSoC5/ADC_SAR_Seq_1_SAR.c ****                  (ADC_SAR_Seq_1_SAR_DEFAULT_RANGE == ADC_SAR_Seq_1_SAR__VSSA_TO_VDAC)) )
 624:.\Generated_Source\PSoC5/ADC_SAR_Seq_1_SAR.c ****                 diff_zero = ADC_SAR_Seq_1_SAR_SAR_DIFF_SHIFT;
 625:.\Generated_Source\PSoC5/ADC_SAR_Seq_1_SAR.c ****             #endif /* End ADC_SAR_Seq_1_SAR_DEFAULT_RANGE */
 626:.\Generated_Source\PSoC5/ADC_SAR_Seq_1_SAR.c ****             break;
 741              		.loc 1 626 0
 742 0020 0FE0     		b	.L31
ARM GAS  C:\Users\Brian\AppData\Local\Temp\ccVazoLc.s 			page 25


 743              	.L29:
 627:.\Generated_Source\PSoC5/ADC_SAR_Seq_1_SAR.c ****         case (uint8)ADC_SAR_Seq_1_SAR__BITS_10:
 628:.\Generated_Source\PSoC5/ADC_SAR_Seq_1_SAR.c ****             counts = (int32)ADC_SAR_Seq_1_SAR_SAR_WRK_MAX_10BIT;
 744              		.loc 1 628 0
 745 0022 4FF48063 		mov	r3, #1024
 746 0026 FB60     		str	r3, [r7, #12]
 629:.\Generated_Source\PSoC5/ADC_SAR_Seq_1_SAR.c ****             #if(!((ADC_SAR_Seq_1_SAR_DEFAULT_RANGE == ADC_SAR_Seq_1_SAR__VSS_TO_VREF) || \
 630:.\Generated_Source\PSoC5/ADC_SAR_Seq_1_SAR.c ****                  (ADC_SAR_Seq_1_SAR_DEFAULT_RANGE == ADC_SAR_Seq_1_SAR__VSSA_TO_VDDA) || \
 631:.\Generated_Source\PSoC5/ADC_SAR_Seq_1_SAR.c ****                  (ADC_SAR_Seq_1_SAR_DEFAULT_RANGE == ADC_SAR_Seq_1_SAR__VSSA_TO_VDAC)) )
 632:.\Generated_Source\PSoC5/ADC_SAR_Seq_1_SAR.c ****                 diff_zero = ADC_SAR_Seq_1_SAR_SAR_DIFF_SHIFT >> 2u;
 633:.\Generated_Source\PSoC5/ADC_SAR_Seq_1_SAR.c ****             #endif /* End ADC_SAR_Seq_1_SAR_DEFAULT_RANGE */
 634:.\Generated_Source\PSoC5/ADC_SAR_Seq_1_SAR.c ****             break;
 747              		.loc 1 634 0
 748 0028 0BE0     		b	.L31
 749              	.L28:
 635:.\Generated_Source\PSoC5/ADC_SAR_Seq_1_SAR.c ****         case (uint8)ADC_SAR_Seq_1_SAR__BITS_8:
 636:.\Generated_Source\PSoC5/ADC_SAR_Seq_1_SAR.c ****             counts = (int32)ADC_SAR_Seq_1_SAR_SAR_WRK_MAX_8BIT;
 750              		.loc 1 636 0
 751 002a 4FF48073 		mov	r3, #256
 752 002e FB60     		str	r3, [r7, #12]
 637:.\Generated_Source\PSoC5/ADC_SAR_Seq_1_SAR.c ****             #if(!((ADC_SAR_Seq_1_SAR_DEFAULT_RANGE == ADC_SAR_Seq_1_SAR__VSS_TO_VREF) || \
 638:.\Generated_Source\PSoC5/ADC_SAR_Seq_1_SAR.c ****                  (ADC_SAR_Seq_1_SAR_DEFAULT_RANGE == ADC_SAR_Seq_1_SAR__VSSA_TO_VDDA) || \
 639:.\Generated_Source\PSoC5/ADC_SAR_Seq_1_SAR.c ****                  (ADC_SAR_Seq_1_SAR_DEFAULT_RANGE == ADC_SAR_Seq_1_SAR__VSSA_TO_VDAC)) )
 640:.\Generated_Source\PSoC5/ADC_SAR_Seq_1_SAR.c ****                 diff_zero = ADC_SAR_Seq_1_SAR_SAR_DIFF_SHIFT >> 4u;
 641:.\Generated_Source\PSoC5/ADC_SAR_Seq_1_SAR.c ****             #endif /* End ADC_SAR_Seq_1_SAR_DEFAULT_RANGE */
 642:.\Generated_Source\PSoC5/ADC_SAR_Seq_1_SAR.c ****             break;
 753              		.loc 1 642 0
 754 0030 07E0     		b	.L31
 755              	.L32:
 643:.\Generated_Source\PSoC5/ADC_SAR_Seq_1_SAR.c ****         default: /* Halt CPU in debug mode if resolution is out of valid range */
 644:.\Generated_Source\PSoC5/ADC_SAR_Seq_1_SAR.c ****             counts = 0;
 756              		.loc 1 644 0
 757 0032 4FF00003 		mov	r3, #0
 758 0036 FB60     		str	r3, [r7, #12]
 645:.\Generated_Source\PSoC5/ADC_SAR_Seq_1_SAR.c ****             #if(!((ADC_SAR_Seq_1_SAR_DEFAULT_RANGE == ADC_SAR_Seq_1_SAR__VSS_TO_VREF) || \
 646:.\Generated_Source\PSoC5/ADC_SAR_Seq_1_SAR.c ****                  (ADC_SAR_Seq_1_SAR_DEFAULT_RANGE == ADC_SAR_Seq_1_SAR__VSSA_TO_VDDA) || \
 647:.\Generated_Source\PSoC5/ADC_SAR_Seq_1_SAR.c ****                  (ADC_SAR_Seq_1_SAR_DEFAULT_RANGE == ADC_SAR_Seq_1_SAR__VSSA_TO_VDAC)) )
 648:.\Generated_Source\PSoC5/ADC_SAR_Seq_1_SAR.c ****                 diff_zero = 0u;
 649:.\Generated_Source\PSoC5/ADC_SAR_Seq_1_SAR.c ****             #endif /* End ADC_SAR_Seq_1_SAR_DEFAULT_RANGE */
 650:.\Generated_Source\PSoC5/ADC_SAR_Seq_1_SAR.c ****             CYASSERT(0u != 0u);
 759              		.loc 1 650 0
 760 0038 4FF00000 		mov	r0, #0
 761 003c FFF7FEFF 		bl	CyHalt
 651:.\Generated_Source\PSoC5/ADC_SAR_Seq_1_SAR.c ****             break;
 762              		.loc 1 651 0
 763 0040 00BF     		nop
 764              	.L31:
 652:.\Generated_Source\PSoC5/ADC_SAR_Seq_1_SAR.c ****     }
 653:.\Generated_Source\PSoC5/ADC_SAR_Seq_1_SAR.c ****     ADC_SAR_Seq_1_SAR_countsPerVolt = 0; /* Clear obsolete variable */
 765              		.loc 1 653 0
 766 0042 40F20003 		movw	r3, #:lower16:ADC_SAR_Seq_1_SAR_countsPerVolt
 767 0046 C0F20003 		movt	r3, #:upper16:ADC_SAR_Seq_1_SAR_countsPerVolt
 768 004a 4FF00002 		mov	r2, #0
 769 004e 1A80     		strh	r2, [r3, #0]	@ movhi
 654:.\Generated_Source\PSoC5/ADC_SAR_Seq_1_SAR.c ****     /* Calculate gain in counts per 10 volts with rounding */
 655:.\Generated_Source\PSoC5/ADC_SAR_Seq_1_SAR.c ****     ADC_SAR_Seq_1_SAR_countsPer10Volt = (((counts * ADC_SAR_Seq_1_SAR_10MV_COUNTS) +
 770              		.loc 1 655 0
ARM GAS  C:\Users\Brian\AppData\Local\Temp\ccVazoLc.s 			page 26


 771 0050 FB68     		ldr	r3, [r7, #12]
 772 0052 42F21072 		movw	r2, #10000
 773 0056 02FB03F3 		mul	r3, r2, r3
 774 005a 03F6C412 		addw	r2, r3, #2500
 656:.\Generated_Source\PSoC5/ADC_SAR_Seq_1_SAR.c ****                         ADC_SAR_Seq_1_SAR_DEFAULT_REF_VOLTAGE_MV) / (ADC_SAR_Seq_1_SAR_DEFAULT_REF_
 775              		.loc 1 656 0
 776 005e 48F6AD33 		movw	r3, #35757
 777 0062 C6F6DB03 		movt	r3, 26843
 778 0066 83FB0213 		smull	r1, r3, r3, r2
 779 006a 4FEAE321 		asr	r1, r3, #11
 780 006e 4FEAE273 		asr	r3, r2, #31
 781 0072 CA1A     		subs	r2, r1, r3
 655:.\Generated_Source\PSoC5/ADC_SAR_Seq_1_SAR.c ****     ADC_SAR_Seq_1_SAR_countsPer10Volt = (((counts * ADC_SAR_Seq_1_SAR_10MV_COUNTS) +
 782              		.loc 1 655 0
 783 0074 40F20003 		movw	r3, #:lower16:ADC_SAR_Seq_1_SAR_countsPer10Volt
 784 0078 C0F20003 		movt	r3, #:upper16:ADC_SAR_Seq_1_SAR_countsPer10Volt
 785 007c 1A60     		str	r2, [r3, #0]
 657:.\Generated_Source\PSoC5/ADC_SAR_Seq_1_SAR.c **** 
 658:.\Generated_Source\PSoC5/ADC_SAR_Seq_1_SAR.c ****     #if( (ADC_SAR_Seq_1_SAR_DEFAULT_RANGE == ADC_SAR_Seq_1_SAR__VSS_TO_VREF) || \
 659:.\Generated_Source\PSoC5/ADC_SAR_Seq_1_SAR.c ****          (ADC_SAR_Seq_1_SAR_DEFAULT_RANGE == ADC_SAR_Seq_1_SAR__VSSA_TO_VDDA) || \
 660:.\Generated_Source\PSoC5/ADC_SAR_Seq_1_SAR.c ****          (ADC_SAR_Seq_1_SAR_DEFAULT_RANGE == ADC_SAR_Seq_1_SAR__VSSA_TO_VDAC) )
 661:.\Generated_Source\PSoC5/ADC_SAR_Seq_1_SAR.c ****         ADC_SAR_Seq_1_SAR_shift = 0;
 786              		.loc 1 661 0
 787 007e 40F20003 		movw	r3, #:lower16:ADC_SAR_Seq_1_SAR_shift
 788 0082 C0F20003 		movt	r3, #:upper16:ADC_SAR_Seq_1_SAR_shift
 789 0086 4FF00002 		mov	r2, #0
 790 008a 1A80     		strh	r2, [r3, #0]	@ movhi
 662:.\Generated_Source\PSoC5/ADC_SAR_Seq_1_SAR.c ****     #else
 663:.\Generated_Source\PSoC5/ADC_SAR_Seq_1_SAR.c ****         ADC_SAR_Seq_1_SAR_shift = diff_zero;
 664:.\Generated_Source\PSoC5/ADC_SAR_Seq_1_SAR.c ****     #endif /* End ADC_SAR_Seq_1_SAR_DEFAULT_RANGE */
 665:.\Generated_Source\PSoC5/ADC_SAR_Seq_1_SAR.c **** }
 791              		.loc 1 665 0
 792 008c 07F11007 		add	r7, r7, #16
 793 0090 BD46     		mov	sp, r7
 794 0092 80BD     		pop	{r7, pc}
 795              		.cfi_endproc
 796              	.LFE12:
 797              		.size	ADC_SAR_Seq_1_SAR_CalcGain, .-ADC_SAR_Seq_1_SAR_CalcGain
 798              		.section	.text.ADC_SAR_Seq_1_SAR_SetGain,"ax",%progbits
 799              		.align	2
 800              		.global	ADC_SAR_Seq_1_SAR_SetGain
 801              		.thumb
 802              		.thumb_func
 803              		.type	ADC_SAR_Seq_1_SAR_SetGain, %function
 804              	ADC_SAR_Seq_1_SAR_SetGain:
 805              	.LFB13:
 666:.\Generated_Source\PSoC5/ADC_SAR_Seq_1_SAR.c **** 
 667:.\Generated_Source\PSoC5/ADC_SAR_Seq_1_SAR.c **** 
 668:.\Generated_Source\PSoC5/ADC_SAR_Seq_1_SAR.c **** /*******************************************************************************
 669:.\Generated_Source\PSoC5/ADC_SAR_Seq_1_SAR.c **** * Function Name: ADC_SAR_Seq_1_SAR_SetGain
 670:.\Generated_Source\PSoC5/ADC_SAR_Seq_1_SAR.c **** ********************************************************************************
 671:.\Generated_Source\PSoC5/ADC_SAR_Seq_1_SAR.c **** *
 672:.\Generated_Source\PSoC5/ADC_SAR_Seq_1_SAR.c **** * Summary:
 673:.\Generated_Source\PSoC5/ADC_SAR_Seq_1_SAR.c **** *  Sets the ADC gain in counts per volt for the voltage conversion functions
 674:.\Generated_Source\PSoC5/ADC_SAR_Seq_1_SAR.c **** *  that follow. This value is set by default by the reference and input range
 675:.\Generated_Source\PSoC5/ADC_SAR_Seq_1_SAR.c **** *  settings. It should only be used to further calibrate the ADC with a known
 676:.\Generated_Source\PSoC5/ADC_SAR_Seq_1_SAR.c **** *  input or if the ADC is using an external reference.
ARM GAS  C:\Users\Brian\AppData\Local\Temp\ccVazoLc.s 			page 27


 677:.\Generated_Source\PSoC5/ADC_SAR_Seq_1_SAR.c **** *
 678:.\Generated_Source\PSoC5/ADC_SAR_Seq_1_SAR.c **** * Parameters:
 679:.\Generated_Source\PSoC5/ADC_SAR_Seq_1_SAR.c **** *  int16  adcGain  counts per volt
 680:.\Generated_Source\PSoC5/ADC_SAR_Seq_1_SAR.c **** *
 681:.\Generated_Source\PSoC5/ADC_SAR_Seq_1_SAR.c **** * Return:
 682:.\Generated_Source\PSoC5/ADC_SAR_Seq_1_SAR.c **** *  None.
 683:.\Generated_Source\PSoC5/ADC_SAR_Seq_1_SAR.c **** *
 684:.\Generated_Source\PSoC5/ADC_SAR_Seq_1_SAR.c **** * Global Variables:
 685:.\Generated_Source\PSoC5/ADC_SAR_Seq_1_SAR.c **** *  ADC_SAR_Seq_1_SAR_countsPer10Volt variable modified. This variable is used
 686:.\Generated_Source\PSoC5/ADC_SAR_Seq_1_SAR.c **** *  for gain calibration purpose.
 687:.\Generated_Source\PSoC5/ADC_SAR_Seq_1_SAR.c **** *
 688:.\Generated_Source\PSoC5/ADC_SAR_Seq_1_SAR.c **** *******************************************************************************/
 689:.\Generated_Source\PSoC5/ADC_SAR_Seq_1_SAR.c **** void ADC_SAR_Seq_1_SAR_SetGain(int16 adcGain)
 690:.\Generated_Source\PSoC5/ADC_SAR_Seq_1_SAR.c **** {
 806              		.loc 1 690 0
 807              		.cfi_startproc
 808              		@ args = 0, pretend = 0, frame = 8
 809              		@ frame_needed = 1, uses_anonymous_args = 0
 810              		@ link register save eliminated.
 811 0000 80B4     		push	{r7}
 812              	.LCFI34:
 813              		.cfi_def_cfa_offset 4
 814              		.cfi_offset 7, -4
 815 0002 83B0     		sub	sp, sp, #12
 816              	.LCFI35:
 817              		.cfi_def_cfa_offset 16
 818 0004 00AF     		add	r7, sp, #0
 819              	.LCFI36:
 820              		.cfi_def_cfa_register 7
 821 0006 0346     		mov	r3, r0
 822 0008 FB80     		strh	r3, [r7, #6]	@ movhi
 691:.\Generated_Source\PSoC5/ADC_SAR_Seq_1_SAR.c ****     ADC_SAR_Seq_1_SAR_countsPer10Volt = (int32)adcGain * 10;
 823              		.loc 1 691 0
 824 000a B7F90620 		ldrsh	r2, [r7, #6]
 825 000e 1346     		mov	r3, r2
 826 0010 4FEA8303 		lsl	r3, r3, #2
 827 0014 9B18     		adds	r3, r3, r2
 828 0016 4FEA4303 		lsl	r3, r3, #1
 829 001a 1A46     		mov	r2, r3
 830 001c 40F20003 		movw	r3, #:lower16:ADC_SAR_Seq_1_SAR_countsPer10Volt
 831 0020 C0F20003 		movt	r3, #:upper16:ADC_SAR_Seq_1_SAR_countsPer10Volt
 832 0024 1A60     		str	r2, [r3, #0]
 692:.\Generated_Source\PSoC5/ADC_SAR_Seq_1_SAR.c **** }
 833              		.loc 1 692 0
 834 0026 07F10C07 		add	r7, r7, #12
 835 002a BD46     		mov	sp, r7
 836 002c 80BC     		pop	{r7}
 837 002e 7047     		bx	lr
 838              		.cfi_endproc
 839              	.LFE13:
 840              		.size	ADC_SAR_Seq_1_SAR_SetGain, .-ADC_SAR_Seq_1_SAR_SetGain
 841              		.section	.text.ADC_SAR_Seq_1_SAR_SetScaledGain,"ax",%progbits
 842              		.align	2
 843              		.global	ADC_SAR_Seq_1_SAR_SetScaledGain
 844              		.thumb
 845              		.thumb_func
 846              		.type	ADC_SAR_Seq_1_SAR_SetScaledGain, %function
ARM GAS  C:\Users\Brian\AppData\Local\Temp\ccVazoLc.s 			page 28


 847              	ADC_SAR_Seq_1_SAR_SetScaledGain:
 848              	.LFB14:
 693:.\Generated_Source\PSoC5/ADC_SAR_Seq_1_SAR.c **** 
 694:.\Generated_Source\PSoC5/ADC_SAR_Seq_1_SAR.c **** 
 695:.\Generated_Source\PSoC5/ADC_SAR_Seq_1_SAR.c **** /*******************************************************************************
 696:.\Generated_Source\PSoC5/ADC_SAR_Seq_1_SAR.c **** * Function Name: ADC_SAR_Seq_1_SAR_SetGainPer10Volt
 697:.\Generated_Source\PSoC5/ADC_SAR_Seq_1_SAR.c **** ********************************************************************************
 698:.\Generated_Source\PSoC5/ADC_SAR_Seq_1_SAR.c **** *
 699:.\Generated_Source\PSoC5/ADC_SAR_Seq_1_SAR.c **** * Summary:
 700:.\Generated_Source\PSoC5/ADC_SAR_Seq_1_SAR.c **** *  Sets the ADC gain in counts per 10 volt for the voltage conversion functions
 701:.\Generated_Source\PSoC5/ADC_SAR_Seq_1_SAR.c **** *  that follow. This value is set by default by the reference and input range
 702:.\Generated_Source\PSoC5/ADC_SAR_Seq_1_SAR.c **** *  settings. It should only be used to further calibrate the ADC with a known
 703:.\Generated_Source\PSoC5/ADC_SAR_Seq_1_SAR.c **** *  input or if the ADC is using an external reference.
 704:.\Generated_Source\PSoC5/ADC_SAR_Seq_1_SAR.c **** *
 705:.\Generated_Source\PSoC5/ADC_SAR_Seq_1_SAR.c **** * Parameters:
 706:.\Generated_Source\PSoC5/ADC_SAR_Seq_1_SAR.c **** *  int16  adcGain  counts per 10 volt
 707:.\Generated_Source\PSoC5/ADC_SAR_Seq_1_SAR.c **** *
 708:.\Generated_Source\PSoC5/ADC_SAR_Seq_1_SAR.c **** * Return:
 709:.\Generated_Source\PSoC5/ADC_SAR_Seq_1_SAR.c **** *  None.
 710:.\Generated_Source\PSoC5/ADC_SAR_Seq_1_SAR.c **** *
 711:.\Generated_Source\PSoC5/ADC_SAR_Seq_1_SAR.c **** * Global Variables:
 712:.\Generated_Source\PSoC5/ADC_SAR_Seq_1_SAR.c **** *  ADC_SAR_Seq_1_SAR_countsPer10Volt variable modified. This variable is used
 713:.\Generated_Source\PSoC5/ADC_SAR_Seq_1_SAR.c **** *  for gain calibration purpose.
 714:.\Generated_Source\PSoC5/ADC_SAR_Seq_1_SAR.c **** *
 715:.\Generated_Source\PSoC5/ADC_SAR_Seq_1_SAR.c **** *******************************************************************************/
 716:.\Generated_Source\PSoC5/ADC_SAR_Seq_1_SAR.c **** void ADC_SAR_Seq_1_SAR_SetScaledGain(int32 adcGain)
 717:.\Generated_Source\PSoC5/ADC_SAR_Seq_1_SAR.c **** {
 849              		.loc 1 717 0
 850              		.cfi_startproc
 851              		@ args = 0, pretend = 0, frame = 8
 852              		@ frame_needed = 1, uses_anonymous_args = 0
 853              		@ link register save eliminated.
 854 0000 80B4     		push	{r7}
 855              	.LCFI37:
 856              		.cfi_def_cfa_offset 4
 857              		.cfi_offset 7, -4
 858 0002 83B0     		sub	sp, sp, #12
 859              	.LCFI38:
 860              		.cfi_def_cfa_offset 16
 861 0004 00AF     		add	r7, sp, #0
 862              	.LCFI39:
 863              		.cfi_def_cfa_register 7
 864 0006 7860     		str	r0, [r7, #4]
 718:.\Generated_Source\PSoC5/ADC_SAR_Seq_1_SAR.c ****     ADC_SAR_Seq_1_SAR_countsPer10Volt = adcGain;
 865              		.loc 1 718 0
 866 0008 40F20003 		movw	r3, #:lower16:ADC_SAR_Seq_1_SAR_countsPer10Volt
 867 000c C0F20003 		movt	r3, #:upper16:ADC_SAR_Seq_1_SAR_countsPer10Volt
 868 0010 7A68     		ldr	r2, [r7, #4]
 869 0012 1A60     		str	r2, [r3, #0]
 719:.\Generated_Source\PSoC5/ADC_SAR_Seq_1_SAR.c **** }
 870              		.loc 1 719 0
 871 0014 07F10C07 		add	r7, r7, #12
 872 0018 BD46     		mov	sp, r7
 873 001a 80BC     		pop	{r7}
 874 001c 7047     		bx	lr
 875              		.cfi_endproc
 876              	.LFE14:
ARM GAS  C:\Users\Brian\AppData\Local\Temp\ccVazoLc.s 			page 29


 877              		.size	ADC_SAR_Seq_1_SAR_SetScaledGain, .-ADC_SAR_Seq_1_SAR_SetScaledGain
 878 001e 00BF     		.section	.text.ADC_SAR_Seq_1_SAR_CountsTo_mVolts,"ax",%progbits
 879              		.align	2
 880              		.global	ADC_SAR_Seq_1_SAR_CountsTo_mVolts
 881              		.thumb
 882              		.thumb_func
 883              		.type	ADC_SAR_Seq_1_SAR_CountsTo_mVolts, %function
 884              	ADC_SAR_Seq_1_SAR_CountsTo_mVolts:
 885              	.LFB15:
 720:.\Generated_Source\PSoC5/ADC_SAR_Seq_1_SAR.c **** 
 721:.\Generated_Source\PSoC5/ADC_SAR_Seq_1_SAR.c **** 
 722:.\Generated_Source\PSoC5/ADC_SAR_Seq_1_SAR.c **** /*******************************************************************************
 723:.\Generated_Source\PSoC5/ADC_SAR_Seq_1_SAR.c **** * Function Name: ADC_SAR_Seq_1_SAR_CountsTo_mVolts
 724:.\Generated_Source\PSoC5/ADC_SAR_Seq_1_SAR.c **** ********************************************************************************
 725:.\Generated_Source\PSoC5/ADC_SAR_Seq_1_SAR.c **** *
 726:.\Generated_Source\PSoC5/ADC_SAR_Seq_1_SAR.c **** * Summary:
 727:.\Generated_Source\PSoC5/ADC_SAR_Seq_1_SAR.c **** *  Converts the ADC output to millivolts as a 16-bit integer.
 728:.\Generated_Source\PSoC5/ADC_SAR_Seq_1_SAR.c **** *
 729:.\Generated_Source\PSoC5/ADC_SAR_Seq_1_SAR.c **** * Parameters:
 730:.\Generated_Source\PSoC5/ADC_SAR_Seq_1_SAR.c **** *  int16 adcCounts:  Result from the ADC conversion
 731:.\Generated_Source\PSoC5/ADC_SAR_Seq_1_SAR.c **** *
 732:.\Generated_Source\PSoC5/ADC_SAR_Seq_1_SAR.c **** * Return:
 733:.\Generated_Source\PSoC5/ADC_SAR_Seq_1_SAR.c **** *  int16 Result in mVolts
 734:.\Generated_Source\PSoC5/ADC_SAR_Seq_1_SAR.c **** *
 735:.\Generated_Source\PSoC5/ADC_SAR_Seq_1_SAR.c **** * Global Variables:
 736:.\Generated_Source\PSoC5/ADC_SAR_Seq_1_SAR.c **** *  ADC_SAR_Seq_1_SAR_offset variable used.
 737:.\Generated_Source\PSoC5/ADC_SAR_Seq_1_SAR.c **** *  ADC_SAR_Seq_1_SAR_countsPer10Volt variable used.
 738:.\Generated_Source\PSoC5/ADC_SAR_Seq_1_SAR.c **** *
 739:.\Generated_Source\PSoC5/ADC_SAR_Seq_1_SAR.c **** *******************************************************************************/
 740:.\Generated_Source\PSoC5/ADC_SAR_Seq_1_SAR.c **** int16 ADC_SAR_Seq_1_SAR_CountsTo_mVolts(int16 adcCounts)
 741:.\Generated_Source\PSoC5/ADC_SAR_Seq_1_SAR.c **** {
 886              		.loc 1 741 0
 887              		.cfi_startproc
 888              		@ args = 0, pretend = 0, frame = 16
 889              		@ frame_needed = 1, uses_anonymous_args = 0
 890              		@ link register save eliminated.
 891 0000 80B4     		push	{r7}
 892              	.LCFI40:
 893              		.cfi_def_cfa_offset 4
 894              		.cfi_offset 7, -4
 895 0002 85B0     		sub	sp, sp, #20
 896              	.LCFI41:
 897              		.cfi_def_cfa_offset 24
 898 0004 00AF     		add	r7, sp, #0
 899              	.LCFI42:
 900              		.cfi_def_cfa_register 7
 901 0006 0346     		mov	r3, r0
 902 0008 FB80     		strh	r3, [r7, #6]	@ movhi
 742:.\Generated_Source\PSoC5/ADC_SAR_Seq_1_SAR.c ****     int16 mVolts;
 743:.\Generated_Source\PSoC5/ADC_SAR_Seq_1_SAR.c ****     int32 countsPer10Volt;
 744:.\Generated_Source\PSoC5/ADC_SAR_Seq_1_SAR.c **** 
 745:.\Generated_Source\PSoC5/ADC_SAR_Seq_1_SAR.c ****     if(ADC_SAR_Seq_1_SAR_countsPerVolt != 0)
 903              		.loc 1 745 0
 904 000a 40F20003 		movw	r3, #:lower16:ADC_SAR_Seq_1_SAR_countsPerVolt
 905 000e C0F20003 		movt	r3, #:upper16:ADC_SAR_Seq_1_SAR_countsPerVolt
 906 0012 1B88     		ldrh	r3, [r3, #0]	@ movhi
 907 0014 9BB2     		uxth	r3, r3
ARM GAS  C:\Users\Brian\AppData\Local\Temp\ccVazoLc.s 			page 30


 908 0016 002B     		cmp	r3, #0
 909 0018 0ED0     		beq	.L36
 746:.\Generated_Source\PSoC5/ADC_SAR_Seq_1_SAR.c ****     {   /* Support obsolete method */
 747:.\Generated_Source\PSoC5/ADC_SAR_Seq_1_SAR.c ****         countsPer10Volt = (int32)ADC_SAR_Seq_1_SAR_countsPerVolt * 10;
 910              		.loc 1 747 0
 911 001a 40F20003 		movw	r3, #:lower16:ADC_SAR_Seq_1_SAR_countsPerVolt
 912 001e C0F20003 		movt	r3, #:upper16:ADC_SAR_Seq_1_SAR_countsPerVolt
 913 0022 1B88     		ldrh	r3, [r3, #0]	@ movhi
 914 0024 9BB2     		uxth	r3, r3
 915 0026 1AB2     		sxth	r2, r3
 916 0028 1346     		mov	r3, r2
 917 002a 4FEA8303 		lsl	r3, r3, #2
 918 002e 9B18     		adds	r3, r3, r2
 919 0030 4FEA4303 		lsl	r3, r3, #1
 920 0034 FB60     		str	r3, [r7, #12]
 921 0036 05E0     		b	.L37
 922              	.L36:
 748:.\Generated_Source\PSoC5/ADC_SAR_Seq_1_SAR.c ****     }
 749:.\Generated_Source\PSoC5/ADC_SAR_Seq_1_SAR.c ****     else
 750:.\Generated_Source\PSoC5/ADC_SAR_Seq_1_SAR.c ****     {
 751:.\Generated_Source\PSoC5/ADC_SAR_Seq_1_SAR.c ****         countsPer10Volt = ADC_SAR_Seq_1_SAR_countsPer10Volt;
 923              		.loc 1 751 0
 924 0038 40F20003 		movw	r3, #:lower16:ADC_SAR_Seq_1_SAR_countsPer10Volt
 925 003c C0F20003 		movt	r3, #:upper16:ADC_SAR_Seq_1_SAR_countsPer10Volt
 926 0040 1B68     		ldr	r3, [r3, #0]
 927 0042 FB60     		str	r3, [r7, #12]
 928              	.L37:
 752:.\Generated_Source\PSoC5/ADC_SAR_Seq_1_SAR.c ****     }
 753:.\Generated_Source\PSoC5/ADC_SAR_Seq_1_SAR.c **** 
 754:.\Generated_Source\PSoC5/ADC_SAR_Seq_1_SAR.c ****     /* Subtract ADC offset */
 755:.\Generated_Source\PSoC5/ADC_SAR_Seq_1_SAR.c ****     adcCounts -= ADC_SAR_Seq_1_SAR_offset;
 929              		.loc 1 755 0
 930 0044 FA88     		ldrh	r2, [r7, #6]
 931 0046 40F20003 		movw	r3, #:lower16:ADC_SAR_Seq_1_SAR_offset
 932 004a C0F20003 		movt	r3, #:upper16:ADC_SAR_Seq_1_SAR_offset
 933 004e 1B88     		ldrh	r3, [r3, #0]	@ movhi
 934 0050 9BB2     		uxth	r3, r3
 935 0052 9BB2     		uxth	r3, r3
 936 0054 D31A     		subs	r3, r2, r3
 937 0056 9BB2     		uxth	r3, r3
 938 0058 FB80     		strh	r3, [r7, #6]	@ movhi
 756:.\Generated_Source\PSoC5/ADC_SAR_Seq_1_SAR.c ****     /* Convert to millivolts with rounding */
 757:.\Generated_Source\PSoC5/ADC_SAR_Seq_1_SAR.c ****     mVolts = (int16)( (( (int32)adcCounts * ADC_SAR_Seq_1_SAR_10MV_COUNTS ) + ( (adcCounts > 0) ?
 939              		.loc 1 757 0
 940 005a B7F90630 		ldrsh	r3, [r7, #6]
 941 005e 42F21072 		movw	r2, #10000
 942 0062 02FB03F2 		mul	r2, r2, r3
 758:.\Generated_Source\PSoC5/ADC_SAR_Seq_1_SAR.c ****                        (countsPer10Volt / 2) : (-(countsPer10Volt / 2)) )) / countsPer10Volt);
 943              		.loc 1 758 0
 944 0066 B7F90630 		ldrsh	r3, [r7, #6]
 945 006a 002B     		cmp	r3, #0
 946 006c 06DD     		ble	.L38
 947              		.loc 1 758 0 is_stmt 0 discriminator 1
 948 006e FB68     		ldr	r3, [r7, #12]
 949 0070 4FEAD371 		lsr	r1, r3, #31
 950 0074 CB18     		adds	r3, r1, r3
 951 0076 4FEA6303 		asr	r3, r3, #1
ARM GAS  C:\Users\Brian\AppData\Local\Temp\ccVazoLc.s 			page 31


 952 007a 07E0     		b	.L39
 953              	.L38:
 954              		.loc 1 758 0 discriminator 2
 955 007c FB68     		ldr	r3, [r7, #12]
 956 007e 4FEAD371 		lsr	r1, r3, #31
 957 0082 CB18     		adds	r3, r1, r3
 958 0084 4FEA6303 		asr	r3, r3, #1
 959 0088 C3F10003 		rsb	r3, r3, #0
 960              	.L39:
 757:.\Generated_Source\PSoC5/ADC_SAR_Seq_1_SAR.c ****     mVolts = (int16)( (( (int32)adcCounts * ADC_SAR_Seq_1_SAR_10MV_COUNTS ) + ( (adcCounts > 0) ?
 961              		.loc 1 757 0 is_stmt 1
 962 008c D218     		adds	r2, r2, r3
 963              		.loc 1 758 0
 964 008e FB68     		ldr	r3, [r7, #12]
 965 0090 92FBF3F3 		sdiv	r3, r2, r3
 757:.\Generated_Source\PSoC5/ADC_SAR_Seq_1_SAR.c ****     mVolts = (int16)( (( (int32)adcCounts * ADC_SAR_Seq_1_SAR_10MV_COUNTS ) + ( (adcCounts > 0) ?
 966              		.loc 1 757 0
 967 0094 7B81     		strh	r3, [r7, #10]	@ movhi
 759:.\Generated_Source\PSoC5/ADC_SAR_Seq_1_SAR.c **** 
 760:.\Generated_Source\PSoC5/ADC_SAR_Seq_1_SAR.c ****     return( mVolts );
 968              		.loc 1 760 0
 969 0096 7B89     		ldrh	r3, [r7, #10]
 970 0098 1BB2     		sxth	r3, r3
 761:.\Generated_Source\PSoC5/ADC_SAR_Seq_1_SAR.c **** }
 971              		.loc 1 761 0
 972 009a 1846     		mov	r0, r3
 973 009c 07F11407 		add	r7, r7, #20
 974 00a0 BD46     		mov	sp, r7
 975 00a2 80BC     		pop	{r7}
 976 00a4 7047     		bx	lr
 977              		.cfi_endproc
 978              	.LFE15:
 979              		.size	ADC_SAR_Seq_1_SAR_CountsTo_mVolts, .-ADC_SAR_Seq_1_SAR_CountsTo_mVolts
 980              		.global	__aeabi_ldivmod
 981 00a6 00BF     		.section	.text.ADC_SAR_Seq_1_SAR_CountsTo_uVolts,"ax",%progbits
 982              		.align	2
 983              		.global	ADC_SAR_Seq_1_SAR_CountsTo_uVolts
 984              		.thumb
 985              		.thumb_func
 986              		.type	ADC_SAR_Seq_1_SAR_CountsTo_uVolts, %function
 987              	ADC_SAR_Seq_1_SAR_CountsTo_uVolts:
 988              	.LFB16:
 762:.\Generated_Source\PSoC5/ADC_SAR_Seq_1_SAR.c **** 
 763:.\Generated_Source\PSoC5/ADC_SAR_Seq_1_SAR.c **** 
 764:.\Generated_Source\PSoC5/ADC_SAR_Seq_1_SAR.c **** /*******************************************************************************
 765:.\Generated_Source\PSoC5/ADC_SAR_Seq_1_SAR.c **** * Function Name: ADC_SAR_Seq_1_SAR_CountsTo_uVolts
 766:.\Generated_Source\PSoC5/ADC_SAR_Seq_1_SAR.c **** ********************************************************************************
 767:.\Generated_Source\PSoC5/ADC_SAR_Seq_1_SAR.c **** *
 768:.\Generated_Source\PSoC5/ADC_SAR_Seq_1_SAR.c **** * Summary:
 769:.\Generated_Source\PSoC5/ADC_SAR_Seq_1_SAR.c **** *  Converts the ADC output to microvolts as a 32-bit integer.
 770:.\Generated_Source\PSoC5/ADC_SAR_Seq_1_SAR.c **** *
 771:.\Generated_Source\PSoC5/ADC_SAR_Seq_1_SAR.c **** * Parameters:
 772:.\Generated_Source\PSoC5/ADC_SAR_Seq_1_SAR.c **** *  int16 adcCounts: Result from the ADC conversion
 773:.\Generated_Source\PSoC5/ADC_SAR_Seq_1_SAR.c **** *
 774:.\Generated_Source\PSoC5/ADC_SAR_Seq_1_SAR.c **** * Return:
 775:.\Generated_Source\PSoC5/ADC_SAR_Seq_1_SAR.c **** *  int32 Result in micro Volts
 776:.\Generated_Source\PSoC5/ADC_SAR_Seq_1_SAR.c **** *
ARM GAS  C:\Users\Brian\AppData\Local\Temp\ccVazoLc.s 			page 32


 777:.\Generated_Source\PSoC5/ADC_SAR_Seq_1_SAR.c **** * Global Variables:
 778:.\Generated_Source\PSoC5/ADC_SAR_Seq_1_SAR.c **** *  ADC_SAR_Seq_1_SAR_offset variable used.
 779:.\Generated_Source\PSoC5/ADC_SAR_Seq_1_SAR.c **** *  ADC_SAR_Seq_1_SAR_countsPer10Volt used to convert ADC counts to uVolts.
 780:.\Generated_Source\PSoC5/ADC_SAR_Seq_1_SAR.c **** *
 781:.\Generated_Source\PSoC5/ADC_SAR_Seq_1_SAR.c **** *******************************************************************************/
 782:.\Generated_Source\PSoC5/ADC_SAR_Seq_1_SAR.c **** int32 ADC_SAR_Seq_1_SAR_CountsTo_uVolts(int16 adcCounts)
 783:.\Generated_Source\PSoC5/ADC_SAR_Seq_1_SAR.c **** {
 989              		.loc 1 783 0
 990              		.cfi_startproc
 991              		@ args = 0, pretend = 0, frame = 24
 992              		@ frame_needed = 1, uses_anonymous_args = 0
 993 0000 90B5     		push	{r4, r7, lr}
 994              	.LCFI43:
 995              		.cfi_def_cfa_offset 12
 996              		.cfi_offset 4, -12
 997              		.cfi_offset 7, -8
 998              		.cfi_offset 14, -4
 999 0002 87B0     		sub	sp, sp, #28
 1000              	.LCFI44:
 1001              		.cfi_def_cfa_offset 40
 1002 0004 00AF     		add	r7, sp, #0
 1003              	.LCFI45:
 1004              		.cfi_def_cfa_register 7
 1005 0006 0346     		mov	r3, r0
 1006 0008 FB80     		strh	r3, [r7, #6]	@ movhi
 784:.\Generated_Source\PSoC5/ADC_SAR_Seq_1_SAR.c **** 
 785:.\Generated_Source\PSoC5/ADC_SAR_Seq_1_SAR.c ****     int64 uVolts;
 786:.\Generated_Source\PSoC5/ADC_SAR_Seq_1_SAR.c ****     int32 countsPer10Volt;
 787:.\Generated_Source\PSoC5/ADC_SAR_Seq_1_SAR.c **** 
 788:.\Generated_Source\PSoC5/ADC_SAR_Seq_1_SAR.c ****     if(ADC_SAR_Seq_1_SAR_countsPerVolt != 0)
 1007              		.loc 1 788 0
 1008 000a 40F20003 		movw	r3, #:lower16:ADC_SAR_Seq_1_SAR_countsPerVolt
 1009 000e C0F20003 		movt	r3, #:upper16:ADC_SAR_Seq_1_SAR_countsPerVolt
 1010 0012 1B88     		ldrh	r3, [r3, #0]	@ movhi
 1011 0014 9BB2     		uxth	r3, r3
 1012 0016 002B     		cmp	r3, #0
 1013 0018 0ED0     		beq	.L42
 789:.\Generated_Source\PSoC5/ADC_SAR_Seq_1_SAR.c ****     {   /* Support obsolete method */
 790:.\Generated_Source\PSoC5/ADC_SAR_Seq_1_SAR.c ****         countsPer10Volt = (int32)ADC_SAR_Seq_1_SAR_countsPerVolt * 10;
 1014              		.loc 1 790 0
 1015 001a 40F20003 		movw	r3, #:lower16:ADC_SAR_Seq_1_SAR_countsPerVolt
 1016 001e C0F20003 		movt	r3, #:upper16:ADC_SAR_Seq_1_SAR_countsPerVolt
 1017 0022 1B88     		ldrh	r3, [r3, #0]	@ movhi
 1018 0024 9BB2     		uxth	r3, r3
 1019 0026 1AB2     		sxth	r2, r3
 1020 0028 1346     		mov	r3, r2
 1021 002a 4FEA8303 		lsl	r3, r3, #2
 1022 002e 9B18     		adds	r3, r3, r2
 1023 0030 4FEA4303 		lsl	r3, r3, #1
 1024 0034 7B61     		str	r3, [r7, #20]
 1025 0036 05E0     		b	.L43
 1026              	.L42:
 791:.\Generated_Source\PSoC5/ADC_SAR_Seq_1_SAR.c ****     }
 792:.\Generated_Source\PSoC5/ADC_SAR_Seq_1_SAR.c ****     else
 793:.\Generated_Source\PSoC5/ADC_SAR_Seq_1_SAR.c ****     {
 794:.\Generated_Source\PSoC5/ADC_SAR_Seq_1_SAR.c ****         countsPer10Volt = ADC_SAR_Seq_1_SAR_countsPer10Volt;
 1027              		.loc 1 794 0
ARM GAS  C:\Users\Brian\AppData\Local\Temp\ccVazoLc.s 			page 33


 1028 0038 40F20003 		movw	r3, #:lower16:ADC_SAR_Seq_1_SAR_countsPer10Volt
 1029 003c C0F20003 		movt	r3, #:upper16:ADC_SAR_Seq_1_SAR_countsPer10Volt
 1030 0040 1B68     		ldr	r3, [r3, #0]
 1031 0042 7B61     		str	r3, [r7, #20]
 1032              	.L43:
 795:.\Generated_Source\PSoC5/ADC_SAR_Seq_1_SAR.c ****     }
 796:.\Generated_Source\PSoC5/ADC_SAR_Seq_1_SAR.c **** 
 797:.\Generated_Source\PSoC5/ADC_SAR_Seq_1_SAR.c ****     /* Subtract ADC offset */
 798:.\Generated_Source\PSoC5/ADC_SAR_Seq_1_SAR.c ****     adcCounts -= ADC_SAR_Seq_1_SAR_offset;
 1033              		.loc 1 798 0
 1034 0044 FA88     		ldrh	r2, [r7, #6]
 1035 0046 40F20003 		movw	r3, #:lower16:ADC_SAR_Seq_1_SAR_offset
 1036 004a C0F20003 		movt	r3, #:upper16:ADC_SAR_Seq_1_SAR_offset
 1037 004e 1B88     		ldrh	r3, [r3, #0]	@ movhi
 1038 0050 9BB2     		uxth	r3, r3
 1039 0052 9BB2     		uxth	r3, r3
 1040 0054 D31A     		subs	r3, r2, r3
 1041 0056 9BB2     		uxth	r3, r3
 1042 0058 FB80     		strh	r3, [r7, #6]	@ movhi
 799:.\Generated_Source\PSoC5/ADC_SAR_Seq_1_SAR.c ****     /* To convert adcCounts to microVolts it is required to be multiplied
 800:.\Generated_Source\PSoC5/ADC_SAR_Seq_1_SAR.c ****     *  on 10 million and later divide on gain in counts per 10V.
 801:.\Generated_Source\PSoC5/ADC_SAR_Seq_1_SAR.c ****     */
 802:.\Generated_Source\PSoC5/ADC_SAR_Seq_1_SAR.c ****     uVolts = (( (int64)adcCounts * ADC_SAR_Seq_1_SAR_10UV_COUNTS ) / countsPer10Volt);
 1043              		.loc 1 802 0
 1044 005a B7F90620 		ldrsh	r2, [r7, #6]
 1045 005e 4FEAE273 		asr	r3, r2, #31
 1046 0062 49F28061 		movw	r1, #38528
 1047 0066 C0F29801 		movt	r1, 152
 1048 006a 01FB03F0 		mul	r0, r1, r3
 1049 006e 4FF00001 		mov	r1, #0
 1050 0072 01FB02F1 		mul	r1, r1, r2
 1051 0076 4418     		adds	r4, r0, r1
 1052 0078 49F28061 		movw	r1, #38528
 1053 007c C0F29801 		movt	r1, 152
 1054 0080 A2FB0101 		umull	r0, r1, r2, r1
 1055 0084 6318     		adds	r3, r4, r1
 1056 0086 1946     		mov	r1, r3
 1057 0088 7C69     		ldr	r4, [r7, #20]
 1058 008a 2246     		mov	r2, r4
 1059 008c 4FEAE273 		asr	r3, r2, #31
 1060 0090 FFF7FEFF 		bl	__aeabi_ldivmod
 1061 0094 0246     		mov	r2, r0
 1062 0096 0B46     		mov	r3, r1
 1063 0098 C7E90223 		strd	r2, [r7, #8]
 803:.\Generated_Source\PSoC5/ADC_SAR_Seq_1_SAR.c **** 
 804:.\Generated_Source\PSoC5/ADC_SAR_Seq_1_SAR.c ****     return( uVolts );
 1064              		.loc 1 804 0
 1065 009c BB68     		ldr	r3, [r7, #8]
 805:.\Generated_Source\PSoC5/ADC_SAR_Seq_1_SAR.c **** }
 1066              		.loc 1 805 0
 1067 009e 1846     		mov	r0, r3
 1068 00a0 07F11C07 		add	r7, r7, #28
 1069 00a4 BD46     		mov	sp, r7
 1070 00a6 90BD     		pop	{r4, r7, pc}
 1071              		.cfi_endproc
 1072              	.LFE16:
 1073              		.size	ADC_SAR_Seq_1_SAR_CountsTo_uVolts, .-ADC_SAR_Seq_1_SAR_CountsTo_uVolts
ARM GAS  C:\Users\Brian\AppData\Local\Temp\ccVazoLc.s 			page 34


 1074              		.global	__aeabi_i2f
 1075              		.global	__aeabi_fmul
 1076              		.global	__aeabi_fdiv
 1077              		.section	.text.ADC_SAR_Seq_1_SAR_CountsTo_Volts,"ax",%progbits
 1078              		.align	2
 1079              		.global	ADC_SAR_Seq_1_SAR_CountsTo_Volts
 1080              		.thumb
 1081              		.thumb_func
 1082              		.type	ADC_SAR_Seq_1_SAR_CountsTo_Volts, %function
 1083              	ADC_SAR_Seq_1_SAR_CountsTo_Volts:
 1084              	.LFB17:
 806:.\Generated_Source\PSoC5/ADC_SAR_Seq_1_SAR.c **** 
 807:.\Generated_Source\PSoC5/ADC_SAR_Seq_1_SAR.c **** 
 808:.\Generated_Source\PSoC5/ADC_SAR_Seq_1_SAR.c **** /*******************************************************************************
 809:.\Generated_Source\PSoC5/ADC_SAR_Seq_1_SAR.c **** * Function Name: ADC_SAR_Seq_1_SAR_CountsTo_Volts
 810:.\Generated_Source\PSoC5/ADC_SAR_Seq_1_SAR.c **** ********************************************************************************
 811:.\Generated_Source\PSoC5/ADC_SAR_Seq_1_SAR.c **** *
 812:.\Generated_Source\PSoC5/ADC_SAR_Seq_1_SAR.c **** * Summary:
 813:.\Generated_Source\PSoC5/ADC_SAR_Seq_1_SAR.c **** *  Converts the ADC output to volts as a floating-point number.
 814:.\Generated_Source\PSoC5/ADC_SAR_Seq_1_SAR.c **** *
 815:.\Generated_Source\PSoC5/ADC_SAR_Seq_1_SAR.c **** * Parameters:
 816:.\Generated_Source\PSoC5/ADC_SAR_Seq_1_SAR.c **** *  int16 adcCounts: Result from the ADC conversion
 817:.\Generated_Source\PSoC5/ADC_SAR_Seq_1_SAR.c **** *
 818:.\Generated_Source\PSoC5/ADC_SAR_Seq_1_SAR.c **** * Return:
 819:.\Generated_Source\PSoC5/ADC_SAR_Seq_1_SAR.c **** *  float Result in Volts
 820:.\Generated_Source\PSoC5/ADC_SAR_Seq_1_SAR.c **** *
 821:.\Generated_Source\PSoC5/ADC_SAR_Seq_1_SAR.c **** * Global Variables:
 822:.\Generated_Source\PSoC5/ADC_SAR_Seq_1_SAR.c **** *  ADC_SAR_Seq_1_SAR_offset variable used.
 823:.\Generated_Source\PSoC5/ADC_SAR_Seq_1_SAR.c **** *  ADC_SAR_Seq_1_SAR_countsPer10Volt used to convert ADC counts to Volts.
 824:.\Generated_Source\PSoC5/ADC_SAR_Seq_1_SAR.c **** *
 825:.\Generated_Source\PSoC5/ADC_SAR_Seq_1_SAR.c **** *******************************************************************************/
 826:.\Generated_Source\PSoC5/ADC_SAR_Seq_1_SAR.c **** float32 ADC_SAR_Seq_1_SAR_CountsTo_Volts(int16 adcCounts)
 827:.\Generated_Source\PSoC5/ADC_SAR_Seq_1_SAR.c **** {
 1085              		.loc 1 827 0
 1086              		.cfi_startproc
 1087              		@ args = 0, pretend = 0, frame = 16
 1088              		@ frame_needed = 1, uses_anonymous_args = 0
 1089 0000 90B5     		push	{r4, r7, lr}
 1090              	.LCFI46:
 1091              		.cfi_def_cfa_offset 12
 1092              		.cfi_offset 4, -12
 1093              		.cfi_offset 7, -8
 1094              		.cfi_offset 14, -4
 1095 0002 85B0     		sub	sp, sp, #20
 1096              	.LCFI47:
 1097              		.cfi_def_cfa_offset 32
 1098 0004 00AF     		add	r7, sp, #0
 1099              	.LCFI48:
 1100              		.cfi_def_cfa_register 7
 1101 0006 0346     		mov	r3, r0
 1102 0008 FB80     		strh	r3, [r7, #6]	@ movhi
 828:.\Generated_Source\PSoC5/ADC_SAR_Seq_1_SAR.c ****     float32 volts;
 829:.\Generated_Source\PSoC5/ADC_SAR_Seq_1_SAR.c ****     int32 countsPer10Volt;
 830:.\Generated_Source\PSoC5/ADC_SAR_Seq_1_SAR.c **** 
 831:.\Generated_Source\PSoC5/ADC_SAR_Seq_1_SAR.c ****     if(ADC_SAR_Seq_1_SAR_countsPerVolt != 0)
 1103              		.loc 1 831 0
 1104 000a 40F20003 		movw	r3, #:lower16:ADC_SAR_Seq_1_SAR_countsPerVolt
ARM GAS  C:\Users\Brian\AppData\Local\Temp\ccVazoLc.s 			page 35


 1105 000e C0F20003 		movt	r3, #:upper16:ADC_SAR_Seq_1_SAR_countsPerVolt
 1106 0012 1B88     		ldrh	r3, [r3, #0]	@ movhi
 1107 0014 9BB2     		uxth	r3, r3
 1108 0016 002B     		cmp	r3, #0
 1109 0018 0ED0     		beq	.L46
 832:.\Generated_Source\PSoC5/ADC_SAR_Seq_1_SAR.c ****     {   /* Support obsolete method */
 833:.\Generated_Source\PSoC5/ADC_SAR_Seq_1_SAR.c ****         countsPer10Volt = (int32)ADC_SAR_Seq_1_SAR_countsPerVolt * 10;
 1110              		.loc 1 833 0
 1111 001a 40F20003 		movw	r3, #:lower16:ADC_SAR_Seq_1_SAR_countsPerVolt
 1112 001e C0F20003 		movt	r3, #:upper16:ADC_SAR_Seq_1_SAR_countsPerVolt
 1113 0022 1B88     		ldrh	r3, [r3, #0]	@ movhi
 1114 0024 9BB2     		uxth	r3, r3
 1115 0026 1AB2     		sxth	r2, r3
 1116 0028 1346     		mov	r3, r2
 1117 002a 4FEA8303 		lsl	r3, r3, #2
 1118 002e 9B18     		adds	r3, r3, r2
 1119 0030 4FEA4303 		lsl	r3, r3, #1
 1120 0034 FB60     		str	r3, [r7, #12]
 1121 0036 05E0     		b	.L47
 1122              	.L46:
 834:.\Generated_Source\PSoC5/ADC_SAR_Seq_1_SAR.c ****     }
 835:.\Generated_Source\PSoC5/ADC_SAR_Seq_1_SAR.c ****     else
 836:.\Generated_Source\PSoC5/ADC_SAR_Seq_1_SAR.c ****     {
 837:.\Generated_Source\PSoC5/ADC_SAR_Seq_1_SAR.c ****         countsPer10Volt = ADC_SAR_Seq_1_SAR_countsPer10Volt;
 1123              		.loc 1 837 0
 1124 0038 40F20003 		movw	r3, #:lower16:ADC_SAR_Seq_1_SAR_countsPer10Volt
 1125 003c C0F20003 		movt	r3, #:upper16:ADC_SAR_Seq_1_SAR_countsPer10Volt
 1126 0040 1B68     		ldr	r3, [r3, #0]
 1127 0042 FB60     		str	r3, [r7, #12]
 1128              	.L47:
 838:.\Generated_Source\PSoC5/ADC_SAR_Seq_1_SAR.c ****     }
 839:.\Generated_Source\PSoC5/ADC_SAR_Seq_1_SAR.c **** 
 840:.\Generated_Source\PSoC5/ADC_SAR_Seq_1_SAR.c ****     /* Subtract ADC offset */
 841:.\Generated_Source\PSoC5/ADC_SAR_Seq_1_SAR.c ****     adcCounts -= ADC_SAR_Seq_1_SAR_offset;
 1129              		.loc 1 841 0
 1130 0044 FA88     		ldrh	r2, [r7, #6]
 1131 0046 40F20003 		movw	r3, #:lower16:ADC_SAR_Seq_1_SAR_offset
 1132 004a C0F20003 		movt	r3, #:upper16:ADC_SAR_Seq_1_SAR_offset
 1133 004e 1B88     		ldrh	r3, [r3, #0]	@ movhi
 1134 0050 9BB2     		uxth	r3, r3
 1135 0052 9BB2     		uxth	r3, r3
 1136 0054 D31A     		subs	r3, r2, r3
 1137 0056 9BB2     		uxth	r3, r3
 1138 0058 FB80     		strh	r3, [r7, #6]	@ movhi
 842:.\Generated_Source\PSoC5/ADC_SAR_Seq_1_SAR.c **** 
 843:.\Generated_Source\PSoC5/ADC_SAR_Seq_1_SAR.c ****     volts = ((float32)adcCounts * ADC_SAR_Seq_1_SAR_10V_COUNTS) / (float32)countsPer10Volt;
 1139              		.loc 1 843 0
 1140 005a B7F90630 		ldrsh	r3, [r7, #6]
 1141 005e 1846     		mov	r0, r3
 1142 0060 FFF7FEFF 		bl	__aeabi_i2f
 1143 0064 0346     		mov	r3, r0
 1144 0066 1846     		mov	r0, r3
 1145 0068 4FF00001 		mov	r1, #0
 1146 006c C4F22011 		movt	r1, 16672
 1147 0070 FFF7FEFF 		bl	__aeabi_fmul
 1148 0074 0346     		mov	r3, r0
 1149 0076 1C46     		mov	r4, r3
ARM GAS  C:\Users\Brian\AppData\Local\Temp\ccVazoLc.s 			page 36


 1150 0078 F868     		ldr	r0, [r7, #12]
 1151 007a FFF7FEFF 		bl	__aeabi_i2f
 1152 007e 0346     		mov	r3, r0
 1153 0080 2046     		mov	r0, r4
 1154 0082 1946     		mov	r1, r3
 1155 0084 FFF7FEFF 		bl	__aeabi_fdiv
 1156 0088 0346     		mov	r3, r0
 1157 008a BB60     		str	r3, [r7, #8]	@ float
 844:.\Generated_Source\PSoC5/ADC_SAR_Seq_1_SAR.c **** 
 845:.\Generated_Source\PSoC5/ADC_SAR_Seq_1_SAR.c ****     return( volts );
 1158              		.loc 1 845 0
 1159 008c BB68     		ldr	r3, [r7, #8]	@ float
 846:.\Generated_Source\PSoC5/ADC_SAR_Seq_1_SAR.c **** }
 1160              		.loc 1 846 0
 1161 008e 1846     		mov	r0, r3
 1162 0090 07F11407 		add	r7, r7, #20
 1163 0094 BD46     		mov	sp, r7
 1164 0096 90BD     		pop	{r4, r7, pc}
 1165              		.cfi_endproc
 1166              	.LFE17:
 1167              		.size	ADC_SAR_Seq_1_SAR_CountsTo_Volts, .-ADC_SAR_Seq_1_SAR_CountsTo_Volts
 1168              		.text
 1169              	.Letext0:
 1170              		.file 2 ".\\Generated_Source\\PSoC5\\cytypes.h"