ARM GAS  C:\Users\Brian\AppData\Local\Temp\ccjAvsdg.s 			page 1


   1              		.syntax unified
   2              		.cpu cortex-m3
   3              		.fpu softvfp
   4              		.eabi_attribute 20, 1
   5              		.eabi_attribute 21, 1
   6              		.eabi_attribute 23, 3
   7              		.eabi_attribute 24, 1
   8              		.eabi_attribute 25, 1
   9              		.eabi_attribute 26, 1
  10              		.eabi_attribute 30, 6
  11              		.eabi_attribute 34, 1
  12              		.eabi_attribute 18, 4
  13              		.thumb
  14              		.file	"ADC_SAR_Seq_1.c"
  15              		.text
  16              	.Ltext0:
  17              		.cfi_sections	.debug_frame
  18              		.bss
  19              		.align	2
  20              	ADC_SAR_Seq_1_tempArray:
  21 0000 00000000 		.space	20
  21      00000000 
  21      00000000 
  21      00000000 
  21      00000000 
  22              		.comm	ADC_SAR_Seq_1_finalArray,20,4
  23              		.global	ADC_SAR_Seq_1_initVar
  24              		.align	2
  25              		.type	ADC_SAR_Seq_1_initVar, %object
  26              		.size	ADC_SAR_Seq_1_initVar, 4
  27              	ADC_SAR_Seq_1_initVar:
  28 0014 00000000 		.space	4
  29              	ADC_SAR_Seq_1_tempChan:
  30 0018 00       		.space	1
  31              	ADC_SAR_Seq_1_finalChan:
  32 0019 00       		.space	1
  33              	ADC_SAR_Seq_1_tempTD:
  34 001a 00       		.space	1
  35              	ADC_SAR_Seq_1_finalTD:
  36 001b 00       		.space	1
  37              		.section	.text.ADC_SAR_Seq_1_TempBufDmaInit,"ax",%progbits
  38              		.align	2
  39              		.thumb
  40              		.thumb_func
  41              		.type	ADC_SAR_Seq_1_TempBufDmaInit, %function
  42              	ADC_SAR_Seq_1_TempBufDmaInit:
  43              	.LFB0:
  44              		.file 1 ".\\Generated_Source\\PSoC5\\ADC_SAR_Seq_1.c"
   1:.\Generated_Source\PSoC5/ADC_SAR_Seq_1.c **** /*******************************************************************************
   2:.\Generated_Source\PSoC5/ADC_SAR_Seq_1.c **** * File Name: ADC_SAR_Seq_1.c
   3:.\Generated_Source\PSoC5/ADC_SAR_Seq_1.c **** * Version 1.10
   4:.\Generated_Source\PSoC5/ADC_SAR_Seq_1.c **** *
   5:.\Generated_Source\PSoC5/ADC_SAR_Seq_1.c **** * Description:
   6:.\Generated_Source\PSoC5/ADC_SAR_Seq_1.c **** *  This file provides the API functionality of the ADC SAR Sequencer Component
   7:.\Generated_Source\PSoC5/ADC_SAR_Seq_1.c **** *
   8:.\Generated_Source\PSoC5/ADC_SAR_Seq_1.c **** * Note:
   9:.\Generated_Source\PSoC5/ADC_SAR_Seq_1.c **** *  None
ARM GAS  C:\Users\Brian\AppData\Local\Temp\ccjAvsdg.s 			page 2


  10:.\Generated_Source\PSoC5/ADC_SAR_Seq_1.c **** *
  11:.\Generated_Source\PSoC5/ADC_SAR_Seq_1.c **** ********************************************************************************
  12:.\Generated_Source\PSoC5/ADC_SAR_Seq_1.c **** * Copyright 2012-2013, Cypress Semiconductor Corporation.  All rights reserved.
  13:.\Generated_Source\PSoC5/ADC_SAR_Seq_1.c **** * You may use this file only in accordance with the license, terms, conditions,
  14:.\Generated_Source\PSoC5/ADC_SAR_Seq_1.c **** * disclaimers, and limitations in the end user license agreement accompanying
  15:.\Generated_Source\PSoC5/ADC_SAR_Seq_1.c **** * the software package with which this file was provided.
  16:.\Generated_Source\PSoC5/ADC_SAR_Seq_1.c **** *******************************************************************************/
  17:.\Generated_Source\PSoC5/ADC_SAR_Seq_1.c **** 
  18:.\Generated_Source\PSoC5/ADC_SAR_Seq_1.c **** #include "ADC_SAR_Seq_1.h"
  19:.\Generated_Source\PSoC5/ADC_SAR_Seq_1.c **** #include "ADC_SAR_Seq_1_SAR.h"
  20:.\Generated_Source\PSoC5/ADC_SAR_Seq_1.c **** #if(ADC_SAR_Seq_1_IRQ_REMOVE == 0u)
  21:.\Generated_Source\PSoC5/ADC_SAR_Seq_1.c ****     #include <ADC_SAR_Seq_1_IRQ.h>
  22:.\Generated_Source\PSoC5/ADC_SAR_Seq_1.c **** #endif   /* End ADC_SAR_Seq_1_IRQ_REMOVE */
  23:.\Generated_Source\PSoC5/ADC_SAR_Seq_1.c **** 
  24:.\Generated_Source\PSoC5/ADC_SAR_Seq_1.c **** static void ADC_SAR_Seq_1_TempBufDmaInit(void);
  25:.\Generated_Source\PSoC5/ADC_SAR_Seq_1.c **** static void ADC_SAR_Seq_1_TempBufDmaRelease(void);
  26:.\Generated_Source\PSoC5/ADC_SAR_Seq_1.c **** 
  27:.\Generated_Source\PSoC5/ADC_SAR_Seq_1.c **** static void ADC_SAR_Seq_1_FinalBufDmaInit(void);
  28:.\Generated_Source\PSoC5/ADC_SAR_Seq_1.c **** static void ADC_SAR_Seq_1_FinalBufDmaRelease(void);
  29:.\Generated_Source\PSoC5/ADC_SAR_Seq_1.c **** 
  30:.\Generated_Source\PSoC5/ADC_SAR_Seq_1.c **** static int16 ADC_SAR_Seq_1_tempArray[ADC_SAR_Seq_1_NUMBER_OF_CHANNELS];
  31:.\Generated_Source\PSoC5/ADC_SAR_Seq_1.c **** int16  ADC_SAR_Seq_1_finalArray[ADC_SAR_Seq_1_NUMBER_OF_CHANNELS];
  32:.\Generated_Source\PSoC5/ADC_SAR_Seq_1.c **** uint32 ADC_SAR_Seq_1_initVar = 0u;
  33:.\Generated_Source\PSoC5/ADC_SAR_Seq_1.c **** static uint8 ADC_SAR_Seq_1_tempChan;
  34:.\Generated_Source\PSoC5/ADC_SAR_Seq_1.c **** static uint8 ADC_SAR_Seq_1_finalChan;
  35:.\Generated_Source\PSoC5/ADC_SAR_Seq_1.c **** static uint8 ADC_SAR_Seq_1_tempTD;
  36:.\Generated_Source\PSoC5/ADC_SAR_Seq_1.c **** static uint8 ADC_SAR_Seq_1_finalTD;
  37:.\Generated_Source\PSoC5/ADC_SAR_Seq_1.c **** 
  38:.\Generated_Source\PSoC5/ADC_SAR_Seq_1.c **** 
  39:.\Generated_Source\PSoC5/ADC_SAR_Seq_1.c **** /*******************************************************************************
  40:.\Generated_Source\PSoC5/ADC_SAR_Seq_1.c **** * Function Name: ADC_SAR_Seq_1_TempBufDmaInit()
  41:.\Generated_Source\PSoC5/ADC_SAR_Seq_1.c **** ********************************************************************************
  42:.\Generated_Source\PSoC5/ADC_SAR_Seq_1.c **** *
  43:.\Generated_Source\PSoC5/ADC_SAR_Seq_1.c **** * Summary:
  44:.\Generated_Source\PSoC5/ADC_SAR_Seq_1.c **** *  Provides initialization procedure for the TempBuf DMA
  45:.\Generated_Source\PSoC5/ADC_SAR_Seq_1.c **** *
  46:.\Generated_Source\PSoC5/ADC_SAR_Seq_1.c **** * Parameters:
  47:.\Generated_Source\PSoC5/ADC_SAR_Seq_1.c **** *  None.
  48:.\Generated_Source\PSoC5/ADC_SAR_Seq_1.c **** *
  49:.\Generated_Source\PSoC5/ADC_SAR_Seq_1.c **** * Return:
  50:.\Generated_Source\PSoC5/ADC_SAR_Seq_1.c **** *  None.
  51:.\Generated_Source\PSoC5/ADC_SAR_Seq_1.c **** *
  52:.\Generated_Source\PSoC5/ADC_SAR_Seq_1.c **** * Side Effects:
  53:.\Generated_Source\PSoC5/ADC_SAR_Seq_1.c **** *  None.
  54:.\Generated_Source\PSoC5/ADC_SAR_Seq_1.c **** *
  55:.\Generated_Source\PSoC5/ADC_SAR_Seq_1.c **** * Reentrant:
  56:.\Generated_Source\PSoC5/ADC_SAR_Seq_1.c **** *  No.
  57:.\Generated_Source\PSoC5/ADC_SAR_Seq_1.c **** *
  58:.\Generated_Source\PSoC5/ADC_SAR_Seq_1.c **** *******************************************************************************/
  59:.\Generated_Source\PSoC5/ADC_SAR_Seq_1.c **** static void ADC_SAR_Seq_1_TempBufDmaInit(void)
  60:.\Generated_Source\PSoC5/ADC_SAR_Seq_1.c **** {
  45              		.loc 1 60 0
  46              		.cfi_startproc
  47              		@ args = 0, pretend = 0, frame = 0
  48              		@ frame_needed = 1, uses_anonymous_args = 0
  49 0000 80B5     		push	{r7, lr}
  50              	.LCFI0:
ARM GAS  C:\Users\Brian\AppData\Local\Temp\ccjAvsdg.s 			page 3


  51              		.cfi_def_cfa_offset 8
  52              		.cfi_offset 7, -8
  53              		.cfi_offset 14, -4
  54 0002 00AF     		add	r7, sp, #0
  55              	.LCFI1:
  56              		.cfi_def_cfa_register 7
  61:.\Generated_Source\PSoC5/ADC_SAR_Seq_1.c ****     ADC_SAR_Seq_1_tempTD = CyDmaTdAllocate();
  57              		.loc 1 61 0
  58 0004 FFF7FEFF 		bl	CyDmaTdAllocate
  59 0008 0346     		mov	r3, r0
  60 000a 1A46     		mov	r2, r3
  61 000c 40F20003 		movw	r3, #:lower16:ADC_SAR_Seq_1_tempTD
  62 0010 C0F20003 		movt	r3, #:upper16:ADC_SAR_Seq_1_tempTD
  63 0014 1A70     		strb	r2, [r3, #0]
  62:.\Generated_Source\PSoC5/ADC_SAR_Seq_1.c **** 
  63:.\Generated_Source\PSoC5/ADC_SAR_Seq_1.c ****     /* Configure this Td as follows:
  64:.\Generated_Source\PSoC5/ADC_SAR_Seq_1.c ****     *  - The TD is looping on itself
  65:.\Generated_Source\PSoC5/ADC_SAR_Seq_1.c ****     *  - Increment the destination address, but not the source address
  66:.\Generated_Source\PSoC5/ADC_SAR_Seq_1.c ****     */
  67:.\Generated_Source\PSoC5/ADC_SAR_Seq_1.c ****     (void) CyDmaTdSetConfiguration(ADC_SAR_Seq_1_tempTD, ADC_SAR_Seq_1_TEMP_TRANSFER_COUNT,
  64              		.loc 1 67 0
  65 0016 40F20003 		movw	r3, #:lower16:ADC_SAR_Seq_1_tempTD
  66 001a C0F20003 		movt	r3, #:upper16:ADC_SAR_Seq_1_tempTD
  67 001e 1A78     		ldrb	r2, [r3, #0]	@ zero_extendqisi2
  68 0020 40F20003 		movw	r3, #:lower16:ADC_SAR_Seq_1_tempTD
  69 0024 C0F20003 		movt	r3, #:upper16:ADC_SAR_Seq_1_tempTD
  70 0028 1B78     		ldrb	r3, [r3, #0]	@ zero_extendqisi2
  71 002a 1046     		mov	r0, r2
  72 002c 4FF01401 		mov	r1, #20
  73 0030 1A46     		mov	r2, r3
  74 0032 4FF00603 		mov	r3, #6
  75 0036 FFF7FEFF 		bl	CyDmaTdSetConfiguration
  68:.\Generated_Source\PSoC5/ADC_SAR_Seq_1.c ****         ADC_SAR_Seq_1_tempTD, ((uint8)ADC_SAR_Seq_1_TempBuf__TD_TERMOUT_EN | (uint8)TD_INC_DST_ADR)
  69:.\Generated_Source\PSoC5/ADC_SAR_Seq_1.c **** 
  70:.\Generated_Source\PSoC5/ADC_SAR_Seq_1.c ****     /* From the SAR to the TempArray */
  71:.\Generated_Source\PSoC5/ADC_SAR_Seq_1.c ****     (void) CyDmaTdSetAddress(ADC_SAR_Seq_1_tempTD, (uint16)(LO16((uint32)ADC_SAR_Seq_1_SAR_DATA_ADD
  76              		.loc 1 71 0
  77 003a 40F20003 		movw	r3, #:lower16:ADC_SAR_Seq_1_tempTD
  78 003e C0F20003 		movt	r3, #:upper16:ADC_SAR_Seq_1_tempTD
  79 0042 1A78     		ldrb	r2, [r3, #0]	@ zero_extendqisi2
  80 0044 40F20003 		movw	r3, #:lower16:ADC_SAR_Seq_1_tempArray
  81 0048 C0F20003 		movt	r3, #:upper16:ADC_SAR_Seq_1_tempArray
  82 004c 9BB2     		uxth	r3, r3
  83 004e 1046     		mov	r0, r2
  84 0050 45F6A031 		movw	r1, #23456
  85 0054 1A46     		mov	r2, r3
  86 0056 FFF7FEFF 		bl	CyDmaTdSetAddress
  72:.\Generated_Source\PSoC5/ADC_SAR_Seq_1.c ****         (uint16)(LO16((uint32)ADC_SAR_Seq_1_tempArray)));
  73:.\Generated_Source\PSoC5/ADC_SAR_Seq_1.c **** 
  74:.\Generated_Source\PSoC5/ADC_SAR_Seq_1.c ****     /* Associate the TD with the channel */
  75:.\Generated_Source\PSoC5/ADC_SAR_Seq_1.c ****     (void) CyDmaChSetInitialTd(ADC_SAR_Seq_1_tempChan, ADC_SAR_Seq_1_tempTD);
  87              		.loc 1 75 0
  88 005a 40F20003 		movw	r3, #:lower16:ADC_SAR_Seq_1_tempChan
  89 005e C0F20003 		movt	r3, #:upper16:ADC_SAR_Seq_1_tempChan
  90 0062 1A78     		ldrb	r2, [r3, #0]	@ zero_extendqisi2
  91 0064 40F20003 		movw	r3, #:lower16:ADC_SAR_Seq_1_tempTD
  92 0068 C0F20003 		movt	r3, #:upper16:ADC_SAR_Seq_1_tempTD
ARM GAS  C:\Users\Brian\AppData\Local\Temp\ccjAvsdg.s 			page 4


  93 006c 1B78     		ldrb	r3, [r3, #0]	@ zero_extendqisi2
  94 006e 1046     		mov	r0, r2
  95 0070 1946     		mov	r1, r3
  96 0072 FFF7FEFF 		bl	CyDmaChSetInitialTd
  76:.\Generated_Source\PSoC5/ADC_SAR_Seq_1.c **** }
  97              		.loc 1 76 0
  98 0076 80BD     		pop	{r7, pc}
  99              		.cfi_endproc
 100              	.LFE0:
 101              		.size	ADC_SAR_Seq_1_TempBufDmaInit, .-ADC_SAR_Seq_1_TempBufDmaInit
 102              		.section	.text.ADC_SAR_Seq_1_TempBufDmaRelease,"ax",%progbits
 103              		.align	2
 104              		.thumb
 105              		.thumb_func
 106              		.type	ADC_SAR_Seq_1_TempBufDmaRelease, %function
 107              	ADC_SAR_Seq_1_TempBufDmaRelease:
 108              	.LFB1:
  77:.\Generated_Source\PSoC5/ADC_SAR_Seq_1.c **** 
  78:.\Generated_Source\PSoC5/ADC_SAR_Seq_1.c **** 
  79:.\Generated_Source\PSoC5/ADC_SAR_Seq_1.c **** /*******************************************************************************
  80:.\Generated_Source\PSoC5/ADC_SAR_Seq_1.c **** * Function Name: ADC_SAR_Seq_1_TempBufDmaRelease()
  81:.\Generated_Source\PSoC5/ADC_SAR_Seq_1.c **** ********************************************************************************
  82:.\Generated_Source\PSoC5/ADC_SAR_Seq_1.c **** *
  83:.\Generated_Source\PSoC5/ADC_SAR_Seq_1.c **** * Summary:
  84:.\Generated_Source\PSoC5/ADC_SAR_Seq_1.c **** *  Provides release procedure for the TempBuf DMA
  85:.\Generated_Source\PSoC5/ADC_SAR_Seq_1.c **** *
  86:.\Generated_Source\PSoC5/ADC_SAR_Seq_1.c **** * Parameters:
  87:.\Generated_Source\PSoC5/ADC_SAR_Seq_1.c **** *  None.
  88:.\Generated_Source\PSoC5/ADC_SAR_Seq_1.c **** *
  89:.\Generated_Source\PSoC5/ADC_SAR_Seq_1.c **** * Return:
  90:.\Generated_Source\PSoC5/ADC_SAR_Seq_1.c **** *  None.
  91:.\Generated_Source\PSoC5/ADC_SAR_Seq_1.c **** *
  92:.\Generated_Source\PSoC5/ADC_SAR_Seq_1.c **** * Side Effects:
  93:.\Generated_Source\PSoC5/ADC_SAR_Seq_1.c **** *  None.
  94:.\Generated_Source\PSoC5/ADC_SAR_Seq_1.c **** *
  95:.\Generated_Source\PSoC5/ADC_SAR_Seq_1.c **** * Reentrant:
  96:.\Generated_Source\PSoC5/ADC_SAR_Seq_1.c **** *  No.
  97:.\Generated_Source\PSoC5/ADC_SAR_Seq_1.c **** *
  98:.\Generated_Source\PSoC5/ADC_SAR_Seq_1.c **** *******************************************************************************/
  99:.\Generated_Source\PSoC5/ADC_SAR_Seq_1.c **** static void ADC_SAR_Seq_1_TempBufDmaRelease(void)
 100:.\Generated_Source\PSoC5/ADC_SAR_Seq_1.c **** {
 109              		.loc 1 100 0
 110              		.cfi_startproc
 111              		@ args = 0, pretend = 0, frame = 0
 112              		@ frame_needed = 1, uses_anonymous_args = 0
 113 0000 80B5     		push	{r7, lr}
 114              	.LCFI2:
 115              		.cfi_def_cfa_offset 8
 116              		.cfi_offset 7, -8
 117              		.cfi_offset 14, -4
 118 0002 00AF     		add	r7, sp, #0
 119              	.LCFI3:
 120              		.cfi_def_cfa_register 7
 101:.\Generated_Source\PSoC5/ADC_SAR_Seq_1.c ****     (void) CyDmaChDisable(ADC_SAR_Seq_1_tempChan);
 121              		.loc 1 101 0
 122 0004 40F20003 		movw	r3, #:lower16:ADC_SAR_Seq_1_tempChan
 123 0008 C0F20003 		movt	r3, #:upper16:ADC_SAR_Seq_1_tempChan
ARM GAS  C:\Users\Brian\AppData\Local\Temp\ccjAvsdg.s 			page 5


 124 000c 1B78     		ldrb	r3, [r3, #0]	@ zero_extendqisi2
 125 000e 1846     		mov	r0, r3
 126 0010 FFF7FEFF 		bl	CyDmaChDisable
 102:.\Generated_Source\PSoC5/ADC_SAR_Seq_1.c **** 
 103:.\Generated_Source\PSoC5/ADC_SAR_Seq_1.c ****     /* Clear any potential DMA requests and re-reset TD pointers */
 104:.\Generated_Source\PSoC5/ADC_SAR_Seq_1.c ****     while(0u != (CY_DMA_CH_STRUCT_PTR[ADC_SAR_Seq_1_tempChan].basic_status[0u] & CY_DMA_STATUS_TD_A
 127              		.loc 1 104 0
 128 0014 00BF     		nop
 129              	.L3:
 130              		.loc 1 104 0 is_stmt 0 discriminator 1
 131 0016 40F20003 		movw	r3, #:lower16:ADC_SAR_Seq_1_tempChan
 132 001a C0F20003 		movt	r3, #:upper16:ADC_SAR_Seq_1_tempChan
 133 001e 1B78     		ldrb	r3, [r3, #0]	@ zero_extendqisi2
 134 0020 4FEA0312 		lsl	r2, r3, #4
 135 0024 47F21003 		movw	r3, #28688
 136 0028 C4F20003 		movt	r3, 16384
 137 002c D318     		adds	r3, r2, r3
 138 002e 1B7A     		ldrb	r3, [r3, #8]
 139 0030 DBB2     		uxtb	r3, r3
 140 0032 03F00203 		and	r3, r3, #2
 141 0036 002B     		cmp	r3, #0
 142 0038 EDD1     		bne	.L3
 105:.\Generated_Source\PSoC5/ADC_SAR_Seq_1.c ****     {
 106:.\Generated_Source\PSoC5/ADC_SAR_Seq_1.c ****         ; /* Wait for to be cleared */
 107:.\Generated_Source\PSoC5/ADC_SAR_Seq_1.c ****     }
 108:.\Generated_Source\PSoC5/ADC_SAR_Seq_1.c **** 
 109:.\Generated_Source\PSoC5/ADC_SAR_Seq_1.c ****     (void) CyDmaChSetRequest(ADC_SAR_Seq_1_tempChan, CY_DMA_CPU_TERM_CHAIN);
 143              		.loc 1 109 0 is_stmt 1
 144 003a 40F20003 		movw	r3, #:lower16:ADC_SAR_Seq_1_tempChan
 145 003e C0F20003 		movt	r3, #:upper16:ADC_SAR_Seq_1_tempChan
 146 0042 1B78     		ldrb	r3, [r3, #0]	@ zero_extendqisi2
 147 0044 1846     		mov	r0, r3
 148 0046 4FF00401 		mov	r1, #4
 149 004a FFF7FEFF 		bl	CyDmaChSetRequest
 110:.\Generated_Source\PSoC5/ADC_SAR_Seq_1.c ****     (void) CyDmaChEnable    (ADC_SAR_Seq_1_tempChan, 1u);
 150              		.loc 1 110 0
 151 004e 40F20003 		movw	r3, #:lower16:ADC_SAR_Seq_1_tempChan
 152 0052 C0F20003 		movt	r3, #:upper16:ADC_SAR_Seq_1_tempChan
 153 0056 1B78     		ldrb	r3, [r3, #0]	@ zero_extendqisi2
 154 0058 1846     		mov	r0, r3
 155 005a 4FF00101 		mov	r1, #1
 156 005e FFF7FEFF 		bl	CyDmaChEnable
 111:.\Generated_Source\PSoC5/ADC_SAR_Seq_1.c **** 
 112:.\Generated_Source\PSoC5/ADC_SAR_Seq_1.c ****     while(0u != (CY_DMA_CH_STRUCT_PTR[ADC_SAR_Seq_1_tempChan].basic_cfg[0u] & CY_DMA_STATUS_CHAIN_A
 157              		.loc 1 112 0
 158 0062 00BF     		nop
 159              	.L4:
 160              		.loc 1 112 0 is_stmt 0 discriminator 1
 161 0064 40F20003 		movw	r3, #:lower16:ADC_SAR_Seq_1_tempChan
 162 0068 C0F20003 		movt	r3, #:upper16:ADC_SAR_Seq_1_tempChan
 163 006c 1B78     		ldrb	r3, [r3, #0]	@ zero_extendqisi2
 164 006e 4FEA0312 		lsl	r2, r3, #4
 165 0072 47F21003 		movw	r3, #28688
 166 0076 C4F20003 		movt	r3, 16384
 167 007a D318     		adds	r3, r2, r3
 168 007c 1B78     		ldrb	r3, [r3, #0]
 169 007e DBB2     		uxtb	r3, r3
ARM GAS  C:\Users\Brian\AppData\Local\Temp\ccjAvsdg.s 			page 6


 170 0080 03F00103 		and	r3, r3, #1
 171 0084 002B     		cmp	r3, #0
 172 0086 EDD1     		bne	.L4
 113:.\Generated_Source\PSoC5/ADC_SAR_Seq_1.c ****         {
 114:.\Generated_Source\PSoC5/ADC_SAR_Seq_1.c ****             ; /* Wait for to be cleared */
 115:.\Generated_Source\PSoC5/ADC_SAR_Seq_1.c ****         }
 116:.\Generated_Source\PSoC5/ADC_SAR_Seq_1.c **** 
 117:.\Generated_Source\PSoC5/ADC_SAR_Seq_1.c ****     /* Release allocated TD and mark it as invalid */
 118:.\Generated_Source\PSoC5/ADC_SAR_Seq_1.c ****     CyDmaTdFree(ADC_SAR_Seq_1_tempTD);
 173              		.loc 1 118 0 is_stmt 1
 174 0088 40F20003 		movw	r3, #:lower16:ADC_SAR_Seq_1_tempTD
 175 008c C0F20003 		movt	r3, #:upper16:ADC_SAR_Seq_1_tempTD
 176 0090 1B78     		ldrb	r3, [r3, #0]	@ zero_extendqisi2
 177 0092 1846     		mov	r0, r3
 178 0094 FFF7FEFF 		bl	CyDmaTdFree
 119:.\Generated_Source\PSoC5/ADC_SAR_Seq_1.c ****     ADC_SAR_Seq_1_tempTD = CY_DMA_INVALID_TD;
 179              		.loc 1 119 0
 180 0098 40F20003 		movw	r3, #:lower16:ADC_SAR_Seq_1_tempTD
 181 009c C0F20003 		movt	r3, #:upper16:ADC_SAR_Seq_1_tempTD
 182 00a0 4FF0FF02 		mov	r2, #255
 183 00a4 1A70     		strb	r2, [r3, #0]
 120:.\Generated_Source\PSoC5/ADC_SAR_Seq_1.c **** 
 121:.\Generated_Source\PSoC5/ADC_SAR_Seq_1.c **** }
 184              		.loc 1 121 0
 185 00a6 80BD     		pop	{r7, pc}
 186              		.cfi_endproc
 187              	.LFE1:
 188              		.size	ADC_SAR_Seq_1_TempBufDmaRelease, .-ADC_SAR_Seq_1_TempBufDmaRelease
 189              		.section	.text.ADC_SAR_Seq_1_FinalBufDmaInit,"ax",%progbits
 190              		.align	2
 191              		.thumb
 192              		.thumb_func
 193              		.type	ADC_SAR_Seq_1_FinalBufDmaInit, %function
 194              	ADC_SAR_Seq_1_FinalBufDmaInit:
 195              	.LFB2:
 122:.\Generated_Source\PSoC5/ADC_SAR_Seq_1.c **** 
 123:.\Generated_Source\PSoC5/ADC_SAR_Seq_1.c **** 
 124:.\Generated_Source\PSoC5/ADC_SAR_Seq_1.c **** /****************************************************************************
 125:.\Generated_Source\PSoC5/ADC_SAR_Seq_1.c **** * Function Name: ADC_SAR_Seq_1_FinalBufDmaInit()
 126:.\Generated_Source\PSoC5/ADC_SAR_Seq_1.c **** *****************************************************************************
 127:.\Generated_Source\PSoC5/ADC_SAR_Seq_1.c **** *
 128:.\Generated_Source\PSoC5/ADC_SAR_Seq_1.c **** * Summary:
 129:.\Generated_Source\PSoC5/ADC_SAR_Seq_1.c **** *  Provides initialization procedure for the FinalBuf DMA
 130:.\Generated_Source\PSoC5/ADC_SAR_Seq_1.c **** *
 131:.\Generated_Source\PSoC5/ADC_SAR_Seq_1.c **** * Parameters:
 132:.\Generated_Source\PSoC5/ADC_SAR_Seq_1.c **** *  None.
 133:.\Generated_Source\PSoC5/ADC_SAR_Seq_1.c **** *
 134:.\Generated_Source\PSoC5/ADC_SAR_Seq_1.c **** * Return:
 135:.\Generated_Source\PSoC5/ADC_SAR_Seq_1.c **** *  None.
 136:.\Generated_Source\PSoC5/ADC_SAR_Seq_1.c **** *
 137:.\Generated_Source\PSoC5/ADC_SAR_Seq_1.c **** * Side Effects:
 138:.\Generated_Source\PSoC5/ADC_SAR_Seq_1.c **** *  None.
 139:.\Generated_Source\PSoC5/ADC_SAR_Seq_1.c **** *
 140:.\Generated_Source\PSoC5/ADC_SAR_Seq_1.c **** * Reentrant:
 141:.\Generated_Source\PSoC5/ADC_SAR_Seq_1.c **** *  No.
 142:.\Generated_Source\PSoC5/ADC_SAR_Seq_1.c **** *
 143:.\Generated_Source\PSoC5/ADC_SAR_Seq_1.c **** ****************************************************************************/
ARM GAS  C:\Users\Brian\AppData\Local\Temp\ccjAvsdg.s 			page 7


 144:.\Generated_Source\PSoC5/ADC_SAR_Seq_1.c **** static void ADC_SAR_Seq_1_FinalBufDmaInit(void)
 145:.\Generated_Source\PSoC5/ADC_SAR_Seq_1.c **** {
 196              		.loc 1 145 0
 197              		.cfi_startproc
 198              		@ args = 0, pretend = 0, frame = 0
 199              		@ frame_needed = 1, uses_anonymous_args = 0
 200 0000 80B5     		push	{r7, lr}
 201              	.LCFI4:
 202              		.cfi_def_cfa_offset 8
 203              		.cfi_offset 7, -8
 204              		.cfi_offset 14, -4
 205 0002 00AF     		add	r7, sp, #0
 206              	.LCFI5:
 207              		.cfi_def_cfa_register 7
 146:.\Generated_Source\PSoC5/ADC_SAR_Seq_1.c ****     ADC_SAR_Seq_1_finalTD = CyDmaTdAllocate();
 208              		.loc 1 146 0
 209 0004 FFF7FEFF 		bl	CyDmaTdAllocate
 210 0008 0346     		mov	r3, r0
 211 000a 1A46     		mov	r2, r3
 212 000c 40F20003 		movw	r3, #:lower16:ADC_SAR_Seq_1_finalTD
 213 0010 C0F20003 		movt	r3, #:upper16:ADC_SAR_Seq_1_finalTD
 214 0014 1A70     		strb	r2, [r3, #0]
 147:.\Generated_Source\PSoC5/ADC_SAR_Seq_1.c **** 
 148:.\Generated_Source\PSoC5/ADC_SAR_Seq_1.c ****     /* Configure this Td as follows:
 149:.\Generated_Source\PSoC5/ADC_SAR_Seq_1.c ****     *  - The TD is looping on itself
 150:.\Generated_Source\PSoC5/ADC_SAR_Seq_1.c ****     *  - Increment the source and destination address
 151:.\Generated_Source\PSoC5/ADC_SAR_Seq_1.c ****     */
 152:.\Generated_Source\PSoC5/ADC_SAR_Seq_1.c ****     (void) CyDmaTdSetConfiguration(ADC_SAR_Seq_1_finalTD, (ADC_SAR_Seq_1_FINAL_BYTES_PER_BURST),
 215              		.loc 1 152 0
 216 0016 40F20003 		movw	r3, #:lower16:ADC_SAR_Seq_1_finalTD
 217 001a C0F20003 		movt	r3, #:upper16:ADC_SAR_Seq_1_finalTD
 218 001e 1A78     		ldrb	r2, [r3, #0]	@ zero_extendqisi2
 219 0020 40F20003 		movw	r3, #:lower16:ADC_SAR_Seq_1_finalTD
 220 0024 C0F20003 		movt	r3, #:upper16:ADC_SAR_Seq_1_finalTD
 221 0028 1B78     		ldrb	r3, [r3, #0]	@ zero_extendqisi2
 222 002a 1046     		mov	r0, r2
 223 002c 4FF01401 		mov	r1, #20
 224 0030 1A46     		mov	r2, r3
 225 0032 4FF00703 		mov	r3, #7
 226 0036 FFF7FEFF 		bl	CyDmaTdSetConfiguration
 153:.\Generated_Source\PSoC5/ADC_SAR_Seq_1.c ****         ADC_SAR_Seq_1_finalTD, ((uint8)(ADC_SAR_Seq_1_FinalBuf__TD_TERMOUT_EN) | (uint8)TD_INC_SRC_
 154:.\Generated_Source\PSoC5/ADC_SAR_Seq_1.c ****             (uint8)TD_INC_DST_ADR));
 155:.\Generated_Source\PSoC5/ADC_SAR_Seq_1.c **** 
 156:.\Generated_Source\PSoC5/ADC_SAR_Seq_1.c ****     /* From the the TempArray to Final Array */
 157:.\Generated_Source\PSoC5/ADC_SAR_Seq_1.c ****     (void) CyDmaTdSetAddress(ADC_SAR_Seq_1_finalTD, (uint16)(LO16((uint32)ADC_SAR_Seq_1_tempArray))
 227              		.loc 1 157 0
 228 003a 40F20003 		movw	r3, #:lower16:ADC_SAR_Seq_1_finalTD
 229 003e C0F20003 		movt	r3, #:upper16:ADC_SAR_Seq_1_finalTD
 230 0042 1978     		ldrb	r1, [r3, #0]	@ zero_extendqisi2
 231 0044 40F20003 		movw	r3, #:lower16:ADC_SAR_Seq_1_tempArray
 232 0048 C0F20003 		movt	r3, #:upper16:ADC_SAR_Seq_1_tempArray
 233 004c 9AB2     		uxth	r2, r3
 234 004e 40F20003 		movw	r3, #:lower16:ADC_SAR_Seq_1_finalArray
 235 0052 C0F20003 		movt	r3, #:upper16:ADC_SAR_Seq_1_finalArray
 236 0056 9BB2     		uxth	r3, r3
 237 0058 0846     		mov	r0, r1
 238 005a 1146     		mov	r1, r2
ARM GAS  C:\Users\Brian\AppData\Local\Temp\ccjAvsdg.s 			page 8


 239 005c 1A46     		mov	r2, r3
 240 005e FFF7FEFF 		bl	CyDmaTdSetAddress
 158:.\Generated_Source\PSoC5/ADC_SAR_Seq_1.c ****         (uint16)(LO16((uint32)ADC_SAR_Seq_1_finalArray)));
 159:.\Generated_Source\PSoC5/ADC_SAR_Seq_1.c **** 
 160:.\Generated_Source\PSoC5/ADC_SAR_Seq_1.c ****     /* Associate the TD with the channel */
 161:.\Generated_Source\PSoC5/ADC_SAR_Seq_1.c ****     (void) CyDmaChSetInitialTd(ADC_SAR_Seq_1_finalChan, ADC_SAR_Seq_1_finalTD);
 241              		.loc 1 161 0
 242 0062 40F20003 		movw	r3, #:lower16:ADC_SAR_Seq_1_finalChan
 243 0066 C0F20003 		movt	r3, #:upper16:ADC_SAR_Seq_1_finalChan
 244 006a 1A78     		ldrb	r2, [r3, #0]	@ zero_extendqisi2
 245 006c 40F20003 		movw	r3, #:lower16:ADC_SAR_Seq_1_finalTD
 246 0070 C0F20003 		movt	r3, #:upper16:ADC_SAR_Seq_1_finalTD
 247 0074 1B78     		ldrb	r3, [r3, #0]	@ zero_extendqisi2
 248 0076 1046     		mov	r0, r2
 249 0078 1946     		mov	r1, r3
 250 007a FFF7FEFF 		bl	CyDmaChSetInitialTd
 162:.\Generated_Source\PSoC5/ADC_SAR_Seq_1.c **** }
 251              		.loc 1 162 0
 252 007e 80BD     		pop	{r7, pc}
 253              		.cfi_endproc
 254              	.LFE2:
 255              		.size	ADC_SAR_Seq_1_FinalBufDmaInit, .-ADC_SAR_Seq_1_FinalBufDmaInit
 256              		.section	.text.ADC_SAR_Seq_1_FinalBufDmaRelease,"ax",%progbits
 257              		.align	2
 258              		.thumb
 259              		.thumb_func
 260              		.type	ADC_SAR_Seq_1_FinalBufDmaRelease, %function
 261              	ADC_SAR_Seq_1_FinalBufDmaRelease:
 262              	.LFB3:
 163:.\Generated_Source\PSoC5/ADC_SAR_Seq_1.c **** 
 164:.\Generated_Source\PSoC5/ADC_SAR_Seq_1.c **** 
 165:.\Generated_Source\PSoC5/ADC_SAR_Seq_1.c **** /****************************************************************************
 166:.\Generated_Source\PSoC5/ADC_SAR_Seq_1.c **** * Function Name: ADC_SAR_Seq_1_FinalBufDmaRelease()
 167:.\Generated_Source\PSoC5/ADC_SAR_Seq_1.c **** *****************************************************************************
 168:.\Generated_Source\PSoC5/ADC_SAR_Seq_1.c **** *
 169:.\Generated_Source\PSoC5/ADC_SAR_Seq_1.c **** * Summary:
 170:.\Generated_Source\PSoC5/ADC_SAR_Seq_1.c **** *  Provides release procedure for the FinalBuf DMA.
 171:.\Generated_Source\PSoC5/ADC_SAR_Seq_1.c **** *
 172:.\Generated_Source\PSoC5/ADC_SAR_Seq_1.c **** * Parameters:
 173:.\Generated_Source\PSoC5/ADC_SAR_Seq_1.c **** *  None.
 174:.\Generated_Source\PSoC5/ADC_SAR_Seq_1.c **** *
 175:.\Generated_Source\PSoC5/ADC_SAR_Seq_1.c **** * Return:
 176:.\Generated_Source\PSoC5/ADC_SAR_Seq_1.c **** *  None.
 177:.\Generated_Source\PSoC5/ADC_SAR_Seq_1.c **** *
 178:.\Generated_Source\PSoC5/ADC_SAR_Seq_1.c **** * Side Effects:
 179:.\Generated_Source\PSoC5/ADC_SAR_Seq_1.c **** *  None.
 180:.\Generated_Source\PSoC5/ADC_SAR_Seq_1.c **** *
 181:.\Generated_Source\PSoC5/ADC_SAR_Seq_1.c **** * Reentrant:
 182:.\Generated_Source\PSoC5/ADC_SAR_Seq_1.c **** *  No.
 183:.\Generated_Source\PSoC5/ADC_SAR_Seq_1.c **** *
 184:.\Generated_Source\PSoC5/ADC_SAR_Seq_1.c **** ****************************************************************************/
 185:.\Generated_Source\PSoC5/ADC_SAR_Seq_1.c **** static void ADC_SAR_Seq_1_FinalBufDmaRelease(void)
 186:.\Generated_Source\PSoC5/ADC_SAR_Seq_1.c **** {
 263              		.loc 1 186 0
 264              		.cfi_startproc
 265              		@ args = 0, pretend = 0, frame = 0
 266              		@ frame_needed = 1, uses_anonymous_args = 0
ARM GAS  C:\Users\Brian\AppData\Local\Temp\ccjAvsdg.s 			page 9


 267 0000 80B5     		push	{r7, lr}
 268              	.LCFI6:
 269              		.cfi_def_cfa_offset 8
 270              		.cfi_offset 7, -8
 271              		.cfi_offset 14, -4
 272 0002 00AF     		add	r7, sp, #0
 273              	.LCFI7:
 274              		.cfi_def_cfa_register 7
 187:.\Generated_Source\PSoC5/ADC_SAR_Seq_1.c ****     (void) CyDmaChDisable(ADC_SAR_Seq_1_finalChan);
 275              		.loc 1 187 0
 276 0004 40F20003 		movw	r3, #:lower16:ADC_SAR_Seq_1_finalChan
 277 0008 C0F20003 		movt	r3, #:upper16:ADC_SAR_Seq_1_finalChan
 278 000c 1B78     		ldrb	r3, [r3, #0]	@ zero_extendqisi2
 279 000e 1846     		mov	r0, r3
 280 0010 FFF7FEFF 		bl	CyDmaChDisable
 188:.\Generated_Source\PSoC5/ADC_SAR_Seq_1.c **** 
 189:.\Generated_Source\PSoC5/ADC_SAR_Seq_1.c ****     /* Clear any potential DMA requests and re-reset TD pointers */
 190:.\Generated_Source\PSoC5/ADC_SAR_Seq_1.c ****     while(0u != (CY_DMA_CH_STRUCT_PTR[ADC_SAR_Seq_1_finalChan].basic_status[0u] & CY_DMA_STATUS_TD_
 281              		.loc 1 190 0
 282 0014 00BF     		nop
 283              	.L7:
 284              		.loc 1 190 0 is_stmt 0 discriminator 1
 285 0016 40F20003 		movw	r3, #:lower16:ADC_SAR_Seq_1_finalChan
 286 001a C0F20003 		movt	r3, #:upper16:ADC_SAR_Seq_1_finalChan
 287 001e 1B78     		ldrb	r3, [r3, #0]	@ zero_extendqisi2
 288 0020 4FEA0312 		lsl	r2, r3, #4
 289 0024 47F21003 		movw	r3, #28688
 290 0028 C4F20003 		movt	r3, 16384
 291 002c D318     		adds	r3, r2, r3
 292 002e 1B7A     		ldrb	r3, [r3, #8]
 293 0030 DBB2     		uxtb	r3, r3
 294 0032 03F00203 		and	r3, r3, #2
 295 0036 002B     		cmp	r3, #0
 296 0038 EDD1     		bne	.L7
 191:.\Generated_Source\PSoC5/ADC_SAR_Seq_1.c ****     {
 192:.\Generated_Source\PSoC5/ADC_SAR_Seq_1.c ****         ; /* Wait for to be cleared */
 193:.\Generated_Source\PSoC5/ADC_SAR_Seq_1.c ****     }
 194:.\Generated_Source\PSoC5/ADC_SAR_Seq_1.c **** 
 195:.\Generated_Source\PSoC5/ADC_SAR_Seq_1.c ****     (void) CyDmaChSetRequest(ADC_SAR_Seq_1_finalChan, CY_DMA_CPU_TERM_CHAIN);
 297              		.loc 1 195 0 is_stmt 1
 298 003a 40F20003 		movw	r3, #:lower16:ADC_SAR_Seq_1_finalChan
 299 003e C0F20003 		movt	r3, #:upper16:ADC_SAR_Seq_1_finalChan
 300 0042 1B78     		ldrb	r3, [r3, #0]	@ zero_extendqisi2
 301 0044 1846     		mov	r0, r3
 302 0046 4FF00401 		mov	r1, #4
 303 004a FFF7FEFF 		bl	CyDmaChSetRequest
 196:.\Generated_Source\PSoC5/ADC_SAR_Seq_1.c ****     (void) CyDmaChEnable    (ADC_SAR_Seq_1_finalChan, 1u);
 304              		.loc 1 196 0
 305 004e 40F20003 		movw	r3, #:lower16:ADC_SAR_Seq_1_finalChan
 306 0052 C0F20003 		movt	r3, #:upper16:ADC_SAR_Seq_1_finalChan
 307 0056 1B78     		ldrb	r3, [r3, #0]	@ zero_extendqisi2
 308 0058 1846     		mov	r0, r3
 309 005a 4FF00101 		mov	r1, #1
 310 005e FFF7FEFF 		bl	CyDmaChEnable
 197:.\Generated_Source\PSoC5/ADC_SAR_Seq_1.c **** 
 198:.\Generated_Source\PSoC5/ADC_SAR_Seq_1.c ****     while(0u != (CY_DMA_CH_STRUCT_PTR[ADC_SAR_Seq_1_finalChan].basic_cfg[0u] & CY_DMA_STATUS_CHAIN_
 311              		.loc 1 198 0
ARM GAS  C:\Users\Brian\AppData\Local\Temp\ccjAvsdg.s 			page 10


 312 0062 00BF     		nop
 313              	.L8:
 314              		.loc 1 198 0 is_stmt 0 discriminator 1
 315 0064 40F20003 		movw	r3, #:lower16:ADC_SAR_Seq_1_finalChan
 316 0068 C0F20003 		movt	r3, #:upper16:ADC_SAR_Seq_1_finalChan
 317 006c 1B78     		ldrb	r3, [r3, #0]	@ zero_extendqisi2
 318 006e 4FEA0312 		lsl	r2, r3, #4
 319 0072 47F21003 		movw	r3, #28688
 320 0076 C4F20003 		movt	r3, 16384
 321 007a D318     		adds	r3, r2, r3
 322 007c 1B78     		ldrb	r3, [r3, #0]
 323 007e DBB2     		uxtb	r3, r3
 324 0080 03F00103 		and	r3, r3, #1
 325 0084 002B     		cmp	r3, #0
 326 0086 EDD1     		bne	.L8
 199:.\Generated_Source\PSoC5/ADC_SAR_Seq_1.c ****         {
 200:.\Generated_Source\PSoC5/ADC_SAR_Seq_1.c ****             ; /* Wait for to be cleared */
 201:.\Generated_Source\PSoC5/ADC_SAR_Seq_1.c ****         }
 202:.\Generated_Source\PSoC5/ADC_SAR_Seq_1.c **** 
 203:.\Generated_Source\PSoC5/ADC_SAR_Seq_1.c ****     /* Release allocated TD and mark it as invalid */
 204:.\Generated_Source\PSoC5/ADC_SAR_Seq_1.c ****     CyDmaTdFree(ADC_SAR_Seq_1_finalTD);
 327              		.loc 1 204 0 is_stmt 1
 328 0088 40F20003 		movw	r3, #:lower16:ADC_SAR_Seq_1_finalTD
 329 008c C0F20003 		movt	r3, #:upper16:ADC_SAR_Seq_1_finalTD
 330 0090 1B78     		ldrb	r3, [r3, #0]	@ zero_extendqisi2
 331 0092 1846     		mov	r0, r3
 332 0094 FFF7FEFF 		bl	CyDmaTdFree
 205:.\Generated_Source\PSoC5/ADC_SAR_Seq_1.c ****     ADC_SAR_Seq_1_finalTD = CY_DMA_INVALID_TD;
 333              		.loc 1 205 0
 334 0098 40F20003 		movw	r3, #:lower16:ADC_SAR_Seq_1_finalTD
 335 009c C0F20003 		movt	r3, #:upper16:ADC_SAR_Seq_1_finalTD
 336 00a0 4FF0FF02 		mov	r2, #255
 337 00a4 1A70     		strb	r2, [r3, #0]
 206:.\Generated_Source\PSoC5/ADC_SAR_Seq_1.c **** }
 338              		.loc 1 206 0
 339 00a6 80BD     		pop	{r7, pc}
 340              		.cfi_endproc
 341              	.LFE3:
 342              		.size	ADC_SAR_Seq_1_FinalBufDmaRelease, .-ADC_SAR_Seq_1_FinalBufDmaRelease
 343              		.section	.text.ADC_SAR_Seq_1_Disable,"ax",%progbits
 344              		.align	2
 345              		.global	ADC_SAR_Seq_1_Disable
 346              		.thumb
 347              		.thumb_func
 348              		.type	ADC_SAR_Seq_1_Disable, %function
 349              	ADC_SAR_Seq_1_Disable:
 350              	.LFB4:
 207:.\Generated_Source\PSoC5/ADC_SAR_Seq_1.c **** 
 208:.\Generated_Source\PSoC5/ADC_SAR_Seq_1.c **** 
 209:.\Generated_Source\PSoC5/ADC_SAR_Seq_1.c **** /****************************************************************************
 210:.\Generated_Source\PSoC5/ADC_SAR_Seq_1.c **** * Function Name: ADC_SAR_Seq_1_Disable()
 211:.\Generated_Source\PSoC5/ADC_SAR_Seq_1.c **** *****************************************************************************
 212:.\Generated_Source\PSoC5/ADC_SAR_Seq_1.c **** *
 213:.\Generated_Source\PSoC5/ADC_SAR_Seq_1.c **** * Summary:
 214:.\Generated_Source\PSoC5/ADC_SAR_Seq_1.c **** *  Disables the component without disabling the ADC SAR.
 215:.\Generated_Source\PSoC5/ADC_SAR_Seq_1.c **** *
 216:.\Generated_Source\PSoC5/ADC_SAR_Seq_1.c **** * Parameters:
ARM GAS  C:\Users\Brian\AppData\Local\Temp\ccjAvsdg.s 			page 11


 217:.\Generated_Source\PSoC5/ADC_SAR_Seq_1.c **** *  None.
 218:.\Generated_Source\PSoC5/ADC_SAR_Seq_1.c **** *
 219:.\Generated_Source\PSoC5/ADC_SAR_Seq_1.c **** * Return:
 220:.\Generated_Source\PSoC5/ADC_SAR_Seq_1.c **** *  None.
 221:.\Generated_Source\PSoC5/ADC_SAR_Seq_1.c **** *
 222:.\Generated_Source\PSoC5/ADC_SAR_Seq_1.c **** * Side Effects:
 223:.\Generated_Source\PSoC5/ADC_SAR_Seq_1.c **** *  None.
 224:.\Generated_Source\PSoC5/ADC_SAR_Seq_1.c **** *
 225:.\Generated_Source\PSoC5/ADC_SAR_Seq_1.c **** * Reentrant:
 226:.\Generated_Source\PSoC5/ADC_SAR_Seq_1.c **** *  No.
 227:.\Generated_Source\PSoC5/ADC_SAR_Seq_1.c **** *
 228:.\Generated_Source\PSoC5/ADC_SAR_Seq_1.c **** ****************************************************************************/
 229:.\Generated_Source\PSoC5/ADC_SAR_Seq_1.c **** void ADC_SAR_Seq_1_Disable(void)
 230:.\Generated_Source\PSoC5/ADC_SAR_Seq_1.c **** {
 351              		.loc 1 230 0
 352              		.cfi_startproc
 353              		@ args = 0, pretend = 0, frame = 8
 354              		@ frame_needed = 1, uses_anonymous_args = 0
 355 0000 80B5     		push	{r7, lr}
 356              	.LCFI8:
 357              		.cfi_def_cfa_offset 8
 358              		.cfi_offset 7, -8
 359              		.cfi_offset 14, -4
 360 0002 82B0     		sub	sp, sp, #8
 361              	.LCFI9:
 362              		.cfi_def_cfa_offset 16
 363 0004 00AF     		add	r7, sp, #0
 364              	.LCFI10:
 365              		.cfi_def_cfa_register 7
 231:.\Generated_Source\PSoC5/ADC_SAR_Seq_1.c ****     uint8 enableInterrupts;
 232:.\Generated_Source\PSoC5/ADC_SAR_Seq_1.c **** 
 233:.\Generated_Source\PSoC5/ADC_SAR_Seq_1.c ****     ADC_SAR_Seq_1_CONTROL_REG &= ((uint8)(~ADC_SAR_Seq_1_BASE_COMPONENT_ENABLE));
 366              		.loc 1 233 0
 367 0006 46F27443 		movw	r3, #25716
 368 000a C4F20003 		movt	r3, 16384
 369 000e 46F27442 		movw	r2, #25716
 370 0012 C4F20002 		movt	r2, 16384
 371 0016 1278     		ldrb	r2, [r2, #0]
 372 0018 D2B2     		uxtb	r2, r2
 373 001a 22F00102 		bic	r2, r2, #1
 374 001e D2B2     		uxtb	r2, r2
 375 0020 1A70     		strb	r2, [r3, #0]
 234:.\Generated_Source\PSoC5/ADC_SAR_Seq_1.c **** 
 235:.\Generated_Source\PSoC5/ADC_SAR_Seq_1.c ****     /* Disable Counter */
 236:.\Generated_Source\PSoC5/ADC_SAR_Seq_1.c ****     enableInterrupts = CyEnterCriticalSection();
 376              		.loc 1 236 0
 377 0022 FFF7FEFF 		bl	CyEnterCriticalSection
 378 0026 0346     		mov	r3, r0
 379 0028 FB71     		strb	r3, [r7, #7]
 237:.\Generated_Source\PSoC5/ADC_SAR_Seq_1.c ****     ADC_SAR_Seq_1_CYCLE_COUNTER_AUX_CONTROL_REG &= ((uint8)(~ADC_SAR_Seq_1_CYCLE_COUNTER_ENABLE));
 380              		.loc 1 237 0
 381 002a 46F29753 		movw	r3, #26007
 382 002e C4F20003 		movt	r3, 16384
 383 0032 46F29752 		movw	r2, #26007
 384 0036 C4F20002 		movt	r2, 16384
 385 003a 1278     		ldrb	r2, [r2, #0]
 386 003c D2B2     		uxtb	r2, r2
ARM GAS  C:\Users\Brian\AppData\Local\Temp\ccjAvsdg.s 			page 12


 387 003e 22F02002 		bic	r2, r2, #32
 388 0042 D2B2     		uxtb	r2, r2
 389 0044 1A70     		strb	r2, [r3, #0]
 238:.\Generated_Source\PSoC5/ADC_SAR_Seq_1.c ****     CyExitCriticalSection(enableInterrupts);
 390              		.loc 1 238 0
 391 0046 FB79     		ldrb	r3, [r7, #7]	@ zero_extendqisi2
 392 0048 1846     		mov	r0, r3
 393 004a FFF7FEFF 		bl	CyExitCriticalSection
 239:.\Generated_Source\PSoC5/ADC_SAR_Seq_1.c ****     ADC_SAR_Seq_1_COUNT_REG = 0u;
 394              		.loc 1 239 0
 395 004e 46F27753 		movw	r3, #25975
 396 0052 C4F20003 		movt	r3, 16384
 397 0056 4FF00002 		mov	r2, #0
 398 005a 1A70     		strb	r2, [r3, #0]
 240:.\Generated_Source\PSoC5/ADC_SAR_Seq_1.c **** 
 241:.\Generated_Source\PSoC5/ADC_SAR_Seq_1.c ****     ADC_SAR_Seq_1_TempBufDmaRelease();
 399              		.loc 1 241 0
 400 005c FFF7FEFF 		bl	ADC_SAR_Seq_1_TempBufDmaRelease
 242:.\Generated_Source\PSoC5/ADC_SAR_Seq_1.c ****     ADC_SAR_Seq_1_FinalBufDmaRelease();
 401              		.loc 1 242 0
 402 0060 FFF7FEFF 		bl	ADC_SAR_Seq_1_FinalBufDmaRelease
 243:.\Generated_Source\PSoC5/ADC_SAR_Seq_1.c **** }
 403              		.loc 1 243 0
 404 0064 07F10807 		add	r7, r7, #8
 405 0068 BD46     		mov	sp, r7
 406 006a 80BD     		pop	{r7, pc}
 407              		.cfi_endproc
 408              	.LFE4:
 409              		.size	ADC_SAR_Seq_1_Disable, .-ADC_SAR_Seq_1_Disable
 410              		.section	.text.ADC_SAR_Seq_1_Init,"ax",%progbits
 411              		.align	2
 412              		.global	ADC_SAR_Seq_1_Init
 413              		.thumb
 414              		.thumb_func
 415              		.type	ADC_SAR_Seq_1_Init, %function
 416              	ADC_SAR_Seq_1_Init:
 417              	.LFB5:
 244:.\Generated_Source\PSoC5/ADC_SAR_Seq_1.c **** 
 245:.\Generated_Source\PSoC5/ADC_SAR_Seq_1.c **** 
 246:.\Generated_Source\PSoC5/ADC_SAR_Seq_1.c **** /*******************************************************************************
 247:.\Generated_Source\PSoC5/ADC_SAR_Seq_1.c **** * Function Name: ADC_SAR_Seq_1_Init
 248:.\Generated_Source\PSoC5/ADC_SAR_Seq_1.c **** ********************************************************************************
 249:.\Generated_Source\PSoC5/ADC_SAR_Seq_1.c **** *
 250:.\Generated_Source\PSoC5/ADC_SAR_Seq_1.c **** * Summary:
 251:.\Generated_Source\PSoC5/ADC_SAR_Seq_1.c **** *  Inits channels for DMA transfer. Provides loading period to the AMUX address
 252:.\Generated_Source\PSoC5/ADC_SAR_Seq_1.c **** *  selection counter
 253:.\Generated_Source\PSoC5/ADC_SAR_Seq_1.c **** *
 254:.\Generated_Source\PSoC5/ADC_SAR_Seq_1.c **** * Parameters:
 255:.\Generated_Source\PSoC5/ADC_SAR_Seq_1.c **** *  None.
 256:.\Generated_Source\PSoC5/ADC_SAR_Seq_1.c **** *
 257:.\Generated_Source\PSoC5/ADC_SAR_Seq_1.c **** * Return:
 258:.\Generated_Source\PSoC5/ADC_SAR_Seq_1.c **** *  None.
 259:.\Generated_Source\PSoC5/ADC_SAR_Seq_1.c **** *
 260:.\Generated_Source\PSoC5/ADC_SAR_Seq_1.c **** * Reentrant:
 261:.\Generated_Source\PSoC5/ADC_SAR_Seq_1.c **** *  No.
 262:.\Generated_Source\PSoC5/ADC_SAR_Seq_1.c **** *
 263:.\Generated_Source\PSoC5/ADC_SAR_Seq_1.c **** *******************************************************************************/
ARM GAS  C:\Users\Brian\AppData\Local\Temp\ccjAvsdg.s 			page 13


 264:.\Generated_Source\PSoC5/ADC_SAR_Seq_1.c **** void ADC_SAR_Seq_1_Init(void)
 265:.\Generated_Source\PSoC5/ADC_SAR_Seq_1.c **** {
 418              		.loc 1 265 0
 419              		.cfi_startproc
 420              		@ args = 0, pretend = 0, frame = 0
 421              		@ frame_needed = 1, uses_anonymous_args = 0
 422 0000 80B5     		push	{r7, lr}
 423              	.LCFI11:
 424              		.cfi_def_cfa_offset 8
 425              		.cfi_offset 7, -8
 426              		.cfi_offset 14, -4
 427 0002 00AF     		add	r7, sp, #0
 428              	.LCFI12:
 429              		.cfi_def_cfa_register 7
 266:.\Generated_Source\PSoC5/ADC_SAR_Seq_1.c ****     /* Init DMA, 2 bytes bursts, each burst requires a request */
 267:.\Generated_Source\PSoC5/ADC_SAR_Seq_1.c ****     ADC_SAR_Seq_1_tempChan = ADC_SAR_Seq_1_TempBuf_DmaInitialize(ADC_SAR_Seq_1_TEMP_BYTES_PER_BURST
 430              		.loc 1 267 0
 431 0004 4FF00200 		mov	r0, #2
 432 0008 4FF00101 		mov	r1, #1
 433 000c 4FF48042 		mov	r2, #16384
 434 0010 41F6FF73 		movw	r3, #8191
 435 0014 FFF7FEFF 		bl	ADC_SAR_Seq_1_TempBuf_DmaInitialize
 436 0018 0346     		mov	r3, r0
 437 001a 1A46     		mov	r2, r3
 438 001c 40F20003 		movw	r3, #:lower16:ADC_SAR_Seq_1_tempChan
 439 0020 C0F20003 		movt	r3, #:upper16:ADC_SAR_Seq_1_tempChan
 440 0024 1A70     		strb	r2, [r3, #0]
 268:.\Generated_Source\PSoC5/ADC_SAR_Seq_1.c ****         ADC_SAR_Seq_1_REQUEST_PER_BURST, (uint16)(HI16(CYDEV_PERIPH_BASE)), (uint16)(HI16(CYDEV_SRA
 269:.\Generated_Source\PSoC5/ADC_SAR_Seq_1.c **** 
 270:.\Generated_Source\PSoC5/ADC_SAR_Seq_1.c ****     /* Init DMA, (ADC_SAR_Seq_1_NUMBER_OF_CHANNELS << 1u) bytes bursts, each burst requires a reque
 271:.\Generated_Source\PSoC5/ADC_SAR_Seq_1.c ****     ADC_SAR_Seq_1_finalChan = ADC_SAR_Seq_1_FinalBuf_DmaInitialize(ADC_SAR_Seq_1_FINAL_BYTES_PER_BU
 441              		.loc 1 271 0
 442 0026 4FF01400 		mov	r0, #20
 443 002a 4FF00101 		mov	r1, #1
 444 002e 41F6FF72 		movw	r2, #8191
 445 0032 41F6FF73 		movw	r3, #8191
 446 0036 FFF7FEFF 		bl	ADC_SAR_Seq_1_FinalBuf_DmaInitialize
 447 003a 0346     		mov	r3, r0
 448 003c 1A46     		mov	r2, r3
 449 003e 40F20003 		movw	r3, #:lower16:ADC_SAR_Seq_1_finalChan
 450 0042 C0F20003 		movt	r3, #:upper16:ADC_SAR_Seq_1_finalChan
 451 0046 1A70     		strb	r2, [r3, #0]
 272:.\Generated_Source\PSoC5/ADC_SAR_Seq_1.c ****         ADC_SAR_Seq_1_REQUEST_PER_BURST, (uint16)(HI16(CYDEV_SRAM_BASE)), (uint16)(HI16(CYDEV_SRAM_
 273:.\Generated_Source\PSoC5/ADC_SAR_Seq_1.c **** 
 274:.\Generated_Source\PSoC5/ADC_SAR_Seq_1.c ****     #if(ADC_SAR_Seq_1_IRQ_REMOVE == 0u)
 275:.\Generated_Source\PSoC5/ADC_SAR_Seq_1.c ****         /* Set the ISR to point to the ADC_SAR_SEQ_1_IRQ Interrupt. */
 276:.\Generated_Source\PSoC5/ADC_SAR_Seq_1.c ****         ADC_SAR_Seq_1_IRQ_SetVector(&ADC_SAR_Seq_1_ISR);
 452              		.loc 1 276 0
 453 0048 40F20000 		movw	r0, #:lower16:ADC_SAR_Seq_1_ISR
 454 004c C0F20000 		movt	r0, #:upper16:ADC_SAR_Seq_1_ISR
 455 0050 FFF7FEFF 		bl	ADC_SAR_Seq_1_IRQ_SetVector
 277:.\Generated_Source\PSoC5/ADC_SAR_Seq_1.c ****         /* Set the priority. */
 278:.\Generated_Source\PSoC5/ADC_SAR_Seq_1.c ****         ADC_SAR_Seq_1_IRQ_SetPriority((uint8)ADC_SAR_Seq_1_INTC_NUMBER);
 456              		.loc 1 278 0
 457 0054 4FF00100 		mov	r0, #1
 458 0058 FFF7FEFF 		bl	ADC_SAR_Seq_1_IRQ_SetPriority
 279:.\Generated_Source\PSoC5/ADC_SAR_Seq_1.c ****     #endif   /* End ADC_SAR_Seq_1_IRQ_REMOVE */
ARM GAS  C:\Users\Brian\AppData\Local\Temp\ccjAvsdg.s 			page 14


 280:.\Generated_Source\PSoC5/ADC_SAR_Seq_1.c **** 
 281:.\Generated_Source\PSoC5/ADC_SAR_Seq_1.c **** }
 459              		.loc 1 281 0
 460 005c 80BD     		pop	{r7, pc}
 461              		.cfi_endproc
 462              	.LFE5:
 463              		.size	ADC_SAR_Seq_1_Init, .-ADC_SAR_Seq_1_Init
 464 005e 00BF     		.section	.text.ADC_SAR_Seq_1_Enable,"ax",%progbits
 465              		.align	2
 466              		.global	ADC_SAR_Seq_1_Enable
 467              		.thumb
 468              		.thumb_func
 469              		.type	ADC_SAR_Seq_1_Enable, %function
 470              	ADC_SAR_Seq_1_Enable:
 471              	.LFB6:
 282:.\Generated_Source\PSoC5/ADC_SAR_Seq_1.c **** 
 283:.\Generated_Source\PSoC5/ADC_SAR_Seq_1.c **** 
 284:.\Generated_Source\PSoC5/ADC_SAR_Seq_1.c **** /*******************************************************************************
 285:.\Generated_Source\PSoC5/ADC_SAR_Seq_1.c **** * Function Name: ADC_SAR_Seq_1_Enable
 286:.\Generated_Source\PSoC5/ADC_SAR_Seq_1.c **** ********************************************************************************
 287:.\Generated_Source\PSoC5/ADC_SAR_Seq_1.c **** *
 288:.\Generated_Source\PSoC5/ADC_SAR_Seq_1.c **** * Summary:
 289:.\Generated_Source\PSoC5/ADC_SAR_Seq_1.c **** *  Enables DMA channels, address selection counter and FSM of Base component
 290:.\Generated_Source\PSoC5/ADC_SAR_Seq_1.c **** *
 291:.\Generated_Source\PSoC5/ADC_SAR_Seq_1.c **** * Parameters:
 292:.\Generated_Source\PSoC5/ADC_SAR_Seq_1.c **** *  None.
 293:.\Generated_Source\PSoC5/ADC_SAR_Seq_1.c **** *
 294:.\Generated_Source\PSoC5/ADC_SAR_Seq_1.c **** * Return:
 295:.\Generated_Source\PSoC5/ADC_SAR_Seq_1.c **** *  None.
 296:.\Generated_Source\PSoC5/ADC_SAR_Seq_1.c **** *
 297:.\Generated_Source\PSoC5/ADC_SAR_Seq_1.c **** * Side Effects:
 298:.\Generated_Source\PSoC5/ADC_SAR_Seq_1.c **** *  None.
 299:.\Generated_Source\PSoC5/ADC_SAR_Seq_1.c **** *
 300:.\Generated_Source\PSoC5/ADC_SAR_Seq_1.c **** * Reentrant:
 301:.\Generated_Source\PSoC5/ADC_SAR_Seq_1.c **** *  No.
 302:.\Generated_Source\PSoC5/ADC_SAR_Seq_1.c **** *
 303:.\Generated_Source\PSoC5/ADC_SAR_Seq_1.c **** *******************************************************************************/
 304:.\Generated_Source\PSoC5/ADC_SAR_Seq_1.c **** void ADC_SAR_Seq_1_Enable(void)
 305:.\Generated_Source\PSoC5/ADC_SAR_Seq_1.c **** {
 472              		.loc 1 305 0
 473              		.cfi_startproc
 474              		@ args = 0, pretend = 0, frame = 8
 475              		@ frame_needed = 1, uses_anonymous_args = 0
 476 0000 80B5     		push	{r7, lr}
 477              	.LCFI13:
 478              		.cfi_def_cfa_offset 8
 479              		.cfi_offset 7, -8
 480              		.cfi_offset 14, -4
 481 0002 82B0     		sub	sp, sp, #8
 482              	.LCFI14:
 483              		.cfi_def_cfa_offset 16
 484 0004 00AF     		add	r7, sp, #0
 485              	.LCFI15:
 486              		.cfi_def_cfa_register 7
 306:.\Generated_Source\PSoC5/ADC_SAR_Seq_1.c ****     uint8 enableInterrupts;
 307:.\Generated_Source\PSoC5/ADC_SAR_Seq_1.c **** 
 308:.\Generated_Source\PSoC5/ADC_SAR_Seq_1.c ****     ADC_SAR_Seq_1_FinalBufDmaInit();
ARM GAS  C:\Users\Brian\AppData\Local\Temp\ccjAvsdg.s 			page 15


 487              		.loc 1 308 0
 488 0006 FFF7FEFF 		bl	ADC_SAR_Seq_1_FinalBufDmaInit
 309:.\Generated_Source\PSoC5/ADC_SAR_Seq_1.c ****     ADC_SAR_Seq_1_TempBufDmaInit();
 489              		.loc 1 309 0
 490 000a FFF7FEFF 		bl	ADC_SAR_Seq_1_TempBufDmaInit
 310:.\Generated_Source\PSoC5/ADC_SAR_Seq_1.c **** 
 311:.\Generated_Source\PSoC5/ADC_SAR_Seq_1.c ****     (void) CyDmaChEnable(ADC_SAR_Seq_1_tempChan, 1u);
 491              		.loc 1 311 0
 492 000e 40F20003 		movw	r3, #:lower16:ADC_SAR_Seq_1_tempChan
 493 0012 C0F20003 		movt	r3, #:upper16:ADC_SAR_Seq_1_tempChan
 494 0016 1B78     		ldrb	r3, [r3, #0]	@ zero_extendqisi2
 495 0018 1846     		mov	r0, r3
 496 001a 4FF00101 		mov	r1, #1
 497 001e FFF7FEFF 		bl	CyDmaChEnable
 312:.\Generated_Source\PSoC5/ADC_SAR_Seq_1.c ****     (void) CyDmaChEnable(ADC_SAR_Seq_1_finalChan, 1u);
 498              		.loc 1 312 0
 499 0022 40F20003 		movw	r3, #:lower16:ADC_SAR_Seq_1_finalChan
 500 0026 C0F20003 		movt	r3, #:upper16:ADC_SAR_Seq_1_finalChan
 501 002a 1B78     		ldrb	r3, [r3, #0]	@ zero_extendqisi2
 502 002c 1846     		mov	r0, r3
 503 002e 4FF00101 		mov	r1, #1
 504 0032 FFF7FEFF 		bl	CyDmaChEnable
 313:.\Generated_Source\PSoC5/ADC_SAR_Seq_1.c **** 
 314:.\Generated_Source\PSoC5/ADC_SAR_Seq_1.c ****     /* Enable Counter and give Enable pulse to set an address of the last channel */
 315:.\Generated_Source\PSoC5/ADC_SAR_Seq_1.c ****     enableInterrupts = CyEnterCriticalSection();
 505              		.loc 1 315 0
 506 0036 FFF7FEFF 		bl	CyEnterCriticalSection
 507 003a 0346     		mov	r3, r0
 508 003c FB71     		strb	r3, [r7, #7]
 316:.\Generated_Source\PSoC5/ADC_SAR_Seq_1.c ****     ADC_SAR_Seq_1_CYCLE_COUNTER_AUX_CONTROL_REG |= ((uint8)(ADC_SAR_Seq_1_CYCLE_COUNTER_ENABLE));
 509              		.loc 1 316 0
 510 003e 46F29753 		movw	r3, #26007
 511 0042 C4F20003 		movt	r3, 16384
 512 0046 46F29752 		movw	r2, #26007
 513 004a C4F20002 		movt	r2, 16384
 514 004e 1278     		ldrb	r2, [r2, #0]
 515 0050 D2B2     		uxtb	r2, r2
 516 0052 42F02002 		orr	r2, r2, #32
 517 0056 D2B2     		uxtb	r2, r2
 518 0058 1A70     		strb	r2, [r3, #0]
 317:.\Generated_Source\PSoC5/ADC_SAR_Seq_1.c ****     CyExitCriticalSection(enableInterrupts);
 519              		.loc 1 317 0
 520 005a FB79     		ldrb	r3, [r7, #7]	@ zero_extendqisi2
 521 005c 1846     		mov	r0, r3
 522 005e FFF7FEFF 		bl	CyExitCriticalSection
 318:.\Generated_Source\PSoC5/ADC_SAR_Seq_1.c **** 
 319:.\Generated_Source\PSoC5/ADC_SAR_Seq_1.c ****     /* Enable FSM of the Base Component */
 320:.\Generated_Source\PSoC5/ADC_SAR_Seq_1.c ****     ADC_SAR_Seq_1_CONTROL_REG |= ((uint8)(ADC_SAR_Seq_1_BASE_COMPONENT_ENABLE));
 523              		.loc 1 320 0
 524 0062 46F27443 		movw	r3, #25716
 525 0066 C4F20003 		movt	r3, 16384
 526 006a 46F27442 		movw	r2, #25716
 527 006e C4F20002 		movt	r2, 16384
 528 0072 1278     		ldrb	r2, [r2, #0]
 529 0074 D2B2     		uxtb	r2, r2
 530 0076 42F00102 		orr	r2, r2, #1
 531 007a D2B2     		uxtb	r2, r2
ARM GAS  C:\Users\Brian\AppData\Local\Temp\ccjAvsdg.s 			page 16


 532 007c 1A70     		strb	r2, [r3, #0]
 321:.\Generated_Source\PSoC5/ADC_SAR_Seq_1.c ****     ADC_SAR_Seq_1_CONTROL_REG |= ((uint8)(ADC_SAR_Seq_1_LOAD_COUNTER_PERIOD));
 533              		.loc 1 321 0
 534 007e 46F27443 		movw	r3, #25716
 535 0082 C4F20003 		movt	r3, 16384
 536 0086 46F27442 		movw	r2, #25716
 537 008a C4F20002 		movt	r2, 16384
 538 008e 1278     		ldrb	r2, [r2, #0]
 539 0090 D2B2     		uxtb	r2, r2
 540 0092 42F00202 		orr	r2, r2, #2
 541 0096 D2B2     		uxtb	r2, r2
 542 0098 1A70     		strb	r2, [r3, #0]
 322:.\Generated_Source\PSoC5/ADC_SAR_Seq_1.c **** 
 323:.\Generated_Source\PSoC5/ADC_SAR_Seq_1.c ****     #if(ADC_SAR_Seq_1_IRQ_REMOVE == 0u)
 324:.\Generated_Source\PSoC5/ADC_SAR_Seq_1.c ****         /* Clear a pending interrupt */
 325:.\Generated_Source\PSoC5/ADC_SAR_Seq_1.c ****         CyIntClearPending(ADC_SAR_Seq_1_INTC_NUMBER);
 543              		.loc 1 325 0
 544 009a 4EF28023 		movw	r3, #57984
 545 009e CEF20003 		movt	r3, 57344
 546 00a2 4FF00202 		mov	r2, #2
 547 00a6 1A60     		str	r2, [r3, #0]
 326:.\Generated_Source\PSoC5/ADC_SAR_Seq_1.c ****     #endif   /* End ADC_SAR_Seq_1_IRQ_REMOVE */
 327:.\Generated_Source\PSoC5/ADC_SAR_Seq_1.c **** }
 548              		.loc 1 327 0
 549 00a8 07F10807 		add	r7, r7, #8
 550 00ac BD46     		mov	sp, r7
 551 00ae 80BD     		pop	{r7, pc}
 552              		.cfi_endproc
 553              	.LFE6:
 554              		.size	ADC_SAR_Seq_1_Enable, .-ADC_SAR_Seq_1_Enable
 555              		.section	.text.ADC_SAR_Seq_1_Start,"ax",%progbits
 556              		.align	2
 557              		.global	ADC_SAR_Seq_1_Start
 558              		.thumb
 559              		.thumb_func
 560              		.type	ADC_SAR_Seq_1_Start, %function
 561              	ADC_SAR_Seq_1_Start:
 562              	.LFB7:
 328:.\Generated_Source\PSoC5/ADC_SAR_Seq_1.c **** 
 329:.\Generated_Source\PSoC5/ADC_SAR_Seq_1.c **** 
 330:.\Generated_Source\PSoC5/ADC_SAR_Seq_1.c **** /*******************************************************************************
 331:.\Generated_Source\PSoC5/ADC_SAR_Seq_1.c **** * Function Name: ADC_SAR_Seq_1_Start
 332:.\Generated_Source\PSoC5/ADC_SAR_Seq_1.c **** ********************************************************************************
 333:.\Generated_Source\PSoC5/ADC_SAR_Seq_1.c **** *
 334:.\Generated_Source\PSoC5/ADC_SAR_Seq_1.c **** * Summary:
 335:.\Generated_Source\PSoC5/ADC_SAR_Seq_1.c **** *  Starts component
 336:.\Generated_Source\PSoC5/ADC_SAR_Seq_1.c **** *
 337:.\Generated_Source\PSoC5/ADC_SAR_Seq_1.c **** * Parameters:
 338:.\Generated_Source\PSoC5/ADC_SAR_Seq_1.c **** *  None.
 339:.\Generated_Source\PSoC5/ADC_SAR_Seq_1.c **** *
 340:.\Generated_Source\PSoC5/ADC_SAR_Seq_1.c **** * Return:
 341:.\Generated_Source\PSoC5/ADC_SAR_Seq_1.c **** *  None.
 342:.\Generated_Source\PSoC5/ADC_SAR_Seq_1.c **** *
 343:.\Generated_Source\PSoC5/ADC_SAR_Seq_1.c **** * Side Effects:
 344:.\Generated_Source\PSoC5/ADC_SAR_Seq_1.c **** *  None.
 345:.\Generated_Source\PSoC5/ADC_SAR_Seq_1.c **** *
 346:.\Generated_Source\PSoC5/ADC_SAR_Seq_1.c **** * Reentrant:
ARM GAS  C:\Users\Brian\AppData\Local\Temp\ccjAvsdg.s 			page 17


 347:.\Generated_Source\PSoC5/ADC_SAR_Seq_1.c **** *  No.
 348:.\Generated_Source\PSoC5/ADC_SAR_Seq_1.c **** *
 349:.\Generated_Source\PSoC5/ADC_SAR_Seq_1.c **** *******************************************************************************/
 350:.\Generated_Source\PSoC5/ADC_SAR_Seq_1.c **** void ADC_SAR_Seq_1_Start(void)
 351:.\Generated_Source\PSoC5/ADC_SAR_Seq_1.c **** {
 563              		.loc 1 351 0
 564              		.cfi_startproc
 565              		@ args = 0, pretend = 0, frame = 0
 566              		@ frame_needed = 1, uses_anonymous_args = 0
 567 0000 80B5     		push	{r7, lr}
 568              	.LCFI16:
 569              		.cfi_def_cfa_offset 8
 570              		.cfi_offset 7, -8
 571              		.cfi_offset 14, -4
 572 0002 00AF     		add	r7, sp, #0
 573              	.LCFI17:
 574              		.cfi_def_cfa_register 7
 352:.\Generated_Source\PSoC5/ADC_SAR_Seq_1.c ****     if(ADC_SAR_Seq_1_initVar == 0u)
 575              		.loc 1 352 0
 576 0004 40F20003 		movw	r3, #:lower16:ADC_SAR_Seq_1_initVar
 577 0008 C0F20003 		movt	r3, #:upper16:ADC_SAR_Seq_1_initVar
 578 000c 1B68     		ldr	r3, [r3, #0]
 579 000e 002B     		cmp	r3, #0
 580 0010 08D1     		bne	.L13
 353:.\Generated_Source\PSoC5/ADC_SAR_Seq_1.c ****     {
 354:.\Generated_Source\PSoC5/ADC_SAR_Seq_1.c ****         ADC_SAR_Seq_1_Init();
 581              		.loc 1 354 0
 582 0012 FFF7FEFF 		bl	ADC_SAR_Seq_1_Init
 355:.\Generated_Source\PSoC5/ADC_SAR_Seq_1.c ****         ADC_SAR_Seq_1_initVar = 1u;
 583              		.loc 1 355 0
 584 0016 40F20003 		movw	r3, #:lower16:ADC_SAR_Seq_1_initVar
 585 001a C0F20003 		movt	r3, #:upper16:ADC_SAR_Seq_1_initVar
 586 001e 4FF00102 		mov	r2, #1
 587 0022 1A60     		str	r2, [r3, #0]
 588              	.L13:
 356:.\Generated_Source\PSoC5/ADC_SAR_Seq_1.c ****     }
 357:.\Generated_Source\PSoC5/ADC_SAR_Seq_1.c **** 
 358:.\Generated_Source\PSoC5/ADC_SAR_Seq_1.c ****     ADC_SAR_Seq_1_Enable();
 589              		.loc 1 358 0
 590 0024 FFF7FEFF 		bl	ADC_SAR_Seq_1_Enable
 359:.\Generated_Source\PSoC5/ADC_SAR_Seq_1.c ****     ADC_SAR_Seq_1_SAR_Start();
 591              		.loc 1 359 0
 592 0028 FFF7FEFF 		bl	ADC_SAR_Seq_1_SAR_Start
 360:.\Generated_Source\PSoC5/ADC_SAR_Seq_1.c ****     (void) CY_GET_REG8(ADC_SAR_Seq_1_STATUS_PTR);
 593              		.loc 1 360 0
 594 002c 46F26443 		movw	r3, #25700
 595 0030 C4F20003 		movt	r3, 16384
 596 0034 1B78     		ldrb	r3, [r3, #0]
 361:.\Generated_Source\PSoC5/ADC_SAR_Seq_1.c **** 
 362:.\Generated_Source\PSoC5/ADC_SAR_Seq_1.c **** }
 597              		.loc 1 362 0
 598 0036 80BD     		pop	{r7, pc}
 599              		.cfi_endproc
 600              	.LFE7:
 601              		.size	ADC_SAR_Seq_1_Start, .-ADC_SAR_Seq_1_Start
 602              		.section	.text.ADC_SAR_Seq_1_Stop,"ax",%progbits
 603              		.align	2
ARM GAS  C:\Users\Brian\AppData\Local\Temp\ccjAvsdg.s 			page 18


 604              		.global	ADC_SAR_Seq_1_Stop
 605              		.thumb
 606              		.thumb_func
 607              		.type	ADC_SAR_Seq_1_Stop, %function
 608              	ADC_SAR_Seq_1_Stop:
 609              	.LFB8:
 363:.\Generated_Source\PSoC5/ADC_SAR_Seq_1.c **** 
 364:.\Generated_Source\PSoC5/ADC_SAR_Seq_1.c **** 
 365:.\Generated_Source\PSoC5/ADC_SAR_Seq_1.c **** /*******************************************************************************
 366:.\Generated_Source\PSoC5/ADC_SAR_Seq_1.c **** * Function Name: ADC_SAR_Seq_1_Stop
 367:.\Generated_Source\PSoC5/ADC_SAR_Seq_1.c **** ********************************************************************************
 368:.\Generated_Source\PSoC5/ADC_SAR_Seq_1.c **** *
 369:.\Generated_Source\PSoC5/ADC_SAR_Seq_1.c **** * Summary:
 370:.\Generated_Source\PSoC5/ADC_SAR_Seq_1.c **** *  Stops component.
 371:.\Generated_Source\PSoC5/ADC_SAR_Seq_1.c **** *
 372:.\Generated_Source\PSoC5/ADC_SAR_Seq_1.c **** * Parameters:
 373:.\Generated_Source\PSoC5/ADC_SAR_Seq_1.c **** *  None.
 374:.\Generated_Source\PSoC5/ADC_SAR_Seq_1.c **** *
 375:.\Generated_Source\PSoC5/ADC_SAR_Seq_1.c **** * Return:
 376:.\Generated_Source\PSoC5/ADC_SAR_Seq_1.c **** *  None.
 377:.\Generated_Source\PSoC5/ADC_SAR_Seq_1.c **** *
 378:.\Generated_Source\PSoC5/ADC_SAR_Seq_1.c **** * Side Effects:
 379:.\Generated_Source\PSoC5/ADC_SAR_Seq_1.c **** *  None.
 380:.\Generated_Source\PSoC5/ADC_SAR_Seq_1.c **** *
 381:.\Generated_Source\PSoC5/ADC_SAR_Seq_1.c **** * Reentrant:
 382:.\Generated_Source\PSoC5/ADC_SAR_Seq_1.c **** *  No.
 383:.\Generated_Source\PSoC5/ADC_SAR_Seq_1.c **** *
 384:.\Generated_Source\PSoC5/ADC_SAR_Seq_1.c **** *******************************************************************************/
 385:.\Generated_Source\PSoC5/ADC_SAR_Seq_1.c **** void ADC_SAR_Seq_1_Stop(void)
 386:.\Generated_Source\PSoC5/ADC_SAR_Seq_1.c **** {
 610              		.loc 1 386 0
 611              		.cfi_startproc
 612              		@ args = 0, pretend = 0, frame = 0
 613              		@ frame_needed = 1, uses_anonymous_args = 0
 614 0000 80B5     		push	{r7, lr}
 615              	.LCFI18:
 616              		.cfi_def_cfa_offset 8
 617              		.cfi_offset 7, -8
 618              		.cfi_offset 14, -4
 619 0002 00AF     		add	r7, sp, #0
 620              	.LCFI19:
 621              		.cfi_def_cfa_register 7
 387:.\Generated_Source\PSoC5/ADC_SAR_Seq_1.c ****     ADC_SAR_Seq_1_SAR_Stop();
 622              		.loc 1 387 0
 623 0004 FFF7FEFF 		bl	ADC_SAR_Seq_1_SAR_Stop
 388:.\Generated_Source\PSoC5/ADC_SAR_Seq_1.c ****     ADC_SAR_Seq_1_Disable();
 624              		.loc 1 388 0
 625 0008 FFF7FEFF 		bl	ADC_SAR_Seq_1_Disable
 389:.\Generated_Source\PSoC5/ADC_SAR_Seq_1.c **** }
 626              		.loc 1 389 0
 627 000c 80BD     		pop	{r7, pc}
 628              		.cfi_endproc
 629              	.LFE8:
 630              		.size	ADC_SAR_Seq_1_Stop, .-ADC_SAR_Seq_1_Stop
 631 000e 00BF     		.section	.text.ADC_SAR_Seq_1_StartConvert,"ax",%progbits
 632              		.align	2
 633              		.global	ADC_SAR_Seq_1_StartConvert
ARM GAS  C:\Users\Brian\AppData\Local\Temp\ccjAvsdg.s 			page 19


 634              		.thumb
 635              		.thumb_func
 636              		.type	ADC_SAR_Seq_1_StartConvert, %function
 637              	ADC_SAR_Seq_1_StartConvert:
 638              	.LFB9:
 390:.\Generated_Source\PSoC5/ADC_SAR_Seq_1.c **** 
 391:.\Generated_Source\PSoC5/ADC_SAR_Seq_1.c **** #if(ADC_SAR_Seq_1_SAMPLE_MODE != ADC_SAR_Seq_1_SAMPLE_MODE_HW_TRIGGERED)
 392:.\Generated_Source\PSoC5/ADC_SAR_Seq_1.c **** 
 393:.\Generated_Source\PSoC5/ADC_SAR_Seq_1.c ****     /*******************************************************************************
 394:.\Generated_Source\PSoC5/ADC_SAR_Seq_1.c ****     * Function Name: ADC_SAR_Seq_1_StartConvert
 395:.\Generated_Source\PSoC5/ADC_SAR_Seq_1.c ****     ********************************************************************************
 396:.\Generated_Source\PSoC5/ADC_SAR_Seq_1.c ****     *
 397:.\Generated_Source\PSoC5/ADC_SAR_Seq_1.c ****     * Summary:
 398:.\Generated_Source\PSoC5/ADC_SAR_Seq_1.c ****     *  When the Sample Mode parameter is set to 'Free Running', the component will
 399:.\Generated_Source\PSoC5/ADC_SAR_Seq_1.c ****     * operate in a continuous mode. The channels will be scanned continuously until
 400:.\Generated_Source\PSoC5/ADC_SAR_Seq_1.c ****     * _StopConvert()or  _Stop() is called
 401:.\Generated_Source\PSoC5/ADC_SAR_Seq_1.c ****     *
 402:.\Generated_Source\PSoC5/ADC_SAR_Seq_1.c ****     * Parameters:
 403:.\Generated_Source\PSoC5/ADC_SAR_Seq_1.c ****     *  None.
 404:.\Generated_Source\PSoC5/ADC_SAR_Seq_1.c ****     *
 405:.\Generated_Source\PSoC5/ADC_SAR_Seq_1.c ****     * Return:
 406:.\Generated_Source\PSoC5/ADC_SAR_Seq_1.c ****     *  None.
 407:.\Generated_Source\PSoC5/ADC_SAR_Seq_1.c ****     *
 408:.\Generated_Source\PSoC5/ADC_SAR_Seq_1.c ****     * Side Effects:
 409:.\Generated_Source\PSoC5/ADC_SAR_Seq_1.c ****     *  None.
 410:.\Generated_Source\PSoC5/ADC_SAR_Seq_1.c ****     *
 411:.\Generated_Source\PSoC5/ADC_SAR_Seq_1.c ****     * Reentrant:
 412:.\Generated_Source\PSoC5/ADC_SAR_Seq_1.c ****     *  No.
 413:.\Generated_Source\PSoC5/ADC_SAR_Seq_1.c ****     *
 414:.\Generated_Source\PSoC5/ADC_SAR_Seq_1.c ****     *******************************************************************************/
 415:.\Generated_Source\PSoC5/ADC_SAR_Seq_1.c ****     void ADC_SAR_Seq_1_StartConvert(void)
 416:.\Generated_Source\PSoC5/ADC_SAR_Seq_1.c ****     {
 639              		.loc 1 416 0
 640              		.cfi_startproc
 641              		@ args = 0, pretend = 0, frame = 0
 642              		@ frame_needed = 1, uses_anonymous_args = 0
 643 0000 80B5     		push	{r7, lr}
 644              	.LCFI20:
 645              		.cfi_def_cfa_offset 8
 646              		.cfi_offset 7, -8
 647              		.cfi_offset 14, -4
 648 0002 00AF     		add	r7, sp, #0
 649              	.LCFI21:
 650              		.cfi_def_cfa_register 7
 417:.\Generated_Source\PSoC5/ADC_SAR_Seq_1.c ****         #if(ADC_SAR_Seq_1_SAMPLE_MODE != ADC_SAR_Seq_1_SAMPLE_MODE_FREE_RUNNING)
 418:.\Generated_Source\PSoC5/ADC_SAR_Seq_1.c **** 
 419:.\Generated_Source\PSoC5/ADC_SAR_Seq_1.c ****             ADC_SAR_Seq_1_CONTROL_REG |= ((uint8)(ADC_SAR_Seq_1_SOFTWARE_SOC_PULSE));
 420:.\Generated_Source\PSoC5/ADC_SAR_Seq_1.c **** 
 421:.\Generated_Source\PSoC5/ADC_SAR_Seq_1.c ****         #else
 422:.\Generated_Source\PSoC5/ADC_SAR_Seq_1.c **** 
 423:.\Generated_Source\PSoC5/ADC_SAR_Seq_1.c ****             ADC_SAR_Seq_1_SAR_StartConvert();
 651              		.loc 1 423 0
 652 0004 FFF7FEFF 		bl	ADC_SAR_Seq_1_SAR_StartConvert
 424:.\Generated_Source\PSoC5/ADC_SAR_Seq_1.c **** 
 425:.\Generated_Source\PSoC5/ADC_SAR_Seq_1.c ****         #endif /*
 426:.\Generated_Source\PSoC5/ADC_SAR_Seq_1.c ****                  #if(ADC_SAR_Seq_1_SAMPLE_MODE !=
 427:.\Generated_Source\PSoC5/ADC_SAR_Seq_1.c ****                  ADC_SAR_Seq_1_SAMPLE_MODE_FREE_RUNNING)
ARM GAS  C:\Users\Brian\AppData\Local\Temp\ccjAvsdg.s 			page 20


 428:.\Generated_Source\PSoC5/ADC_SAR_Seq_1.c ****                */
 429:.\Generated_Source\PSoC5/ADC_SAR_Seq_1.c ****     }
 653              		.loc 1 429 0
 654 0008 80BD     		pop	{r7, pc}
 655              		.cfi_endproc
 656              	.LFE9:
 657              		.size	ADC_SAR_Seq_1_StartConvert, .-ADC_SAR_Seq_1_StartConvert
 658 000a 00BF     		.section	.text.ADC_SAR_Seq_1_StopConvert,"ax",%progbits
 659              		.align	2
 660              		.global	ADC_SAR_Seq_1_StopConvert
 661              		.thumb
 662              		.thumb_func
 663              		.type	ADC_SAR_Seq_1_StopConvert, %function
 664              	ADC_SAR_Seq_1_StopConvert:
 665              	.LFB10:
 430:.\Generated_Source\PSoC5/ADC_SAR_Seq_1.c **** 
 431:.\Generated_Source\PSoC5/ADC_SAR_Seq_1.c **** 
 432:.\Generated_Source\PSoC5/ADC_SAR_Seq_1.c ****     /*******************************************************************************
 433:.\Generated_Source\PSoC5/ADC_SAR_Seq_1.c ****     * Function Name: ADC_SAR_Seq_1_StopConvert
 434:.\Generated_Source\PSoC5/ADC_SAR_Seq_1.c ****     ********************************************************************************
 435:.\Generated_Source\PSoC5/ADC_SAR_Seq_1.c ****     *
 436:.\Generated_Source\PSoC5/ADC_SAR_Seq_1.c ****     * Summary:
 437:.\Generated_Source\PSoC5/ADC_SAR_Seq_1.c ****     *  Forces the component to stop all conversions
 438:.\Generated_Source\PSoC5/ADC_SAR_Seq_1.c ****     *
 439:.\Generated_Source\PSoC5/ADC_SAR_Seq_1.c ****     * Parameters:
 440:.\Generated_Source\PSoC5/ADC_SAR_Seq_1.c ****     *  None.
 441:.\Generated_Source\PSoC5/ADC_SAR_Seq_1.c ****     *
 442:.\Generated_Source\PSoC5/ADC_SAR_Seq_1.c ****     * Return:
 443:.\Generated_Source\PSoC5/ADC_SAR_Seq_1.c ****     *  None.
 444:.\Generated_Source\PSoC5/ADC_SAR_Seq_1.c ****     *
 445:.\Generated_Source\PSoC5/ADC_SAR_Seq_1.c ****     * Side Effects:
 446:.\Generated_Source\PSoC5/ADC_SAR_Seq_1.c ****     *  None.
 447:.\Generated_Source\PSoC5/ADC_SAR_Seq_1.c ****     *
 448:.\Generated_Source\PSoC5/ADC_SAR_Seq_1.c ****     * Reentrant:
 449:.\Generated_Source\PSoC5/ADC_SAR_Seq_1.c ****     *  No.
 450:.\Generated_Source\PSoC5/ADC_SAR_Seq_1.c ****     *
 451:.\Generated_Source\PSoC5/ADC_SAR_Seq_1.c ****     *******************************************************************************/
 452:.\Generated_Source\PSoC5/ADC_SAR_Seq_1.c ****     void ADC_SAR_Seq_1_StopConvert(void)
 453:.\Generated_Source\PSoC5/ADC_SAR_Seq_1.c ****     {
 666              		.loc 1 453 0
 667              		.cfi_startproc
 668              		@ args = 0, pretend = 0, frame = 0
 669              		@ frame_needed = 1, uses_anonymous_args = 0
 670 0000 80B5     		push	{r7, lr}
 671              	.LCFI22:
 672              		.cfi_def_cfa_offset 8
 673              		.cfi_offset 7, -8
 674              		.cfi_offset 14, -4
 675 0002 00AF     		add	r7, sp, #0
 676              	.LCFI23:
 677              		.cfi_def_cfa_register 7
 454:.\Generated_Source\PSoC5/ADC_SAR_Seq_1.c ****         ADC_SAR_Seq_1_SAR_StopConvert();
 678              		.loc 1 454 0
 679 0004 FFF7FEFF 		bl	ADC_SAR_Seq_1_SAR_StopConvert
 455:.\Generated_Source\PSoC5/ADC_SAR_Seq_1.c ****     }
 680              		.loc 1 455 0
 681 0008 80BD     		pop	{r7, pc}
ARM GAS  C:\Users\Brian\AppData\Local\Temp\ccjAvsdg.s 			page 21


 682              		.cfi_endproc
 683              	.LFE10:
 684              		.size	ADC_SAR_Seq_1_StopConvert, .-ADC_SAR_Seq_1_StopConvert
 685 000a 00BF     		.section	.text.ADC_SAR_Seq_1_IsEndConversion,"ax",%progbits
 686              		.align	2
 687              		.global	ADC_SAR_Seq_1_IsEndConversion
 688              		.thumb
 689              		.thumb_func
 690              		.type	ADC_SAR_Seq_1_IsEndConversion, %function
 691              	ADC_SAR_Seq_1_IsEndConversion:
 692              	.LFB11:
 456:.\Generated_Source\PSoC5/ADC_SAR_Seq_1.c **** 
 457:.\Generated_Source\PSoC5/ADC_SAR_Seq_1.c **** #endif /* ADC_SAR_Seq_1_SAMPLE_MODE != ADC_SAR_Seq_1_SAMPLE_MODE_HW_TRIGGERED */
 458:.\Generated_Source\PSoC5/ADC_SAR_Seq_1.c **** 
 459:.\Generated_Source\PSoC5/ADC_SAR_Seq_1.c **** 
 460:.\Generated_Source\PSoC5/ADC_SAR_Seq_1.c **** /*******************************************************************************
 461:.\Generated_Source\PSoC5/ADC_SAR_Seq_1.c **** * Function Name: ADC_SAR_Seq_1_IsEndConversion
 462:.\Generated_Source\PSoC5/ADC_SAR_Seq_1.c **** ********************************************************************************
 463:.\Generated_Source\PSoC5/ADC_SAR_Seq_1.c **** *
 464:.\Generated_Source\PSoC5/ADC_SAR_Seq_1.c **** * Summary:
 465:.\Generated_Source\PSoC5/ADC_SAR_Seq_1.c **** *  Checks for ADC end of conversion for the case one channel and end of scan
 466:.\Generated_Source\PSoC5/ADC_SAR_Seq_1.c **** *  for the case of multiple channels
 467:.\Generated_Source\PSoC5/ADC_SAR_Seq_1.c **** *
 468:.\Generated_Source\PSoC5/ADC_SAR_Seq_1.c **** * Parameters:
 469:.\Generated_Source\PSoC5/ADC_SAR_Seq_1.c **** *  None.
 470:.\Generated_Source\PSoC5/ADC_SAR_Seq_1.c **** *
 471:.\Generated_Source\PSoC5/ADC_SAR_Seq_1.c **** * Return:
 472:.\Generated_Source\PSoC5/ADC_SAR_Seq_1.c **** *  None.
 473:.\Generated_Source\PSoC5/ADC_SAR_Seq_1.c **** *
 474:.\Generated_Source\PSoC5/ADC_SAR_Seq_1.c **** * Side Effects:
 475:.\Generated_Source\PSoC5/ADC_SAR_Seq_1.c **** *  None.
 476:.\Generated_Source\PSoC5/ADC_SAR_Seq_1.c **** *
 477:.\Generated_Source\PSoC5/ADC_SAR_Seq_1.c **** * Reentrant:
 478:.\Generated_Source\PSoC5/ADC_SAR_Seq_1.c **** *  No.
 479:.\Generated_Source\PSoC5/ADC_SAR_Seq_1.c **** *
 480:.\Generated_Source\PSoC5/ADC_SAR_Seq_1.c **** *******************************************************************************/
 481:.\Generated_Source\PSoC5/ADC_SAR_Seq_1.c **** uint32 ADC_SAR_Seq_1_IsEndConversion(uint8 retMode)
 482:.\Generated_Source\PSoC5/ADC_SAR_Seq_1.c **** {
 693              		.loc 1 482 0
 694              		.cfi_startproc
 695              		@ args = 0, pretend = 0, frame = 16
 696              		@ frame_needed = 1, uses_anonymous_args = 0
 697              		@ link register save eliminated.
 698 0000 80B4     		push	{r7}
 699              	.LCFI24:
 700              		.cfi_def_cfa_offset 4
 701              		.cfi_offset 7, -4
 702 0002 85B0     		sub	sp, sp, #20
 703              	.LCFI25:
 704              		.cfi_def_cfa_offset 24
 705 0004 00AF     		add	r7, sp, #0
 706              	.LCFI26:
 707              		.cfi_def_cfa_register 7
 708 0006 0346     		mov	r3, r0
 709 0008 FB71     		strb	r3, [r7, #7]
 710              	.L19:
 483:.\Generated_Source\PSoC5/ADC_SAR_Seq_1.c ****     uint8 status;
ARM GAS  C:\Users\Brian\AppData\Local\Temp\ccjAvsdg.s 			page 22


 484:.\Generated_Source\PSoC5/ADC_SAR_Seq_1.c **** 
 485:.\Generated_Source\PSoC5/ADC_SAR_Seq_1.c ****     do
 486:.\Generated_Source\PSoC5/ADC_SAR_Seq_1.c ****     {
 487:.\Generated_Source\PSoC5/ADC_SAR_Seq_1.c ****       status = ADC_SAR_Seq_1_STATUS_REG;
 711              		.loc 1 487 0 discriminator 1
 712 000a 46F26443 		movw	r3, #25700
 713 000e C4F20003 		movt	r3, 16384
 714 0012 1B78     		ldrb	r3, [r3, #0]
 715 0014 FB73     		strb	r3, [r7, #15]
 488:.\Generated_Source\PSoC5/ADC_SAR_Seq_1.c ****     } while ((status == 0u) && (retMode == ADC_SAR_Seq_1_WAIT_FOR_RESULT));
 716              		.loc 1 488 0 discriminator 1
 717 0016 FB7B     		ldrb	r3, [r7, #15]	@ zero_extendqisi2
 718 0018 002B     		cmp	r3, #0
 719 001a 02D1     		bne	.L18
 720 001c FB79     		ldrb	r3, [r7, #7]	@ zero_extendqisi2
 721 001e 002B     		cmp	r3, #0
 722 0020 F3D0     		beq	.L19
 723              	.L18:
 489:.\Generated_Source\PSoC5/ADC_SAR_Seq_1.c **** 
 490:.\Generated_Source\PSoC5/ADC_SAR_Seq_1.c ****     return((uint32)status);
 724              		.loc 1 490 0
 725 0022 FB7B     		ldrb	r3, [r7, #15]	@ zero_extendqisi2
 491:.\Generated_Source\PSoC5/ADC_SAR_Seq_1.c **** }
 726              		.loc 1 491 0
 727 0024 1846     		mov	r0, r3
 728 0026 07F11407 		add	r7, r7, #20
 729 002a BD46     		mov	sp, r7
 730 002c 80BC     		pop	{r7}
 731 002e 7047     		bx	lr
 732              		.cfi_endproc
 733              	.LFE11:
 734              		.size	ADC_SAR_Seq_1_IsEndConversion, .-ADC_SAR_Seq_1_IsEndConversion
 735              		.section	.text.ADC_SAR_Seq_1_GetResult16,"ax",%progbits
 736              		.align	2
 737              		.global	ADC_SAR_Seq_1_GetResult16
 738              		.thumb
 739              		.thumb_func
 740              		.type	ADC_SAR_Seq_1_GetResult16, %function
 741              	ADC_SAR_Seq_1_GetResult16:
 742              	.LFB12:
 492:.\Generated_Source\PSoC5/ADC_SAR_Seq_1.c **** 
 493:.\Generated_Source\PSoC5/ADC_SAR_Seq_1.c **** 
 494:.\Generated_Source\PSoC5/ADC_SAR_Seq_1.c **** /*******************************************************************************
 495:.\Generated_Source\PSoC5/ADC_SAR_Seq_1.c **** * Function Name: ADC_SAR_Seq_1_GetResult16
 496:.\Generated_Source\PSoC5/ADC_SAR_Seq_1.c **** ********************************************************************************
 497:.\Generated_Source\PSoC5/ADC_SAR_Seq_1.c **** *
 498:.\Generated_Source\PSoC5/ADC_SAR_Seq_1.c **** * Summary:
 499:.\Generated_Source\PSoC5/ADC_SAR_Seq_1.c **** *  Returns the ADC result for channel chan
 500:.\Generated_Source\PSoC5/ADC_SAR_Seq_1.c **** *
 501:.\Generated_Source\PSoC5/ADC_SAR_Seq_1.c **** * Parameters:
 502:.\Generated_Source\PSoC5/ADC_SAR_Seq_1.c **** *  None.
 503:.\Generated_Source\PSoC5/ADC_SAR_Seq_1.c **** *
 504:.\Generated_Source\PSoC5/ADC_SAR_Seq_1.c **** * Return:
 505:.\Generated_Source\PSoC5/ADC_SAR_Seq_1.c **** *  None.
 506:.\Generated_Source\PSoC5/ADC_SAR_Seq_1.c **** *
 507:.\Generated_Source\PSoC5/ADC_SAR_Seq_1.c **** * Side Effects:
 508:.\Generated_Source\PSoC5/ADC_SAR_Seq_1.c **** *  None.
ARM GAS  C:\Users\Brian\AppData\Local\Temp\ccjAvsdg.s 			page 23


 509:.\Generated_Source\PSoC5/ADC_SAR_Seq_1.c **** *
 510:.\Generated_Source\PSoC5/ADC_SAR_Seq_1.c **** * Reentrant:
 511:.\Generated_Source\PSoC5/ADC_SAR_Seq_1.c **** *  No.
 512:.\Generated_Source\PSoC5/ADC_SAR_Seq_1.c **** *
 513:.\Generated_Source\PSoC5/ADC_SAR_Seq_1.c **** *******************************************************************************/
 514:.\Generated_Source\PSoC5/ADC_SAR_Seq_1.c **** int16 ADC_SAR_Seq_1_GetResult16(uint16 chan)
 515:.\Generated_Source\PSoC5/ADC_SAR_Seq_1.c **** {
 743              		.loc 1 515 0
 744              		.cfi_startproc
 745              		@ args = 0, pretend = 0, frame = 8
 746              		@ frame_needed = 1, uses_anonymous_args = 0
 747              		@ link register save eliminated.
 748 0000 80B4     		push	{r7}
 749              	.LCFI27:
 750              		.cfi_def_cfa_offset 4
 751              		.cfi_offset 7, -4
 752 0002 83B0     		sub	sp, sp, #12
 753              	.LCFI28:
 754              		.cfi_def_cfa_offset 16
 755 0004 00AF     		add	r7, sp, #0
 756              	.LCFI29:
 757              		.cfi_def_cfa_register 7
 758 0006 0346     		mov	r3, r0
 759 0008 FB80     		strh	r3, [r7, #6]	@ movhi
 516:.\Generated_Source\PSoC5/ADC_SAR_Seq_1.c ****     return (ADC_SAR_Seq_1_finalArray[ADC_SAR_Seq_1_GET_RESULT_INDEX_OFFSET - chan] - ADC_SAR_Seq_1_
 760              		.loc 1 516 0
 761 000a FB88     		ldrh	r3, [r7, #6]
 762 000c C3F10902 		rsb	r2, r3, #9
 763 0010 40F20003 		movw	r3, #:lower16:ADC_SAR_Seq_1_finalArray
 764 0014 C0F20003 		movt	r3, #:upper16:ADC_SAR_Seq_1_finalArray
 765 0018 33F81230 		ldrh	r3, [r3, r2, lsl #1]
 766 001c 9AB2     		uxth	r2, r3
 767 001e 40F20003 		movw	r3, #:lower16:ADC_SAR_Seq_1_SAR_shift
 768 0022 C0F20003 		movt	r3, #:upper16:ADC_SAR_Seq_1_SAR_shift
 769 0026 1B88     		ldrh	r3, [r3, #0]	@ movhi
 770 0028 9BB2     		uxth	r3, r3
 771 002a 9BB2     		uxth	r3, r3
 772 002c D31A     		subs	r3, r2, r3
 773 002e 9BB2     		uxth	r3, r3
 774 0030 9BB2     		uxth	r3, r3
 775 0032 1BB2     		sxth	r3, r3
 517:.\Generated_Source\PSoC5/ADC_SAR_Seq_1.c **** }
 776              		.loc 1 517 0
 777 0034 1846     		mov	r0, r3
 778 0036 07F10C07 		add	r7, r7, #12
 779 003a BD46     		mov	sp, r7
 780 003c 80BC     		pop	{r7}
 781 003e 7047     		bx	lr
 782              		.cfi_endproc
 783              	.LFE12:
 784              		.size	ADC_SAR_Seq_1_GetResult16, .-ADC_SAR_Seq_1_GetResult16
 785              		.section	.text.ADC_SAR_Seq_1_GetAdcResult,"ax",%progbits
 786              		.align	2
 787              		.global	ADC_SAR_Seq_1_GetAdcResult
 788              		.thumb
 789              		.thumb_func
 790              		.type	ADC_SAR_Seq_1_GetAdcResult, %function
ARM GAS  C:\Users\Brian\AppData\Local\Temp\ccjAvsdg.s 			page 24


 791              	ADC_SAR_Seq_1_GetAdcResult:
 792              	.LFB13:
 518:.\Generated_Source\PSoC5/ADC_SAR_Seq_1.c **** 
 519:.\Generated_Source\PSoC5/ADC_SAR_Seq_1.c **** 
 520:.\Generated_Source\PSoC5/ADC_SAR_Seq_1.c **** /*******************************************************************************
 521:.\Generated_Source\PSoC5/ADC_SAR_Seq_1.c **** * Function Name: ADC_SAR_Seq_1_GetAdcResult
 522:.\Generated_Source\PSoC5/ADC_SAR_Seq_1.c **** ********************************************************************************
 523:.\Generated_Source\PSoC5/ADC_SAR_Seq_1.c **** *
 524:.\Generated_Source\PSoC5/ADC_SAR_Seq_1.c **** * Summary:
 525:.\Generated_Source\PSoC5/ADC_SAR_Seq_1.c **** *  Gets the data available in the SAR DATA register, not the results buffer
 526:.\Generated_Source\PSoC5/ADC_SAR_Seq_1.c **** *
 527:.\Generated_Source\PSoC5/ADC_SAR_Seq_1.c **** * Parameters:
 528:.\Generated_Source\PSoC5/ADC_SAR_Seq_1.c **** *  None.
 529:.\Generated_Source\PSoC5/ADC_SAR_Seq_1.c **** *
 530:.\Generated_Source\PSoC5/ADC_SAR_Seq_1.c **** * Return:
 531:.\Generated_Source\PSoC5/ADC_SAR_Seq_1.c **** *  None.
 532:.\Generated_Source\PSoC5/ADC_SAR_Seq_1.c **** *
 533:.\Generated_Source\PSoC5/ADC_SAR_Seq_1.c **** * Side Effects:
 534:.\Generated_Source\PSoC5/ADC_SAR_Seq_1.c **** *  None.
 535:.\Generated_Source\PSoC5/ADC_SAR_Seq_1.c **** *
 536:.\Generated_Source\PSoC5/ADC_SAR_Seq_1.c **** * Reentrant:
 537:.\Generated_Source\PSoC5/ADC_SAR_Seq_1.c **** *  No.
 538:.\Generated_Source\PSoC5/ADC_SAR_Seq_1.c **** *
 539:.\Generated_Source\PSoC5/ADC_SAR_Seq_1.c **** *******************************************************************************/
 540:.\Generated_Source\PSoC5/ADC_SAR_Seq_1.c **** int16 ADC_SAR_Seq_1_GetAdcResult(void)
 541:.\Generated_Source\PSoC5/ADC_SAR_Seq_1.c **** {
 793              		.loc 1 541 0
 794              		.cfi_startproc
 795              		@ args = 0, pretend = 0, frame = 0
 796              		@ frame_needed = 1, uses_anonymous_args = 0
 797 0000 80B5     		push	{r7, lr}
 798              	.LCFI30:
 799              		.cfi_def_cfa_offset 8
 800              		.cfi_offset 7, -8
 801              		.cfi_offset 14, -4
 802 0002 00AF     		add	r7, sp, #0
 803              	.LCFI31:
 804              		.cfi_def_cfa_register 7
 542:.\Generated_Source\PSoC5/ADC_SAR_Seq_1.c ****     return (ADC_SAR_Seq_1_SAR_GetResult16());
 805              		.loc 1 542 0
 806 0004 FFF7FEFF 		bl	ADC_SAR_Seq_1_SAR_GetResult16
 807 0008 0346     		mov	r3, r0
 543:.\Generated_Source\PSoC5/ADC_SAR_Seq_1.c **** }
 808              		.loc 1 543 0
 809 000a 1846     		mov	r0, r3
 810 000c 80BD     		pop	{r7, pc}
 811              		.cfi_endproc
 812              	.LFE13:
 813              		.size	ADC_SAR_Seq_1_GetAdcResult, .-ADC_SAR_Seq_1_GetAdcResult
 814 000e 00BF     		.section	.text.ADC_SAR_Seq_1_SetOffset,"ax",%progbits
 815              		.align	2
 816              		.global	ADC_SAR_Seq_1_SetOffset
 817              		.thumb
 818              		.thumb_func
 819              		.type	ADC_SAR_Seq_1_SetOffset, %function
 820              	ADC_SAR_Seq_1_SetOffset:
 821              	.LFB14:
ARM GAS  C:\Users\Brian\AppData\Local\Temp\ccjAvsdg.s 			page 25


 544:.\Generated_Source\PSoC5/ADC_SAR_Seq_1.c **** 
 545:.\Generated_Source\PSoC5/ADC_SAR_Seq_1.c **** 
 546:.\Generated_Source\PSoC5/ADC_SAR_Seq_1.c **** /*******************************************************************************
 547:.\Generated_Source\PSoC5/ADC_SAR_Seq_1.c **** * Function Name: ADC_SAR_Seq_1_SetOffset
 548:.\Generated_Source\PSoC5/ADC_SAR_Seq_1.c **** ********************************************************************************
 549:.\Generated_Source\PSoC5/ADC_SAR_Seq_1.c **** *
 550:.\Generated_Source\PSoC5/ADC_SAR_Seq_1.c **** * Summary:
 551:.\Generated_Source\PSoC5/ADC_SAR_Seq_1.c **** *  Sets the ADC offset which is used by the functions _CountsTo_uVolts(),
 552:.\Generated_Source\PSoC5/ADC_SAR_Seq_1.c **** *  _CountsTo_mVolts() and _CountsTo_Volts() to substract the offset from the
 553:.\Generated_Source\PSoC5/ADC_SAR_Seq_1.c **** *  given reading before calculating the voltage conversion
 554:.\Generated_Source\PSoC5/ADC_SAR_Seq_1.c **** *
 555:.\Generated_Source\PSoC5/ADC_SAR_Seq_1.c **** * Parameters:
 556:.\Generated_Source\PSoC5/ADC_SAR_Seq_1.c **** *  None.
 557:.\Generated_Source\PSoC5/ADC_SAR_Seq_1.c **** *
 558:.\Generated_Source\PSoC5/ADC_SAR_Seq_1.c **** * Return:
 559:.\Generated_Source\PSoC5/ADC_SAR_Seq_1.c **** *  None.
 560:.\Generated_Source\PSoC5/ADC_SAR_Seq_1.c **** *
 561:.\Generated_Source\PSoC5/ADC_SAR_Seq_1.c **** * Side Effects:
 562:.\Generated_Source\PSoC5/ADC_SAR_Seq_1.c **** *  None.
 563:.\Generated_Source\PSoC5/ADC_SAR_Seq_1.c **** *
 564:.\Generated_Source\PSoC5/ADC_SAR_Seq_1.c **** * Reentrant:
 565:.\Generated_Source\PSoC5/ADC_SAR_Seq_1.c **** *  No.
 566:.\Generated_Source\PSoC5/ADC_SAR_Seq_1.c **** *
 567:.\Generated_Source\PSoC5/ADC_SAR_Seq_1.c **** *******************************************************************************/
 568:.\Generated_Source\PSoC5/ADC_SAR_Seq_1.c **** void ADC_SAR_Seq_1_SetOffset(int32 offset)
 569:.\Generated_Source\PSoC5/ADC_SAR_Seq_1.c **** {
 822              		.loc 1 569 0
 823              		.cfi_startproc
 824              		@ args = 0, pretend = 0, frame = 8
 825              		@ frame_needed = 1, uses_anonymous_args = 0
 826 0000 80B5     		push	{r7, lr}
 827              	.LCFI32:
 828              		.cfi_def_cfa_offset 8
 829              		.cfi_offset 7, -8
 830              		.cfi_offset 14, -4
 831 0002 82B0     		sub	sp, sp, #8
 832              	.LCFI33:
 833              		.cfi_def_cfa_offset 16
 834 0004 00AF     		add	r7, sp, #0
 835              	.LCFI34:
 836              		.cfi_def_cfa_register 7
 837 0006 7860     		str	r0, [r7, #4]
 570:.\Generated_Source\PSoC5/ADC_SAR_Seq_1.c ****     ADC_SAR_Seq_1_SAR_SetOffset((int16)offset);
 838              		.loc 1 570 0
 839 0008 7B68     		ldr	r3, [r7, #4]
 840 000a 9BB2     		uxth	r3, r3
 841 000c 1BB2     		sxth	r3, r3
 842 000e 1846     		mov	r0, r3
 843 0010 FFF7FEFF 		bl	ADC_SAR_Seq_1_SAR_SetOffset
 571:.\Generated_Source\PSoC5/ADC_SAR_Seq_1.c **** }
 844              		.loc 1 571 0
 845 0014 07F10807 		add	r7, r7, #8
 846 0018 BD46     		mov	sp, r7
 847 001a 80BD     		pop	{r7, pc}
 848              		.cfi_endproc
 849              	.LFE14:
 850              		.size	ADC_SAR_Seq_1_SetOffset, .-ADC_SAR_Seq_1_SetOffset
ARM GAS  C:\Users\Brian\AppData\Local\Temp\ccjAvsdg.s 			page 26


 851              		.section	.text.ADC_SAR_Seq_1_SetResolution,"ax",%progbits
 852              		.align	2
 853              		.global	ADC_SAR_Seq_1_SetResolution
 854              		.thumb
 855              		.thumb_func
 856              		.type	ADC_SAR_Seq_1_SetResolution, %function
 857              	ADC_SAR_Seq_1_SetResolution:
 858              	.LFB15:
 572:.\Generated_Source\PSoC5/ADC_SAR_Seq_1.c **** 
 573:.\Generated_Source\PSoC5/ADC_SAR_Seq_1.c **** 
 574:.\Generated_Source\PSoC5/ADC_SAR_Seq_1.c **** /*******************************************************************************
 575:.\Generated_Source\PSoC5/ADC_SAR_Seq_1.c **** * Function Name: ADC_SAR_Seq_1_SetResolution
 576:.\Generated_Source\PSoC5/ADC_SAR_Seq_1.c **** ********************************************************************************
 577:.\Generated_Source\PSoC5/ADC_SAR_Seq_1.c **** *
 578:.\Generated_Source\PSoC5/ADC_SAR_Seq_1.c **** * Summary:
 579:.\Generated_Source\PSoC5/ADC_SAR_Seq_1.c **** *  Sets the Relution of the SAR.
 580:.\Generated_Source\PSoC5/ADC_SAR_Seq_1.c **** *  This function does not affect the actual conversion with PSoC5 ES1 silicon.
 581:.\Generated_Source\PSoC5/ADC_SAR_Seq_1.c **** *
 582:.\Generated_Source\PSoC5/ADC_SAR_Seq_1.c **** * Parameters:
 583:.\Generated_Source\PSoC5/ADC_SAR_Seq_1.c **** *  resolution:
 584:.\Generated_Source\PSoC5/ADC_SAR_Seq_1.c **** *  12 ->    RES12
 585:.\Generated_Source\PSoC5/ADC_SAR_Seq_1.c **** *  10 ->    RES10
 586:.\Generated_Source\PSoC5/ADC_SAR_Seq_1.c **** *  8  ->    RES8
 587:.\Generated_Source\PSoC5/ADC_SAR_Seq_1.c **** *
 588:.\Generated_Source\PSoC5/ADC_SAR_Seq_1.c **** * Return:
 589:.\Generated_Source\PSoC5/ADC_SAR_Seq_1.c **** *  None.
 590:.\Generated_Source\PSoC5/ADC_SAR_Seq_1.c **** *
 591:.\Generated_Source\PSoC5/ADC_SAR_Seq_1.c **** * Side Effects:
 592:.\Generated_Source\PSoC5/ADC_SAR_Seq_1.c **** *  The ADC_SAR_Seq resolution cannot be changed during a conversion cycle. The
 593:.\Generated_Source\PSoC5/ADC_SAR_Seq_1.c **** *  recommended best practice is to stop conversions with
 594:.\Generated_Source\PSoC5/ADC_SAR_Seq_1.c **** *  ADC_SAR_Seq_StopConvert(), change the resolution, then restart the
 595:.\Generated_Source\PSoC5/ADC_SAR_Seq_1.c **** *  conversions with ADC_SAR_Seq_StartConvert().
 596:.\Generated_Source\PSoC5/ADC_SAR_Seq_1.c **** *  If you decide not to stop conversions before calling this API, you
 597:.\Generated_Source\PSoC5/ADC_SAR_Seq_1.c **** *  should use ADC_SAR_Seq_IsEndConversion() to wait until conversion is complete
 598:.\Generated_Source\PSoC5/ADC_SAR_Seq_1.c **** *  before changing the resolution.
 599:.\Generated_Source\PSoC5/ADC_SAR_Seq_1.c **** *  If you call ADC_SetResolution() during a conversion, the resolution will
 600:.\Generated_Source\PSoC5/ADC_SAR_Seq_1.c **** *  not be changed until the current conversion is complete. Data will not be
 601:.\Generated_Source\PSoC5/ADC_SAR_Seq_1.c **** *  available in the new resolution for another 6 + "New Resolution(in bits)"
 602:.\Generated_Source\PSoC5/ADC_SAR_Seq_1.c **** *  clock cycles.
 603:.\Generated_Source\PSoC5/ADC_SAR_Seq_1.c **** *  You may need add a delay of this number of clock cycles after
 604:.\Generated_Source\PSoC5/ADC_SAR_Seq_1.c **** *  ADC_SAR_Seq_SetResolution() is called before data is valid again.
 605:.\Generated_Source\PSoC5/ADC_SAR_Seq_1.c **** *  Affects ADC_SAR_Seq_CountsTo_Volts(), ADC_SAR_Seq_CountsTo_mVolts(), and
 606:.\Generated_Source\PSoC5/ADC_SAR_Seq_1.c **** *  ADC_SAR_Seq_CountsTo_uVolts() by calculating the correct conversion between
 607:.\Generated_Source\PSoC5/ADC_SAR_Seq_1.c **** *  ADC
 608:.\Generated_Source\PSoC5/ADC_SAR_Seq_1.c **** *  counts and the applied input voltage. Calculation depends on resolution,
 609:.\Generated_Source\PSoC5/ADC_SAR_Seq_1.c **** *  input range, and voltage reference.
 610:.\Generated_Source\PSoC5/ADC_SAR_Seq_1.c **** *
 611:.\Generated_Source\PSoC5/ADC_SAR_Seq_1.c **** *******************************************************************************/
 612:.\Generated_Source\PSoC5/ADC_SAR_Seq_1.c **** void ADC_SAR_Seq_1_SetResolution(uint8 resolution)
 613:.\Generated_Source\PSoC5/ADC_SAR_Seq_1.c **** {
 859              		.loc 1 613 0
 860              		.cfi_startproc
 861              		@ args = 0, pretend = 0, frame = 8
 862              		@ frame_needed = 1, uses_anonymous_args = 0
 863 0000 80B5     		push	{r7, lr}
 864              	.LCFI35:
 865              		.cfi_def_cfa_offset 8
ARM GAS  C:\Users\Brian\AppData\Local\Temp\ccjAvsdg.s 			page 27


 866              		.cfi_offset 7, -8
 867              		.cfi_offset 14, -4
 868 0002 82B0     		sub	sp, sp, #8
 869              	.LCFI36:
 870              		.cfi_def_cfa_offset 16
 871 0004 00AF     		add	r7, sp, #0
 872              	.LCFI37:
 873              		.cfi_def_cfa_register 7
 874 0006 0346     		mov	r3, r0
 875 0008 FB71     		strb	r3, [r7, #7]
 614:.\Generated_Source\PSoC5/ADC_SAR_Seq_1.c ****     ADC_SAR_Seq_1_SAR_SetResolution(resolution);
 876              		.loc 1 614 0
 877 000a FB79     		ldrb	r3, [r7, #7]	@ zero_extendqisi2
 878 000c 1846     		mov	r0, r3
 879 000e FFF7FEFF 		bl	ADC_SAR_Seq_1_SAR_SetResolution
 615:.\Generated_Source\PSoC5/ADC_SAR_Seq_1.c **** }
 880              		.loc 1 615 0
 881 0012 07F10807 		add	r7, r7, #8
 882 0016 BD46     		mov	sp, r7
 883 0018 80BD     		pop	{r7, pc}
 884              		.cfi_endproc
 885              	.LFE15:
 886              		.size	ADC_SAR_Seq_1_SetResolution, .-ADC_SAR_Seq_1_SetResolution
 887 001a 00BF     		.section	.text.ADC_SAR_Seq_1_SetGain,"ax",%progbits
 888              		.align	2
 889              		.global	ADC_SAR_Seq_1_SetGain
 890              		.thumb
 891              		.thumb_func
 892              		.type	ADC_SAR_Seq_1_SetGain, %function
 893              	ADC_SAR_Seq_1_SetGain:
 894              	.LFB16:
 616:.\Generated_Source\PSoC5/ADC_SAR_Seq_1.c **** 
 617:.\Generated_Source\PSoC5/ADC_SAR_Seq_1.c **** 
 618:.\Generated_Source\PSoC5/ADC_SAR_Seq_1.c **** /*******************************************************************************
 619:.\Generated_Source\PSoC5/ADC_SAR_Seq_1.c **** * Function Name: ADC_SAR_Seq_1_SetGain
 620:.\Generated_Source\PSoC5/ADC_SAR_Seq_1.c **** ********************************************************************************
 621:.\Generated_Source\PSoC5/ADC_SAR_Seq_1.c **** *
 622:.\Generated_Source\PSoC5/ADC_SAR_Seq_1.c **** * Summary:
 623:.\Generated_Source\PSoC5/ADC_SAR_Seq_1.c **** *  Sets the ADC gain in counts per volt for the voltage conversion
 624:.\Generated_Source\PSoC5/ADC_SAR_Seq_1.c **** *
 625:.\Generated_Source\PSoC5/ADC_SAR_Seq_1.c **** * Parameters:
 626:.\Generated_Source\PSoC5/ADC_SAR_Seq_1.c **** *  None.
 627:.\Generated_Source\PSoC5/ADC_SAR_Seq_1.c **** *
 628:.\Generated_Source\PSoC5/ADC_SAR_Seq_1.c **** * Return:
 629:.\Generated_Source\PSoC5/ADC_SAR_Seq_1.c **** *  None.
 630:.\Generated_Source\PSoC5/ADC_SAR_Seq_1.c **** *
 631:.\Generated_Source\PSoC5/ADC_SAR_Seq_1.c **** * Side Effects:
 632:.\Generated_Source\PSoC5/ADC_SAR_Seq_1.c **** *  None.
 633:.\Generated_Source\PSoC5/ADC_SAR_Seq_1.c **** *
 634:.\Generated_Source\PSoC5/ADC_SAR_Seq_1.c **** * Reentrant:
 635:.\Generated_Source\PSoC5/ADC_SAR_Seq_1.c **** *  No.
 636:.\Generated_Source\PSoC5/ADC_SAR_Seq_1.c **** *
 637:.\Generated_Source\PSoC5/ADC_SAR_Seq_1.c **** *******************************************************************************/
 638:.\Generated_Source\PSoC5/ADC_SAR_Seq_1.c **** void ADC_SAR_Seq_1_SetGain(int32 adcGain)
 639:.\Generated_Source\PSoC5/ADC_SAR_Seq_1.c **** {
 895              		.loc 1 639 0
 896              		.cfi_startproc
ARM GAS  C:\Users\Brian\AppData\Local\Temp\ccjAvsdg.s 			page 28


 897              		@ args = 0, pretend = 0, frame = 8
 898              		@ frame_needed = 1, uses_anonymous_args = 0
 899 0000 80B5     		push	{r7, lr}
 900              	.LCFI38:
 901              		.cfi_def_cfa_offset 8
 902              		.cfi_offset 7, -8
 903              		.cfi_offset 14, -4
 904 0002 82B0     		sub	sp, sp, #8
 905              	.LCFI39:
 906              		.cfi_def_cfa_offset 16
 907 0004 00AF     		add	r7, sp, #0
 908              	.LCFI40:
 909              		.cfi_def_cfa_register 7
 910 0006 7860     		str	r0, [r7, #4]
 640:.\Generated_Source\PSoC5/ADC_SAR_Seq_1.c ****     ADC_SAR_Seq_1_SAR_SetGain((int16)adcGain);
 911              		.loc 1 640 0
 912 0008 7B68     		ldr	r3, [r7, #4]
 913 000a 9BB2     		uxth	r3, r3
 914 000c 1BB2     		sxth	r3, r3
 915 000e 1846     		mov	r0, r3
 916 0010 FFF7FEFF 		bl	ADC_SAR_Seq_1_SAR_SetGain
 641:.\Generated_Source\PSoC5/ADC_SAR_Seq_1.c **** }
 917              		.loc 1 641 0
 918 0014 07F10807 		add	r7, r7, #8
 919 0018 BD46     		mov	sp, r7
 920 001a 80BD     		pop	{r7, pc}
 921              		.cfi_endproc
 922              	.LFE16:
 923              		.size	ADC_SAR_Seq_1_SetGain, .-ADC_SAR_Seq_1_SetGain
 924              		.section	.text.ADC_SAR_Seq_1_SetScaledGain,"ax",%progbits
 925              		.align	2
 926              		.global	ADC_SAR_Seq_1_SetScaledGain
 927              		.thumb
 928              		.thumb_func
 929              		.type	ADC_SAR_Seq_1_SetScaledGain, %function
 930              	ADC_SAR_Seq_1_SetScaledGain:
 931              	.LFB17:
 642:.\Generated_Source\PSoC5/ADC_SAR_Seq_1.c **** 
 643:.\Generated_Source\PSoC5/ADC_SAR_Seq_1.c **** 
 644:.\Generated_Source\PSoC5/ADC_SAR_Seq_1.c **** /*******************************************************************************
 645:.\Generated_Source\PSoC5/ADC_SAR_Seq_1.c **** * Function Name: ADC_SAR_Seq_1_SetScaledGain
 646:.\Generated_Source\PSoC5/ADC_SAR_Seq_1.c **** ********************************************************************************
 647:.\Generated_Source\PSoC5/ADC_SAR_Seq_1.c **** *
 648:.\Generated_Source\PSoC5/ADC_SAR_Seq_1.c **** * Summary:
 649:.\Generated_Source\PSoC5/ADC_SAR_Seq_1.c **** *  Sets the ADC gain in counts per 10 volts for the voltage conversion functions
 650:.\Generated_Source\PSoC5/ADC_SAR_Seq_1.c **** *  that follow. This value is set by default by the reference and input range
 651:.\Generated_Source\PSoC5/ADC_SAR_Seq_1.c **** *  settings. It should only be used to further calibrate the ADC with a known
 652:.\Generated_Source\PSoC5/ADC_SAR_Seq_1.c **** *  input or if the ADC is using an external reference.
 653:.\Generated_Source\PSoC5/ADC_SAR_Seq_1.c **** *
 654:.\Generated_Source\PSoC5/ADC_SAR_Seq_1.c **** * Parameters:
 655:.\Generated_Source\PSoC5/ADC_SAR_Seq_1.c **** *  int32  adcGain  counts per 10 volt
 656:.\Generated_Source\PSoC5/ADC_SAR_Seq_1.c **** *
 657:.\Generated_Source\PSoC5/ADC_SAR_Seq_1.c **** * Return:
 658:.\Generated_Source\PSoC5/ADC_SAR_Seq_1.c **** *  None.
 659:.\Generated_Source\PSoC5/ADC_SAR_Seq_1.c **** *
 660:.\Generated_Source\PSoC5/ADC_SAR_Seq_1.c **** * Global Variables:
 661:.\Generated_Source\PSoC5/ADC_SAR_Seq_1.c **** *  None.
ARM GAS  C:\Users\Brian\AppData\Local\Temp\ccjAvsdg.s 			page 29


 662:.\Generated_Source\PSoC5/ADC_SAR_Seq_1.c **** *
 663:.\Generated_Source\PSoC5/ADC_SAR_Seq_1.c **** *******************************************************************************/
 664:.\Generated_Source\PSoC5/ADC_SAR_Seq_1.c **** void ADC_SAR_Seq_1_SetScaledGain(int32 adcGain)
 665:.\Generated_Source\PSoC5/ADC_SAR_Seq_1.c **** {
 932              		.loc 1 665 0
 933              		.cfi_startproc
 934              		@ args = 0, pretend = 0, frame = 8
 935              		@ frame_needed = 1, uses_anonymous_args = 0
 936 0000 80B5     		push	{r7, lr}
 937              	.LCFI41:
 938              		.cfi_def_cfa_offset 8
 939              		.cfi_offset 7, -8
 940              		.cfi_offset 14, -4
 941 0002 82B0     		sub	sp, sp, #8
 942              	.LCFI42:
 943              		.cfi_def_cfa_offset 16
 944 0004 00AF     		add	r7, sp, #0
 945              	.LCFI43:
 946              		.cfi_def_cfa_register 7
 947 0006 7860     		str	r0, [r7, #4]
 666:.\Generated_Source\PSoC5/ADC_SAR_Seq_1.c ****     ADC_SAR_Seq_1_SAR_SetScaledGain(adcGain);
 948              		.loc 1 666 0
 949 0008 7868     		ldr	r0, [r7, #4]
 950 000a FFF7FEFF 		bl	ADC_SAR_Seq_1_SAR_SetScaledGain
 667:.\Generated_Source\PSoC5/ADC_SAR_Seq_1.c **** }
 951              		.loc 1 667 0
 952 000e 07F10807 		add	r7, r7, #8
 953 0012 BD46     		mov	sp, r7
 954 0014 80BD     		pop	{r7, pc}
 955              		.cfi_endproc
 956              	.LFE17:
 957              		.size	ADC_SAR_Seq_1_SetScaledGain, .-ADC_SAR_Seq_1_SetScaledGain
 958 0016 00BF     		.section	.text.ADC_SAR_Seq_1_CountsTo_mVolts,"ax",%progbits
 959              		.align	2
 960              		.global	ADC_SAR_Seq_1_CountsTo_mVolts
 961              		.thumb
 962              		.thumb_func
 963              		.type	ADC_SAR_Seq_1_CountsTo_mVolts, %function
 964              	ADC_SAR_Seq_1_CountsTo_mVolts:
 965              	.LFB18:
 668:.\Generated_Source\PSoC5/ADC_SAR_Seq_1.c **** 
 669:.\Generated_Source\PSoC5/ADC_SAR_Seq_1.c **** 
 670:.\Generated_Source\PSoC5/ADC_SAR_Seq_1.c **** /*******************************************************************************
 671:.\Generated_Source\PSoC5/ADC_SAR_Seq_1.c **** * Function Name: ADC_SAR_Seq_1_CountsTo_mVolts
 672:.\Generated_Source\PSoC5/ADC_SAR_Seq_1.c **** ********************************************************************************
 673:.\Generated_Source\PSoC5/ADC_SAR_Seq_1.c **** *
 674:.\Generated_Source\PSoC5/ADC_SAR_Seq_1.c **** * Summary:
 675:.\Generated_Source\PSoC5/ADC_SAR_Seq_1.c **** *  Converts the ADC output to mVolts as a 32-bit integer
 676:.\Generated_Source\PSoC5/ADC_SAR_Seq_1.c **** *
 677:.\Generated_Source\PSoC5/ADC_SAR_Seq_1.c **** * Parameters:
 678:.\Generated_Source\PSoC5/ADC_SAR_Seq_1.c **** *  None.
 679:.\Generated_Source\PSoC5/ADC_SAR_Seq_1.c **** *
 680:.\Generated_Source\PSoC5/ADC_SAR_Seq_1.c **** * Return:
 681:.\Generated_Source\PSoC5/ADC_SAR_Seq_1.c **** *  None.
 682:.\Generated_Source\PSoC5/ADC_SAR_Seq_1.c **** *
 683:.\Generated_Source\PSoC5/ADC_SAR_Seq_1.c **** * Side Effects:
 684:.\Generated_Source\PSoC5/ADC_SAR_Seq_1.c **** *  None.
ARM GAS  C:\Users\Brian\AppData\Local\Temp\ccjAvsdg.s 			page 30


 685:.\Generated_Source\PSoC5/ADC_SAR_Seq_1.c **** *
 686:.\Generated_Source\PSoC5/ADC_SAR_Seq_1.c **** * Reentrant:
 687:.\Generated_Source\PSoC5/ADC_SAR_Seq_1.c **** *  No.
 688:.\Generated_Source\PSoC5/ADC_SAR_Seq_1.c **** *
 689:.\Generated_Source\PSoC5/ADC_SAR_Seq_1.c **** *******************************************************************************/
 690:.\Generated_Source\PSoC5/ADC_SAR_Seq_1.c **** int32 ADC_SAR_Seq_1_CountsTo_mVolts(int16 adcCounts)
 691:.\Generated_Source\PSoC5/ADC_SAR_Seq_1.c **** {
 966              		.loc 1 691 0
 967              		.cfi_startproc
 968              		@ args = 0, pretend = 0, frame = 8
 969              		@ frame_needed = 1, uses_anonymous_args = 0
 970 0000 80B5     		push	{r7, lr}
 971              	.LCFI44:
 972              		.cfi_def_cfa_offset 8
 973              		.cfi_offset 7, -8
 974              		.cfi_offset 14, -4
 975 0002 82B0     		sub	sp, sp, #8
 976              	.LCFI45:
 977              		.cfi_def_cfa_offset 16
 978 0004 00AF     		add	r7, sp, #0
 979              	.LCFI46:
 980              		.cfi_def_cfa_register 7
 981 0006 0346     		mov	r3, r0
 982 0008 FB80     		strh	r3, [r7, #6]	@ movhi
 692:.\Generated_Source\PSoC5/ADC_SAR_Seq_1.c ****     return ((int32) ADC_SAR_Seq_1_SAR_CountsTo_mVolts(adcCounts));
 983              		.loc 1 692 0
 984 000a B7F90630 		ldrsh	r3, [r7, #6]
 985 000e 1846     		mov	r0, r3
 986 0010 FFF7FEFF 		bl	ADC_SAR_Seq_1_SAR_CountsTo_mVolts
 987 0014 0346     		mov	r3, r0
 693:.\Generated_Source\PSoC5/ADC_SAR_Seq_1.c **** }
 988              		.loc 1 693 0
 989 0016 1846     		mov	r0, r3
 990 0018 07F10807 		add	r7, r7, #8
 991 001c BD46     		mov	sp, r7
 992 001e 80BD     		pop	{r7, pc}
 993              		.cfi_endproc
 994              	.LFE18:
 995              		.size	ADC_SAR_Seq_1_CountsTo_mVolts, .-ADC_SAR_Seq_1_CountsTo_mVolts
 996              		.section	.text.ADC_SAR_Seq_1_CountsTo_uVolts,"ax",%progbits
 997              		.align	2
 998              		.global	ADC_SAR_Seq_1_CountsTo_uVolts
 999              		.thumb
 1000              		.thumb_func
 1001              		.type	ADC_SAR_Seq_1_CountsTo_uVolts, %function
 1002              	ADC_SAR_Seq_1_CountsTo_uVolts:
 1003              	.LFB19:
 694:.\Generated_Source\PSoC5/ADC_SAR_Seq_1.c **** 
 695:.\Generated_Source\PSoC5/ADC_SAR_Seq_1.c **** 
 696:.\Generated_Source\PSoC5/ADC_SAR_Seq_1.c **** /*******************************************************************************
 697:.\Generated_Source\PSoC5/ADC_SAR_Seq_1.c **** * Function Name: ADC_SAR_Seq_1_CountsTo_uVolts
 698:.\Generated_Source\PSoC5/ADC_SAR_Seq_1.c **** ********************************************************************************
 699:.\Generated_Source\PSoC5/ADC_SAR_Seq_1.c **** *
 700:.\Generated_Source\PSoC5/ADC_SAR_Seq_1.c **** * Summary:
 701:.\Generated_Source\PSoC5/ADC_SAR_Seq_1.c **** *  Converts the ADC output to uVolts as a 32-bit integer
 702:.\Generated_Source\PSoC5/ADC_SAR_Seq_1.c **** *
 703:.\Generated_Source\PSoC5/ADC_SAR_Seq_1.c **** * Parameters:
ARM GAS  C:\Users\Brian\AppData\Local\Temp\ccjAvsdg.s 			page 31


 704:.\Generated_Source\PSoC5/ADC_SAR_Seq_1.c **** *  None.
 705:.\Generated_Source\PSoC5/ADC_SAR_Seq_1.c **** *
 706:.\Generated_Source\PSoC5/ADC_SAR_Seq_1.c **** * Return:
 707:.\Generated_Source\PSoC5/ADC_SAR_Seq_1.c **** *  None.
 708:.\Generated_Source\PSoC5/ADC_SAR_Seq_1.c **** *
 709:.\Generated_Source\PSoC5/ADC_SAR_Seq_1.c **** * Side Effects:
 710:.\Generated_Source\PSoC5/ADC_SAR_Seq_1.c **** *  None.
 711:.\Generated_Source\PSoC5/ADC_SAR_Seq_1.c **** *
 712:.\Generated_Source\PSoC5/ADC_SAR_Seq_1.c **** * Reentrant:
 713:.\Generated_Source\PSoC5/ADC_SAR_Seq_1.c **** *  No.
 714:.\Generated_Source\PSoC5/ADC_SAR_Seq_1.c **** *
 715:.\Generated_Source\PSoC5/ADC_SAR_Seq_1.c **** *******************************************************************************/
 716:.\Generated_Source\PSoC5/ADC_SAR_Seq_1.c **** int32 ADC_SAR_Seq_1_CountsTo_uVolts(int16 adcCounts)
 717:.\Generated_Source\PSoC5/ADC_SAR_Seq_1.c **** {
 1004              		.loc 1 717 0
 1005              		.cfi_startproc
 1006              		@ args = 0, pretend = 0, frame = 8
 1007              		@ frame_needed = 1, uses_anonymous_args = 0
 1008 0000 80B5     		push	{r7, lr}
 1009              	.LCFI47:
 1010              		.cfi_def_cfa_offset 8
 1011              		.cfi_offset 7, -8
 1012              		.cfi_offset 14, -4
 1013 0002 82B0     		sub	sp, sp, #8
 1014              	.LCFI48:
 1015              		.cfi_def_cfa_offset 16
 1016 0004 00AF     		add	r7, sp, #0
 1017              	.LCFI49:
 1018              		.cfi_def_cfa_register 7
 1019 0006 0346     		mov	r3, r0
 1020 0008 FB80     		strh	r3, [r7, #6]	@ movhi
 718:.\Generated_Source\PSoC5/ADC_SAR_Seq_1.c ****     return (ADC_SAR_Seq_1_SAR_CountsTo_uVolts(adcCounts));
 1021              		.loc 1 718 0
 1022 000a B7F90630 		ldrsh	r3, [r7, #6]
 1023 000e 1846     		mov	r0, r3
 1024 0010 FFF7FEFF 		bl	ADC_SAR_Seq_1_SAR_CountsTo_uVolts
 1025 0014 0346     		mov	r3, r0
 719:.\Generated_Source\PSoC5/ADC_SAR_Seq_1.c **** }
 1026              		.loc 1 719 0
 1027 0016 1846     		mov	r0, r3
 1028 0018 07F10807 		add	r7, r7, #8
 1029 001c BD46     		mov	sp, r7
 1030 001e 80BD     		pop	{r7, pc}
 1031              		.cfi_endproc
 1032              	.LFE19:
 1033              		.size	ADC_SAR_Seq_1_CountsTo_uVolts, .-ADC_SAR_Seq_1_CountsTo_uVolts
 1034              		.section	.text.ADC_SAR_Seq_1_CountsTo_Volts,"ax",%progbits
 1035              		.align	2
 1036              		.global	ADC_SAR_Seq_1_CountsTo_Volts
 1037              		.thumb
 1038              		.thumb_func
 1039              		.type	ADC_SAR_Seq_1_CountsTo_Volts, %function
 1040              	ADC_SAR_Seq_1_CountsTo_Volts:
 1041              	.LFB20:
 720:.\Generated_Source\PSoC5/ADC_SAR_Seq_1.c **** 
 721:.\Generated_Source\PSoC5/ADC_SAR_Seq_1.c **** 
 722:.\Generated_Source\PSoC5/ADC_SAR_Seq_1.c **** /*******************************************************************************
ARM GAS  C:\Users\Brian\AppData\Local\Temp\ccjAvsdg.s 			page 32


 723:.\Generated_Source\PSoC5/ADC_SAR_Seq_1.c **** * Function Name: ADC_SAR_Seq_1_CountsTo_Volts
 724:.\Generated_Source\PSoC5/ADC_SAR_Seq_1.c **** ********************************************************************************
 725:.\Generated_Source\PSoC5/ADC_SAR_Seq_1.c **** *
 726:.\Generated_Source\PSoC5/ADC_SAR_Seq_1.c **** * Summary:
 727:.\Generated_Source\PSoC5/ADC_SAR_Seq_1.c **** *  Converts the ADC output to Volts as a floating point number
 728:.\Generated_Source\PSoC5/ADC_SAR_Seq_1.c **** *
 729:.\Generated_Source\PSoC5/ADC_SAR_Seq_1.c **** * Parameters:
 730:.\Generated_Source\PSoC5/ADC_SAR_Seq_1.c **** *  None.
 731:.\Generated_Source\PSoC5/ADC_SAR_Seq_1.c **** *
 732:.\Generated_Source\PSoC5/ADC_SAR_Seq_1.c **** * Return:
 733:.\Generated_Source\PSoC5/ADC_SAR_Seq_1.c **** *  None.
 734:.\Generated_Source\PSoC5/ADC_SAR_Seq_1.c **** *
 735:.\Generated_Source\PSoC5/ADC_SAR_Seq_1.c **** * Side Effects:
 736:.\Generated_Source\PSoC5/ADC_SAR_Seq_1.c **** *  None.
 737:.\Generated_Source\PSoC5/ADC_SAR_Seq_1.c **** *
 738:.\Generated_Source\PSoC5/ADC_SAR_Seq_1.c **** * Reentrant:
 739:.\Generated_Source\PSoC5/ADC_SAR_Seq_1.c **** *  No.
 740:.\Generated_Source\PSoC5/ADC_SAR_Seq_1.c **** *
 741:.\Generated_Source\PSoC5/ADC_SAR_Seq_1.c **** *******************************************************************************/
 742:.\Generated_Source\PSoC5/ADC_SAR_Seq_1.c **** float32 ADC_SAR_Seq_1_CountsTo_Volts(int16 adcCounts)
 743:.\Generated_Source\PSoC5/ADC_SAR_Seq_1.c **** {
 1042              		.loc 1 743 0
 1043              		.cfi_startproc
 1044              		@ args = 0, pretend = 0, frame = 8
 1045              		@ frame_needed = 1, uses_anonymous_args = 0
 1046 0000 80B5     		push	{r7, lr}
 1047              	.LCFI50:
 1048              		.cfi_def_cfa_offset 8
 1049              		.cfi_offset 7, -8
 1050              		.cfi_offset 14, -4
 1051 0002 82B0     		sub	sp, sp, #8
 1052              	.LCFI51:
 1053              		.cfi_def_cfa_offset 16
 1054 0004 00AF     		add	r7, sp, #0
 1055              	.LCFI52:
 1056              		.cfi_def_cfa_register 7
 1057 0006 0346     		mov	r3, r0
 1058 0008 FB80     		strh	r3, [r7, #6]	@ movhi
 744:.\Generated_Source\PSoC5/ADC_SAR_Seq_1.c ****     return (ADC_SAR_Seq_1_SAR_CountsTo_Volts(adcCounts));
 1059              		.loc 1 744 0
 1060 000a B7F90630 		ldrsh	r3, [r7, #6]
 1061 000e 1846     		mov	r0, r3
 1062 0010 FFF7FEFF 		bl	ADC_SAR_Seq_1_SAR_CountsTo_Volts
 1063 0014 0346     		mov	r3, r0
 745:.\Generated_Source\PSoC5/ADC_SAR_Seq_1.c **** }
 1064              		.loc 1 745 0
 1065 0016 1846     		mov	r0, r3
 1066 0018 07F10807 		add	r7, r7, #8
 1067 001c BD46     		mov	sp, r7
 1068 001e 80BD     		pop	{r7, pc}
 1069              		.cfi_endproc
 1070              	.LFE20:
 1071              		.size	ADC_SAR_Seq_1_CountsTo_Volts, .-ADC_SAR_Seq_1_CountsTo_Volts
 1072              		.text
 1073              	.Letext0:
 1074              		.file 2 ".\\Generated_Source\\PSoC5\\cytypes.h"
 1075              		.file 3 "./Generated_Source/PSoC5/CYDMAC.H"
ARM GAS  C:\Users\Brian\AppData\Local\Temp\ccjAvsdg.s 			page 33


 1076              		.file 4 ".\\Generated_Source\\PSoC5\\ADC_SAR_Seq_1_SAR.h"