ARM GAS  C:\Users\Brian\AppData\Local\Temp\ccm3dbdg.s 			page 1


   1              		.syntax unified
   2              		.cpu cortex-m3
   3              		.fpu softvfp
   4              		.eabi_attribute 20, 1
   5              		.eabi_attribute 21, 1
   6              		.eabi_attribute 23, 3
   7              		.eabi_attribute 24, 1
   8              		.eabi_attribute 25, 1
   9              		.eabi_attribute 26, 1
  10              		.eabi_attribute 30, 6
  11              		.eabi_attribute 34, 1
  12              		.eabi_attribute 18, 4
  13              		.thumb
  14              		.file	"ADC_SAR_1_PM.c"
  15              		.text
  16              	.Ltext0:
  17              		.cfi_sections	.debug_frame
  18              		.bss
  19              		.align	2
  20              	ADC_SAR_1_backup:
  21 0000 00       		.space	1
  22 0001 000000   		.section	.text.ADC_SAR_1_SaveConfig,"ax",%progbits
  23              		.align	2
  24              		.global	ADC_SAR_1_SaveConfig
  25              		.thumb
  26              		.thumb_func
  27              		.type	ADC_SAR_1_SaveConfig, %function
  28              	ADC_SAR_1_SaveConfig:
  29              	.LFB0:
  30              		.file 1 ".\\Generated_Source\\PSoC5\\ADC_SAR_1_PM.c"
   1:.\Generated_Source\PSoC5/ADC_SAR_1_PM.c **** /*******************************************************************************
   2:.\Generated_Source\PSoC5/ADC_SAR_1_PM.c **** * File Name: ADC_SAR_1_PM.c
   3:.\Generated_Source\PSoC5/ADC_SAR_1_PM.c **** * Version 2.10
   4:.\Generated_Source\PSoC5/ADC_SAR_1_PM.c **** *
   5:.\Generated_Source\PSoC5/ADC_SAR_1_PM.c **** * Description:
   6:.\Generated_Source\PSoC5/ADC_SAR_1_PM.c **** *  This file provides Sleep/WakeUp APIs functionality.
   7:.\Generated_Source\PSoC5/ADC_SAR_1_PM.c **** *
   8:.\Generated_Source\PSoC5/ADC_SAR_1_PM.c **** * Note:
   9:.\Generated_Source\PSoC5/ADC_SAR_1_PM.c **** *
  10:.\Generated_Source\PSoC5/ADC_SAR_1_PM.c **** ********************************************************************************
  11:.\Generated_Source\PSoC5/ADC_SAR_1_PM.c **** * Copyright 2008-2013, Cypress Semiconductor Corporation.  All rights reserved.
  12:.\Generated_Source\PSoC5/ADC_SAR_1_PM.c **** * You may use this file only in accordance with the license, terms, conditions,
  13:.\Generated_Source\PSoC5/ADC_SAR_1_PM.c **** * disclaimers, and limitations in the end user license agreement accompanying
  14:.\Generated_Source\PSoC5/ADC_SAR_1_PM.c **** * the software package with which this file was provided.
  15:.\Generated_Source\PSoC5/ADC_SAR_1_PM.c **** *******************************************************************************/
  16:.\Generated_Source\PSoC5/ADC_SAR_1_PM.c **** 
  17:.\Generated_Source\PSoC5/ADC_SAR_1_PM.c **** #include "ADC_SAR_1.h"
  18:.\Generated_Source\PSoC5/ADC_SAR_1_PM.c **** 
  19:.\Generated_Source\PSoC5/ADC_SAR_1_PM.c **** 
  20:.\Generated_Source\PSoC5/ADC_SAR_1_PM.c **** /***************************************
  21:.\Generated_Source\PSoC5/ADC_SAR_1_PM.c **** * Local data allocation
  22:.\Generated_Source\PSoC5/ADC_SAR_1_PM.c **** ***************************************/
  23:.\Generated_Source\PSoC5/ADC_SAR_1_PM.c **** 
  24:.\Generated_Source\PSoC5/ADC_SAR_1_PM.c **** static ADC_SAR_1_BACKUP_STRUCT  ADC_SAR_1_backup =
  25:.\Generated_Source\PSoC5/ADC_SAR_1_PM.c **** {
  26:.\Generated_Source\PSoC5/ADC_SAR_1_PM.c ****     ADC_SAR_1_DISABLED
  27:.\Generated_Source\PSoC5/ADC_SAR_1_PM.c **** };
ARM GAS  C:\Users\Brian\AppData\Local\Temp\ccm3dbdg.s 			page 2


  28:.\Generated_Source\PSoC5/ADC_SAR_1_PM.c **** 
  29:.\Generated_Source\PSoC5/ADC_SAR_1_PM.c **** 
  30:.\Generated_Source\PSoC5/ADC_SAR_1_PM.c **** /*******************************************************************************
  31:.\Generated_Source\PSoC5/ADC_SAR_1_PM.c **** * Function Name: ADC_SAR_1_SaveConfig
  32:.\Generated_Source\PSoC5/ADC_SAR_1_PM.c **** ********************************************************************************
  33:.\Generated_Source\PSoC5/ADC_SAR_1_PM.c **** *
  34:.\Generated_Source\PSoC5/ADC_SAR_1_PM.c **** * Summary:
  35:.\Generated_Source\PSoC5/ADC_SAR_1_PM.c **** *  Saves the current user configuration.
  36:.\Generated_Source\PSoC5/ADC_SAR_1_PM.c **** *
  37:.\Generated_Source\PSoC5/ADC_SAR_1_PM.c **** * Parameters:
  38:.\Generated_Source\PSoC5/ADC_SAR_1_PM.c **** *  None.
  39:.\Generated_Source\PSoC5/ADC_SAR_1_PM.c **** *
  40:.\Generated_Source\PSoC5/ADC_SAR_1_PM.c **** * Return:
  41:.\Generated_Source\PSoC5/ADC_SAR_1_PM.c **** *  None.
  42:.\Generated_Source\PSoC5/ADC_SAR_1_PM.c **** *
  43:.\Generated_Source\PSoC5/ADC_SAR_1_PM.c **** *******************************************************************************/
  44:.\Generated_Source\PSoC5/ADC_SAR_1_PM.c **** void ADC_SAR_1_SaveConfig(void)
  45:.\Generated_Source\PSoC5/ADC_SAR_1_PM.c **** {
  31              		.loc 1 45 0
  32              		.cfi_startproc
  33              		@ args = 0, pretend = 0, frame = 0
  34              		@ frame_needed = 1, uses_anonymous_args = 0
  35              		@ link register save eliminated.
  36 0000 80B4     		push	{r7}
  37              	.LCFI0:
  38              		.cfi_def_cfa_offset 4
  39              		.cfi_offset 7, -4
  40 0002 00AF     		add	r7, sp, #0
  41              	.LCFI1:
  42              		.cfi_def_cfa_register 7
  46:.\Generated_Source\PSoC5/ADC_SAR_1_PM.c ****     /* All configuration registers are marked as [reset_all_retention] */
  47:.\Generated_Source\PSoC5/ADC_SAR_1_PM.c **** }
  43              		.loc 1 47 0
  44 0004 BD46     		mov	sp, r7
  45 0006 80BC     		pop	{r7}
  46 0008 7047     		bx	lr
  47              		.cfi_endproc
  48              	.LFE0:
  49              		.size	ADC_SAR_1_SaveConfig, .-ADC_SAR_1_SaveConfig
  50 000a 00BF     		.section	.text.ADC_SAR_1_RestoreConfig,"ax",%progbits
  51              		.align	2
  52              		.global	ADC_SAR_1_RestoreConfig
  53              		.thumb
  54              		.thumb_func
  55              		.type	ADC_SAR_1_RestoreConfig, %function
  56              	ADC_SAR_1_RestoreConfig:
  57              	.LFB1:
  48:.\Generated_Source\PSoC5/ADC_SAR_1_PM.c **** 
  49:.\Generated_Source\PSoC5/ADC_SAR_1_PM.c **** 
  50:.\Generated_Source\PSoC5/ADC_SAR_1_PM.c **** /*******************************************************************************
  51:.\Generated_Source\PSoC5/ADC_SAR_1_PM.c **** * Function Name: ADC_SAR_1_RestoreConfig
  52:.\Generated_Source\PSoC5/ADC_SAR_1_PM.c **** ********************************************************************************
  53:.\Generated_Source\PSoC5/ADC_SAR_1_PM.c **** *
  54:.\Generated_Source\PSoC5/ADC_SAR_1_PM.c **** * Summary:
  55:.\Generated_Source\PSoC5/ADC_SAR_1_PM.c **** *  Restores the current user configuration.
  56:.\Generated_Source\PSoC5/ADC_SAR_1_PM.c **** *
  57:.\Generated_Source\PSoC5/ADC_SAR_1_PM.c **** * Parameters:
ARM GAS  C:\Users\Brian\AppData\Local\Temp\ccm3dbdg.s 			page 3


  58:.\Generated_Source\PSoC5/ADC_SAR_1_PM.c **** *  None.
  59:.\Generated_Source\PSoC5/ADC_SAR_1_PM.c **** *
  60:.\Generated_Source\PSoC5/ADC_SAR_1_PM.c **** * Return:
  61:.\Generated_Source\PSoC5/ADC_SAR_1_PM.c **** *  None.
  62:.\Generated_Source\PSoC5/ADC_SAR_1_PM.c **** *
  63:.\Generated_Source\PSoC5/ADC_SAR_1_PM.c **** *******************************************************************************/
  64:.\Generated_Source\PSoC5/ADC_SAR_1_PM.c **** void ADC_SAR_1_RestoreConfig(void)
  65:.\Generated_Source\PSoC5/ADC_SAR_1_PM.c **** {
  58              		.loc 1 65 0
  59              		.cfi_startproc
  60              		@ args = 0, pretend = 0, frame = 0
  61              		@ frame_needed = 1, uses_anonymous_args = 0
  62              		@ link register save eliminated.
  63 0000 80B4     		push	{r7}
  64              	.LCFI2:
  65              		.cfi_def_cfa_offset 4
  66              		.cfi_offset 7, -4
  67 0002 00AF     		add	r7, sp, #0
  68              	.LCFI3:
  69              		.cfi_def_cfa_register 7
  66:.\Generated_Source\PSoC5/ADC_SAR_1_PM.c ****     /* All congiguration registers are marked as [reset_all_retention] */
  67:.\Generated_Source\PSoC5/ADC_SAR_1_PM.c **** }
  70              		.loc 1 67 0
  71 0004 BD46     		mov	sp, r7
  72 0006 80BC     		pop	{r7}
  73 0008 7047     		bx	lr
  74              		.cfi_endproc
  75              	.LFE1:
  76              		.size	ADC_SAR_1_RestoreConfig, .-ADC_SAR_1_RestoreConfig
  77 000a 00BF     		.section	.text.ADC_SAR_1_Sleep,"ax",%progbits
  78              		.align	2
  79              		.global	ADC_SAR_1_Sleep
  80              		.thumb
  81              		.thumb_func
  82              		.type	ADC_SAR_1_Sleep, %function
  83              	ADC_SAR_1_Sleep:
  84              	.LFB2:
  68:.\Generated_Source\PSoC5/ADC_SAR_1_PM.c **** 
  69:.\Generated_Source\PSoC5/ADC_SAR_1_PM.c **** 
  70:.\Generated_Source\PSoC5/ADC_SAR_1_PM.c **** /*******************************************************************************
  71:.\Generated_Source\PSoC5/ADC_SAR_1_PM.c **** * Function Name: ADC_SAR_1_Sleep
  72:.\Generated_Source\PSoC5/ADC_SAR_1_PM.c **** ********************************************************************************
  73:.\Generated_Source\PSoC5/ADC_SAR_1_PM.c **** *
  74:.\Generated_Source\PSoC5/ADC_SAR_1_PM.c **** * Summary:
  75:.\Generated_Source\PSoC5/ADC_SAR_1_PM.c **** *  This is the preferred routine to prepare the component for sleep.
  76:.\Generated_Source\PSoC5/ADC_SAR_1_PM.c **** *  The ADC_SAR_1_Sleep() routine saves the current component state,
  77:.\Generated_Source\PSoC5/ADC_SAR_1_PM.c **** *  then it calls the ADC_Stop() function.
  78:.\Generated_Source\PSoC5/ADC_SAR_1_PM.c **** *
  79:.\Generated_Source\PSoC5/ADC_SAR_1_PM.c **** * Parameters:
  80:.\Generated_Source\PSoC5/ADC_SAR_1_PM.c **** *  None.
  81:.\Generated_Source\PSoC5/ADC_SAR_1_PM.c **** *
  82:.\Generated_Source\PSoC5/ADC_SAR_1_PM.c **** * Return:
  83:.\Generated_Source\PSoC5/ADC_SAR_1_PM.c **** *  None.
  84:.\Generated_Source\PSoC5/ADC_SAR_1_PM.c **** *
  85:.\Generated_Source\PSoC5/ADC_SAR_1_PM.c **** * Global Variables:
  86:.\Generated_Source\PSoC5/ADC_SAR_1_PM.c **** *  ADC_SAR_1_backup - modified.
  87:.\Generated_Source\PSoC5/ADC_SAR_1_PM.c **** *
ARM GAS  C:\Users\Brian\AppData\Local\Temp\ccm3dbdg.s 			page 4


  88:.\Generated_Source\PSoC5/ADC_SAR_1_PM.c **** *******************************************************************************/
  89:.\Generated_Source\PSoC5/ADC_SAR_1_PM.c **** void ADC_SAR_1_Sleep(void)
  90:.\Generated_Source\PSoC5/ADC_SAR_1_PM.c **** {
  85              		.loc 1 90 0
  86              		.cfi_startproc
  87              		@ args = 0, pretend = 0, frame = 0
  88              		@ frame_needed = 1, uses_anonymous_args = 0
  89 0000 80B5     		push	{r7, lr}
  90              	.LCFI4:
  91              		.cfi_def_cfa_offset 8
  92              		.cfi_offset 7, -8
  93              		.cfi_offset 14, -4
  94 0002 00AF     		add	r7, sp, #0
  95              	.LCFI5:
  96              		.cfi_def_cfa_register 7
  91:.\Generated_Source\PSoC5/ADC_SAR_1_PM.c ****     if((ADC_SAR_1_PWRMGR_SAR_REG  & ADC_SAR_1_ACT_PWR_SAR_EN) != 0u)
  97              		.loc 1 91 0
  98 0004 44F2AB33 		movw	r3, #17323
  99 0008 C4F20003 		movt	r3, 16384
 100 000c 1B78     		ldrb	r3, [r3, #0]
 101 000e DBB2     		uxtb	r3, r3
 102 0010 03F00203 		and	r3, r3, #2
 103 0014 002B     		cmp	r3, #0
 104 0016 1BD0     		beq	.L4
  92:.\Generated_Source\PSoC5/ADC_SAR_1_PM.c ****     {
  93:.\Generated_Source\PSoC5/ADC_SAR_1_PM.c ****         if((ADC_SAR_1_SAR_CSR0_REG & ADC_SAR_1_SAR_SOF_START_CONV) != 0u)
 105              		.loc 1 93 0
 106 0018 45F60813 		movw	r3, #22792
 107 001c C4F20003 		movt	r3, 16384
 108 0020 1B78     		ldrb	r3, [r3, #0]
 109 0022 DBB2     		uxtb	r3, r3
 110 0024 03F00103 		and	r3, r3, #1
 111 0028 002B     		cmp	r3, #0
 112 002a 07D0     		beq	.L5
  94:.\Generated_Source\PSoC5/ADC_SAR_1_PM.c ****         {
  95:.\Generated_Source\PSoC5/ADC_SAR_1_PM.c ****             ADC_SAR_1_backup.enableState = ADC_SAR_1_ENABLED | ADC_SAR_1_STARTED;
 113              		.loc 1 95 0
 114 002c 40F20003 		movw	r3, #:lower16:ADC_SAR_1_backup
 115 0030 C0F20003 		movt	r3, #:upper16:ADC_SAR_1_backup
 116 0034 4FF00302 		mov	r2, #3
 117 0038 1A70     		strb	r2, [r3, #0]
 118 003a 06E0     		b	.L6
 119              	.L5:
  96:.\Generated_Source\PSoC5/ADC_SAR_1_PM.c ****         }
  97:.\Generated_Source\PSoC5/ADC_SAR_1_PM.c ****         else
  98:.\Generated_Source\PSoC5/ADC_SAR_1_PM.c ****         {
  99:.\Generated_Source\PSoC5/ADC_SAR_1_PM.c ****             ADC_SAR_1_backup.enableState = ADC_SAR_1_ENABLED;
 120              		.loc 1 99 0
 121 003c 40F20003 		movw	r3, #:lower16:ADC_SAR_1_backup
 122 0040 C0F20003 		movt	r3, #:upper16:ADC_SAR_1_backup
 123 0044 4FF00102 		mov	r2, #1
 124 0048 1A70     		strb	r2, [r3, #0]
 125              	.L6:
 100:.\Generated_Source\PSoC5/ADC_SAR_1_PM.c ****         }
 101:.\Generated_Source\PSoC5/ADC_SAR_1_PM.c ****         ADC_SAR_1_Stop();
 126              		.loc 1 101 0
 127 004a FFF7FEFF 		bl	ADC_SAR_1_Stop
ARM GAS  C:\Users\Brian\AppData\Local\Temp\ccm3dbdg.s 			page 5


 128 004e 06E0     		b	.L3
 129              	.L4:
 102:.\Generated_Source\PSoC5/ADC_SAR_1_PM.c ****     }
 103:.\Generated_Source\PSoC5/ADC_SAR_1_PM.c ****     else
 104:.\Generated_Source\PSoC5/ADC_SAR_1_PM.c ****     {
 105:.\Generated_Source\PSoC5/ADC_SAR_1_PM.c ****         ADC_SAR_1_backup.enableState = ADC_SAR_1_DISABLED;
 130              		.loc 1 105 0
 131 0050 40F20003 		movw	r3, #:lower16:ADC_SAR_1_backup
 132 0054 C0F20003 		movt	r3, #:upper16:ADC_SAR_1_backup
 133 0058 4FF00002 		mov	r2, #0
 134 005c 1A70     		strb	r2, [r3, #0]
 135              	.L3:
 106:.\Generated_Source\PSoC5/ADC_SAR_1_PM.c ****     }
 107:.\Generated_Source\PSoC5/ADC_SAR_1_PM.c **** }
 136              		.loc 1 107 0
 137 005e 80BD     		pop	{r7, pc}
 138              		.cfi_endproc
 139              	.LFE2:
 140              		.size	ADC_SAR_1_Sleep, .-ADC_SAR_1_Sleep
 141              		.section	.text.ADC_SAR_1_Wakeup,"ax",%progbits
 142              		.align	2
 143              		.global	ADC_SAR_1_Wakeup
 144              		.thumb
 145              		.thumb_func
 146              		.type	ADC_SAR_1_Wakeup, %function
 147              	ADC_SAR_1_Wakeup:
 148              	.LFB3:
 108:.\Generated_Source\PSoC5/ADC_SAR_1_PM.c **** 
 109:.\Generated_Source\PSoC5/ADC_SAR_1_PM.c **** 
 110:.\Generated_Source\PSoC5/ADC_SAR_1_PM.c **** /*******************************************************************************
 111:.\Generated_Source\PSoC5/ADC_SAR_1_PM.c **** * Function Name: ADC_SAR_1_Wakeup
 112:.\Generated_Source\PSoC5/ADC_SAR_1_PM.c **** ********************************************************************************
 113:.\Generated_Source\PSoC5/ADC_SAR_1_PM.c **** *
 114:.\Generated_Source\PSoC5/ADC_SAR_1_PM.c **** * Summary:
 115:.\Generated_Source\PSoC5/ADC_SAR_1_PM.c **** *  This is the preferred routine to restore the component to the state when
 116:.\Generated_Source\PSoC5/ADC_SAR_1_PM.c **** *  ADC_SAR_1_Sleep() was called. If the component was enabled before the
 117:.\Generated_Source\PSoC5/ADC_SAR_1_PM.c **** *  ADC_SAR_1_Sleep() function was called, the
 118:.\Generated_Source\PSoC5/ADC_SAR_1_PM.c **** *  ADC_SAR_1_Wakeup() function also re-enables the component.
 119:.\Generated_Source\PSoC5/ADC_SAR_1_PM.c **** *
 120:.\Generated_Source\PSoC5/ADC_SAR_1_PM.c **** * Parameters:
 121:.\Generated_Source\PSoC5/ADC_SAR_1_PM.c **** *  None.
 122:.\Generated_Source\PSoC5/ADC_SAR_1_PM.c **** *
 123:.\Generated_Source\PSoC5/ADC_SAR_1_PM.c **** * Return:
 124:.\Generated_Source\PSoC5/ADC_SAR_1_PM.c **** *  None.
 125:.\Generated_Source\PSoC5/ADC_SAR_1_PM.c **** *
 126:.\Generated_Source\PSoC5/ADC_SAR_1_PM.c **** * Global Variables:
 127:.\Generated_Source\PSoC5/ADC_SAR_1_PM.c **** *  ADC_SAR_1_backup - used to check enabable state.
 128:.\Generated_Source\PSoC5/ADC_SAR_1_PM.c **** *
 129:.\Generated_Source\PSoC5/ADC_SAR_1_PM.c **** *******************************************************************************/
 130:.\Generated_Source\PSoC5/ADC_SAR_1_PM.c **** void ADC_SAR_1_Wakeup(void)
 131:.\Generated_Source\PSoC5/ADC_SAR_1_PM.c **** {
 149              		.loc 1 131 0
 150              		.cfi_startproc
 151              		@ args = 0, pretend = 0, frame = 0
 152              		@ frame_needed = 1, uses_anonymous_args = 0
 153 0000 80B5     		push	{r7, lr}
 154              	.LCFI6:
ARM GAS  C:\Users\Brian\AppData\Local\Temp\ccm3dbdg.s 			page 6


 155              		.cfi_def_cfa_offset 8
 156              		.cfi_offset 7, -8
 157              		.cfi_offset 14, -4
 158 0002 00AF     		add	r7, sp, #0
 159              	.LCFI7:
 160              		.cfi_def_cfa_register 7
 132:.\Generated_Source\PSoC5/ADC_SAR_1_PM.c ****     if(ADC_SAR_1_backup.enableState != ADC_SAR_1_DISABLED)
 161              		.loc 1 132 0
 162 0004 40F20003 		movw	r3, #:lower16:ADC_SAR_1_backup
 163 0008 C0F20003 		movt	r3, #:upper16:ADC_SAR_1_backup
 164 000c 1B78     		ldrb	r3, [r3, #0]	@ zero_extendqisi2
 165 000e 002B     		cmp	r3, #0
 166 0010 0CD0     		beq	.L8
 133:.\Generated_Source\PSoC5/ADC_SAR_1_PM.c ****     {
 134:.\Generated_Source\PSoC5/ADC_SAR_1_PM.c ****         ADC_SAR_1_Enable();
 167              		.loc 1 134 0
 168 0012 FFF7FEFF 		bl	ADC_SAR_1_Enable
 135:.\Generated_Source\PSoC5/ADC_SAR_1_PM.c ****         #if(ADC_SAR_1_DEFAULT_CONV_MODE != ADC_SAR_1__HARDWARE_TRIGGER)
 136:.\Generated_Source\PSoC5/ADC_SAR_1_PM.c ****             if((ADC_SAR_1_backup.enableState & ADC_SAR_1_STARTED) != 0u)
 169              		.loc 1 136 0
 170 0016 40F20003 		movw	r3, #:lower16:ADC_SAR_1_backup
 171 001a C0F20003 		movt	r3, #:upper16:ADC_SAR_1_backup
 172 001e 1B78     		ldrb	r3, [r3, #0]	@ zero_extendqisi2
 173 0020 03F00203 		and	r3, r3, #2
 174 0024 002B     		cmp	r3, #0
 175 0026 01D0     		beq	.L8
 137:.\Generated_Source\PSoC5/ADC_SAR_1_PM.c ****             {
 138:.\Generated_Source\PSoC5/ADC_SAR_1_PM.c ****                 ADC_SAR_1_StartConvert();
 176              		.loc 1 138 0
 177 0028 FFF7FEFF 		bl	ADC_SAR_1_StartConvert
 178              	.L8:
 139:.\Generated_Source\PSoC5/ADC_SAR_1_PM.c ****             }
 140:.\Generated_Source\PSoC5/ADC_SAR_1_PM.c ****         #endif /* End ADC_SAR_1_DEFAULT_CONV_MODE != ADC_SAR_1__HARDWARE_TRIGGER */
 141:.\Generated_Source\PSoC5/ADC_SAR_1_PM.c ****     }
 142:.\Generated_Source\PSoC5/ADC_SAR_1_PM.c **** }
 179              		.loc 1 142 0
 180 002c 80BD     		pop	{r7, pc}
 181              		.cfi_endproc
 182              	.LFE3:
 183              		.size	ADC_SAR_1_Wakeup, .-ADC_SAR_1_Wakeup
 184 002e 00BF     		.text
 185              	.Letext0:
 186              		.file 2 ".\\Generated_Source\\PSoC5\\cytypes.h"
 187              		.file 3 ".\\Generated_Source\\PSoC5\\ADC_SAR_1.h"