ARM GAS  C:\Users\Robert\AppData\Local\Temp\cczxa6fy.s 			page 1


   1              		.syntax unified
   2              		.cpu cortex-m3
   3              		.fpu softvfp
   4              		.eabi_attribute 20, 1
   5              		.eabi_attribute 21, 1
   6              		.eabi_attribute 23, 3
   7              		.eabi_attribute 24, 1
   8              		.eabi_attribute 25, 1
   9              		.eabi_attribute 26, 1
  10              		.eabi_attribute 30, 6
  11              		.eabi_attribute 34, 1
  12              		.eabi_attribute 18, 4
  13              		.thumb
  14              		.file	"ADC_SAR_2.c"
  15              		.text
  16              	.Ltext0:
  17              		.cfi_sections	.debug_frame
  18              		.global	ADC_SAR_2_initVar
  19              		.bss
  20              		.type	ADC_SAR_2_initVar, %object
  21              		.size	ADC_SAR_2_initVar, 1
  22              	ADC_SAR_2_initVar:
  23 0000 00       		.space	1
  24              		.comm	ADC_SAR_2_offset,2,2
  25              		.comm	ADC_SAR_2_countsPerVolt,2,2
  26              		.comm	ADC_SAR_2_countsPer10Volt,4,4
  27              		.comm	ADC_SAR_2_shift,2,2
  28              		.section	.text.ADC_SAR_2_Start,"ax",%progbits
  29              		.align	2
  30              		.global	ADC_SAR_2_Start
  31              		.thumb
  32              		.thumb_func
  33              		.type	ADC_SAR_2_Start, %function
  34              	ADC_SAR_2_Start:
  35              	.LFB0:
  36              		.file 1 ".\\Generated_Source\\PSoC5\\ADC_SAR_2.c"
   1:.\Generated_Source\PSoC5/ADC_SAR_2.c **** /*******************************************************************************
   2:.\Generated_Source\PSoC5/ADC_SAR_2.c **** * File Name: ADC_SAR_2.c
   3:.\Generated_Source\PSoC5/ADC_SAR_2.c **** * Version 2.10
   4:.\Generated_Source\PSoC5/ADC_SAR_2.c **** *
   5:.\Generated_Source\PSoC5/ADC_SAR_2.c **** * Description:
   6:.\Generated_Source\PSoC5/ADC_SAR_2.c **** *  This file provides the source code to the API for the Successive
   7:.\Generated_Source\PSoC5/ADC_SAR_2.c **** *  approximation ADC Component.
   8:.\Generated_Source\PSoC5/ADC_SAR_2.c **** *
   9:.\Generated_Source\PSoC5/ADC_SAR_2.c **** * Note:
  10:.\Generated_Source\PSoC5/ADC_SAR_2.c **** *
  11:.\Generated_Source\PSoC5/ADC_SAR_2.c **** ********************************************************************************
  12:.\Generated_Source\PSoC5/ADC_SAR_2.c **** * Copyright 2008-2013, Cypress Semiconductor Corporation.  All rights reserved.
  13:.\Generated_Source\PSoC5/ADC_SAR_2.c **** * You may use this file only in accordance with the license, terms, conditions,
  14:.\Generated_Source\PSoC5/ADC_SAR_2.c **** * disclaimers, and limitations in the end user license agreement accompanying
  15:.\Generated_Source\PSoC5/ADC_SAR_2.c **** * the software package with which this file was provided.
  16:.\Generated_Source\PSoC5/ADC_SAR_2.c **** *******************************************************************************/
  17:.\Generated_Source\PSoC5/ADC_SAR_2.c **** 
  18:.\Generated_Source\PSoC5/ADC_SAR_2.c **** #include "CyLib.h"
  19:.\Generated_Source\PSoC5/ADC_SAR_2.c **** #include "ADC_SAR_2.h"
  20:.\Generated_Source\PSoC5/ADC_SAR_2.c **** 
  21:.\Generated_Source\PSoC5/ADC_SAR_2.c **** #if(ADC_SAR_2_DEFAULT_INTERNAL_CLK)
ARM GAS  C:\Users\Robert\AppData\Local\Temp\cczxa6fy.s 			page 2


  22:.\Generated_Source\PSoC5/ADC_SAR_2.c ****     #include "ADC_SAR_2_theACLK.h"
  23:.\Generated_Source\PSoC5/ADC_SAR_2.c **** #endif /* End ADC_SAR_2_DEFAULT_INTERNAL_CLK */
  24:.\Generated_Source\PSoC5/ADC_SAR_2.c **** 
  25:.\Generated_Source\PSoC5/ADC_SAR_2.c **** 
  26:.\Generated_Source\PSoC5/ADC_SAR_2.c **** /***************************************
  27:.\Generated_Source\PSoC5/ADC_SAR_2.c **** * Forward function references
  28:.\Generated_Source\PSoC5/ADC_SAR_2.c **** ***************************************/
  29:.\Generated_Source\PSoC5/ADC_SAR_2.c **** static void ADC_SAR_2_CalcGain(uint8 resolution);
  30:.\Generated_Source\PSoC5/ADC_SAR_2.c **** 
  31:.\Generated_Source\PSoC5/ADC_SAR_2.c **** 
  32:.\Generated_Source\PSoC5/ADC_SAR_2.c **** /***************************************
  33:.\Generated_Source\PSoC5/ADC_SAR_2.c **** * Global data allocation
  34:.\Generated_Source\PSoC5/ADC_SAR_2.c **** ***************************************/
  35:.\Generated_Source\PSoC5/ADC_SAR_2.c **** uint8 ADC_SAR_2_initVar = 0u;
  36:.\Generated_Source\PSoC5/ADC_SAR_2.c **** volatile int16 ADC_SAR_2_offset;
  37:.\Generated_Source\PSoC5/ADC_SAR_2.c **** volatile int16 ADC_SAR_2_countsPerVolt;     /* Obsolete Gain compensation */
  38:.\Generated_Source\PSoC5/ADC_SAR_2.c **** volatile int32 ADC_SAR_2_countsPer10Volt;   /* Gain compensation */
  39:.\Generated_Source\PSoC5/ADC_SAR_2.c **** volatile int16 ADC_SAR_2_shift;
  40:.\Generated_Source\PSoC5/ADC_SAR_2.c **** 
  41:.\Generated_Source\PSoC5/ADC_SAR_2.c **** 
  42:.\Generated_Source\PSoC5/ADC_SAR_2.c **** /*******************************************************************************
  43:.\Generated_Source\PSoC5/ADC_SAR_2.c **** * Function Name: ADC_SAR_2_Start
  44:.\Generated_Source\PSoC5/ADC_SAR_2.c **** ********************************************************************************
  45:.\Generated_Source\PSoC5/ADC_SAR_2.c **** *
  46:.\Generated_Source\PSoC5/ADC_SAR_2.c **** * Summary:
  47:.\Generated_Source\PSoC5/ADC_SAR_2.c **** *  This is the preferred method to begin component operation.
  48:.\Generated_Source\PSoC5/ADC_SAR_2.c **** *  ADC_SAR_2_Start() sets the initVar variable, calls the
  49:.\Generated_Source\PSoC5/ADC_SAR_2.c **** *  ADC_SAR_2_Init() function, and then calls the
  50:.\Generated_Source\PSoC5/ADC_SAR_2.c **** *  ADC_SAR_2_Enable() function.
  51:.\Generated_Source\PSoC5/ADC_SAR_2.c **** *
  52:.\Generated_Source\PSoC5/ADC_SAR_2.c **** * Parameters:
  53:.\Generated_Source\PSoC5/ADC_SAR_2.c **** *  None.
  54:.\Generated_Source\PSoC5/ADC_SAR_2.c **** *
  55:.\Generated_Source\PSoC5/ADC_SAR_2.c **** * Return:
  56:.\Generated_Source\PSoC5/ADC_SAR_2.c **** *  None.
  57:.\Generated_Source\PSoC5/ADC_SAR_2.c **** *
  58:.\Generated_Source\PSoC5/ADC_SAR_2.c **** * Global variables:
  59:.\Generated_Source\PSoC5/ADC_SAR_2.c **** *  The ADC_SAR_2_initVar variable is used to indicate when/if initial
  60:.\Generated_Source\PSoC5/ADC_SAR_2.c **** *  configuration of this component has happened. The variable is initialized to
  61:.\Generated_Source\PSoC5/ADC_SAR_2.c **** *  zero and set to 1 the first time ADC_Start() is called. This allows for
  62:.\Generated_Source\PSoC5/ADC_SAR_2.c **** *  component Re-Start without re-initialization in all subsequent calls to the
  63:.\Generated_Source\PSoC5/ADC_SAR_2.c **** *  ADC_SAR_2_Start() routine.
  64:.\Generated_Source\PSoC5/ADC_SAR_2.c **** *  If re-initialization of the component is required the variable should be set
  65:.\Generated_Source\PSoC5/ADC_SAR_2.c **** *  to zero before call of ADC_SAR_2_Start() routine, or the user may call
  66:.\Generated_Source\PSoC5/ADC_SAR_2.c **** *  ADC_SAR_2_Init() and ADC_SAR_2_Enable() as done in the
  67:.\Generated_Source\PSoC5/ADC_SAR_2.c **** *  ADC_SAR_2_Start() routine.
  68:.\Generated_Source\PSoC5/ADC_SAR_2.c **** *
  69:.\Generated_Source\PSoC5/ADC_SAR_2.c **** * Side Effect:
  70:.\Generated_Source\PSoC5/ADC_SAR_2.c **** *  If the initVar variable is already set, this function only calls the
  71:.\Generated_Source\PSoC5/ADC_SAR_2.c **** *  ADC_SAR_2_Enable() function.
  72:.\Generated_Source\PSoC5/ADC_SAR_2.c **** *
  73:.\Generated_Source\PSoC5/ADC_SAR_2.c **** *******************************************************************************/
  74:.\Generated_Source\PSoC5/ADC_SAR_2.c **** void ADC_SAR_2_Start(void)
  75:.\Generated_Source\PSoC5/ADC_SAR_2.c **** {
  37              		.loc 1 75 0
  38              		.cfi_startproc
  39              		@ args = 0, pretend = 0, frame = 0
ARM GAS  C:\Users\Robert\AppData\Local\Temp\cczxa6fy.s 			page 3


  40              		@ frame_needed = 1, uses_anonymous_args = 0
  41 0000 80B5     		push	{r7, lr}
  42              	.LCFI0:
  43              		.cfi_def_cfa_offset 8
  44              		.cfi_offset 7, -8
  45              		.cfi_offset 14, -4
  46 0002 00AF     		add	r7, sp, #0
  47              	.LCFI1:
  48              		.cfi_def_cfa_register 7
  76:.\Generated_Source\PSoC5/ADC_SAR_2.c **** 
  77:.\Generated_Source\PSoC5/ADC_SAR_2.c ****     /* If not Initialized then initialize all required hardware and software */
  78:.\Generated_Source\PSoC5/ADC_SAR_2.c ****     if(ADC_SAR_2_initVar == 0u)
  49              		.loc 1 78 0
  50 0004 40F20003 		movw	r3, #:lower16:ADC_SAR_2_initVar
  51 0008 C0F20003 		movt	r3, #:upper16:ADC_SAR_2_initVar
  52 000c 1B78     		ldrb	r3, [r3, #0]	@ zero_extendqisi2
  53 000e 002B     		cmp	r3, #0
  54 0010 08D1     		bne	.L2
  79:.\Generated_Source\PSoC5/ADC_SAR_2.c ****     {
  80:.\Generated_Source\PSoC5/ADC_SAR_2.c ****         ADC_SAR_2_Init();
  55              		.loc 1 80 0
  56 0012 FFF7FEFF 		bl	ADC_SAR_2_Init
  81:.\Generated_Source\PSoC5/ADC_SAR_2.c ****         ADC_SAR_2_initVar = 1u;
  57              		.loc 1 81 0
  58 0016 40F20003 		movw	r3, #:lower16:ADC_SAR_2_initVar
  59 001a C0F20003 		movt	r3, #:upper16:ADC_SAR_2_initVar
  60 001e 4FF00102 		mov	r2, #1
  61 0022 1A70     		strb	r2, [r3, #0]
  62              	.L2:
  82:.\Generated_Source\PSoC5/ADC_SAR_2.c ****     }
  83:.\Generated_Source\PSoC5/ADC_SAR_2.c ****     ADC_SAR_2_Enable();
  63              		.loc 1 83 0
  64 0024 FFF7FEFF 		bl	ADC_SAR_2_Enable
  84:.\Generated_Source\PSoC5/ADC_SAR_2.c **** }
  65              		.loc 1 84 0
  66 0028 80BD     		pop	{r7, pc}
  67              		.cfi_endproc
  68              	.LFE0:
  69              		.size	ADC_SAR_2_Start, .-ADC_SAR_2_Start
  70 002a 00BF     		.section	.text.ADC_SAR_2_Init,"ax",%progbits
  71              		.align	2
  72              		.global	ADC_SAR_2_Init
  73              		.thumb
  74              		.thumb_func
  75              		.type	ADC_SAR_2_Init, %function
  76              	ADC_SAR_2_Init:
  77              	.LFB1:
  85:.\Generated_Source\PSoC5/ADC_SAR_2.c **** 
  86:.\Generated_Source\PSoC5/ADC_SAR_2.c **** 
  87:.\Generated_Source\PSoC5/ADC_SAR_2.c **** /*******************************************************************************
  88:.\Generated_Source\PSoC5/ADC_SAR_2.c **** * Function Name: ADC_SAR_2_Init
  89:.\Generated_Source\PSoC5/ADC_SAR_2.c **** ********************************************************************************
  90:.\Generated_Source\PSoC5/ADC_SAR_2.c **** *
  91:.\Generated_Source\PSoC5/ADC_SAR_2.c **** * Summary:
  92:.\Generated_Source\PSoC5/ADC_SAR_2.c **** *  Initialize component's parameters to the parameters set by user in the
  93:.\Generated_Source\PSoC5/ADC_SAR_2.c **** *  customizer of the component placed onto schematic. Usually called in
  94:.\Generated_Source\PSoC5/ADC_SAR_2.c **** *  ADC_SAR_2_Start().
ARM GAS  C:\Users\Robert\AppData\Local\Temp\cczxa6fy.s 			page 4


  95:.\Generated_Source\PSoC5/ADC_SAR_2.c **** *
  96:.\Generated_Source\PSoC5/ADC_SAR_2.c **** * Parameters:
  97:.\Generated_Source\PSoC5/ADC_SAR_2.c **** *  None.
  98:.\Generated_Source\PSoC5/ADC_SAR_2.c **** *
  99:.\Generated_Source\PSoC5/ADC_SAR_2.c **** * Return:
 100:.\Generated_Source\PSoC5/ADC_SAR_2.c **** *  None.
 101:.\Generated_Source\PSoC5/ADC_SAR_2.c **** *
 102:.\Generated_Source\PSoC5/ADC_SAR_2.c **** * Global variables:
 103:.\Generated_Source\PSoC5/ADC_SAR_2.c **** *  The ADC_SAR_2_offset variable is initialized to 0.
 104:.\Generated_Source\PSoC5/ADC_SAR_2.c **** *
 105:.\Generated_Source\PSoC5/ADC_SAR_2.c **** *******************************************************************************/
 106:.\Generated_Source\PSoC5/ADC_SAR_2.c **** void ADC_SAR_2_Init(void)
 107:.\Generated_Source\PSoC5/ADC_SAR_2.c **** {
  78              		.loc 1 107 0
  79              		.cfi_startproc
  80              		@ args = 0, pretend = 0, frame = 0
  81              		@ frame_needed = 1, uses_anonymous_args = 0
  82 0000 80B5     		push	{r7, lr}
  83              	.LCFI2:
  84              		.cfi_def_cfa_offset 8
  85              		.cfi_offset 7, -8
  86              		.cfi_offset 14, -4
  87 0002 00AF     		add	r7, sp, #0
  88              	.LCFI3:
  89              		.cfi_def_cfa_register 7
 108:.\Generated_Source\PSoC5/ADC_SAR_2.c **** 
 109:.\Generated_Source\PSoC5/ADC_SAR_2.c ****     /* This is only valid if there is an internal clock */
 110:.\Generated_Source\PSoC5/ADC_SAR_2.c ****     #if(ADC_SAR_2_DEFAULT_INTERNAL_CLK)
 111:.\Generated_Source\PSoC5/ADC_SAR_2.c ****         ADC_SAR_2_theACLK_SetMode(CYCLK_DUTY);
  90              		.loc 1 111 0
  91 0004 4FF01000 		mov	r0, #16
  92 0008 FFF7FEFF 		bl	ADC_SAR_2_theACLK_SetModeRegister
 112:.\Generated_Source\PSoC5/ADC_SAR_2.c ****     #endif /* End ADC_SAR_2_DEFAULT_INTERNAL_CLK */
 113:.\Generated_Source\PSoC5/ADC_SAR_2.c **** 
 114:.\Generated_Source\PSoC5/ADC_SAR_2.c ****     #if(ADC_SAR_2_IRQ_REMOVE == 0u)
 115:.\Generated_Source\PSoC5/ADC_SAR_2.c ****         /* Start and set interrupt vector */
 116:.\Generated_Source\PSoC5/ADC_SAR_2.c ****         CyIntSetPriority(ADC_SAR_2_INTC_NUMBER, ADC_SAR_2_INTC_PRIOR_NUMBER);
  93              		.loc 1 116 0
  94 000c 4FF00100 		mov	r0, #1
  95 0010 4FF00701 		mov	r1, #7
  96 0014 FFF7FEFF 		bl	CyIntSetPriority
 117:.\Generated_Source\PSoC5/ADC_SAR_2.c ****         (void)CyIntSetVector(ADC_SAR_2_INTC_NUMBER, &ADC_SAR_2_ISR);
  97              		.loc 1 117 0
  98 0018 4FF00100 		mov	r0, #1
  99 001c 40F20001 		movw	r1, #:lower16:ADC_SAR_2_ISR
 100 0020 C0F20001 		movt	r1, #:upper16:ADC_SAR_2_ISR
 101 0024 FFF7FEFF 		bl	CyIntSetVector
 118:.\Generated_Source\PSoC5/ADC_SAR_2.c ****     #endif   /* End ADC_SAR_2_IRQ_REMOVE */
 119:.\Generated_Source\PSoC5/ADC_SAR_2.c **** 
 120:.\Generated_Source\PSoC5/ADC_SAR_2.c ****     /* Enable IRQ mode*/
 121:.\Generated_Source\PSoC5/ADC_SAR_2.c ****     ADC_SAR_2_SAR_CSR1_REG |= ADC_SAR_2_SAR_IRQ_MASK_EN | ADC_SAR_2_SAR_IRQ_MODE_EDGE;
 102              		.loc 1 121 0
 103 0028 45F60113 		movw	r3, #22785
 104 002c C4F20003 		movt	r3, 16384
 105 0030 45F60112 		movw	r2, #22785
 106 0034 C4F20002 		movt	r2, 16384
 107 0038 1278     		ldrb	r2, [r2, #0]
ARM GAS  C:\Users\Robert\AppData\Local\Temp\cczxa6fy.s 			page 5


 108 003a D2B2     		uxtb	r2, r2
 109 003c 42F00602 		orr	r2, r2, #6
 110 0040 D2B2     		uxtb	r2, r2
 111 0042 1A70     		strb	r2, [r3, #0]
 122:.\Generated_Source\PSoC5/ADC_SAR_2.c **** 
 123:.\Generated_Source\PSoC5/ADC_SAR_2.c ****     /*Set SAR ADC resolution ADC */
 124:.\Generated_Source\PSoC5/ADC_SAR_2.c ****     ADC_SAR_2_SetResolution(ADC_SAR_2_DEFAULT_RESOLUTION);
 112              		.loc 1 124 0
 113 0044 4FF00C00 		mov	r0, #12
 114 0048 FFF7FEFF 		bl	ADC_SAR_2_SetResolution
 125:.\Generated_Source\PSoC5/ADC_SAR_2.c ****     ADC_SAR_2_offset = 0;
 115              		.loc 1 125 0
 116 004c 40F20003 		movw	r3, #:lower16:ADC_SAR_2_offset
 117 0050 C0F20003 		movt	r3, #:upper16:ADC_SAR_2_offset
 118 0054 4FF00002 		mov	r2, #0
 119 0058 1A80     		strh	r2, [r3, #0]	@ movhi
 126:.\Generated_Source\PSoC5/ADC_SAR_2.c **** }
 120              		.loc 1 126 0
 121 005a 80BD     		pop	{r7, pc}
 122              		.cfi_endproc
 123              	.LFE1:
 124              		.size	ADC_SAR_2_Init, .-ADC_SAR_2_Init
 125              		.section	.text.ADC_SAR_2_Enable,"ax",%progbits
 126              		.align	2
 127              		.global	ADC_SAR_2_Enable
 128              		.thumb
 129              		.thumb_func
 130              		.type	ADC_SAR_2_Enable, %function
 131              	ADC_SAR_2_Enable:
 132              	.LFB2:
 127:.\Generated_Source\PSoC5/ADC_SAR_2.c **** 
 128:.\Generated_Source\PSoC5/ADC_SAR_2.c **** 
 129:.\Generated_Source\PSoC5/ADC_SAR_2.c **** /*******************************************************************************
 130:.\Generated_Source\PSoC5/ADC_SAR_2.c **** * Function Name: ADC_SAR_2_Enable
 131:.\Generated_Source\PSoC5/ADC_SAR_2.c **** ********************************************************************************
 132:.\Generated_Source\PSoC5/ADC_SAR_2.c **** *
 133:.\Generated_Source\PSoC5/ADC_SAR_2.c **** * Summary:
 134:.\Generated_Source\PSoC5/ADC_SAR_2.c **** *  Enables the reference, clock and power for SAR ADC.
 135:.\Generated_Source\PSoC5/ADC_SAR_2.c **** *
 136:.\Generated_Source\PSoC5/ADC_SAR_2.c **** * Parameters:
 137:.\Generated_Source\PSoC5/ADC_SAR_2.c **** *  None.
 138:.\Generated_Source\PSoC5/ADC_SAR_2.c **** *
 139:.\Generated_Source\PSoC5/ADC_SAR_2.c **** * Return:
 140:.\Generated_Source\PSoC5/ADC_SAR_2.c **** *  None.
 141:.\Generated_Source\PSoC5/ADC_SAR_2.c **** *
 142:.\Generated_Source\PSoC5/ADC_SAR_2.c **** *******************************************************************************/
 143:.\Generated_Source\PSoC5/ADC_SAR_2.c **** void ADC_SAR_2_Enable(void)
 144:.\Generated_Source\PSoC5/ADC_SAR_2.c **** {
 133              		.loc 1 144 0
 134              		.cfi_startproc
 135              		@ args = 0, pretend = 0, frame = 8
 136              		@ frame_needed = 1, uses_anonymous_args = 0
 137 0000 80B5     		push	{r7, lr}
 138              	.LCFI4:
 139              		.cfi_def_cfa_offset 8
 140              		.cfi_offset 7, -8
 141              		.cfi_offset 14, -4
ARM GAS  C:\Users\Robert\AppData\Local\Temp\cczxa6fy.s 			page 6


 142 0002 82B0     		sub	sp, sp, #8
 143              	.LCFI5:
 144              		.cfi_def_cfa_offset 16
 145 0004 00AF     		add	r7, sp, #0
 146              	.LCFI6:
 147              		.cfi_def_cfa_register 7
 145:.\Generated_Source\PSoC5/ADC_SAR_2.c ****     uint8 tmpReg;
 146:.\Generated_Source\PSoC5/ADC_SAR_2.c ****     uint8 enableInterrupts;
 147:.\Generated_Source\PSoC5/ADC_SAR_2.c ****     enableInterrupts = CyEnterCriticalSection();
 148              		.loc 1 147 0
 149 0006 FFF7FEFF 		bl	CyEnterCriticalSection
 150 000a 0346     		mov	r3, r0
 151 000c FB71     		strb	r3, [r7, #7]
 148:.\Generated_Source\PSoC5/ADC_SAR_2.c **** 
 149:.\Generated_Source\PSoC5/ADC_SAR_2.c ****     /* Enable the SAR ADC block in Active Power Mode */
 150:.\Generated_Source\PSoC5/ADC_SAR_2.c ****     ADC_SAR_2_PWRMGR_SAR_REG |= ADC_SAR_2_ACT_PWR_SAR_EN;
 152              		.loc 1 150 0
 153 000e 44F2AB33 		movw	r3, #17323
 154 0012 C4F20003 		movt	r3, 16384
 155 0016 44F2AB32 		movw	r2, #17323
 156 001a C4F20002 		movt	r2, 16384
 157 001e 1278     		ldrb	r2, [r2, #0]
 158 0020 D2B2     		uxtb	r2, r2
 159 0022 42F00102 		orr	r2, r2, #1
 160 0026 D2B2     		uxtb	r2, r2
 161 0028 1A70     		strb	r2, [r3, #0]
 151:.\Generated_Source\PSoC5/ADC_SAR_2.c **** 
 152:.\Generated_Source\PSoC5/ADC_SAR_2.c ****      /* Enable the SAR ADC in Standby Power Mode*/
 153:.\Generated_Source\PSoC5/ADC_SAR_2.c ****     ADC_SAR_2_STBY_PWRMGR_SAR_REG |= ADC_SAR_2_STBY_PWR_SAR_EN;
 162              		.loc 1 153 0
 163 002a 44F2BB33 		movw	r3, #17339
 164 002e C4F20003 		movt	r3, 16384
 165 0032 44F2BB32 		movw	r2, #17339
 166 0036 C4F20002 		movt	r2, 16384
 167 003a 1278     		ldrb	r2, [r2, #0]
 168 003c D2B2     		uxtb	r2, r2
 169 003e 42F00102 		orr	r2, r2, #1
 170 0042 D2B2     		uxtb	r2, r2
 171 0044 1A70     		strb	r2, [r3, #0]
 154:.\Generated_Source\PSoC5/ADC_SAR_2.c **** 
 155:.\Generated_Source\PSoC5/ADC_SAR_2.c ****     /* This is only valid if there is an internal clock */
 156:.\Generated_Source\PSoC5/ADC_SAR_2.c ****     #if(ADC_SAR_2_DEFAULT_INTERNAL_CLK)
 157:.\Generated_Source\PSoC5/ADC_SAR_2.c ****         ADC_SAR_2_PWRMGR_CLK_REG |= ADC_SAR_2_ACT_PWR_CLK_EN;
 172              		.loc 1 157 0
 173 0046 44F2A133 		movw	r3, #17313
 174 004a C4F20003 		movt	r3, 16384
 175 004e 44F2A132 		movw	r2, #17313
 176 0052 C4F20002 		movt	r2, 16384
 177 0056 1278     		ldrb	r2, [r2, #0]
 178 0058 D2B2     		uxtb	r2, r2
 179 005a 42F00102 		orr	r2, r2, #1
 180 005e D2B2     		uxtb	r2, r2
 181 0060 1A70     		strb	r2, [r3, #0]
 158:.\Generated_Source\PSoC5/ADC_SAR_2.c ****         ADC_SAR_2_STBY_PWRMGR_CLK_REG |= ADC_SAR_2_STBY_PWR_CLK_EN;
 182              		.loc 1 158 0
 183 0062 44F2B133 		movw	r3, #17329
 184 0066 C4F20003 		movt	r3, 16384
ARM GAS  C:\Users\Robert\AppData\Local\Temp\cczxa6fy.s 			page 7


 185 006a 44F2B132 		movw	r2, #17329
 186 006e C4F20002 		movt	r2, 16384
 187 0072 1278     		ldrb	r2, [r2, #0]
 188 0074 D2B2     		uxtb	r2, r2
 189 0076 42F00102 		orr	r2, r2, #1
 190 007a D2B2     		uxtb	r2, r2
 191 007c 1A70     		strb	r2, [r3, #0]
 159:.\Generated_Source\PSoC5/ADC_SAR_2.c ****     #endif /* End ADC_SAR_2_DEFAULT_INTERNAL_CLK */
 160:.\Generated_Source\PSoC5/ADC_SAR_2.c **** 
 161:.\Generated_Source\PSoC5/ADC_SAR_2.c ****     /* Enable VCM buffer and Enable Int Ref Amp */
 162:.\Generated_Source\PSoC5/ADC_SAR_2.c ****     tmpReg = ADC_SAR_2_SAR_CSR3_REG;
 192              		.loc 1 162 0
 193 007e 45F60313 		movw	r3, #22787
 194 0082 C4F20003 		movt	r3, 16384
 195 0086 1B78     		ldrb	r3, [r3, #0]
 196 0088 BB71     		strb	r3, [r7, #6]
 163:.\Generated_Source\PSoC5/ADC_SAR_2.c ****     tmpReg |= ADC_SAR_2_SAR_EN_BUF_VCM_EN;
 197              		.loc 1 163 0
 198 008a BB79     		ldrb	r3, [r7, #6]
 199 008c 43F00203 		orr	r3, r3, #2
 200 0090 BB71     		strb	r3, [r7, #6]
 164:.\Generated_Source\PSoC5/ADC_SAR_2.c ****     /* PD_BUF_VREF is OFF in External reference or Vdda reference mode */
 165:.\Generated_Source\PSoC5/ADC_SAR_2.c ****     #if((ADC_SAR_2_DEFAULT_REFERENCE == ADC_SAR_2__EXT_REF) || \
 166:.\Generated_Source\PSoC5/ADC_SAR_2.c ****         (ADC_SAR_2_DEFAULT_RANGE == ADC_SAR_2__VNEG_VDDA_DIFF))
 167:.\Generated_Source\PSoC5/ADC_SAR_2.c ****         tmpReg &= (uint8)~ADC_SAR_2_SAR_EN_BUF_VREF_EN;
 168:.\Generated_Source\PSoC5/ADC_SAR_2.c ****     #else /* In INTREF or INTREF Bypassed this buffer is ON */
 169:.\Generated_Source\PSoC5/ADC_SAR_2.c ****         tmpReg |= ADC_SAR_2_SAR_EN_BUF_VREF_EN;
 201              		.loc 1 169 0
 202 0092 BB79     		ldrb	r3, [r7, #6]
 203 0094 43F00103 		orr	r3, r3, #1
 204 0098 BB71     		strb	r3, [r7, #6]
 170:.\Generated_Source\PSoC5/ADC_SAR_2.c ****     #endif /* ADC_SAR_2_DEFAULT_REFERENCE == ADC_SAR_2__EXT_REF */
 171:.\Generated_Source\PSoC5/ADC_SAR_2.c ****     ADC_SAR_2_SAR_CSR3_REG = tmpReg;
 205              		.loc 1 171 0
 206 009a 45F60313 		movw	r3, #22787
 207 009e C4F20003 		movt	r3, 16384
 208 00a2 BA79     		ldrb	r2, [r7, #6]
 209 00a4 1A70     		strb	r2, [r3, #0]
 172:.\Generated_Source\PSoC5/ADC_SAR_2.c **** 
 173:.\Generated_Source\PSoC5/ADC_SAR_2.c ****     /* Set reference for ADC */
 174:.\Generated_Source\PSoC5/ADC_SAR_2.c ****     #if(ADC_SAR_2_DEFAULT_RANGE == ADC_SAR_2__VNEG_VDDA_DIFF)
 175:.\Generated_Source\PSoC5/ADC_SAR_2.c ****         #if(ADC_SAR_2_DEFAULT_REFERENCE == ADC_SAR_2__EXT_REF)
 176:.\Generated_Source\PSoC5/ADC_SAR_2.c ****             ADC_SAR_2_SAR_CSR6_REG = ADC_SAR_2_INT_BYPASS_EXT_VREF; /* S2 */
 177:.\Generated_Source\PSoC5/ADC_SAR_2.c ****         #else /* Internal Vdda reference or obsolete bypass mode */
 178:.\Generated_Source\PSoC5/ADC_SAR_2.c ****             ADC_SAR_2_SAR_CSR6_REG = ADC_SAR_2_VDDA_VREF;           /* S7 */
 179:.\Generated_Source\PSoC5/ADC_SAR_2.c ****         #endif /* ADC_SAR_2_DEFAULT_REFERENCE == ADC_SAR_2__EXT_REF */
 180:.\Generated_Source\PSoC5/ADC_SAR_2.c ****     #else  /* Reference goes through internal buffer */
 181:.\Generated_Source\PSoC5/ADC_SAR_2.c ****         #if(ADC_SAR_2_DEFAULT_REFERENCE == ADC_SAR_2__INT_REF_NOT_BYPASSED)
 182:.\Generated_Source\PSoC5/ADC_SAR_2.c ****             ADC_SAR_2_SAR_CSR6_REG = ADC_SAR_2_INT_VREF;            /* S3 + S4 */
 183:.\Generated_Source\PSoC5/ADC_SAR_2.c ****         #else /* INTREF Bypassed of External */
 184:.\Generated_Source\PSoC5/ADC_SAR_2.c ****             ADC_SAR_2_SAR_CSR6_REG = ADC_SAR_2_INT_BYPASS_EXT_VREF; /* S2 */
 210              		.loc 1 184 0
 211 00a6 45F60613 		movw	r3, #22790
 212 00aa C4F20003 		movt	r3, 16384
 213 00ae 4FF00402 		mov	r2, #4
 214 00b2 1A70     		strb	r2, [r3, #0]
 185:.\Generated_Source\PSoC5/ADC_SAR_2.c ****         #endif /* ADC_SAR_2_DEFAULT_REFERENCE == ADC_SAR_2__INT_REF_NOT_BYPASSED */
ARM GAS  C:\Users\Robert\AppData\Local\Temp\cczxa6fy.s 			page 8


 186:.\Generated_Source\PSoC5/ADC_SAR_2.c ****     #endif /* VNEG_VDDA_DIFF */
 187:.\Generated_Source\PSoC5/ADC_SAR_2.c **** 
 188:.\Generated_Source\PSoC5/ADC_SAR_2.c ****     /* Low non-overlap delay for sampling clock signals (for 1MSPS) */
 189:.\Generated_Source\PSoC5/ADC_SAR_2.c ****     #if(ADC_SAR_2_HIGH_POWER_PULSE == 0u) /* MinPulseWidth <= 50 ns */
 190:.\Generated_Source\PSoC5/ADC_SAR_2.c ****         ADC_SAR_2_SAR_CSR5_REG &= (uint8)~ADC_SAR_2_SAR_DLY_INC;
 215              		.loc 1 190 0
 216 00b4 45F60513 		movw	r3, #22789
 217 00b8 C4F20003 		movt	r3, 16384
 218 00bc 45F60512 		movw	r2, #22789
 219 00c0 C4F20002 		movt	r2, 16384
 220 00c4 1278     		ldrb	r2, [r2, #0]
 221 00c6 D2B2     		uxtb	r2, r2
 222 00c8 22F04002 		bic	r2, r2, #64
 223 00cc D2B2     		uxtb	r2, r2
 224 00ce 1A70     		strb	r2, [r3, #0]
 191:.\Generated_Source\PSoC5/ADC_SAR_2.c ****     #else /* Set High non-overlap delay for sampling clock signals (for <500KSPS)*/
 192:.\Generated_Source\PSoC5/ADC_SAR_2.c ****         ADC_SAR_2_SAR_CSR5_REG |= ADC_SAR_2_SAR_DLY_INC;
 193:.\Generated_Source\PSoC5/ADC_SAR_2.c ****     #endif /* ADC_SAR_2_CLOCK_FREQUENCY > (ADC_SAR_2_MAX_FREQUENCY / 2) */
 194:.\Generated_Source\PSoC5/ADC_SAR_2.c **** 
 195:.\Generated_Source\PSoC5/ADC_SAR_2.c ****      /* Delay control for comparator latch enable, low delay, (Default for 1MSPS) */
 196:.\Generated_Source\PSoC5/ADC_SAR_2.c ****     #if(ADC_SAR_2_HIGH_POWER_PULSE == 0u) /* MinPulseWidth <= 50 ns */
 197:.\Generated_Source\PSoC5/ADC_SAR_2.c ****         ADC_SAR_2_SAR_CSR5_REG |= ADC_SAR_2_SAR_DCEN;
 225              		.loc 1 197 0
 226 00d0 45F60513 		movw	r3, #22789
 227 00d4 C4F20003 		movt	r3, 16384
 228 00d8 45F60512 		movw	r2, #22789
 229 00dc C4F20002 		movt	r2, 16384
 230 00e0 1278     		ldrb	r2, [r2, #0]
 231 00e2 D2B2     		uxtb	r2, r2
 232 00e4 42F02002 		orr	r2, r2, #32
 233 00e8 D2B2     		uxtb	r2, r2
 234 00ea 1A70     		strb	r2, [r3, #0]
 198:.\Generated_Source\PSoC5/ADC_SAR_2.c ****     #else /* Delay control for comparator latch enable, high delay (for <500ksps)*/
 199:.\Generated_Source\PSoC5/ADC_SAR_2.c ****         ADC_SAR_2_SAR_CSR5_REG &= (uint8)~ADC_SAR_2_SAR_DCEN;
 200:.\Generated_Source\PSoC5/ADC_SAR_2.c ****     #endif /* ADC_SAR_2_CLOCK_FREQUENCY > (ADC_SAR_2_MAX_FREQUENCY / 2) */
 201:.\Generated_Source\PSoC5/ADC_SAR_2.c **** 
 202:.\Generated_Source\PSoC5/ADC_SAR_2.c ****     /* Set default power and other configurations for control register 0 in multiple lines */
 203:.\Generated_Source\PSoC5/ADC_SAR_2.c ****     ADC_SAR_2_SAR_CSR0_REG = (uint8)((uint8)ADC_SAR_2_DEFAULT_POWER << ADC_SAR_2_SAR_POWER_SHIFT)
 235              		.loc 1 203 0
 236 00ec 4FF4B243 		mov	r3, #22784
 237 00f0 C4F20003 		movt	r3, 16384
 238 00f4 4FF00802 		mov	r2, #8
 239 00f8 1A70     		strb	r2, [r3, #0]
 204:.\Generated_Source\PSoC5/ADC_SAR_2.c ****     /* SAR_HIZ_CLEAR:   Should not be used for LP */
 205:.\Generated_Source\PSoC5/ADC_SAR_2.c ****     #if ((CY_PSOC5LP) || (ADC_SAR_2_DEFAULT_REFERENCE != ADC_SAR_2__EXT_REF))
 206:.\Generated_Source\PSoC5/ADC_SAR_2.c ****         | ADC_SAR_2_SAR_HIZ_CLEAR
 207:.\Generated_Source\PSoC5/ADC_SAR_2.c ****     #endif /* SAR_HIZ_CLEAR */
 208:.\Generated_Source\PSoC5/ADC_SAR_2.c ****     /*Set Convertion mode */
 209:.\Generated_Source\PSoC5/ADC_SAR_2.c ****     #if(ADC_SAR_2_DEFAULT_CONV_MODE != ADC_SAR_2__FREE_RUNNING)      /* If triggered mode */
 210:.\Generated_Source\PSoC5/ADC_SAR_2.c ****         | ADC_SAR_2_SAR_MX_SOF_UDB           /* source: UDB */
 211:.\Generated_Source\PSoC5/ADC_SAR_2.c ****         | ADC_SAR_2_SAR_SOF_MODE_EDGE        /* Set edge-sensitive sof source */
 212:.\Generated_Source\PSoC5/ADC_SAR_2.c ****     #endif /* ADC_SAR_2_DEFAULT_CONV_MODE */
 213:.\Generated_Source\PSoC5/ADC_SAR_2.c ****     ; /* end of multiple line initialization */
 214:.\Generated_Source\PSoC5/ADC_SAR_2.c **** 
 215:.\Generated_Source\PSoC5/ADC_SAR_2.c ****     ADC_SAR_2_SAR_TR0_REG = ADC_SAR_2_SAR_CAP_TRIM_2;
 240              		.loc 1 215 0
 241 00fa 44F21463 		movw	r3, #17940
ARM GAS  C:\Users\Robert\AppData\Local\Temp\cczxa6fy.s 			page 9


 242 00fe C4F20003 		movt	r3, 16384
 243 0102 4FF00202 		mov	r2, #2
 244 0106 1A70     		strb	r2, [r3, #0]
 216:.\Generated_Source\PSoC5/ADC_SAR_2.c **** 
 217:.\Generated_Source\PSoC5/ADC_SAR_2.c ****     /* Enable clock for SAR ADC*/
 218:.\Generated_Source\PSoC5/ADC_SAR_2.c ****     ADC_SAR_2_SAR_CLK_REG |= ADC_SAR_2_SAR_MX_CLK_EN;
 245              		.loc 1 218 0
 246 0108 45F62733 		movw	r3, #23335
 247 010c C4F20003 		movt	r3, 16384
 248 0110 45F62732 		movw	r2, #23335
 249 0114 C4F20002 		movt	r2, 16384
 250 0118 1278     		ldrb	r2, [r2, #0]
 251 011a D2B2     		uxtb	r2, r2
 252 011c 42F00802 		orr	r2, r2, #8
 253 0120 D2B2     		uxtb	r2, r2
 254 0122 1A70     		strb	r2, [r3, #0]
 219:.\Generated_Source\PSoC5/ADC_SAR_2.c **** 
 220:.\Generated_Source\PSoC5/ADC_SAR_2.c ****     CyDelayUs(10u); /* The block is ready to use 10 us after the enable signal is set high. */
 255              		.loc 1 220 0
 256 0124 4FF00A00 		mov	r0, #10
 257 0128 FFF7FEFF 		bl	CyDelayUs
 221:.\Generated_Source\PSoC5/ADC_SAR_2.c **** 
 222:.\Generated_Source\PSoC5/ADC_SAR_2.c ****     #if(ADC_SAR_2_IRQ_REMOVE == 0u)
 223:.\Generated_Source\PSoC5/ADC_SAR_2.c ****         /* Clear a pending interrupt */
 224:.\Generated_Source\PSoC5/ADC_SAR_2.c ****         CyIntClearPending(ADC_SAR_2_INTC_NUMBER);
 258              		.loc 1 224 0
 259 012c 4EF28023 		movw	r3, #57984
 260 0130 CEF20003 		movt	r3, 57344
 261 0134 4FF00202 		mov	r2, #2
 262 0138 1A60     		str	r2, [r3, #0]
 225:.\Generated_Source\PSoC5/ADC_SAR_2.c ****     #endif   /* End ADC_SAR_2_IRQ_REMOVE */
 226:.\Generated_Source\PSoC5/ADC_SAR_2.c **** 
 227:.\Generated_Source\PSoC5/ADC_SAR_2.c ****     CyExitCriticalSection(enableInterrupts);
 263              		.loc 1 227 0
 264 013a FB79     		ldrb	r3, [r7, #7]	@ zero_extendqisi2
 265 013c 1846     		mov	r0, r3
 266 013e FFF7FEFF 		bl	CyExitCriticalSection
 228:.\Generated_Source\PSoC5/ADC_SAR_2.c **** }
 267              		.loc 1 228 0
 268 0142 07F10807 		add	r7, r7, #8
 269 0146 BD46     		mov	sp, r7
 270 0148 80BD     		pop	{r7, pc}
 271              		.cfi_endproc
 272              	.LFE2:
 273              		.size	ADC_SAR_2_Enable, .-ADC_SAR_2_Enable
 274 014a 00BF     		.section	.text.ADC_SAR_2_Stop,"ax",%progbits
 275              		.align	2
 276              		.global	ADC_SAR_2_Stop
 277              		.thumb
 278              		.thumb_func
 279              		.type	ADC_SAR_2_Stop, %function
 280              	ADC_SAR_2_Stop:
 281              	.LFB3:
 229:.\Generated_Source\PSoC5/ADC_SAR_2.c **** 
 230:.\Generated_Source\PSoC5/ADC_SAR_2.c **** 
 231:.\Generated_Source\PSoC5/ADC_SAR_2.c **** /*******************************************************************************
 232:.\Generated_Source\PSoC5/ADC_SAR_2.c **** * Function Name: ADC_SAR_2_Stop
ARM GAS  C:\Users\Robert\AppData\Local\Temp\cczxa6fy.s 			page 10


 233:.\Generated_Source\PSoC5/ADC_SAR_2.c **** ********************************************************************************
 234:.\Generated_Source\PSoC5/ADC_SAR_2.c **** *
 235:.\Generated_Source\PSoC5/ADC_SAR_2.c **** * Summary:
 236:.\Generated_Source\PSoC5/ADC_SAR_2.c **** *  Stops ADC conversions and puts the ADC into its lowest power mode.
 237:.\Generated_Source\PSoC5/ADC_SAR_2.c **** *
 238:.\Generated_Source\PSoC5/ADC_SAR_2.c **** * Parameters:
 239:.\Generated_Source\PSoC5/ADC_SAR_2.c **** *  None.
 240:.\Generated_Source\PSoC5/ADC_SAR_2.c **** *
 241:.\Generated_Source\PSoC5/ADC_SAR_2.c **** * Return:
 242:.\Generated_Source\PSoC5/ADC_SAR_2.c **** *  None.
 243:.\Generated_Source\PSoC5/ADC_SAR_2.c **** *
 244:.\Generated_Source\PSoC5/ADC_SAR_2.c **** *******************************************************************************/
 245:.\Generated_Source\PSoC5/ADC_SAR_2.c **** void ADC_SAR_2_Stop(void)
 246:.\Generated_Source\PSoC5/ADC_SAR_2.c **** {
 282              		.loc 1 246 0
 283              		.cfi_startproc
 284              		@ args = 0, pretend = 0, frame = 8
 285              		@ frame_needed = 1, uses_anonymous_args = 0
 286 0000 80B5     		push	{r7, lr}
 287              	.LCFI7:
 288              		.cfi_def_cfa_offset 8
 289              		.cfi_offset 7, -8
 290              		.cfi_offset 14, -4
 291 0002 82B0     		sub	sp, sp, #8
 292              	.LCFI8:
 293              		.cfi_def_cfa_offset 16
 294 0004 00AF     		add	r7, sp, #0
 295              	.LCFI9:
 296              		.cfi_def_cfa_register 7
 247:.\Generated_Source\PSoC5/ADC_SAR_2.c ****     uint8 enableInterrupts;
 248:.\Generated_Source\PSoC5/ADC_SAR_2.c ****     enableInterrupts = CyEnterCriticalSection();
 297              		.loc 1 248 0
 298 0006 FFF7FEFF 		bl	CyEnterCriticalSection
 299 000a 0346     		mov	r3, r0
 300 000c FB71     		strb	r3, [r7, #7]
 249:.\Generated_Source\PSoC5/ADC_SAR_2.c **** 
 250:.\Generated_Source\PSoC5/ADC_SAR_2.c ****     /* Stop all conversions */
 251:.\Generated_Source\PSoC5/ADC_SAR_2.c ****     ADC_SAR_2_SAR_CSR0_REG &= (uint8)~ADC_SAR_2_SAR_SOF_START_CONV;
 301              		.loc 1 251 0
 302 000e 4FF4B243 		mov	r3, #22784
 303 0012 C4F20003 		movt	r3, 16384
 304 0016 4FF4B242 		mov	r2, #22784
 305 001a C4F20002 		movt	r2, 16384
 306 001e 1278     		ldrb	r2, [r2, #0]
 307 0020 D2B2     		uxtb	r2, r2
 308 0022 22F00102 		bic	r2, r2, #1
 309 0026 D2B2     		uxtb	r2, r2
 310 0028 1A70     		strb	r2, [r3, #0]
 252:.\Generated_Source\PSoC5/ADC_SAR_2.c ****     /* Disable the SAR ADC block in Active Power Mode */
 253:.\Generated_Source\PSoC5/ADC_SAR_2.c ****     ADC_SAR_2_PWRMGR_SAR_REG &= (uint8)~ADC_SAR_2_ACT_PWR_SAR_EN;
 311              		.loc 1 253 0
 312 002a 44F2AB33 		movw	r3, #17323
 313 002e C4F20003 		movt	r3, 16384
 314 0032 44F2AB32 		movw	r2, #17323
 315 0036 C4F20002 		movt	r2, 16384
 316 003a 1278     		ldrb	r2, [r2, #0]
 317 003c D2B2     		uxtb	r2, r2
ARM GAS  C:\Users\Robert\AppData\Local\Temp\cczxa6fy.s 			page 11


 318 003e 22F00102 		bic	r2, r2, #1
 319 0042 D2B2     		uxtb	r2, r2
 320 0044 1A70     		strb	r2, [r3, #0]
 254:.\Generated_Source\PSoC5/ADC_SAR_2.c ****     /* Disable the SAR ADC in Standby Power Mode */
 255:.\Generated_Source\PSoC5/ADC_SAR_2.c ****     ADC_SAR_2_STBY_PWRMGR_SAR_REG &= (uint8)~ADC_SAR_2_STBY_PWR_SAR_EN;
 321              		.loc 1 255 0
 322 0046 44F2BB33 		movw	r3, #17339
 323 004a C4F20003 		movt	r3, 16384
 324 004e 44F2BB32 		movw	r2, #17339
 325 0052 C4F20002 		movt	r2, 16384
 326 0056 1278     		ldrb	r2, [r2, #0]
 327 0058 D2B2     		uxtb	r2, r2
 328 005a 22F00102 		bic	r2, r2, #1
 329 005e D2B2     		uxtb	r2, r2
 330 0060 1A70     		strb	r2, [r3, #0]
 256:.\Generated_Source\PSoC5/ADC_SAR_2.c **** 
 257:.\Generated_Source\PSoC5/ADC_SAR_2.c ****     /* This is only valid if there is an internal clock */
 258:.\Generated_Source\PSoC5/ADC_SAR_2.c ****     #if(ADC_SAR_2_DEFAULT_INTERNAL_CLK)
 259:.\Generated_Source\PSoC5/ADC_SAR_2.c ****         ADC_SAR_2_PWRMGR_CLK_REG &= (uint8)~ADC_SAR_2_ACT_PWR_CLK_EN;
 331              		.loc 1 259 0
 332 0062 44F2A133 		movw	r3, #17313
 333 0066 C4F20003 		movt	r3, 16384
 334 006a 44F2A132 		movw	r2, #17313
 335 006e C4F20002 		movt	r2, 16384
 336 0072 1278     		ldrb	r2, [r2, #0]
 337 0074 D2B2     		uxtb	r2, r2
 338 0076 22F00102 		bic	r2, r2, #1
 339 007a D2B2     		uxtb	r2, r2
 340 007c 1A70     		strb	r2, [r3, #0]
 260:.\Generated_Source\PSoC5/ADC_SAR_2.c ****         ADC_SAR_2_STBY_PWRMGR_CLK_REG &= (uint8)~ADC_SAR_2_STBY_PWR_CLK_EN;
 341              		.loc 1 260 0
 342 007e 44F2B133 		movw	r3, #17329
 343 0082 C4F20003 		movt	r3, 16384
 344 0086 44F2B132 		movw	r2, #17329
 345 008a C4F20002 		movt	r2, 16384
 346 008e 1278     		ldrb	r2, [r2, #0]
 347 0090 D2B2     		uxtb	r2, r2
 348 0092 22F00102 		bic	r2, r2, #1
 349 0096 D2B2     		uxtb	r2, r2
 350 0098 1A70     		strb	r2, [r3, #0]
 261:.\Generated_Source\PSoC5/ADC_SAR_2.c ****     #endif /* End ADC_SAR_2_DEFAULT_INTERNAL_CLK */
 262:.\Generated_Source\PSoC5/ADC_SAR_2.c **** 
 263:.\Generated_Source\PSoC5/ADC_SAR_2.c ****     CyExitCriticalSection(enableInterrupts);
 351              		.loc 1 263 0
 352 009a FB79     		ldrb	r3, [r7, #7]	@ zero_extendqisi2
 353 009c 1846     		mov	r0, r3
 354 009e FFF7FEFF 		bl	CyExitCriticalSection
 264:.\Generated_Source\PSoC5/ADC_SAR_2.c **** 
 265:.\Generated_Source\PSoC5/ADC_SAR_2.c **** }
 355              		.loc 1 265 0
 356 00a2 07F10807 		add	r7, r7, #8
 357 00a6 BD46     		mov	sp, r7
 358 00a8 80BD     		pop	{r7, pc}
 359              		.cfi_endproc
 360              	.LFE3:
 361              		.size	ADC_SAR_2_Stop, .-ADC_SAR_2_Stop
 362 00aa 00BF     		.section	.text.ADC_SAR_2_SetPower,"ax",%progbits
ARM GAS  C:\Users\Robert\AppData\Local\Temp\cczxa6fy.s 			page 12


 363              		.align	2
 364              		.global	ADC_SAR_2_SetPower
 365              		.thumb
 366              		.thumb_func
 367              		.type	ADC_SAR_2_SetPower, %function
 368              	ADC_SAR_2_SetPower:
 369              	.LFB4:
 266:.\Generated_Source\PSoC5/ADC_SAR_2.c **** 
 267:.\Generated_Source\PSoC5/ADC_SAR_2.c **** 
 268:.\Generated_Source\PSoC5/ADC_SAR_2.c **** /*******************************************************************************
 269:.\Generated_Source\PSoC5/ADC_SAR_2.c **** * Function Name: ADC_SAR_2_SetPower
 270:.\Generated_Source\PSoC5/ADC_SAR_2.c **** ********************************************************************************
 271:.\Generated_Source\PSoC5/ADC_SAR_2.c **** *
 272:.\Generated_Source\PSoC5/ADC_SAR_2.c **** * Summary:
 273:.\Generated_Source\PSoC5/ADC_SAR_2.c **** *  Sets the operational power of the ADC. You should use the higher power
 274:.\Generated_Source\PSoC5/ADC_SAR_2.c **** *  settings with faster clock speeds.
 275:.\Generated_Source\PSoC5/ADC_SAR_2.c **** *
 276:.\Generated_Source\PSoC5/ADC_SAR_2.c **** * Parameters:
 277:.\Generated_Source\PSoC5/ADC_SAR_2.c **** *  power:  Power setting for ADC
 278:.\Generated_Source\PSoC5/ADC_SAR_2.c **** *  0 ->    Normal
 279:.\Generated_Source\PSoC5/ADC_SAR_2.c **** *  1 ->    Medium power
 280:.\Generated_Source\PSoC5/ADC_SAR_2.c **** *  2 ->    1.25 power
 281:.\Generated_Source\PSoC5/ADC_SAR_2.c **** *  3 ->    Minimum power.
 282:.\Generated_Source\PSoC5/ADC_SAR_2.c **** *
 283:.\Generated_Source\PSoC5/ADC_SAR_2.c **** * Return:
 284:.\Generated_Source\PSoC5/ADC_SAR_2.c **** *  None.
 285:.\Generated_Source\PSoC5/ADC_SAR_2.c **** *
 286:.\Generated_Source\PSoC5/ADC_SAR_2.c **** *******************************************************************************/
 287:.\Generated_Source\PSoC5/ADC_SAR_2.c **** void ADC_SAR_2_SetPower(uint8 power)
 288:.\Generated_Source\PSoC5/ADC_SAR_2.c **** {
 370              		.loc 1 288 0
 371              		.cfi_startproc
 372              		@ args = 0, pretend = 0, frame = 16
 373              		@ frame_needed = 1, uses_anonymous_args = 0
 374              		@ link register save eliminated.
 375 0000 80B4     		push	{r7}
 376              	.LCFI10:
 377              		.cfi_def_cfa_offset 4
 378              		.cfi_offset 7, -4
 379 0002 85B0     		sub	sp, sp, #20
 380              	.LCFI11:
 381              		.cfi_def_cfa_offset 24
 382 0004 00AF     		add	r7, sp, #0
 383              	.LCFI12:
 384              		.cfi_def_cfa_register 7
 385 0006 0346     		mov	r3, r0
 386 0008 FB71     		strb	r3, [r7, #7]
 289:.\Generated_Source\PSoC5/ADC_SAR_2.c ****     uint8 tmpReg;
 290:.\Generated_Source\PSoC5/ADC_SAR_2.c **** 
 291:.\Generated_Source\PSoC5/ADC_SAR_2.c ****     /* mask off invalid power settings */
 292:.\Generated_Source\PSoC5/ADC_SAR_2.c ****     power &= ADC_SAR_2_SAR_API_POWER_MASK;
 387              		.loc 1 292 0
 388 000a FB79     		ldrb	r3, [r7, #7]
 389 000c 03F00303 		and	r3, r3, #3
 390 0010 FB71     		strb	r3, [r7, #7]
 293:.\Generated_Source\PSoC5/ADC_SAR_2.c **** 
 294:.\Generated_Source\PSoC5/ADC_SAR_2.c ****     /* Set Power parameter  */
ARM GAS  C:\Users\Robert\AppData\Local\Temp\cczxa6fy.s 			page 13


 295:.\Generated_Source\PSoC5/ADC_SAR_2.c ****     tmpReg = ADC_SAR_2_SAR_CSR0_REG & (uint8)~ADC_SAR_2_SAR_POWER_MASK;
 391              		.loc 1 295 0
 392 0012 4FF4B243 		mov	r3, #22784
 393 0016 C4F20003 		movt	r3, 16384
 394 001a 1B78     		ldrb	r3, [r3, #0]
 395 001c DBB2     		uxtb	r3, r3
 396 001e 03F03F03 		and	r3, r3, #63
 397 0022 FB73     		strb	r3, [r7, #15]
 296:.\Generated_Source\PSoC5/ADC_SAR_2.c ****     tmpReg |= (uint8)(power << ADC_SAR_2_SAR_POWER_SHIFT);
 398              		.loc 1 296 0
 399 0024 FB79     		ldrb	r3, [r7, #7]
 400 0026 4FEA8313 		lsl	r3, r3, #6
 401 002a DAB2     		uxtb	r2, r3
 402 002c FB7B     		ldrb	r3, [r7, #15]
 403 002e 1343     		orrs	r3, r3, r2
 404 0030 FB73     		strb	r3, [r7, #15]
 297:.\Generated_Source\PSoC5/ADC_SAR_2.c ****     ADC_SAR_2_SAR_CSR0_REG = tmpReg;
 405              		.loc 1 297 0
 406 0032 4FF4B243 		mov	r3, #22784
 407 0036 C4F20003 		movt	r3, 16384
 408 003a FA7B     		ldrb	r2, [r7, #15]
 409 003c 1A70     		strb	r2, [r3, #0]
 298:.\Generated_Source\PSoC5/ADC_SAR_2.c **** }
 410              		.loc 1 298 0
 411 003e 07F11407 		add	r7, r7, #20
 412 0042 BD46     		mov	sp, r7
 413 0044 80BC     		pop	{r7}
 414 0046 7047     		bx	lr
 415              		.cfi_endproc
 416              	.LFE4:
 417              		.size	ADC_SAR_2_SetPower, .-ADC_SAR_2_SetPower
 418              		.section	.text.ADC_SAR_2_SetResolution,"ax",%progbits
 419              		.align	2
 420              		.global	ADC_SAR_2_SetResolution
 421              		.thumb
 422              		.thumb_func
 423              		.type	ADC_SAR_2_SetResolution, %function
 424              	ADC_SAR_2_SetResolution:
 425              	.LFB5:
 299:.\Generated_Source\PSoC5/ADC_SAR_2.c **** 
 300:.\Generated_Source\PSoC5/ADC_SAR_2.c **** 
 301:.\Generated_Source\PSoC5/ADC_SAR_2.c **** /*******************************************************************************
 302:.\Generated_Source\PSoC5/ADC_SAR_2.c **** * Function Name: ADC_SAR_2_SetResolution
 303:.\Generated_Source\PSoC5/ADC_SAR_2.c **** ********************************************************************************
 304:.\Generated_Source\PSoC5/ADC_SAR_2.c **** *
 305:.\Generated_Source\PSoC5/ADC_SAR_2.c **** * Summary:
 306:.\Generated_Source\PSoC5/ADC_SAR_2.c **** *  Sets the Relution of the SAR.
 307:.\Generated_Source\PSoC5/ADC_SAR_2.c **** *
 308:.\Generated_Source\PSoC5/ADC_SAR_2.c **** * Parameters:
 309:.\Generated_Source\PSoC5/ADC_SAR_2.c **** *  resolution:
 310:.\Generated_Source\PSoC5/ADC_SAR_2.c **** *  12 ->    RES12
 311:.\Generated_Source\PSoC5/ADC_SAR_2.c **** *  10 ->    RES10
 312:.\Generated_Source\PSoC5/ADC_SAR_2.c **** *  8  ->    RES8
 313:.\Generated_Source\PSoC5/ADC_SAR_2.c **** *
 314:.\Generated_Source\PSoC5/ADC_SAR_2.c **** * Return:
 315:.\Generated_Source\PSoC5/ADC_SAR_2.c **** *  None.
 316:.\Generated_Source\PSoC5/ADC_SAR_2.c **** *
ARM GAS  C:\Users\Robert\AppData\Local\Temp\cczxa6fy.s 			page 14


 317:.\Generated_Source\PSoC5/ADC_SAR_2.c **** * Side Effects:
 318:.\Generated_Source\PSoC5/ADC_SAR_2.c **** *  The ADC resolution cannot be changed during a conversion cycle. The
 319:.\Generated_Source\PSoC5/ADC_SAR_2.c **** *  recommended best practice is to stop conversions with
 320:.\Generated_Source\PSoC5/ADC_SAR_2.c **** *  ADC_StopConvert(), change the resolution, then restart the
 321:.\Generated_Source\PSoC5/ADC_SAR_2.c **** *  conversions with ADC_StartConvert().
 322:.\Generated_Source\PSoC5/ADC_SAR_2.c **** *  If you decide not to stop conversions before calling this API, you
 323:.\Generated_Source\PSoC5/ADC_SAR_2.c **** *  should use ADC_IsEndConversion() to wait until conversion is complete
 324:.\Generated_Source\PSoC5/ADC_SAR_2.c **** *  before changing the resolution.
 325:.\Generated_Source\PSoC5/ADC_SAR_2.c **** *  If you call ADC_SetResolution() during a conversion, the resolution will
 326:.\Generated_Source\PSoC5/ADC_SAR_2.c **** *  not be changed until the current conversion is complete. Data will not be
 327:.\Generated_Source\PSoC5/ADC_SAR_2.c **** *  available in the new resolution for another 6 + "New Resolution(in bits)"
 328:.\Generated_Source\PSoC5/ADC_SAR_2.c **** *  clock cycles.
 329:.\Generated_Source\PSoC5/ADC_SAR_2.c **** *  You may need add a delay of this number of clock cycles after
 330:.\Generated_Source\PSoC5/ADC_SAR_2.c **** *  ADC_SetResolution() is called before data is valid again.
 331:.\Generated_Source\PSoC5/ADC_SAR_2.c **** *  Affects ADC_CountsTo_Volts(), ADC_CountsTo_mVolts(), and
 332:.\Generated_Source\PSoC5/ADC_SAR_2.c **** *  ADC_CountsTo_uVolts() by calculating the correct conversion between ADC
 333:.\Generated_Source\PSoC5/ADC_SAR_2.c **** *  counts and the applied input voltage. Calculation depends on resolution,
 334:.\Generated_Source\PSoC5/ADC_SAR_2.c **** *  input range, and voltage reference.
 335:.\Generated_Source\PSoC5/ADC_SAR_2.c **** *
 336:.\Generated_Source\PSoC5/ADC_SAR_2.c **** *******************************************************************************/
 337:.\Generated_Source\PSoC5/ADC_SAR_2.c **** void ADC_SAR_2_SetResolution(uint8 resolution)
 338:.\Generated_Source\PSoC5/ADC_SAR_2.c **** {
 426              		.loc 1 338 0
 427              		.cfi_startproc
 428              		@ args = 0, pretend = 0, frame = 16
 429              		@ frame_needed = 1, uses_anonymous_args = 0
 430 0000 80B5     		push	{r7, lr}
 431              	.LCFI13:
 432              		.cfi_def_cfa_offset 8
 433              		.cfi_offset 7, -8
 434              		.cfi_offset 14, -4
 435 0002 84B0     		sub	sp, sp, #16
 436              	.LCFI14:
 437              		.cfi_def_cfa_offset 24
 438 0004 00AF     		add	r7, sp, #0
 439              	.LCFI15:
 440              		.cfi_def_cfa_register 7
 441 0006 0346     		mov	r3, r0
 442 0008 FB71     		strb	r3, [r7, #7]
 339:.\Generated_Source\PSoC5/ADC_SAR_2.c ****     uint8 tmpReg;
 340:.\Generated_Source\PSoC5/ADC_SAR_2.c **** 
 341:.\Generated_Source\PSoC5/ADC_SAR_2.c ****     /* Set SAR ADC resolution and sample width: 18 conversion cycles at 12bits + 1 gap */
 342:.\Generated_Source\PSoC5/ADC_SAR_2.c ****     switch (resolution)
 443              		.loc 1 342 0
 444 000a FB79     		ldrb	r3, [r7, #7]	@ zero_extendqisi2
 445 000c 0A2B     		cmp	r3, #10
 446 000e 08D0     		beq	.L10
 447 0010 0C2B     		cmp	r3, #12
 448 0012 02D0     		beq	.L11
 449 0014 082B     		cmp	r3, #8
 450 0016 08D0     		beq	.L9
 451 0018 0BE0     		b	.L13
 452              	.L11:
 343:.\Generated_Source\PSoC5/ADC_SAR_2.c ****     {
 344:.\Generated_Source\PSoC5/ADC_SAR_2.c ****         case (uint8)ADC_SAR_2__BITS_12:
 345:.\Generated_Source\PSoC5/ADC_SAR_2.c ****             tmpReg = ADC_SAR_2_SAR_RESOLUTION_12BIT | ADC_SAR_2_SAR_SAMPLE_WIDTH;
 453              		.loc 1 345 0
ARM GAS  C:\Users\Robert\AppData\Local\Temp\cczxa6fy.s 			page 15


 454 001a 4FF0C403 		mov	r3, #196
 455 001e FB73     		strb	r3, [r7, #15]
 346:.\Generated_Source\PSoC5/ADC_SAR_2.c ****             break;
 456              		.loc 1 346 0
 457 0020 0FE0     		b	.L12
 458              	.L10:
 347:.\Generated_Source\PSoC5/ADC_SAR_2.c ****         case (uint8)ADC_SAR_2__BITS_10:
 348:.\Generated_Source\PSoC5/ADC_SAR_2.c ****             tmpReg = ADC_SAR_2_SAR_RESOLUTION_10BIT | ADC_SAR_2_SAR_SAMPLE_WIDTH;
 459              		.loc 1 348 0
 460 0022 4FF08403 		mov	r3, #132
 461 0026 FB73     		strb	r3, [r7, #15]
 349:.\Generated_Source\PSoC5/ADC_SAR_2.c ****             break;
 462              		.loc 1 349 0
 463 0028 0BE0     		b	.L12
 464              	.L9:
 350:.\Generated_Source\PSoC5/ADC_SAR_2.c ****         case (uint8)ADC_SAR_2__BITS_8:
 351:.\Generated_Source\PSoC5/ADC_SAR_2.c ****             tmpReg = ADC_SAR_2_SAR_RESOLUTION_8BIT | ADC_SAR_2_SAR_SAMPLE_WIDTH;
 465              		.loc 1 351 0
 466 002a 4FF04403 		mov	r3, #68
 467 002e FB73     		strb	r3, [r7, #15]
 352:.\Generated_Source\PSoC5/ADC_SAR_2.c ****             break;
 468              		.loc 1 352 0
 469 0030 07E0     		b	.L12
 470              	.L13:
 353:.\Generated_Source\PSoC5/ADC_SAR_2.c ****         default:
 354:.\Generated_Source\PSoC5/ADC_SAR_2.c ****             tmpReg = ADC_SAR_2_SAR_RESOLUTION_12BIT | ADC_SAR_2_SAR_SAMPLE_WIDTH;
 471              		.loc 1 354 0
 472 0032 4FF0C403 		mov	r3, #196
 473 0036 FB73     		strb	r3, [r7, #15]
 355:.\Generated_Source\PSoC5/ADC_SAR_2.c ****             /* Halt CPU in debug mode if resolution is out of valid range */
 356:.\Generated_Source\PSoC5/ADC_SAR_2.c ****             CYASSERT(0u != 0u);
 474              		.loc 1 356 0
 475 0038 4FF00000 		mov	r0, #0
 476 003c FFF7FEFF 		bl	CyHalt
 357:.\Generated_Source\PSoC5/ADC_SAR_2.c ****             break;
 477              		.loc 1 357 0
 478 0040 00BF     		nop
 479              	.L12:
 358:.\Generated_Source\PSoC5/ADC_SAR_2.c ****     }
 359:.\Generated_Source\PSoC5/ADC_SAR_2.c ****     ADC_SAR_2_SAR_CSR2_REG = tmpReg;
 480              		.loc 1 359 0
 481 0042 45F60213 		movw	r3, #22786
 482 0046 C4F20003 		movt	r3, 16384
 483 004a FA7B     		ldrb	r2, [r7, #15]
 484 004c 1A70     		strb	r2, [r3, #0]
 360:.\Generated_Source\PSoC5/ADC_SAR_2.c **** 
 361:.\Generated_Source\PSoC5/ADC_SAR_2.c ****      /* Calculate gain for convert counts to volts */
 362:.\Generated_Source\PSoC5/ADC_SAR_2.c ****     ADC_SAR_2_CalcGain(resolution);
 485              		.loc 1 362 0
 486 004e FB79     		ldrb	r3, [r7, #7]	@ zero_extendqisi2
 487 0050 1846     		mov	r0, r3
 488 0052 FFF7FEFF 		bl	ADC_SAR_2_CalcGain
 363:.\Generated_Source\PSoC5/ADC_SAR_2.c **** }
 489              		.loc 1 363 0
 490 0056 07F11007 		add	r7, r7, #16
 491 005a BD46     		mov	sp, r7
 492 005c 80BD     		pop	{r7, pc}
ARM GAS  C:\Users\Robert\AppData\Local\Temp\cczxa6fy.s 			page 16


 493              		.cfi_endproc
 494              	.LFE5:
 495              		.size	ADC_SAR_2_SetResolution, .-ADC_SAR_2_SetResolution
 496 005e 00BF     		.section	.text.ADC_SAR_2_StartConvert,"ax",%progbits
 497              		.align	2
 498              		.global	ADC_SAR_2_StartConvert
 499              		.thumb
 500              		.thumb_func
 501              		.type	ADC_SAR_2_StartConvert, %function
 502              	ADC_SAR_2_StartConvert:
 503              	.LFB6:
 364:.\Generated_Source\PSoC5/ADC_SAR_2.c **** 
 365:.\Generated_Source\PSoC5/ADC_SAR_2.c **** 
 366:.\Generated_Source\PSoC5/ADC_SAR_2.c **** #if(ADC_SAR_2_DEFAULT_CONV_MODE != ADC_SAR_2__HARDWARE_TRIGGER)
 367:.\Generated_Source\PSoC5/ADC_SAR_2.c **** 
 368:.\Generated_Source\PSoC5/ADC_SAR_2.c **** 
 369:.\Generated_Source\PSoC5/ADC_SAR_2.c ****     /*******************************************************************************
 370:.\Generated_Source\PSoC5/ADC_SAR_2.c ****     * Function Name: ADC_SAR_2_StartConvert
 371:.\Generated_Source\PSoC5/ADC_SAR_2.c ****     ********************************************************************************
 372:.\Generated_Source\PSoC5/ADC_SAR_2.c ****     *
 373:.\Generated_Source\PSoC5/ADC_SAR_2.c ****     * Summary:
 374:.\Generated_Source\PSoC5/ADC_SAR_2.c ****     *  Forces the ADC to initiate a conversion. In free-running mode, the ADC runs
 375:.\Generated_Source\PSoC5/ADC_SAR_2.c ****     *  continuously. In software trigger mode, the function also acts as a software
 376:.\Generated_Source\PSoC5/ADC_SAR_2.c ****     *  version of the SOC and every conversion must be triggered by
 377:.\Generated_Source\PSoC5/ADC_SAR_2.c ****     *  ADC_SAR_2_StartConvert(). This function is not available when the
 378:.\Generated_Source\PSoC5/ADC_SAR_2.c ****     *  Hardware Trigger sample mode is selected.
 379:.\Generated_Source\PSoC5/ADC_SAR_2.c ****     *
 380:.\Generated_Source\PSoC5/ADC_SAR_2.c ****     * Parameters:
 381:.\Generated_Source\PSoC5/ADC_SAR_2.c ****     *  None.
 382:.\Generated_Source\PSoC5/ADC_SAR_2.c ****     *
 383:.\Generated_Source\PSoC5/ADC_SAR_2.c ****     * Return:
 384:.\Generated_Source\PSoC5/ADC_SAR_2.c ****     *  None.
 385:.\Generated_Source\PSoC5/ADC_SAR_2.c ****     *
 386:.\Generated_Source\PSoC5/ADC_SAR_2.c ****     * Theory:
 387:.\Generated_Source\PSoC5/ADC_SAR_2.c ****     *  Forces the ADC to initiate a conversion. In Free Running mode, the ADC will
 388:.\Generated_Source\PSoC5/ADC_SAR_2.c ****     *  run continuously. In a software trigger mode the function also acts as a
 389:.\Generated_Source\PSoC5/ADC_SAR_2.c ****     *  software version of the SOC. Here every conversion has to be triggered by
 390:.\Generated_Source\PSoC5/ADC_SAR_2.c ****     *  the routine. This writes into the SOC bit in SAR_CTRL reg.
 391:.\Generated_Source\PSoC5/ADC_SAR_2.c ****     *
 392:.\Generated_Source\PSoC5/ADC_SAR_2.c ****     * Side Effects:
 393:.\Generated_Source\PSoC5/ADC_SAR_2.c ****     *  In a software trigger mode the function switches source for SOF from the
 394:.\Generated_Source\PSoC5/ADC_SAR_2.c ****     *  external pin to the internal SOF generation. Application should not call
 395:.\Generated_Source\PSoC5/ADC_SAR_2.c ****     *  StartConvert if external source used for SOF.
 396:.\Generated_Source\PSoC5/ADC_SAR_2.c ****     *
 397:.\Generated_Source\PSoC5/ADC_SAR_2.c ****     *******************************************************************************/
 398:.\Generated_Source\PSoC5/ADC_SAR_2.c ****     void ADC_SAR_2_StartConvert(void)
 399:.\Generated_Source\PSoC5/ADC_SAR_2.c ****     {
 504              		.loc 1 399 0
 505              		.cfi_startproc
 506              		@ args = 0, pretend = 0, frame = 0
 507              		@ frame_needed = 1, uses_anonymous_args = 0
 508              		@ link register save eliminated.
 509 0000 80B4     		push	{r7}
 510              	.LCFI16:
 511              		.cfi_def_cfa_offset 4
 512              		.cfi_offset 7, -4
 513 0002 00AF     		add	r7, sp, #0
ARM GAS  C:\Users\Robert\AppData\Local\Temp\cczxa6fy.s 			page 17


 514              	.LCFI17:
 515              		.cfi_def_cfa_register 7
 400:.\Generated_Source\PSoC5/ADC_SAR_2.c ****         #if(ADC_SAR_2_DEFAULT_CONV_MODE != ADC_SAR_2__FREE_RUNNING)  /* If software triggered mode 
 401:.\Generated_Source\PSoC5/ADC_SAR_2.c ****             ADC_SAR_2_SAR_CSR0_REG &= (uint8)~ADC_SAR_2_SAR_MX_SOF_UDB;   /* source: SOF bit */
 402:.\Generated_Source\PSoC5/ADC_SAR_2.c ****         #endif /* End ADC_SAR_2_DEFAULT_CONV_MODE */
 403:.\Generated_Source\PSoC5/ADC_SAR_2.c **** 
 404:.\Generated_Source\PSoC5/ADC_SAR_2.c ****         /* Start the conversion */
 405:.\Generated_Source\PSoC5/ADC_SAR_2.c ****         ADC_SAR_2_SAR_CSR0_REG |= ADC_SAR_2_SAR_SOF_START_CONV;
 516              		.loc 1 405 0
 517 0004 4FF4B243 		mov	r3, #22784
 518 0008 C4F20003 		movt	r3, 16384
 519 000c 4FF4B242 		mov	r2, #22784
 520 0010 C4F20002 		movt	r2, 16384
 521 0014 1278     		ldrb	r2, [r2, #0]
 522 0016 D2B2     		uxtb	r2, r2
 523 0018 42F00102 		orr	r2, r2, #1
 524 001c D2B2     		uxtb	r2, r2
 525 001e 1A70     		strb	r2, [r3, #0]
 406:.\Generated_Source\PSoC5/ADC_SAR_2.c ****     }
 526              		.loc 1 406 0
 527 0020 BD46     		mov	sp, r7
 528 0022 80BC     		pop	{r7}
 529 0024 7047     		bx	lr
 530              		.cfi_endproc
 531              	.LFE6:
 532              		.size	ADC_SAR_2_StartConvert, .-ADC_SAR_2_StartConvert
 533 0026 00BF     		.section	.text.ADC_SAR_2_StopConvert,"ax",%progbits
 534              		.align	2
 535              		.global	ADC_SAR_2_StopConvert
 536              		.thumb
 537              		.thumb_func
 538              		.type	ADC_SAR_2_StopConvert, %function
 539              	ADC_SAR_2_StopConvert:
 540              	.LFB7:
 407:.\Generated_Source\PSoC5/ADC_SAR_2.c **** 
 408:.\Generated_Source\PSoC5/ADC_SAR_2.c **** 
 409:.\Generated_Source\PSoC5/ADC_SAR_2.c ****     /*******************************************************************************
 410:.\Generated_Source\PSoC5/ADC_SAR_2.c ****     * Function Name: ADC_SAR_2_StopConvert
 411:.\Generated_Source\PSoC5/ADC_SAR_2.c ****     ********************************************************************************
 412:.\Generated_Source\PSoC5/ADC_SAR_2.c ****     *
 413:.\Generated_Source\PSoC5/ADC_SAR_2.c ****     * Summary:
 414:.\Generated_Source\PSoC5/ADC_SAR_2.c ****     *  Forces the ADC to stop conversions. If a conversion is currently executing,
 415:.\Generated_Source\PSoC5/ADC_SAR_2.c ****     *  that conversion will complete, but no further conversions will occur. This
 416:.\Generated_Source\PSoC5/ADC_SAR_2.c ****     *  function is not available when the Hardware Trigger sample mode is selected.
 417:.\Generated_Source\PSoC5/ADC_SAR_2.c ****     *
 418:.\Generated_Source\PSoC5/ADC_SAR_2.c ****     * Parameters:
 419:.\Generated_Source\PSoC5/ADC_SAR_2.c ****     *  None.
 420:.\Generated_Source\PSoC5/ADC_SAR_2.c ****     *
 421:.\Generated_Source\PSoC5/ADC_SAR_2.c ****     * Return:
 422:.\Generated_Source\PSoC5/ADC_SAR_2.c ****     *  None.
 423:.\Generated_Source\PSoC5/ADC_SAR_2.c ****     *
 424:.\Generated_Source\PSoC5/ADC_SAR_2.c ****     * Theory:
 425:.\Generated_Source\PSoC5/ADC_SAR_2.c ****     *  Stops ADC conversion in Free Running mode.
 426:.\Generated_Source\PSoC5/ADC_SAR_2.c ****     *
 427:.\Generated_Source\PSoC5/ADC_SAR_2.c ****     * Side Effects:
 428:.\Generated_Source\PSoC5/ADC_SAR_2.c ****     *  In Software Trigger sample mode, this function sets a software version of the
 429:.\Generated_Source\PSoC5/ADC_SAR_2.c ****     *  SOC to low level and switches the SOC source to hardware SOC input.
ARM GAS  C:\Users\Robert\AppData\Local\Temp\cczxa6fy.s 			page 18


 430:.\Generated_Source\PSoC5/ADC_SAR_2.c ****     *
 431:.\Generated_Source\PSoC5/ADC_SAR_2.c ****     *******************************************************************************/
 432:.\Generated_Source\PSoC5/ADC_SAR_2.c ****     void ADC_SAR_2_StopConvert(void)
 433:.\Generated_Source\PSoC5/ADC_SAR_2.c ****     {
 541              		.loc 1 433 0
 542              		.cfi_startproc
 543              		@ args = 0, pretend = 0, frame = 0
 544              		@ frame_needed = 1, uses_anonymous_args = 0
 545              		@ link register save eliminated.
 546 0000 80B4     		push	{r7}
 547              	.LCFI18:
 548              		.cfi_def_cfa_offset 4
 549              		.cfi_offset 7, -4
 550 0002 00AF     		add	r7, sp, #0
 551              	.LCFI19:
 552              		.cfi_def_cfa_register 7
 434:.\Generated_Source\PSoC5/ADC_SAR_2.c ****         /* Stop all conversions */
 435:.\Generated_Source\PSoC5/ADC_SAR_2.c ****         ADC_SAR_2_SAR_CSR0_REG &= (uint8)~ADC_SAR_2_SAR_SOF_START_CONV;
 553              		.loc 1 435 0
 554 0004 4FF4B243 		mov	r3, #22784
 555 0008 C4F20003 		movt	r3, 16384
 556 000c 4FF4B242 		mov	r2, #22784
 557 0010 C4F20002 		movt	r2, 16384
 558 0014 1278     		ldrb	r2, [r2, #0]
 559 0016 D2B2     		uxtb	r2, r2
 560 0018 22F00102 		bic	r2, r2, #1
 561 001c D2B2     		uxtb	r2, r2
 562 001e 1A70     		strb	r2, [r3, #0]
 436:.\Generated_Source\PSoC5/ADC_SAR_2.c **** 
 437:.\Generated_Source\PSoC5/ADC_SAR_2.c ****         #if(ADC_SAR_2_DEFAULT_CONV_MODE != ADC_SAR_2__FREE_RUNNING)  /* If software triggered mode 
 438:.\Generated_Source\PSoC5/ADC_SAR_2.c ****             /* Return source to UDB for hardware SOF signal */
 439:.\Generated_Source\PSoC5/ADC_SAR_2.c ****             ADC_SAR_2_SAR_CSR0_REG |= ADC_SAR_2_SAR_MX_SOF_UDB;    /* source: UDB */
 440:.\Generated_Source\PSoC5/ADC_SAR_2.c ****         #endif /* End ADC_SAR_2_DEFAULT_CONV_MODE */
 441:.\Generated_Source\PSoC5/ADC_SAR_2.c **** 
 442:.\Generated_Source\PSoC5/ADC_SAR_2.c ****     }
 563              		.loc 1 442 0
 564 0020 BD46     		mov	sp, r7
 565 0022 80BC     		pop	{r7}
 566 0024 7047     		bx	lr
 567              		.cfi_endproc
 568              	.LFE7:
 569              		.size	ADC_SAR_2_StopConvert, .-ADC_SAR_2_StopConvert
 570 0026 00BF     		.section	.text.ADC_SAR_2_IsEndConversion,"ax",%progbits
 571              		.align	2
 572              		.global	ADC_SAR_2_IsEndConversion
 573              		.thumb
 574              		.thumb_func
 575              		.type	ADC_SAR_2_IsEndConversion, %function
 576              	ADC_SAR_2_IsEndConversion:
 577              	.LFB8:
 443:.\Generated_Source\PSoC5/ADC_SAR_2.c **** 
 444:.\Generated_Source\PSoC5/ADC_SAR_2.c **** #endif /* End ADC_SAR_2_DEFAULT_CONV_MODE != ADC_SAR_2__HARDWARE_TRIGGER */
 445:.\Generated_Source\PSoC5/ADC_SAR_2.c **** 
 446:.\Generated_Source\PSoC5/ADC_SAR_2.c **** 
 447:.\Generated_Source\PSoC5/ADC_SAR_2.c **** /*******************************************************************************
 448:.\Generated_Source\PSoC5/ADC_SAR_2.c **** * Function Name: ADC_SAR_2_IsEndConversion
 449:.\Generated_Source\PSoC5/ADC_SAR_2.c **** ********************************************************************************
ARM GAS  C:\Users\Robert\AppData\Local\Temp\cczxa6fy.s 			page 19


 450:.\Generated_Source\PSoC5/ADC_SAR_2.c **** *
 451:.\Generated_Source\PSoC5/ADC_SAR_2.c **** * Summary:
 452:.\Generated_Source\PSoC5/ADC_SAR_2.c **** *  Immediately returns the status of the conversion or does not return
 453:.\Generated_Source\PSoC5/ADC_SAR_2.c **** *  (blocking) until the conversion completes, depending on the retMode
 454:.\Generated_Source\PSoC5/ADC_SAR_2.c **** *  parameter.
 455:.\Generated_Source\PSoC5/ADC_SAR_2.c **** *
 456:.\Generated_Source\PSoC5/ADC_SAR_2.c **** * Parameters:
 457:.\Generated_Source\PSoC5/ADC_SAR_2.c **** *  retMode:  Check conversion return mode.
 458:.\Generated_Source\PSoC5/ADC_SAR_2.c **** *   ADC_SAR_2_RETURN_STATUS: Immediately returns the status. If the
 459:.\Generated_Source\PSoC5/ADC_SAR_2.c **** *     value returned is zero, the conversion is not complete, and this function
 460:.\Generated_Source\PSoC5/ADC_SAR_2.c **** *     should be retried until a nonzero result is returned.
 461:.\Generated_Source\PSoC5/ADC_SAR_2.c **** *   ADC_SAR_2_WAIT_FOR_RESULT: Does not return a result until the ADC
 462:.\Generated_Source\PSoC5/ADC_SAR_2.c **** *     conversion is complete.
 463:.\Generated_Source\PSoC5/ADC_SAR_2.c **** *
 464:.\Generated_Source\PSoC5/ADC_SAR_2.c **** * Return:
 465:.\Generated_Source\PSoC5/ADC_SAR_2.c **** *  (uint8)  0 =>  The ADC is still calculating the last result.
 466:.\Generated_Source\PSoC5/ADC_SAR_2.c **** *           1 =>  The last conversion is complete.
 467:.\Generated_Source\PSoC5/ADC_SAR_2.c **** *
 468:.\Generated_Source\PSoC5/ADC_SAR_2.c **** * Side Effects:
 469:.\Generated_Source\PSoC5/ADC_SAR_2.c **** *  This function reads the end of conversion status, which is cleared on read.
 470:.\Generated_Source\PSoC5/ADC_SAR_2.c **** *
 471:.\Generated_Source\PSoC5/ADC_SAR_2.c **** *******************************************************************************/
 472:.\Generated_Source\PSoC5/ADC_SAR_2.c **** uint8 ADC_SAR_2_IsEndConversion(uint8 retMode)
 473:.\Generated_Source\PSoC5/ADC_SAR_2.c **** {
 578              		.loc 1 473 0
 579              		.cfi_startproc
 580              		@ args = 0, pretend = 0, frame = 16
 581              		@ frame_needed = 1, uses_anonymous_args = 0
 582 0000 80B5     		push	{r7, lr}
 583              	.LCFI20:
 584              		.cfi_def_cfa_offset 8
 585              		.cfi_offset 7, -8
 586              		.cfi_offset 14, -4
 587 0002 84B0     		sub	sp, sp, #16
 588              	.LCFI21:
 589              		.cfi_def_cfa_offset 24
 590 0004 00AF     		add	r7, sp, #0
 591              	.LCFI22:
 592              		.cfi_def_cfa_register 7
 593 0006 0346     		mov	r3, r0
 594 0008 FB71     		strb	r3, [r7, #7]
 595              	.L18:
 474:.\Generated_Source\PSoC5/ADC_SAR_2.c ****     uint8 status;
 475:.\Generated_Source\PSoC5/ADC_SAR_2.c **** 
 476:.\Generated_Source\PSoC5/ADC_SAR_2.c ****     do
 477:.\Generated_Source\PSoC5/ADC_SAR_2.c ****     {
 478:.\Generated_Source\PSoC5/ADC_SAR_2.c ****         status = ADC_SAR_2_SAR_CSR1_REG & ADC_SAR_2_SAR_EOF_1;
 596              		.loc 1 478 0 discriminator 1
 597 000a 45F60113 		movw	r3, #22785
 598 000e C4F20003 		movt	r3, 16384
 599 0012 1B78     		ldrb	r3, [r3, #0]
 600 0014 DBB2     		uxtb	r3, r3
 601 0016 03F00103 		and	r3, r3, #1
 602 001a FB73     		strb	r3, [r7, #15]
 479:.\Generated_Source\PSoC5/ADC_SAR_2.c ****     } while ((status != ADC_SAR_2_SAR_EOF_1) && (retMode == ADC_SAR_2_WAIT_FOR_RESULT));
 603              		.loc 1 479 0 discriminator 1
 604 001c FB7B     		ldrb	r3, [r7, #15]	@ zero_extendqisi2
ARM GAS  C:\Users\Robert\AppData\Local\Temp\cczxa6fy.s 			page 20


 605 001e 012B     		cmp	r3, #1
 606 0020 02D0     		beq	.L17
 607 0022 FB79     		ldrb	r3, [r7, #7]	@ zero_extendqisi2
 608 0024 002B     		cmp	r3, #0
 609 0026 F0D0     		beq	.L18
 610              	.L17:
 480:.\Generated_Source\PSoC5/ADC_SAR_2.c ****     /* If convertion complete, wait until EOF bit released */
 481:.\Generated_Source\PSoC5/ADC_SAR_2.c ****     if(status == ADC_SAR_2_SAR_EOF_1)
 611              		.loc 1 481 0
 612 0028 FB7B     		ldrb	r3, [r7, #15]	@ zero_extendqisi2
 613 002a 012B     		cmp	r3, #1
 614 002c 08D1     		bne	.L19
 482:.\Generated_Source\PSoC5/ADC_SAR_2.c ****     {
 483:.\Generated_Source\PSoC5/ADC_SAR_2.c ****         /* wait one ADC clock to let the EOC status bit release */
 484:.\Generated_Source\PSoC5/ADC_SAR_2.c ****         CyDelayUs(1u);
 615              		.loc 1 484 0
 616 002e 4FF00100 		mov	r0, #1
 617 0032 FFF7FEFF 		bl	CyDelayUs
 485:.\Generated_Source\PSoC5/ADC_SAR_2.c ****         /* Do the unconditional read operation of the CSR1 register to make sure the EOC bit has be
 486:.\Generated_Source\PSoC5/ADC_SAR_2.c ****         CY_GET_REG8(ADC_SAR_2_SAR_CSR1_PTR);
 618              		.loc 1 486 0
 619 0036 45F60113 		movw	r3, #22785
 620 003a C4F20003 		movt	r3, 16384
 621 003e 1B78     		ldrb	r3, [r3, #0]
 622              	.L19:
 487:.\Generated_Source\PSoC5/ADC_SAR_2.c ****     }
 488:.\Generated_Source\PSoC5/ADC_SAR_2.c **** 
 489:.\Generated_Source\PSoC5/ADC_SAR_2.c ****     return(status);
 623              		.loc 1 489 0
 624 0040 FB7B     		ldrb	r3, [r7, #15]	@ zero_extendqisi2
 490:.\Generated_Source\PSoC5/ADC_SAR_2.c **** }
 625              		.loc 1 490 0
 626 0042 1846     		mov	r0, r3
 627 0044 07F11007 		add	r7, r7, #16
 628 0048 BD46     		mov	sp, r7
 629 004a 80BD     		pop	{r7, pc}
 630              		.cfi_endproc
 631              	.LFE8:
 632              		.size	ADC_SAR_2_IsEndConversion, .-ADC_SAR_2_IsEndConversion
 633              		.section	.text.ADC_SAR_2_GetResult8,"ax",%progbits
 634              		.align	2
 635              		.global	ADC_SAR_2_GetResult8
 636              		.thumb
 637              		.thumb_func
 638              		.type	ADC_SAR_2_GetResult8, %function
 639              	ADC_SAR_2_GetResult8:
 640              	.LFB9:
 491:.\Generated_Source\PSoC5/ADC_SAR_2.c **** 
 492:.\Generated_Source\PSoC5/ADC_SAR_2.c **** 
 493:.\Generated_Source\PSoC5/ADC_SAR_2.c **** /*******************************************************************************
 494:.\Generated_Source\PSoC5/ADC_SAR_2.c **** * Function Name: ADC_SAR_2_GetResult8
 495:.\Generated_Source\PSoC5/ADC_SAR_2.c **** ********************************************************************************
 496:.\Generated_Source\PSoC5/ADC_SAR_2.c **** *
 497:.\Generated_Source\PSoC5/ADC_SAR_2.c **** * Summary:
 498:.\Generated_Source\PSoC5/ADC_SAR_2.c **** *  Returns the result of an 8-bit conversion. If the resolution is set greater
 499:.\Generated_Source\PSoC5/ADC_SAR_2.c **** *  than 8 bits, the function returns the LSB of the result.
 500:.\Generated_Source\PSoC5/ADC_SAR_2.c **** *  ADC_SAR_2_IsEndConversion() should be called to verify that the data
ARM GAS  C:\Users\Robert\AppData\Local\Temp\cczxa6fy.s 			page 21


 501:.\Generated_Source\PSoC5/ADC_SAR_2.c **** *   sample is ready.
 502:.\Generated_Source\PSoC5/ADC_SAR_2.c **** *
 503:.\Generated_Source\PSoC5/ADC_SAR_2.c **** * Parameters:
 504:.\Generated_Source\PSoC5/ADC_SAR_2.c **** *  None.
 505:.\Generated_Source\PSoC5/ADC_SAR_2.c **** *
 506:.\Generated_Source\PSoC5/ADC_SAR_2.c **** * Return:
 507:.\Generated_Source\PSoC5/ADC_SAR_2.c **** *  The LSB of the last ADC conversion.
 508:.\Generated_Source\PSoC5/ADC_SAR_2.c **** *
 509:.\Generated_Source\PSoC5/ADC_SAR_2.c **** * Global Variables:
 510:.\Generated_Source\PSoC5/ADC_SAR_2.c **** *  ADC_SAR_2_shift - used to convert the ADC counts to the 2s
 511:.\Generated_Source\PSoC5/ADC_SAR_2.c **** *  compliment form.
 512:.\Generated_Source\PSoC5/ADC_SAR_2.c **** *
 513:.\Generated_Source\PSoC5/ADC_SAR_2.c **** * Side Effects:
 514:.\Generated_Source\PSoC5/ADC_SAR_2.c **** *  Converts the ADC counts to the 2s complement form.
 515:.\Generated_Source\PSoC5/ADC_SAR_2.c **** *
 516:.\Generated_Source\PSoC5/ADC_SAR_2.c **** *******************************************************************************/
 517:.\Generated_Source\PSoC5/ADC_SAR_2.c **** int8 ADC_SAR_2_GetResult8( void )
 518:.\Generated_Source\PSoC5/ADC_SAR_2.c **** {
 641              		.loc 1 518 0
 642              		.cfi_startproc
 643              		@ args = 0, pretend = 0, frame = 0
 644              		@ frame_needed = 1, uses_anonymous_args = 0
 645              		@ link register save eliminated.
 646 0000 80B4     		push	{r7}
 647              	.LCFI23:
 648              		.cfi_def_cfa_offset 4
 649              		.cfi_offset 7, -4
 650 0002 00AF     		add	r7, sp, #0
 651              	.LCFI24:
 652              		.cfi_def_cfa_register 7
 519:.\Generated_Source\PSoC5/ADC_SAR_2.c ****     return( (int8)ADC_SAR_2_SAR_WRK0_REG - (int8)ADC_SAR_2_shift);
 653              		.loc 1 519 0
 654 0004 45F6A033 		movw	r3, #23456
 655 0008 C4F20003 		movt	r3, 16384
 656 000c 1B78     		ldrb	r3, [r3, #0]
 657 000e DAB2     		uxtb	r2, r3
 658 0010 40F20003 		movw	r3, #:lower16:ADC_SAR_2_shift
 659 0014 C0F20003 		movt	r3, #:upper16:ADC_SAR_2_shift
 660 0018 1B88     		ldrh	r3, [r3, #0]	@ movhi
 661 001a 9BB2     		uxth	r3, r3
 662 001c DBB2     		uxtb	r3, r3
 663 001e D31A     		subs	r3, r2, r3
 664 0020 DBB2     		uxtb	r3, r3
 665 0022 DBB2     		uxtb	r3, r3
 666 0024 5BB2     		sxtb	r3, r3
 520:.\Generated_Source\PSoC5/ADC_SAR_2.c **** }
 667              		.loc 1 520 0
 668 0026 1846     		mov	r0, r3
 669 0028 BD46     		mov	sp, r7
 670 002a 80BC     		pop	{r7}
 671 002c 7047     		bx	lr
 672              		.cfi_endproc
 673              	.LFE9:
 674              		.size	ADC_SAR_2_GetResult8, .-ADC_SAR_2_GetResult8
 675 002e 00BF     		.section	.text.ADC_SAR_2_GetResult16,"ax",%progbits
 676              		.align	2
 677              		.global	ADC_SAR_2_GetResult16
ARM GAS  C:\Users\Robert\AppData\Local\Temp\cczxa6fy.s 			page 22


 678              		.thumb
 679              		.thumb_func
 680              		.type	ADC_SAR_2_GetResult16, %function
 681              	ADC_SAR_2_GetResult16:
 682              	.LFB10:
 521:.\Generated_Source\PSoC5/ADC_SAR_2.c **** 
 522:.\Generated_Source\PSoC5/ADC_SAR_2.c **** 
 523:.\Generated_Source\PSoC5/ADC_SAR_2.c **** /*******************************************************************************
 524:.\Generated_Source\PSoC5/ADC_SAR_2.c **** * Function Name: ADC_SAR_2_GetResult16
 525:.\Generated_Source\PSoC5/ADC_SAR_2.c **** ********************************************************************************
 526:.\Generated_Source\PSoC5/ADC_SAR_2.c **** *
 527:.\Generated_Source\PSoC5/ADC_SAR_2.c **** * Summary:
 528:.\Generated_Source\PSoC5/ADC_SAR_2.c **** *  Returns a 16-bit result for a conversion with a result that has a resolution
 529:.\Generated_Source\PSoC5/ADC_SAR_2.c **** *  of 8 to 12 bits.
 530:.\Generated_Source\PSoC5/ADC_SAR_2.c **** *  ADC_SAR_2_IsEndConversion() should be called to verify that the data
 531:.\Generated_Source\PSoC5/ADC_SAR_2.c **** *   sample is ready
 532:.\Generated_Source\PSoC5/ADC_SAR_2.c **** *
 533:.\Generated_Source\PSoC5/ADC_SAR_2.c **** * Parameters:
 534:.\Generated_Source\PSoC5/ADC_SAR_2.c **** *  None.
 535:.\Generated_Source\PSoC5/ADC_SAR_2.c **** *
 536:.\Generated_Source\PSoC5/ADC_SAR_2.c **** * Return:
 537:.\Generated_Source\PSoC5/ADC_SAR_2.c **** *  The 16-bit result of the last ADC conversion
 538:.\Generated_Source\PSoC5/ADC_SAR_2.c **** *
 539:.\Generated_Source\PSoC5/ADC_SAR_2.c **** * Global Variables:
 540:.\Generated_Source\PSoC5/ADC_SAR_2.c **** *  ADC_SAR_2_shift - used to convert the ADC counts to the 2s
 541:.\Generated_Source\PSoC5/ADC_SAR_2.c **** *  compliment form.
 542:.\Generated_Source\PSoC5/ADC_SAR_2.c **** *
 543:.\Generated_Source\PSoC5/ADC_SAR_2.c **** * Side Effects:
 544:.\Generated_Source\PSoC5/ADC_SAR_2.c **** *  Converts the ADC counts to the 2s complement form.
 545:.\Generated_Source\PSoC5/ADC_SAR_2.c **** *
 546:.\Generated_Source\PSoC5/ADC_SAR_2.c **** *******************************************************************************/
 547:.\Generated_Source\PSoC5/ADC_SAR_2.c **** int16 ADC_SAR_2_GetResult16( void )
 548:.\Generated_Source\PSoC5/ADC_SAR_2.c **** {
 683              		.loc 1 548 0
 684              		.cfi_startproc
 685              		@ args = 0, pretend = 0, frame = 8
 686              		@ frame_needed = 1, uses_anonymous_args = 0
 687              		@ link register save eliminated.
 688 0000 80B4     		push	{r7}
 689              	.LCFI25:
 690              		.cfi_def_cfa_offset 4
 691              		.cfi_offset 7, -4
 692 0002 83B0     		sub	sp, sp, #12
 693              	.LCFI26:
 694              		.cfi_def_cfa_offset 16
 695 0004 00AF     		add	r7, sp, #0
 696              	.LCFI27:
 697              		.cfi_def_cfa_register 7
 549:.\Generated_Source\PSoC5/ADC_SAR_2.c ****     uint16 res;
 550:.\Generated_Source\PSoC5/ADC_SAR_2.c **** 
 551:.\Generated_Source\PSoC5/ADC_SAR_2.c ****     res = CY_GET_REG16(ADC_SAR_2_SAR_WRK_PTR);
 698              		.loc 1 551 0
 699 0006 45F6A033 		movw	r3, #23456
 700 000a C4F20003 		movt	r3, 16384
 701 000e 1B88     		ldrh	r3, [r3, #0]	@ movhi
 702 0010 FB80     		strh	r3, [r7, #6]	@ movhi
 552:.\Generated_Source\PSoC5/ADC_SAR_2.c **** 
ARM GAS  C:\Users\Robert\AppData\Local\Temp\cczxa6fy.s 			page 23


 553:.\Generated_Source\PSoC5/ADC_SAR_2.c ****     return( (int16)res - ADC_SAR_2_shift );
 703              		.loc 1 553 0
 704 0012 40F20003 		movw	r3, #:lower16:ADC_SAR_2_shift
 705 0016 C0F20003 		movt	r3, #:upper16:ADC_SAR_2_shift
 706 001a 1B88     		ldrh	r3, [r3, #0]	@ movhi
 707 001c 9BB2     		uxth	r3, r3
 708 001e 9BB2     		uxth	r3, r3
 709 0020 FA88     		ldrh	r2, [r7, #6]	@ movhi
 710 0022 D31A     		subs	r3, r2, r3
 711 0024 9BB2     		uxth	r3, r3
 712 0026 9BB2     		uxth	r3, r3
 713 0028 1BB2     		sxth	r3, r3
 554:.\Generated_Source\PSoC5/ADC_SAR_2.c **** }
 714              		.loc 1 554 0
 715 002a 1846     		mov	r0, r3
 716 002c 07F10C07 		add	r7, r7, #12
 717 0030 BD46     		mov	sp, r7
 718 0032 80BC     		pop	{r7}
 719 0034 7047     		bx	lr
 720              		.cfi_endproc
 721              	.LFE10:
 722              		.size	ADC_SAR_2_GetResult16, .-ADC_SAR_2_GetResult16
 723 0036 00BF     		.section	.text.ADC_SAR_2_SetOffset,"ax",%progbits
 724              		.align	2
 725              		.global	ADC_SAR_2_SetOffset
 726              		.thumb
 727              		.thumb_func
 728              		.type	ADC_SAR_2_SetOffset, %function
 729              	ADC_SAR_2_SetOffset:
 730              	.LFB11:
 555:.\Generated_Source\PSoC5/ADC_SAR_2.c **** 
 556:.\Generated_Source\PSoC5/ADC_SAR_2.c **** 
 557:.\Generated_Source\PSoC5/ADC_SAR_2.c **** /*******************************************************************************
 558:.\Generated_Source\PSoC5/ADC_SAR_2.c **** * Function Name: ADC_SAR_2_SetOffset
 559:.\Generated_Source\PSoC5/ADC_SAR_2.c **** ********************************************************************************
 560:.\Generated_Source\PSoC5/ADC_SAR_2.c **** *
 561:.\Generated_Source\PSoC5/ADC_SAR_2.c **** * Summary:
 562:.\Generated_Source\PSoC5/ADC_SAR_2.c **** *  Sets the ADC offset, which is used by ADC_SAR_2_CountsTo_Volts(),
 563:.\Generated_Source\PSoC5/ADC_SAR_2.c **** *  ADC_SAR_2_CountsTo_mVolts(), and ADC_SAR_2_CountsTo_uVolts()
 564:.\Generated_Source\PSoC5/ADC_SAR_2.c **** *  to subtract the offset from the given reading before calculating the voltage
 565:.\Generated_Source\PSoC5/ADC_SAR_2.c **** *  conversion.
 566:.\Generated_Source\PSoC5/ADC_SAR_2.c **** *
 567:.\Generated_Source\PSoC5/ADC_SAR_2.c **** * Parameters:
 568:.\Generated_Source\PSoC5/ADC_SAR_2.c **** *  int16: This value is measured when the inputs are shorted or connected to
 569:.\Generated_Source\PSoC5/ADC_SAR_2.c ****    the same input voltage.
 570:.\Generated_Source\PSoC5/ADC_SAR_2.c **** *
 571:.\Generated_Source\PSoC5/ADC_SAR_2.c **** * Return:
 572:.\Generated_Source\PSoC5/ADC_SAR_2.c **** *  None.
 573:.\Generated_Source\PSoC5/ADC_SAR_2.c **** *
 574:.\Generated_Source\PSoC5/ADC_SAR_2.c **** * Global Variables:
 575:.\Generated_Source\PSoC5/ADC_SAR_2.c **** *  The ADC_SAR_2_offset variable modified. This variable is used for
 576:.\Generated_Source\PSoC5/ADC_SAR_2.c **** *  offset calibration purpose.
 577:.\Generated_Source\PSoC5/ADC_SAR_2.c **** *  Affects the ADC_SAR_2_CountsTo_Volts,
 578:.\Generated_Source\PSoC5/ADC_SAR_2.c **** *  ADC_SAR_2_CountsTo_mVolts, ADC_SAR_2_CountsTo_uVolts functions
 579:.\Generated_Source\PSoC5/ADC_SAR_2.c **** *  by subtracting the given offset.
 580:.\Generated_Source\PSoC5/ADC_SAR_2.c **** *
 581:.\Generated_Source\PSoC5/ADC_SAR_2.c **** *******************************************************************************/
ARM GAS  C:\Users\Robert\AppData\Local\Temp\cczxa6fy.s 			page 24


 582:.\Generated_Source\PSoC5/ADC_SAR_2.c **** void ADC_SAR_2_SetOffset(int16 offset)
 583:.\Generated_Source\PSoC5/ADC_SAR_2.c **** {
 731              		.loc 1 583 0
 732              		.cfi_startproc
 733              		@ args = 0, pretend = 0, frame = 8
 734              		@ frame_needed = 1, uses_anonymous_args = 0
 735              		@ link register save eliminated.
 736 0000 80B4     		push	{r7}
 737              	.LCFI28:
 738              		.cfi_def_cfa_offset 4
 739              		.cfi_offset 7, -4
 740 0002 83B0     		sub	sp, sp, #12
 741              	.LCFI29:
 742              		.cfi_def_cfa_offset 16
 743 0004 00AF     		add	r7, sp, #0
 744              	.LCFI30:
 745              		.cfi_def_cfa_register 7
 746 0006 0346     		mov	r3, r0
 747 0008 FB80     		strh	r3, [r7, #6]	@ movhi
 584:.\Generated_Source\PSoC5/ADC_SAR_2.c ****     ADC_SAR_2_offset = offset;
 748              		.loc 1 584 0
 749 000a 40F20003 		movw	r3, #:lower16:ADC_SAR_2_offset
 750 000e C0F20003 		movt	r3, #:upper16:ADC_SAR_2_offset
 751 0012 FA88     		ldrh	r2, [r7, #6]	@ movhi
 752 0014 1A80     		strh	r2, [r3, #0]	@ movhi
 585:.\Generated_Source\PSoC5/ADC_SAR_2.c **** }
 753              		.loc 1 585 0
 754 0016 07F10C07 		add	r7, r7, #12
 755 001a BD46     		mov	sp, r7
 756 001c 80BC     		pop	{r7}
 757 001e 7047     		bx	lr
 758              		.cfi_endproc
 759              	.LFE11:
 760              		.size	ADC_SAR_2_SetOffset, .-ADC_SAR_2_SetOffset
 761              		.section	.text.ADC_SAR_2_CalcGain,"ax",%progbits
 762              		.align	2
 763              		.thumb
 764              		.thumb_func
 765              		.type	ADC_SAR_2_CalcGain, %function
 766              	ADC_SAR_2_CalcGain:
 767              	.LFB12:
 586:.\Generated_Source\PSoC5/ADC_SAR_2.c **** 
 587:.\Generated_Source\PSoC5/ADC_SAR_2.c **** 
 588:.\Generated_Source\PSoC5/ADC_SAR_2.c **** /*******************************************************************************
 589:.\Generated_Source\PSoC5/ADC_SAR_2.c **** * Function Name: ADC_SAR_2_CalcGain
 590:.\Generated_Source\PSoC5/ADC_SAR_2.c **** ********************************************************************************
 591:.\Generated_Source\PSoC5/ADC_SAR_2.c **** *
 592:.\Generated_Source\PSoC5/ADC_SAR_2.c **** * Summary:
 593:.\Generated_Source\PSoC5/ADC_SAR_2.c **** *  This function calculates the ADC gain in counts per 10 volt.
 594:.\Generated_Source\PSoC5/ADC_SAR_2.c **** *
 595:.\Generated_Source\PSoC5/ADC_SAR_2.c **** * Parameters:
 596:.\Generated_Source\PSoC5/ADC_SAR_2.c **** *  uint8: resolution
 597:.\Generated_Source\PSoC5/ADC_SAR_2.c **** *
 598:.\Generated_Source\PSoC5/ADC_SAR_2.c **** * Return:
 599:.\Generated_Source\PSoC5/ADC_SAR_2.c **** *  None.
 600:.\Generated_Source\PSoC5/ADC_SAR_2.c **** *
 601:.\Generated_Source\PSoC5/ADC_SAR_2.c **** * Global Variables:
ARM GAS  C:\Users\Robert\AppData\Local\Temp\cczxa6fy.s 			page 25


 602:.\Generated_Source\PSoC5/ADC_SAR_2.c **** *  ADC_SAR_2_shift variable initialized. This variable is used to
 603:.\Generated_Source\PSoC5/ADC_SAR_2.c **** *  convert the ADC counts to the 2s compliment form.
 604:.\Generated_Source\PSoC5/ADC_SAR_2.c **** *  ADC_SAR_2_countsPer10Volt variable initialized. This variable is used
 605:.\Generated_Source\PSoC5/ADC_SAR_2.c **** *  for gain calibration purpose.
 606:.\Generated_Source\PSoC5/ADC_SAR_2.c **** *
 607:.\Generated_Source\PSoC5/ADC_SAR_2.c **** *******************************************************************************/
 608:.\Generated_Source\PSoC5/ADC_SAR_2.c **** static void ADC_SAR_2_CalcGain( uint8 resolution )
 609:.\Generated_Source\PSoC5/ADC_SAR_2.c **** {
 768              		.loc 1 609 0
 769              		.cfi_startproc
 770              		@ args = 0, pretend = 0, frame = 16
 771              		@ frame_needed = 1, uses_anonymous_args = 0
 772 0000 80B5     		push	{r7, lr}
 773              	.LCFI31:
 774              		.cfi_def_cfa_offset 8
 775              		.cfi_offset 7, -8
 776              		.cfi_offset 14, -4
 777 0002 84B0     		sub	sp, sp, #16
 778              	.LCFI32:
 779              		.cfi_def_cfa_offset 24
 780 0004 00AF     		add	r7, sp, #0
 781              	.LCFI33:
 782              		.cfi_def_cfa_register 7
 783 0006 0346     		mov	r3, r0
 784 0008 FB71     		strb	r3, [r7, #7]
 610:.\Generated_Source\PSoC5/ADC_SAR_2.c ****     int32 counts;
 611:.\Generated_Source\PSoC5/ADC_SAR_2.c ****     #if(!((ADC_SAR_2_DEFAULT_RANGE == ADC_SAR_2__VSS_TO_VREF) || \
 612:.\Generated_Source\PSoC5/ADC_SAR_2.c ****          (ADC_SAR_2_DEFAULT_RANGE == ADC_SAR_2__VSSA_TO_VDDA) || \
 613:.\Generated_Source\PSoC5/ADC_SAR_2.c ****          (ADC_SAR_2_DEFAULT_RANGE == ADC_SAR_2__VSSA_TO_VDAC)) )
 614:.\Generated_Source\PSoC5/ADC_SAR_2.c ****         uint16 diff_zero;
 615:.\Generated_Source\PSoC5/ADC_SAR_2.c ****     #endif /* End ADC_SAR_2_DEFAULT_RANGE */
 616:.\Generated_Source\PSoC5/ADC_SAR_2.c **** 
 617:.\Generated_Source\PSoC5/ADC_SAR_2.c ****     switch (resolution)
 785              		.loc 1 617 0
 786 000a FB79     		ldrb	r3, [r7, #7]	@ zero_extendqisi2
 787 000c 0A2B     		cmp	r3, #10
 788 000e 08D0     		beq	.L29
 789 0010 0C2B     		cmp	r3, #12
 790 0012 02D0     		beq	.L30
 791 0014 082B     		cmp	r3, #8
 792 0016 08D0     		beq	.L28
 793 0018 0BE0     		b	.L32
 794              	.L30:
 618:.\Generated_Source\PSoC5/ADC_SAR_2.c ****     {
 619:.\Generated_Source\PSoC5/ADC_SAR_2.c ****         case (uint8)ADC_SAR_2__BITS_12:
 620:.\Generated_Source\PSoC5/ADC_SAR_2.c ****             counts = (int32)ADC_SAR_2_SAR_WRK_MAX_12BIT;
 795              		.loc 1 620 0
 796 001a 4FF48053 		mov	r3, #4096
 797 001e FB60     		str	r3, [r7, #12]
 621:.\Generated_Source\PSoC5/ADC_SAR_2.c ****             #if(!((ADC_SAR_2_DEFAULT_RANGE == ADC_SAR_2__VSS_TO_VREF) || \
 622:.\Generated_Source\PSoC5/ADC_SAR_2.c ****                  (ADC_SAR_2_DEFAULT_RANGE == ADC_SAR_2__VSSA_TO_VDDA) || \
 623:.\Generated_Source\PSoC5/ADC_SAR_2.c ****                  (ADC_SAR_2_DEFAULT_RANGE == ADC_SAR_2__VSSA_TO_VDAC)) )
 624:.\Generated_Source\PSoC5/ADC_SAR_2.c ****                 diff_zero = ADC_SAR_2_SAR_DIFF_SHIFT;
 625:.\Generated_Source\PSoC5/ADC_SAR_2.c ****             #endif /* End ADC_SAR_2_DEFAULT_RANGE */
 626:.\Generated_Source\PSoC5/ADC_SAR_2.c ****             break;
 798              		.loc 1 626 0
 799 0020 0FE0     		b	.L31
ARM GAS  C:\Users\Robert\AppData\Local\Temp\cczxa6fy.s 			page 26


 800              	.L29:
 627:.\Generated_Source\PSoC5/ADC_SAR_2.c ****         case (uint8)ADC_SAR_2__BITS_10:
 628:.\Generated_Source\PSoC5/ADC_SAR_2.c ****             counts = (int32)ADC_SAR_2_SAR_WRK_MAX_10BIT;
 801              		.loc 1 628 0
 802 0022 4FF48063 		mov	r3, #1024
 803 0026 FB60     		str	r3, [r7, #12]
 629:.\Generated_Source\PSoC5/ADC_SAR_2.c ****             #if(!((ADC_SAR_2_DEFAULT_RANGE == ADC_SAR_2__VSS_TO_VREF) || \
 630:.\Generated_Source\PSoC5/ADC_SAR_2.c ****                  (ADC_SAR_2_DEFAULT_RANGE == ADC_SAR_2__VSSA_TO_VDDA) || \
 631:.\Generated_Source\PSoC5/ADC_SAR_2.c ****                  (ADC_SAR_2_DEFAULT_RANGE == ADC_SAR_2__VSSA_TO_VDAC)) )
 632:.\Generated_Source\PSoC5/ADC_SAR_2.c ****                 diff_zero = ADC_SAR_2_SAR_DIFF_SHIFT >> 2u;
 633:.\Generated_Source\PSoC5/ADC_SAR_2.c ****             #endif /* End ADC_SAR_2_DEFAULT_RANGE */
 634:.\Generated_Source\PSoC5/ADC_SAR_2.c ****             break;
 804              		.loc 1 634 0
 805 0028 0BE0     		b	.L31
 806              	.L28:
 635:.\Generated_Source\PSoC5/ADC_SAR_2.c ****         case (uint8)ADC_SAR_2__BITS_8:
 636:.\Generated_Source\PSoC5/ADC_SAR_2.c ****             counts = (int32)ADC_SAR_2_SAR_WRK_MAX_8BIT;
 807              		.loc 1 636 0
 808 002a 4FF48073 		mov	r3, #256
 809 002e FB60     		str	r3, [r7, #12]
 637:.\Generated_Source\PSoC5/ADC_SAR_2.c ****             #if(!((ADC_SAR_2_DEFAULT_RANGE == ADC_SAR_2__VSS_TO_VREF) || \
 638:.\Generated_Source\PSoC5/ADC_SAR_2.c ****                  (ADC_SAR_2_DEFAULT_RANGE == ADC_SAR_2__VSSA_TO_VDDA) || \
 639:.\Generated_Source\PSoC5/ADC_SAR_2.c ****                  (ADC_SAR_2_DEFAULT_RANGE == ADC_SAR_2__VSSA_TO_VDAC)) )
 640:.\Generated_Source\PSoC5/ADC_SAR_2.c ****                 diff_zero = ADC_SAR_2_SAR_DIFF_SHIFT >> 4u;
 641:.\Generated_Source\PSoC5/ADC_SAR_2.c ****             #endif /* End ADC_SAR_2_DEFAULT_RANGE */
 642:.\Generated_Source\PSoC5/ADC_SAR_2.c ****             break;
 810              		.loc 1 642 0
 811 0030 07E0     		b	.L31
 812              	.L32:
 643:.\Generated_Source\PSoC5/ADC_SAR_2.c ****         default: /* Halt CPU in debug mode if resolution is out of valid range */
 644:.\Generated_Source\PSoC5/ADC_SAR_2.c ****             counts = 0;
 813              		.loc 1 644 0
 814 0032 4FF00003 		mov	r3, #0
 815 0036 FB60     		str	r3, [r7, #12]
 645:.\Generated_Source\PSoC5/ADC_SAR_2.c ****             #if(!((ADC_SAR_2_DEFAULT_RANGE == ADC_SAR_2__VSS_TO_VREF) || \
 646:.\Generated_Source\PSoC5/ADC_SAR_2.c ****                  (ADC_SAR_2_DEFAULT_RANGE == ADC_SAR_2__VSSA_TO_VDDA) || \
 647:.\Generated_Source\PSoC5/ADC_SAR_2.c ****                  (ADC_SAR_2_DEFAULT_RANGE == ADC_SAR_2__VSSA_TO_VDAC)) )
 648:.\Generated_Source\PSoC5/ADC_SAR_2.c ****                 diff_zero = 0u;
 649:.\Generated_Source\PSoC5/ADC_SAR_2.c ****             #endif /* End ADC_SAR_2_DEFAULT_RANGE */
 650:.\Generated_Source\PSoC5/ADC_SAR_2.c ****             CYASSERT(0u != 0u);
 816              		.loc 1 650 0
 817 0038 4FF00000 		mov	r0, #0
 818 003c FFF7FEFF 		bl	CyHalt
 651:.\Generated_Source\PSoC5/ADC_SAR_2.c ****             break;
 819              		.loc 1 651 0
 820 0040 00BF     		nop
 821              	.L31:
 652:.\Generated_Source\PSoC5/ADC_SAR_2.c ****     }
 653:.\Generated_Source\PSoC5/ADC_SAR_2.c ****     ADC_SAR_2_countsPerVolt = 0; /* Clear obsolete variable */
 822              		.loc 1 653 0
 823 0042 40F20003 		movw	r3, #:lower16:ADC_SAR_2_countsPerVolt
 824 0046 C0F20003 		movt	r3, #:upper16:ADC_SAR_2_countsPerVolt
 825 004a 4FF00002 		mov	r2, #0
 826 004e 1A80     		strh	r2, [r3, #0]	@ movhi
 654:.\Generated_Source\PSoC5/ADC_SAR_2.c ****     /* Calculate gain in counts per 10 volts with rounding */
 655:.\Generated_Source\PSoC5/ADC_SAR_2.c ****     ADC_SAR_2_countsPer10Volt = (((counts * ADC_SAR_2_10MV_COUNTS) +
 827              		.loc 1 655 0
ARM GAS  C:\Users\Robert\AppData\Local\Temp\cczxa6fy.s 			page 27


 828 0050 FB68     		ldr	r3, [r7, #12]
 829 0052 42F21072 		movw	r2, #10000
 830 0056 02FB03F3 		mul	r3, r2, r3
 831 005a 03F6C412 		addw	r2, r3, #2500
 656:.\Generated_Source\PSoC5/ADC_SAR_2.c ****                         ADC_SAR_2_DEFAULT_REF_VOLTAGE_MV) / (ADC_SAR_2_DEFAULT_REF_VOLTAGE_MV * 2))
 832              		.loc 1 656 0
 833 005e 48F6AD33 		movw	r3, #35757
 834 0062 C6F6DB03 		movt	r3, 26843
 835 0066 83FB0213 		smull	r1, r3, r3, r2
 836 006a 4FEAE321 		asr	r1, r3, #11
 837 006e 4FEAE273 		asr	r3, r2, #31
 838 0072 CA1A     		subs	r2, r1, r3
 655:.\Generated_Source\PSoC5/ADC_SAR_2.c ****     ADC_SAR_2_countsPer10Volt = (((counts * ADC_SAR_2_10MV_COUNTS) +
 839              		.loc 1 655 0
 840 0074 40F20003 		movw	r3, #:lower16:ADC_SAR_2_countsPer10Volt
 841 0078 C0F20003 		movt	r3, #:upper16:ADC_SAR_2_countsPer10Volt
 842 007c 1A60     		str	r2, [r3, #0]
 657:.\Generated_Source\PSoC5/ADC_SAR_2.c **** 
 658:.\Generated_Source\PSoC5/ADC_SAR_2.c ****     #if( (ADC_SAR_2_DEFAULT_RANGE == ADC_SAR_2__VSS_TO_VREF) || \
 659:.\Generated_Source\PSoC5/ADC_SAR_2.c ****          (ADC_SAR_2_DEFAULT_RANGE == ADC_SAR_2__VSSA_TO_VDDA) || \
 660:.\Generated_Source\PSoC5/ADC_SAR_2.c ****          (ADC_SAR_2_DEFAULT_RANGE == ADC_SAR_2__VSSA_TO_VDAC) )
 661:.\Generated_Source\PSoC5/ADC_SAR_2.c ****         ADC_SAR_2_shift = 0;
 843              		.loc 1 661 0
 844 007e 40F20003 		movw	r3, #:lower16:ADC_SAR_2_shift
 845 0082 C0F20003 		movt	r3, #:upper16:ADC_SAR_2_shift
 846 0086 4FF00002 		mov	r2, #0
 847 008a 1A80     		strh	r2, [r3, #0]	@ movhi
 662:.\Generated_Source\PSoC5/ADC_SAR_2.c ****     #else
 663:.\Generated_Source\PSoC5/ADC_SAR_2.c ****         ADC_SAR_2_shift = diff_zero;
 664:.\Generated_Source\PSoC5/ADC_SAR_2.c ****     #endif /* End ADC_SAR_2_DEFAULT_RANGE */
 665:.\Generated_Source\PSoC5/ADC_SAR_2.c **** }
 848              		.loc 1 665 0
 849 008c 07F11007 		add	r7, r7, #16
 850 0090 BD46     		mov	sp, r7
 851 0092 80BD     		pop	{r7, pc}
 852              		.cfi_endproc
 853              	.LFE12:
 854              		.size	ADC_SAR_2_CalcGain, .-ADC_SAR_2_CalcGain
 855              		.section	.text.ADC_SAR_2_SetGain,"ax",%progbits
 856              		.align	2
 857              		.global	ADC_SAR_2_SetGain
 858              		.thumb
 859              		.thumb_func
 860              		.type	ADC_SAR_2_SetGain, %function
 861              	ADC_SAR_2_SetGain:
 862              	.LFB13:
 666:.\Generated_Source\PSoC5/ADC_SAR_2.c **** 
 667:.\Generated_Source\PSoC5/ADC_SAR_2.c **** 
 668:.\Generated_Source\PSoC5/ADC_SAR_2.c **** /*******************************************************************************
 669:.\Generated_Source\PSoC5/ADC_SAR_2.c **** * Function Name: ADC_SAR_2_SetGain
 670:.\Generated_Source\PSoC5/ADC_SAR_2.c **** ********************************************************************************
 671:.\Generated_Source\PSoC5/ADC_SAR_2.c **** *
 672:.\Generated_Source\PSoC5/ADC_SAR_2.c **** * Summary:
 673:.\Generated_Source\PSoC5/ADC_SAR_2.c **** *  Sets the ADC gain in counts per volt for the voltage conversion functions
 674:.\Generated_Source\PSoC5/ADC_SAR_2.c **** *  that follow. This value is set by default by the reference and input range
 675:.\Generated_Source\PSoC5/ADC_SAR_2.c **** *  settings. It should only be used to further calibrate the ADC with a known
 676:.\Generated_Source\PSoC5/ADC_SAR_2.c **** *  input or if the ADC is using an external reference.
ARM GAS  C:\Users\Robert\AppData\Local\Temp\cczxa6fy.s 			page 28


 677:.\Generated_Source\PSoC5/ADC_SAR_2.c **** *
 678:.\Generated_Source\PSoC5/ADC_SAR_2.c **** * Parameters:
 679:.\Generated_Source\PSoC5/ADC_SAR_2.c **** *  int16  adcGain  counts per volt
 680:.\Generated_Source\PSoC5/ADC_SAR_2.c **** *
 681:.\Generated_Source\PSoC5/ADC_SAR_2.c **** * Return:
 682:.\Generated_Source\PSoC5/ADC_SAR_2.c **** *  None.
 683:.\Generated_Source\PSoC5/ADC_SAR_2.c **** *
 684:.\Generated_Source\PSoC5/ADC_SAR_2.c **** * Global Variables:
 685:.\Generated_Source\PSoC5/ADC_SAR_2.c **** *  ADC_SAR_2_countsPer10Volt variable modified. This variable is used
 686:.\Generated_Source\PSoC5/ADC_SAR_2.c **** *  for gain calibration purpose.
 687:.\Generated_Source\PSoC5/ADC_SAR_2.c **** *
 688:.\Generated_Source\PSoC5/ADC_SAR_2.c **** *******************************************************************************/
 689:.\Generated_Source\PSoC5/ADC_SAR_2.c **** void ADC_SAR_2_SetGain(int16 adcGain)
 690:.\Generated_Source\PSoC5/ADC_SAR_2.c **** {
 863              		.loc 1 690 0
 864              		.cfi_startproc
 865              		@ args = 0, pretend = 0, frame = 8
 866              		@ frame_needed = 1, uses_anonymous_args = 0
 867              		@ link register save eliminated.
 868 0000 80B4     		push	{r7}
 869              	.LCFI34:
 870              		.cfi_def_cfa_offset 4
 871              		.cfi_offset 7, -4
 872 0002 83B0     		sub	sp, sp, #12
 873              	.LCFI35:
 874              		.cfi_def_cfa_offset 16
 875 0004 00AF     		add	r7, sp, #0
 876              	.LCFI36:
 877              		.cfi_def_cfa_register 7
 878 0006 0346     		mov	r3, r0
 879 0008 FB80     		strh	r3, [r7, #6]	@ movhi
 691:.\Generated_Source\PSoC5/ADC_SAR_2.c ****     ADC_SAR_2_countsPer10Volt = (int32)adcGain * 10;
 880              		.loc 1 691 0
 881 000a B7F90620 		ldrsh	r2, [r7, #6]
 882 000e 1346     		mov	r3, r2
 883 0010 4FEA8303 		lsl	r3, r3, #2
 884 0014 9B18     		adds	r3, r3, r2
 885 0016 4FEA4303 		lsl	r3, r3, #1
 886 001a 1A46     		mov	r2, r3
 887 001c 40F20003 		movw	r3, #:lower16:ADC_SAR_2_countsPer10Volt
 888 0020 C0F20003 		movt	r3, #:upper16:ADC_SAR_2_countsPer10Volt
 889 0024 1A60     		str	r2, [r3, #0]
 692:.\Generated_Source\PSoC5/ADC_SAR_2.c **** }
 890              		.loc 1 692 0
 891 0026 07F10C07 		add	r7, r7, #12
 892 002a BD46     		mov	sp, r7
 893 002c 80BC     		pop	{r7}
 894 002e 7047     		bx	lr
 895              		.cfi_endproc
 896              	.LFE13:
 897              		.size	ADC_SAR_2_SetGain, .-ADC_SAR_2_SetGain
 898              		.section	.text.ADC_SAR_2_SetScaledGain,"ax",%progbits
 899              		.align	2
 900              		.global	ADC_SAR_2_SetScaledGain
 901              		.thumb
 902              		.thumb_func
 903              		.type	ADC_SAR_2_SetScaledGain, %function
ARM GAS  C:\Users\Robert\AppData\Local\Temp\cczxa6fy.s 			page 29


 904              	ADC_SAR_2_SetScaledGain:
 905              	.LFB14:
 693:.\Generated_Source\PSoC5/ADC_SAR_2.c **** 
 694:.\Generated_Source\PSoC5/ADC_SAR_2.c **** 
 695:.\Generated_Source\PSoC5/ADC_SAR_2.c **** /*******************************************************************************
 696:.\Generated_Source\PSoC5/ADC_SAR_2.c **** * Function Name: ADC_SAR_2_SetGainPer10Volt
 697:.\Generated_Source\PSoC5/ADC_SAR_2.c **** ********************************************************************************
 698:.\Generated_Source\PSoC5/ADC_SAR_2.c **** *
 699:.\Generated_Source\PSoC5/ADC_SAR_2.c **** * Summary:
 700:.\Generated_Source\PSoC5/ADC_SAR_2.c **** *  Sets the ADC gain in counts per 10 volt for the voltage conversion functions
 701:.\Generated_Source\PSoC5/ADC_SAR_2.c **** *  that follow. This value is set by default by the reference and input range
 702:.\Generated_Source\PSoC5/ADC_SAR_2.c **** *  settings. It should only be used to further calibrate the ADC with a known
 703:.\Generated_Source\PSoC5/ADC_SAR_2.c **** *  input or if the ADC is using an external reference.
 704:.\Generated_Source\PSoC5/ADC_SAR_2.c **** *
 705:.\Generated_Source\PSoC5/ADC_SAR_2.c **** * Parameters:
 706:.\Generated_Source\PSoC5/ADC_SAR_2.c **** *  int16  adcGain  counts per 10 volt
 707:.\Generated_Source\PSoC5/ADC_SAR_2.c **** *
 708:.\Generated_Source\PSoC5/ADC_SAR_2.c **** * Return:
 709:.\Generated_Source\PSoC5/ADC_SAR_2.c **** *  None.
 710:.\Generated_Source\PSoC5/ADC_SAR_2.c **** *
 711:.\Generated_Source\PSoC5/ADC_SAR_2.c **** * Global Variables:
 712:.\Generated_Source\PSoC5/ADC_SAR_2.c **** *  ADC_SAR_2_countsPer10Volt variable modified. This variable is used
 713:.\Generated_Source\PSoC5/ADC_SAR_2.c **** *  for gain calibration purpose.
 714:.\Generated_Source\PSoC5/ADC_SAR_2.c **** *
 715:.\Generated_Source\PSoC5/ADC_SAR_2.c **** *******************************************************************************/
 716:.\Generated_Source\PSoC5/ADC_SAR_2.c **** void ADC_SAR_2_SetScaledGain(int32 adcGain)
 717:.\Generated_Source\PSoC5/ADC_SAR_2.c **** {
 906              		.loc 1 717 0
 907              		.cfi_startproc
 908              		@ args = 0, pretend = 0, frame = 8
 909              		@ frame_needed = 1, uses_anonymous_args = 0
 910              		@ link register save eliminated.
 911 0000 80B4     		push	{r7}
 912              	.LCFI37:
 913              		.cfi_def_cfa_offset 4
 914              		.cfi_offset 7, -4
 915 0002 83B0     		sub	sp, sp, #12
 916              	.LCFI38:
 917              		.cfi_def_cfa_offset 16
 918 0004 00AF     		add	r7, sp, #0
 919              	.LCFI39:
 920              		.cfi_def_cfa_register 7
 921 0006 7860     		str	r0, [r7, #4]
 718:.\Generated_Source\PSoC5/ADC_SAR_2.c ****     ADC_SAR_2_countsPer10Volt = adcGain;
 922              		.loc 1 718 0
 923 0008 40F20003 		movw	r3, #:lower16:ADC_SAR_2_countsPer10Volt
 924 000c C0F20003 		movt	r3, #:upper16:ADC_SAR_2_countsPer10Volt
 925 0010 7A68     		ldr	r2, [r7, #4]
 926 0012 1A60     		str	r2, [r3, #0]
 719:.\Generated_Source\PSoC5/ADC_SAR_2.c **** }
 927              		.loc 1 719 0
 928 0014 07F10C07 		add	r7, r7, #12
 929 0018 BD46     		mov	sp, r7
 930 001a 80BC     		pop	{r7}
 931 001c 7047     		bx	lr
 932              		.cfi_endproc
 933              	.LFE14:
ARM GAS  C:\Users\Robert\AppData\Local\Temp\cczxa6fy.s 			page 30


 934              		.size	ADC_SAR_2_SetScaledGain, .-ADC_SAR_2_SetScaledGain
 935 001e 00BF     		.section	.text.ADC_SAR_2_CountsTo_mVolts,"ax",%progbits
 936              		.align	2
 937              		.global	ADC_SAR_2_CountsTo_mVolts
 938              		.thumb
 939              		.thumb_func
 940              		.type	ADC_SAR_2_CountsTo_mVolts, %function
 941              	ADC_SAR_2_CountsTo_mVolts:
 942              	.LFB15:
 720:.\Generated_Source\PSoC5/ADC_SAR_2.c **** 
 721:.\Generated_Source\PSoC5/ADC_SAR_2.c **** 
 722:.\Generated_Source\PSoC5/ADC_SAR_2.c **** /*******************************************************************************
 723:.\Generated_Source\PSoC5/ADC_SAR_2.c **** * Function Name: ADC_SAR_2_CountsTo_mVolts
 724:.\Generated_Source\PSoC5/ADC_SAR_2.c **** ********************************************************************************
 725:.\Generated_Source\PSoC5/ADC_SAR_2.c **** *
 726:.\Generated_Source\PSoC5/ADC_SAR_2.c **** * Summary:
 727:.\Generated_Source\PSoC5/ADC_SAR_2.c **** *  Converts the ADC output to millivolts as a 16-bit integer.
 728:.\Generated_Source\PSoC5/ADC_SAR_2.c **** *
 729:.\Generated_Source\PSoC5/ADC_SAR_2.c **** * Parameters:
 730:.\Generated_Source\PSoC5/ADC_SAR_2.c **** *  int16 adcCounts:  Result from the ADC conversion
 731:.\Generated_Source\PSoC5/ADC_SAR_2.c **** *
 732:.\Generated_Source\PSoC5/ADC_SAR_2.c **** * Return:
 733:.\Generated_Source\PSoC5/ADC_SAR_2.c **** *  int16 Result in mVolts
 734:.\Generated_Source\PSoC5/ADC_SAR_2.c **** *
 735:.\Generated_Source\PSoC5/ADC_SAR_2.c **** * Global Variables:
 736:.\Generated_Source\PSoC5/ADC_SAR_2.c **** *  ADC_SAR_2_offset variable used.
 737:.\Generated_Source\PSoC5/ADC_SAR_2.c **** *  ADC_SAR_2_countsPer10Volt variable used.
 738:.\Generated_Source\PSoC5/ADC_SAR_2.c **** *
 739:.\Generated_Source\PSoC5/ADC_SAR_2.c **** *******************************************************************************/
 740:.\Generated_Source\PSoC5/ADC_SAR_2.c **** int16 ADC_SAR_2_CountsTo_mVolts(int16 adcCounts)
 741:.\Generated_Source\PSoC5/ADC_SAR_2.c **** {
 943              		.loc 1 741 0
 944              		.cfi_startproc
 945              		@ args = 0, pretend = 0, frame = 16
 946              		@ frame_needed = 1, uses_anonymous_args = 0
 947              		@ link register save eliminated.
 948 0000 80B4     		push	{r7}
 949              	.LCFI40:
 950              		.cfi_def_cfa_offset 4
 951              		.cfi_offset 7, -4
 952 0002 85B0     		sub	sp, sp, #20
 953              	.LCFI41:
 954              		.cfi_def_cfa_offset 24
 955 0004 00AF     		add	r7, sp, #0
 956              	.LCFI42:
 957              		.cfi_def_cfa_register 7
 958 0006 0346     		mov	r3, r0
 959 0008 FB80     		strh	r3, [r7, #6]	@ movhi
 742:.\Generated_Source\PSoC5/ADC_SAR_2.c ****     int16 mVolts;
 743:.\Generated_Source\PSoC5/ADC_SAR_2.c ****     int32 countsPer10Volt;
 744:.\Generated_Source\PSoC5/ADC_SAR_2.c **** 
 745:.\Generated_Source\PSoC5/ADC_SAR_2.c ****     if(ADC_SAR_2_countsPerVolt != 0)
 960              		.loc 1 745 0
 961 000a 40F20003 		movw	r3, #:lower16:ADC_SAR_2_countsPerVolt
 962 000e C0F20003 		movt	r3, #:upper16:ADC_SAR_2_countsPerVolt
 963 0012 1B88     		ldrh	r3, [r3, #0]	@ movhi
 964 0014 9BB2     		uxth	r3, r3
ARM GAS  C:\Users\Robert\AppData\Local\Temp\cczxa6fy.s 			page 31


 965 0016 002B     		cmp	r3, #0
 966 0018 0ED0     		beq	.L36
 746:.\Generated_Source\PSoC5/ADC_SAR_2.c ****     {   /* Support obsolete method */
 747:.\Generated_Source\PSoC5/ADC_SAR_2.c ****         countsPer10Volt = (int32)ADC_SAR_2_countsPerVolt * 10;
 967              		.loc 1 747 0
 968 001a 40F20003 		movw	r3, #:lower16:ADC_SAR_2_countsPerVolt
 969 001e C0F20003 		movt	r3, #:upper16:ADC_SAR_2_countsPerVolt
 970 0022 1B88     		ldrh	r3, [r3, #0]	@ movhi
 971 0024 9BB2     		uxth	r3, r3
 972 0026 1AB2     		sxth	r2, r3
 973 0028 1346     		mov	r3, r2
 974 002a 4FEA8303 		lsl	r3, r3, #2
 975 002e 9B18     		adds	r3, r3, r2
 976 0030 4FEA4303 		lsl	r3, r3, #1
 977 0034 FB60     		str	r3, [r7, #12]
 978 0036 05E0     		b	.L37
 979              	.L36:
 748:.\Generated_Source\PSoC5/ADC_SAR_2.c ****     }
 749:.\Generated_Source\PSoC5/ADC_SAR_2.c ****     else
 750:.\Generated_Source\PSoC5/ADC_SAR_2.c ****     {
 751:.\Generated_Source\PSoC5/ADC_SAR_2.c ****         countsPer10Volt = ADC_SAR_2_countsPer10Volt;
 980              		.loc 1 751 0
 981 0038 40F20003 		movw	r3, #:lower16:ADC_SAR_2_countsPer10Volt
 982 003c C0F20003 		movt	r3, #:upper16:ADC_SAR_2_countsPer10Volt
 983 0040 1B68     		ldr	r3, [r3, #0]
 984 0042 FB60     		str	r3, [r7, #12]
 985              	.L37:
 752:.\Generated_Source\PSoC5/ADC_SAR_2.c ****     }
 753:.\Generated_Source\PSoC5/ADC_SAR_2.c **** 
 754:.\Generated_Source\PSoC5/ADC_SAR_2.c ****     /* Subtract ADC offset */
 755:.\Generated_Source\PSoC5/ADC_SAR_2.c ****     adcCounts -= ADC_SAR_2_offset;
 986              		.loc 1 755 0
 987 0044 FA88     		ldrh	r2, [r7, #6]
 988 0046 40F20003 		movw	r3, #:lower16:ADC_SAR_2_offset
 989 004a C0F20003 		movt	r3, #:upper16:ADC_SAR_2_offset
 990 004e 1B88     		ldrh	r3, [r3, #0]	@ movhi
 991 0050 9BB2     		uxth	r3, r3
 992 0052 9BB2     		uxth	r3, r3
 993 0054 D31A     		subs	r3, r2, r3
 994 0056 9BB2     		uxth	r3, r3
 995 0058 FB80     		strh	r3, [r7, #6]	@ movhi
 756:.\Generated_Source\PSoC5/ADC_SAR_2.c ****     /* Convert to millivolts with rounding */
 757:.\Generated_Source\PSoC5/ADC_SAR_2.c ****     mVolts = (int16)( (( (int32)adcCounts * ADC_SAR_2_10MV_COUNTS ) + ( (adcCounts > 0) ?
 996              		.loc 1 757 0
 997 005a B7F90630 		ldrsh	r3, [r7, #6]
 998 005e 42F21072 		movw	r2, #10000
 999 0062 02FB03F2 		mul	r2, r2, r3
 758:.\Generated_Source\PSoC5/ADC_SAR_2.c ****                        (countsPer10Volt / 2) : (-(countsPer10Volt / 2)) )) / countsPer10Volt);
 1000              		.loc 1 758 0
 1001 0066 B7F90630 		ldrsh	r3, [r7, #6]
 1002 006a 002B     		cmp	r3, #0
 1003 006c 06DD     		ble	.L38
 1004              		.loc 1 758 0 is_stmt 0 discriminator 1
 1005 006e FB68     		ldr	r3, [r7, #12]
 1006 0070 4FEAD371 		lsr	r1, r3, #31
 1007 0074 CB18     		adds	r3, r1, r3
 1008 0076 4FEA6303 		asr	r3, r3, #1
ARM GAS  C:\Users\Robert\AppData\Local\Temp\cczxa6fy.s 			page 32


 1009 007a 07E0     		b	.L39
 1010              	.L38:
 1011              		.loc 1 758 0 discriminator 2
 1012 007c FB68     		ldr	r3, [r7, #12]
 1013 007e 4FEAD371 		lsr	r1, r3, #31
 1014 0082 CB18     		adds	r3, r1, r3
 1015 0084 4FEA6303 		asr	r3, r3, #1
 1016 0088 C3F10003 		rsb	r3, r3, #0
 1017              	.L39:
 757:.\Generated_Source\PSoC5/ADC_SAR_2.c ****     mVolts = (int16)( (( (int32)adcCounts * ADC_SAR_2_10MV_COUNTS ) + ( (adcCounts > 0) ?
 1018              		.loc 1 757 0 is_stmt 1
 1019 008c D218     		adds	r2, r2, r3
 1020              		.loc 1 758 0
 1021 008e FB68     		ldr	r3, [r7, #12]
 1022 0090 92FBF3F3 		sdiv	r3, r2, r3
 757:.\Generated_Source\PSoC5/ADC_SAR_2.c ****     mVolts = (int16)( (( (int32)adcCounts * ADC_SAR_2_10MV_COUNTS ) + ( (adcCounts > 0) ?
 1023              		.loc 1 757 0
 1024 0094 7B81     		strh	r3, [r7, #10]	@ movhi
 759:.\Generated_Source\PSoC5/ADC_SAR_2.c **** 
 760:.\Generated_Source\PSoC5/ADC_SAR_2.c ****     return( mVolts );
 1025              		.loc 1 760 0
 1026 0096 7B89     		ldrh	r3, [r7, #10]
 1027 0098 1BB2     		sxth	r3, r3
 761:.\Generated_Source\PSoC5/ADC_SAR_2.c **** }
 1028              		.loc 1 761 0
 1029 009a 1846     		mov	r0, r3
 1030 009c 07F11407 		add	r7, r7, #20
 1031 00a0 BD46     		mov	sp, r7
 1032 00a2 80BC     		pop	{r7}
 1033 00a4 7047     		bx	lr
 1034              		.cfi_endproc
 1035              	.LFE15:
 1036              		.size	ADC_SAR_2_CountsTo_mVolts, .-ADC_SAR_2_CountsTo_mVolts
 1037              		.global	__aeabi_ldivmod
 1038 00a6 00BF     		.section	.text.ADC_SAR_2_CountsTo_uVolts,"ax",%progbits
 1039              		.align	2
 1040              		.global	ADC_SAR_2_CountsTo_uVolts
 1041              		.thumb
 1042              		.thumb_func
 1043              		.type	ADC_SAR_2_CountsTo_uVolts, %function
 1044              	ADC_SAR_2_CountsTo_uVolts:
 1045              	.LFB16:
 762:.\Generated_Source\PSoC5/ADC_SAR_2.c **** 
 763:.\Generated_Source\PSoC5/ADC_SAR_2.c **** 
 764:.\Generated_Source\PSoC5/ADC_SAR_2.c **** /*******************************************************************************
 765:.\Generated_Source\PSoC5/ADC_SAR_2.c **** * Function Name: ADC_SAR_2_CountsTo_uVolts
 766:.\Generated_Source\PSoC5/ADC_SAR_2.c **** ********************************************************************************
 767:.\Generated_Source\PSoC5/ADC_SAR_2.c **** *
 768:.\Generated_Source\PSoC5/ADC_SAR_2.c **** * Summary:
 769:.\Generated_Source\PSoC5/ADC_SAR_2.c **** *  Converts the ADC output to microvolts as a 32-bit integer.
 770:.\Generated_Source\PSoC5/ADC_SAR_2.c **** *
 771:.\Generated_Source\PSoC5/ADC_SAR_2.c **** * Parameters:
 772:.\Generated_Source\PSoC5/ADC_SAR_2.c **** *  int16 adcCounts: Result from the ADC conversion
 773:.\Generated_Source\PSoC5/ADC_SAR_2.c **** *
 774:.\Generated_Source\PSoC5/ADC_SAR_2.c **** * Return:
 775:.\Generated_Source\PSoC5/ADC_SAR_2.c **** *  int32 Result in micro Volts
 776:.\Generated_Source\PSoC5/ADC_SAR_2.c **** *
ARM GAS  C:\Users\Robert\AppData\Local\Temp\cczxa6fy.s 			page 33


 777:.\Generated_Source\PSoC5/ADC_SAR_2.c **** * Global Variables:
 778:.\Generated_Source\PSoC5/ADC_SAR_2.c **** *  ADC_SAR_2_offset variable used.
 779:.\Generated_Source\PSoC5/ADC_SAR_2.c **** *  ADC_SAR_2_countsPer10Volt used to convert ADC counts to uVolts.
 780:.\Generated_Source\PSoC5/ADC_SAR_2.c **** *
 781:.\Generated_Source\PSoC5/ADC_SAR_2.c **** *******************************************************************************/
 782:.\Generated_Source\PSoC5/ADC_SAR_2.c **** int32 ADC_SAR_2_CountsTo_uVolts(int16 adcCounts)
 783:.\Generated_Source\PSoC5/ADC_SAR_2.c **** {
 1046              		.loc 1 783 0
 1047              		.cfi_startproc
 1048              		@ args = 0, pretend = 0, frame = 24
 1049              		@ frame_needed = 1, uses_anonymous_args = 0
 1050 0000 90B5     		push	{r4, r7, lr}
 1051              	.LCFI43:
 1052              		.cfi_def_cfa_offset 12
 1053              		.cfi_offset 4, -12
 1054              		.cfi_offset 7, -8
 1055              		.cfi_offset 14, -4
 1056 0002 87B0     		sub	sp, sp, #28
 1057              	.LCFI44:
 1058              		.cfi_def_cfa_offset 40
 1059 0004 00AF     		add	r7, sp, #0
 1060              	.LCFI45:
 1061              		.cfi_def_cfa_register 7
 1062 0006 0346     		mov	r3, r0
 1063 0008 FB80     		strh	r3, [r7, #6]	@ movhi
 784:.\Generated_Source\PSoC5/ADC_SAR_2.c **** 
 785:.\Generated_Source\PSoC5/ADC_SAR_2.c ****     int64 uVolts;
 786:.\Generated_Source\PSoC5/ADC_SAR_2.c ****     int32 countsPer10Volt;
 787:.\Generated_Source\PSoC5/ADC_SAR_2.c **** 
 788:.\Generated_Source\PSoC5/ADC_SAR_2.c ****     if(ADC_SAR_2_countsPerVolt != 0)
 1064              		.loc 1 788 0
 1065 000a 40F20003 		movw	r3, #:lower16:ADC_SAR_2_countsPerVolt
 1066 000e C0F20003 		movt	r3, #:upper16:ADC_SAR_2_countsPerVolt
 1067 0012 1B88     		ldrh	r3, [r3, #0]	@ movhi
 1068 0014 9BB2     		uxth	r3, r3
 1069 0016 002B     		cmp	r3, #0
 1070 0018 0ED0     		beq	.L42
 789:.\Generated_Source\PSoC5/ADC_SAR_2.c ****     {   /* Support obsolete method */
 790:.\Generated_Source\PSoC5/ADC_SAR_2.c ****         countsPer10Volt = (int32)ADC_SAR_2_countsPerVolt * 10;
 1071              		.loc 1 790 0
 1072 001a 40F20003 		movw	r3, #:lower16:ADC_SAR_2_countsPerVolt
 1073 001e C0F20003 		movt	r3, #:upper16:ADC_SAR_2_countsPerVolt
 1074 0022 1B88     		ldrh	r3, [r3, #0]	@ movhi
 1075 0024 9BB2     		uxth	r3, r3
 1076 0026 1AB2     		sxth	r2, r3
 1077 0028 1346     		mov	r3, r2
 1078 002a 4FEA8303 		lsl	r3, r3, #2
 1079 002e 9B18     		adds	r3, r3, r2
 1080 0030 4FEA4303 		lsl	r3, r3, #1
 1081 0034 7B61     		str	r3, [r7, #20]
 1082 0036 05E0     		b	.L43
 1083              	.L42:
 791:.\Generated_Source\PSoC5/ADC_SAR_2.c ****     }
 792:.\Generated_Source\PSoC5/ADC_SAR_2.c ****     else
 793:.\Generated_Source\PSoC5/ADC_SAR_2.c ****     {
 794:.\Generated_Source\PSoC5/ADC_SAR_2.c ****         countsPer10Volt = ADC_SAR_2_countsPer10Volt;
 1084              		.loc 1 794 0
ARM GAS  C:\Users\Robert\AppData\Local\Temp\cczxa6fy.s 			page 34


 1085 0038 40F20003 		movw	r3, #:lower16:ADC_SAR_2_countsPer10Volt
 1086 003c C0F20003 		movt	r3, #:upper16:ADC_SAR_2_countsPer10Volt
 1087 0040 1B68     		ldr	r3, [r3, #0]
 1088 0042 7B61     		str	r3, [r7, #20]
 1089              	.L43:
 795:.\Generated_Source\PSoC5/ADC_SAR_2.c ****     }
 796:.\Generated_Source\PSoC5/ADC_SAR_2.c **** 
 797:.\Generated_Source\PSoC5/ADC_SAR_2.c ****     /* Subtract ADC offset */
 798:.\Generated_Source\PSoC5/ADC_SAR_2.c ****     adcCounts -= ADC_SAR_2_offset;
 1090              		.loc 1 798 0
 1091 0044 FA88     		ldrh	r2, [r7, #6]
 1092 0046 40F20003 		movw	r3, #:lower16:ADC_SAR_2_offset
 1093 004a C0F20003 		movt	r3, #:upper16:ADC_SAR_2_offset
 1094 004e 1B88     		ldrh	r3, [r3, #0]	@ movhi
 1095 0050 9BB2     		uxth	r3, r3
 1096 0052 9BB2     		uxth	r3, r3
 1097 0054 D31A     		subs	r3, r2, r3
 1098 0056 9BB2     		uxth	r3, r3
 1099 0058 FB80     		strh	r3, [r7, #6]	@ movhi
 799:.\Generated_Source\PSoC5/ADC_SAR_2.c ****     /* To convert adcCounts to microVolts it is required to be multiplied
 800:.\Generated_Source\PSoC5/ADC_SAR_2.c ****     *  on 10 million and later divide on gain in counts per 10V.
 801:.\Generated_Source\PSoC5/ADC_SAR_2.c ****     */
 802:.\Generated_Source\PSoC5/ADC_SAR_2.c ****     uVolts = (( (int64)adcCounts * ADC_SAR_2_10UV_COUNTS ) / countsPer10Volt);
 1100              		.loc 1 802 0
 1101 005a B7F90620 		ldrsh	r2, [r7, #6]
 1102 005e 4FEAE273 		asr	r3, r2, #31
 1103 0062 49F28061 		movw	r1, #38528
 1104 0066 C0F29801 		movt	r1, 152
 1105 006a 01FB03F0 		mul	r0, r1, r3
 1106 006e 4FF00001 		mov	r1, #0
 1107 0072 01FB02F1 		mul	r1, r1, r2
 1108 0076 4418     		adds	r4, r0, r1
 1109 0078 49F28061 		movw	r1, #38528
 1110 007c C0F29801 		movt	r1, 152
 1111 0080 A2FB0101 		umull	r0, r1, r2, r1
 1112 0084 6318     		adds	r3, r4, r1
 1113 0086 1946     		mov	r1, r3
 1114 0088 7C69     		ldr	r4, [r7, #20]
 1115 008a 2246     		mov	r2, r4
 1116 008c 4FEAE273 		asr	r3, r2, #31
 1117 0090 FFF7FEFF 		bl	__aeabi_ldivmod
 1118 0094 0246     		mov	r2, r0
 1119 0096 0B46     		mov	r3, r1
 1120 0098 C7E90223 		strd	r2, [r7, #8]
 803:.\Generated_Source\PSoC5/ADC_SAR_2.c **** 
 804:.\Generated_Source\PSoC5/ADC_SAR_2.c ****     return( uVolts );
 1121              		.loc 1 804 0
 1122 009c BB68     		ldr	r3, [r7, #8]
 805:.\Generated_Source\PSoC5/ADC_SAR_2.c **** }
 1123              		.loc 1 805 0
 1124 009e 1846     		mov	r0, r3
 1125 00a0 07F11C07 		add	r7, r7, #28
 1126 00a4 BD46     		mov	sp, r7
 1127 00a6 90BD     		pop	{r4, r7, pc}
 1128              		.cfi_endproc
 1129              	.LFE16:
 1130              		.size	ADC_SAR_2_CountsTo_uVolts, .-ADC_SAR_2_CountsTo_uVolts
ARM GAS  C:\Users\Robert\AppData\Local\Temp\cczxa6fy.s 			page 35


 1131              		.global	__aeabi_i2f
 1132              		.global	__aeabi_fmul
 1133              		.global	__aeabi_fdiv
 1134              		.section	.text.ADC_SAR_2_CountsTo_Volts,"ax",%progbits
 1135              		.align	2
 1136              		.global	ADC_SAR_2_CountsTo_Volts
 1137              		.thumb
 1138              		.thumb_func
 1139              		.type	ADC_SAR_2_CountsTo_Volts, %function
 1140              	ADC_SAR_2_CountsTo_Volts:
 1141              	.LFB17:
 806:.\Generated_Source\PSoC5/ADC_SAR_2.c **** 
 807:.\Generated_Source\PSoC5/ADC_SAR_2.c **** 
 808:.\Generated_Source\PSoC5/ADC_SAR_2.c **** /*******************************************************************************
 809:.\Generated_Source\PSoC5/ADC_SAR_2.c **** * Function Name: ADC_SAR_2_CountsTo_Volts
 810:.\Generated_Source\PSoC5/ADC_SAR_2.c **** ********************************************************************************
 811:.\Generated_Source\PSoC5/ADC_SAR_2.c **** *
 812:.\Generated_Source\PSoC5/ADC_SAR_2.c **** * Summary:
 813:.\Generated_Source\PSoC5/ADC_SAR_2.c **** *  Converts the ADC output to volts as a floating-point number.
 814:.\Generated_Source\PSoC5/ADC_SAR_2.c **** *
 815:.\Generated_Source\PSoC5/ADC_SAR_2.c **** * Parameters:
 816:.\Generated_Source\PSoC5/ADC_SAR_2.c **** *  int16 adcCounts: Result from the ADC conversion
 817:.\Generated_Source\PSoC5/ADC_SAR_2.c **** *
 818:.\Generated_Source\PSoC5/ADC_SAR_2.c **** * Return:
 819:.\Generated_Source\PSoC5/ADC_SAR_2.c **** *  float Result in Volts
 820:.\Generated_Source\PSoC5/ADC_SAR_2.c **** *
 821:.\Generated_Source\PSoC5/ADC_SAR_2.c **** * Global Variables:
 822:.\Generated_Source\PSoC5/ADC_SAR_2.c **** *  ADC_SAR_2_offset variable used.
 823:.\Generated_Source\PSoC5/ADC_SAR_2.c **** *  ADC_SAR_2_countsPer10Volt used to convert ADC counts to Volts.
 824:.\Generated_Source\PSoC5/ADC_SAR_2.c **** *
 825:.\Generated_Source\PSoC5/ADC_SAR_2.c **** *******************************************************************************/
 826:.\Generated_Source\PSoC5/ADC_SAR_2.c **** float32 ADC_SAR_2_CountsTo_Volts(int16 adcCounts)
 827:.\Generated_Source\PSoC5/ADC_SAR_2.c **** {
 1142              		.loc 1 827 0
 1143              		.cfi_startproc
 1144              		@ args = 0, pretend = 0, frame = 16
 1145              		@ frame_needed = 1, uses_anonymous_args = 0
 1146 0000 90B5     		push	{r4, r7, lr}
 1147              	.LCFI46:
 1148              		.cfi_def_cfa_offset 12
 1149              		.cfi_offset 4, -12
 1150              		.cfi_offset 7, -8
 1151              		.cfi_offset 14, -4
 1152 0002 85B0     		sub	sp, sp, #20
 1153              	.LCFI47:
 1154              		.cfi_def_cfa_offset 32
 1155 0004 00AF     		add	r7, sp, #0
 1156              	.LCFI48:
 1157              		.cfi_def_cfa_register 7
 1158 0006 0346     		mov	r3, r0
 1159 0008 FB80     		strh	r3, [r7, #6]	@ movhi
 828:.\Generated_Source\PSoC5/ADC_SAR_2.c ****     float32 volts;
 829:.\Generated_Source\PSoC5/ADC_SAR_2.c ****     int32 countsPer10Volt;
 830:.\Generated_Source\PSoC5/ADC_SAR_2.c **** 
 831:.\Generated_Source\PSoC5/ADC_SAR_2.c ****     if(ADC_SAR_2_countsPerVolt != 0)
 1160              		.loc 1 831 0
 1161 000a 40F20003 		movw	r3, #:lower16:ADC_SAR_2_countsPerVolt
ARM GAS  C:\Users\Robert\AppData\Local\Temp\cczxa6fy.s 			page 36


 1162 000e C0F20003 		movt	r3, #:upper16:ADC_SAR_2_countsPerVolt
 1163 0012 1B88     		ldrh	r3, [r3, #0]	@ movhi
 1164 0014 9BB2     		uxth	r3, r3
 1165 0016 002B     		cmp	r3, #0
 1166 0018 0ED0     		beq	.L46
 832:.\Generated_Source\PSoC5/ADC_SAR_2.c ****     {   /* Support obsolete method */
 833:.\Generated_Source\PSoC5/ADC_SAR_2.c ****         countsPer10Volt = (int32)ADC_SAR_2_countsPerVolt * 10;
 1167              		.loc 1 833 0
 1168 001a 40F20003 		movw	r3, #:lower16:ADC_SAR_2_countsPerVolt
 1169 001e C0F20003 		movt	r3, #:upper16:ADC_SAR_2_countsPerVolt
 1170 0022 1B88     		ldrh	r3, [r3, #0]	@ movhi
 1171 0024 9BB2     		uxth	r3, r3
 1172 0026 1AB2     		sxth	r2, r3
 1173 0028 1346     		mov	r3, r2
 1174 002a 4FEA8303 		lsl	r3, r3, #2
 1175 002e 9B18     		adds	r3, r3, r2
 1176 0030 4FEA4303 		lsl	r3, r3, #1
 1177 0034 FB60     		str	r3, [r7, #12]
 1178 0036 05E0     		b	.L47
 1179              	.L46:
 834:.\Generated_Source\PSoC5/ADC_SAR_2.c ****     }
 835:.\Generated_Source\PSoC5/ADC_SAR_2.c ****     else
 836:.\Generated_Source\PSoC5/ADC_SAR_2.c ****     {
 837:.\Generated_Source\PSoC5/ADC_SAR_2.c ****         countsPer10Volt = ADC_SAR_2_countsPer10Volt;
 1180              		.loc 1 837 0
 1181 0038 40F20003 		movw	r3, #:lower16:ADC_SAR_2_countsPer10Volt
 1182 003c C0F20003 		movt	r3, #:upper16:ADC_SAR_2_countsPer10Volt
 1183 0040 1B68     		ldr	r3, [r3, #0]
 1184 0042 FB60     		str	r3, [r7, #12]
 1185              	.L47:
 838:.\Generated_Source\PSoC5/ADC_SAR_2.c ****     }
 839:.\Generated_Source\PSoC5/ADC_SAR_2.c **** 
 840:.\Generated_Source\PSoC5/ADC_SAR_2.c ****     /* Subtract ADC offset */
 841:.\Generated_Source\PSoC5/ADC_SAR_2.c ****     adcCounts -= ADC_SAR_2_offset;
 1186              		.loc 1 841 0
 1187 0044 FA88     		ldrh	r2, [r7, #6]
 1188 0046 40F20003 		movw	r3, #:lower16:ADC_SAR_2_offset
 1189 004a C0F20003 		movt	r3, #:upper16:ADC_SAR_2_offset
 1190 004e 1B88     		ldrh	r3, [r3, #0]	@ movhi
 1191 0050 9BB2     		uxth	r3, r3
 1192 0052 9BB2     		uxth	r3, r3
 1193 0054 D31A     		subs	r3, r2, r3
 1194 0056 9BB2     		uxth	r3, r3
 1195 0058 FB80     		strh	r3, [r7, #6]	@ movhi
 842:.\Generated_Source\PSoC5/ADC_SAR_2.c **** 
 843:.\Generated_Source\PSoC5/ADC_SAR_2.c ****     volts = ((float32)adcCounts * ADC_SAR_2_10V_COUNTS) / (float32)countsPer10Volt;
 1196              		.loc 1 843 0
 1197 005a B7F90630 		ldrsh	r3, [r7, #6]
 1198 005e 1846     		mov	r0, r3
 1199 0060 FFF7FEFF 		bl	__aeabi_i2f
 1200 0064 0346     		mov	r3, r0
 1201 0066 1846     		mov	r0, r3
 1202 0068 4FF00001 		mov	r1, #0
 1203 006c C4F22011 		movt	r1, 16672
 1204 0070 FFF7FEFF 		bl	__aeabi_fmul
 1205 0074 0346     		mov	r3, r0
 1206 0076 1C46     		mov	r4, r3
ARM GAS  C:\Users\Robert\AppData\Local\Temp\cczxa6fy.s 			page 37


 1207 0078 F868     		ldr	r0, [r7, #12]
 1208 007a FFF7FEFF 		bl	__aeabi_i2f
 1209 007e 0346     		mov	r3, r0
 1210 0080 2046     		mov	r0, r4
 1211 0082 1946     		mov	r1, r3
 1212 0084 FFF7FEFF 		bl	__aeabi_fdiv
 1213 0088 0346     		mov	r3, r0
 1214 008a BB60     		str	r3, [r7, #8]	@ float
 844:.\Generated_Source\PSoC5/ADC_SAR_2.c **** 
 845:.\Generated_Source\PSoC5/ADC_SAR_2.c ****     return( volts );
 1215              		.loc 1 845 0
 1216 008c BB68     		ldr	r3, [r7, #8]	@ float
 846:.\Generated_Source\PSoC5/ADC_SAR_2.c **** }
 1217              		.loc 1 846 0
 1218 008e 1846     		mov	r0, r3
 1219 0090 07F11407 		add	r7, r7, #20
 1220 0094 BD46     		mov	sp, r7
 1221 0096 90BD     		pop	{r4, r7, pc}
 1222              		.cfi_endproc
 1223              	.LFE17:
 1224              		.size	ADC_SAR_2_CountsTo_Volts, .-ADC_SAR_2_CountsTo_Volts
 1225              		.text
 1226              	.Letext0:
 1227              		.file 2 ".\\Generated_Source\\PSoC5\\cytypes.h"