ARM GAS  C:\Users\Brian\AppData\Local\Temp\ccLHNPxG.s 			page 1


   1              		.syntax unified
   2              		.cpu cortex-m3
   3              		.fpu softvfp
   4              		.eabi_attribute 20, 1
   5              		.eabi_attribute 21, 1
   6              		.eabi_attribute 23, 3
   7              		.eabi_attribute 24, 1
   8              		.eabi_attribute 25, 1
   9              		.eabi_attribute 26, 1
  10              		.eabi_attribute 30, 6
  11              		.eabi_attribute 34, 1
  12              		.eabi_attribute 18, 4
  13              		.thumb
  14              		.file	"ADC_SAR_1_theACLK.c"
  15              		.text
  16              	.Ltext0:
  17              		.cfi_sections	.debug_frame
  18              		.section	.text.ADC_SAR_1_theACLK_Start,"ax",%progbits
  19              		.align	2
  20              		.global	ADC_SAR_1_theACLK_Start
  21              		.thumb
  22              		.thumb_func
  23              		.type	ADC_SAR_1_theACLK_Start, %function
  24              	ADC_SAR_1_theACLK_Start:
  25              	.LFB0:
  26              		.file 1 ".\\Generated_Source\\PSoC5\\ADC_SAR_1_theACLK.c"
   1:.\Generated_Source\PSoC5/ADC_SAR_1_theACLK.c **** /*******************************************************************************
   2:.\Generated_Source\PSoC5/ADC_SAR_1_theACLK.c **** * File Name: ADC_SAR_1_theACLK.c
   3:.\Generated_Source\PSoC5/ADC_SAR_1_theACLK.c **** * Version 2.20
   4:.\Generated_Source\PSoC5/ADC_SAR_1_theACLK.c **** *
   5:.\Generated_Source\PSoC5/ADC_SAR_1_theACLK.c **** *  Description:
   6:.\Generated_Source\PSoC5/ADC_SAR_1_theACLK.c **** *   This file provides the source code to the API for the clock component.
   7:.\Generated_Source\PSoC5/ADC_SAR_1_theACLK.c **** *
   8:.\Generated_Source\PSoC5/ADC_SAR_1_theACLK.c **** *  Note:
   9:.\Generated_Source\PSoC5/ADC_SAR_1_theACLK.c **** *
  10:.\Generated_Source\PSoC5/ADC_SAR_1_theACLK.c **** ********************************************************************************
  11:.\Generated_Source\PSoC5/ADC_SAR_1_theACLK.c **** * Copyright 2008-2012, Cypress Semiconductor Corporation.  All rights reserved.
  12:.\Generated_Source\PSoC5/ADC_SAR_1_theACLK.c **** * You may use this file only in accordance with the license, terms, conditions, 
  13:.\Generated_Source\PSoC5/ADC_SAR_1_theACLK.c **** * disclaimers, and limitations in the end user license agreement accompanying 
  14:.\Generated_Source\PSoC5/ADC_SAR_1_theACLK.c **** * the software package with which this file was provided.
  15:.\Generated_Source\PSoC5/ADC_SAR_1_theACLK.c **** *******************************************************************************/
  16:.\Generated_Source\PSoC5/ADC_SAR_1_theACLK.c **** 
  17:.\Generated_Source\PSoC5/ADC_SAR_1_theACLK.c **** #include <cydevice_trm.h>
  18:.\Generated_Source\PSoC5/ADC_SAR_1_theACLK.c **** #include "ADC_SAR_1_theACLK.h"
  19:.\Generated_Source\PSoC5/ADC_SAR_1_theACLK.c **** 
  20:.\Generated_Source\PSoC5/ADC_SAR_1_theACLK.c **** /* Clock Distribution registers. */
  21:.\Generated_Source\PSoC5/ADC_SAR_1_theACLK.c **** #define CLK_DIST_LD              (* (reg8 *) CYREG_CLKDIST_LD)
  22:.\Generated_Source\PSoC5/ADC_SAR_1_theACLK.c **** #define CLK_DIST_BCFG2           (* (reg8 *) CYREG_CLKDIST_BCFG2)
  23:.\Generated_Source\PSoC5/ADC_SAR_1_theACLK.c **** #define BCFG2_MASK               (0x80u)
  24:.\Generated_Source\PSoC5/ADC_SAR_1_theACLK.c **** #define CLK_DIST_DMASK           (* (reg8 *) CYREG_CLKDIST_DMASK)
  25:.\Generated_Source\PSoC5/ADC_SAR_1_theACLK.c **** #define CLK_DIST_AMASK           (* (reg8 *) CYREG_CLKDIST_AMASK)
  26:.\Generated_Source\PSoC5/ADC_SAR_1_theACLK.c **** 
  27:.\Generated_Source\PSoC5/ADC_SAR_1_theACLK.c **** #define HAS_CLKDIST_LD_DISABLE   (CY_PSOC3 || CY_PSOC5LP)
  28:.\Generated_Source\PSoC5/ADC_SAR_1_theACLK.c **** 
  29:.\Generated_Source\PSoC5/ADC_SAR_1_theACLK.c **** 
  30:.\Generated_Source\PSoC5/ADC_SAR_1_theACLK.c **** /*******************************************************************************
  31:.\Generated_Source\PSoC5/ADC_SAR_1_theACLK.c **** * Function Name: ADC_SAR_1_theACLK_Start
ARM GAS  C:\Users\Brian\AppData\Local\Temp\ccLHNPxG.s 			page 2


  32:.\Generated_Source\PSoC5/ADC_SAR_1_theACLK.c **** ********************************************************************************
  33:.\Generated_Source\PSoC5/ADC_SAR_1_theACLK.c **** *
  34:.\Generated_Source\PSoC5/ADC_SAR_1_theACLK.c **** * Summary:
  35:.\Generated_Source\PSoC5/ADC_SAR_1_theACLK.c **** *  Starts the clock. Note that on startup, clocks may be already running if the
  36:.\Generated_Source\PSoC5/ADC_SAR_1_theACLK.c **** *  "Start on Reset" option is enabled in the DWR.
  37:.\Generated_Source\PSoC5/ADC_SAR_1_theACLK.c **** *
  38:.\Generated_Source\PSoC5/ADC_SAR_1_theACLK.c **** * Parameters:
  39:.\Generated_Source\PSoC5/ADC_SAR_1_theACLK.c **** *  None
  40:.\Generated_Source\PSoC5/ADC_SAR_1_theACLK.c **** *
  41:.\Generated_Source\PSoC5/ADC_SAR_1_theACLK.c **** * Returns:
  42:.\Generated_Source\PSoC5/ADC_SAR_1_theACLK.c **** *  None
  43:.\Generated_Source\PSoC5/ADC_SAR_1_theACLK.c **** *
  44:.\Generated_Source\PSoC5/ADC_SAR_1_theACLK.c **** *******************************************************************************/
  45:.\Generated_Source\PSoC5/ADC_SAR_1_theACLK.c **** void ADC_SAR_1_theACLK_Start(void) 
  46:.\Generated_Source\PSoC5/ADC_SAR_1_theACLK.c **** {
  27              		.loc 1 46 0
  28              		.cfi_startproc
  29              		@ args = 0, pretend = 0, frame = 0
  30              		@ frame_needed = 1, uses_anonymous_args = 0
  31              		@ link register save eliminated.
  32 0000 80B4     		push	{r7}
  33              	.LCFI0:
  34              		.cfi_def_cfa_offset 4
  35              		.cfi_offset 7, -4
  36 0002 00AF     		add	r7, sp, #0
  37              	.LCFI1:
  38              		.cfi_def_cfa_register 7
  47:.\Generated_Source\PSoC5/ADC_SAR_1_theACLK.c ****     /* Set the bit to enable the clock. */
  48:.\Generated_Source\PSoC5/ADC_SAR_1_theACLK.c ****     ADC_SAR_1_theACLK_CLKEN |= ADC_SAR_1_theACLK_CLKEN_MASK;
  39              		.loc 1 48 0
  40 0004 44F2A133 		movw	r3, #17313
  41 0008 C4F20003 		movt	r3, 16384
  42 000c 44F2A132 		movw	r2, #17313
  43 0010 C4F20002 		movt	r2, 16384
  44 0014 1278     		ldrb	r2, [r2, #0]
  45 0016 D2B2     		uxtb	r2, r2
  46 0018 42F00402 		orr	r2, r2, #4
  47 001c D2B2     		uxtb	r2, r2
  48 001e 1A70     		strb	r2, [r3, #0]
  49:.\Generated_Source\PSoC5/ADC_SAR_1_theACLK.c **** 	ADC_SAR_1_theACLK_CLKSTBY |= ADC_SAR_1_theACLK_CLKSTBY_MASK;
  49              		.loc 1 49 0
  50 0020 44F2B133 		movw	r3, #17329
  51 0024 C4F20003 		movt	r3, 16384
  52 0028 44F2B132 		movw	r2, #17329
  53 002c C4F20002 		movt	r2, 16384
  54 0030 1278     		ldrb	r2, [r2, #0]
  55 0032 D2B2     		uxtb	r2, r2
  56 0034 42F00402 		orr	r2, r2, #4
  57 0038 D2B2     		uxtb	r2, r2
  58 003a 1A70     		strb	r2, [r3, #0]
  50:.\Generated_Source\PSoC5/ADC_SAR_1_theACLK.c **** }
  59              		.loc 1 50 0
  60 003c BD46     		mov	sp, r7
  61 003e 80BC     		pop	{r7}
  62 0040 7047     		bx	lr
  63              		.cfi_endproc
  64              	.LFE0:
ARM GAS  C:\Users\Brian\AppData\Local\Temp\ccLHNPxG.s 			page 3


  65              		.size	ADC_SAR_1_theACLK_Start, .-ADC_SAR_1_theACLK_Start
  66 0042 00BF     		.section	.text.ADC_SAR_1_theACLK_Stop,"ax",%progbits
  67              		.align	2
  68              		.global	ADC_SAR_1_theACLK_Stop
  69              		.thumb
  70              		.thumb_func
  71              		.type	ADC_SAR_1_theACLK_Stop, %function
  72              	ADC_SAR_1_theACLK_Stop:
  73              	.LFB1:
  51:.\Generated_Source\PSoC5/ADC_SAR_1_theACLK.c **** 
  52:.\Generated_Source\PSoC5/ADC_SAR_1_theACLK.c **** 
  53:.\Generated_Source\PSoC5/ADC_SAR_1_theACLK.c **** /*******************************************************************************
  54:.\Generated_Source\PSoC5/ADC_SAR_1_theACLK.c **** * Function Name: ADC_SAR_1_theACLK_Stop
  55:.\Generated_Source\PSoC5/ADC_SAR_1_theACLK.c **** ********************************************************************************
  56:.\Generated_Source\PSoC5/ADC_SAR_1_theACLK.c **** *
  57:.\Generated_Source\PSoC5/ADC_SAR_1_theACLK.c **** * Summary:
  58:.\Generated_Source\PSoC5/ADC_SAR_1_theACLK.c **** *  Stops the clock and returns immediately. This API does not require the
  59:.\Generated_Source\PSoC5/ADC_SAR_1_theACLK.c **** *  source clock to be running but may return before the hardware is actually
  60:.\Generated_Source\PSoC5/ADC_SAR_1_theACLK.c **** *  disabled. If the settings of the clock are changed after calling this
  61:.\Generated_Source\PSoC5/ADC_SAR_1_theACLK.c **** *  function, the clock may glitch when it is started. To avoid the clock
  62:.\Generated_Source\PSoC5/ADC_SAR_1_theACLK.c **** *  glitch, use the StopBlock function.
  63:.\Generated_Source\PSoC5/ADC_SAR_1_theACLK.c **** *
  64:.\Generated_Source\PSoC5/ADC_SAR_1_theACLK.c **** * Parameters:
  65:.\Generated_Source\PSoC5/ADC_SAR_1_theACLK.c **** *  None
  66:.\Generated_Source\PSoC5/ADC_SAR_1_theACLK.c **** *
  67:.\Generated_Source\PSoC5/ADC_SAR_1_theACLK.c **** * Returns:
  68:.\Generated_Source\PSoC5/ADC_SAR_1_theACLK.c **** *  None
  69:.\Generated_Source\PSoC5/ADC_SAR_1_theACLK.c **** *
  70:.\Generated_Source\PSoC5/ADC_SAR_1_theACLK.c **** *******************************************************************************/
  71:.\Generated_Source\PSoC5/ADC_SAR_1_theACLK.c **** void ADC_SAR_1_theACLK_Stop(void) 
  72:.\Generated_Source\PSoC5/ADC_SAR_1_theACLK.c **** {
  74              		.loc 1 72 0
  75              		.cfi_startproc
  76              		@ args = 0, pretend = 0, frame = 0
  77              		@ frame_needed = 1, uses_anonymous_args = 0
  78              		@ link register save eliminated.
  79 0000 80B4     		push	{r7}
  80              	.LCFI2:
  81              		.cfi_def_cfa_offset 4
  82              		.cfi_offset 7, -4
  83 0002 00AF     		add	r7, sp, #0
  84              	.LCFI3:
  85              		.cfi_def_cfa_register 7
  73:.\Generated_Source\PSoC5/ADC_SAR_1_theACLK.c ****     /* Clear the bit to disable the clock. */
  74:.\Generated_Source\PSoC5/ADC_SAR_1_theACLK.c ****     ADC_SAR_1_theACLK_CLKEN &= (uint8)(~ADC_SAR_1_theACLK_CLKEN_MASK);
  86              		.loc 1 74 0
  87 0004 44F2A133 		movw	r3, #17313
  88 0008 C4F20003 		movt	r3, 16384
  89 000c 44F2A132 		movw	r2, #17313
  90 0010 C4F20002 		movt	r2, 16384
  91 0014 1278     		ldrb	r2, [r2, #0]
  92 0016 D2B2     		uxtb	r2, r2
  93 0018 22F00402 		bic	r2, r2, #4
  94 001c D2B2     		uxtb	r2, r2
  95 001e 1A70     		strb	r2, [r3, #0]
  75:.\Generated_Source\PSoC5/ADC_SAR_1_theACLK.c **** 	ADC_SAR_1_theACLK_CLKSTBY &= (uint8)(~ADC_SAR_1_theACLK_CLKSTBY_MASK);
  96              		.loc 1 75 0
ARM GAS  C:\Users\Brian\AppData\Local\Temp\ccLHNPxG.s 			page 4


  97 0020 44F2B133 		movw	r3, #17329
  98 0024 C4F20003 		movt	r3, 16384
  99 0028 44F2B132 		movw	r2, #17329
 100 002c C4F20002 		movt	r2, 16384
 101 0030 1278     		ldrb	r2, [r2, #0]
 102 0032 D2B2     		uxtb	r2, r2
 103 0034 22F00402 		bic	r2, r2, #4
 104 0038 D2B2     		uxtb	r2, r2
 105 003a 1A70     		strb	r2, [r3, #0]
  76:.\Generated_Source\PSoC5/ADC_SAR_1_theACLK.c **** }
 106              		.loc 1 76 0
 107 003c BD46     		mov	sp, r7
 108 003e 80BC     		pop	{r7}
 109 0040 7047     		bx	lr
 110              		.cfi_endproc
 111              	.LFE1:
 112              		.size	ADC_SAR_1_theACLK_Stop, .-ADC_SAR_1_theACLK_Stop
 113 0042 00BF     		.section	.text.ADC_SAR_1_theACLK_StopBlock,"ax",%progbits
 114              		.align	2
 115              		.global	ADC_SAR_1_theACLK_StopBlock
 116              		.thumb
 117              		.thumb_func
 118              		.type	ADC_SAR_1_theACLK_StopBlock, %function
 119              	ADC_SAR_1_theACLK_StopBlock:
 120              	.LFB2:
  77:.\Generated_Source\PSoC5/ADC_SAR_1_theACLK.c **** 
  78:.\Generated_Source\PSoC5/ADC_SAR_1_theACLK.c **** 
  79:.\Generated_Source\PSoC5/ADC_SAR_1_theACLK.c **** #if(CY_PSOC3 || CY_PSOC5LP)
  80:.\Generated_Source\PSoC5/ADC_SAR_1_theACLK.c **** 
  81:.\Generated_Source\PSoC5/ADC_SAR_1_theACLK.c **** 
  82:.\Generated_Source\PSoC5/ADC_SAR_1_theACLK.c **** /*******************************************************************************
  83:.\Generated_Source\PSoC5/ADC_SAR_1_theACLK.c **** * Function Name: ADC_SAR_1_theACLK_StopBlock
  84:.\Generated_Source\PSoC5/ADC_SAR_1_theACLK.c **** ********************************************************************************
  85:.\Generated_Source\PSoC5/ADC_SAR_1_theACLK.c **** *
  86:.\Generated_Source\PSoC5/ADC_SAR_1_theACLK.c **** * Summary:
  87:.\Generated_Source\PSoC5/ADC_SAR_1_theACLK.c **** *  Stops the clock and waits for the hardware to actually be disabled before
  88:.\Generated_Source\PSoC5/ADC_SAR_1_theACLK.c **** *  returning. This ensures that the clock is never truncated (high part of the
  89:.\Generated_Source\PSoC5/ADC_SAR_1_theACLK.c **** *  cycle will terminate before the clock is disabled and the API returns).
  90:.\Generated_Source\PSoC5/ADC_SAR_1_theACLK.c **** *  Note that the source clock must be running or this API will never return as
  91:.\Generated_Source\PSoC5/ADC_SAR_1_theACLK.c **** *  a stopped clock cannot be disabled.
  92:.\Generated_Source\PSoC5/ADC_SAR_1_theACLK.c **** *
  93:.\Generated_Source\PSoC5/ADC_SAR_1_theACLK.c **** * Parameters:
  94:.\Generated_Source\PSoC5/ADC_SAR_1_theACLK.c **** *  None
  95:.\Generated_Source\PSoC5/ADC_SAR_1_theACLK.c **** *
  96:.\Generated_Source\PSoC5/ADC_SAR_1_theACLK.c **** * Returns:
  97:.\Generated_Source\PSoC5/ADC_SAR_1_theACLK.c **** *  None
  98:.\Generated_Source\PSoC5/ADC_SAR_1_theACLK.c **** *
  99:.\Generated_Source\PSoC5/ADC_SAR_1_theACLK.c **** *******************************************************************************/
 100:.\Generated_Source\PSoC5/ADC_SAR_1_theACLK.c **** void ADC_SAR_1_theACLK_StopBlock(void) 
 101:.\Generated_Source\PSoC5/ADC_SAR_1_theACLK.c **** {
 121              		.loc 1 101 0
 122              		.cfi_startproc
 123              		@ args = 0, pretend = 0, frame = 8
 124              		@ frame_needed = 1, uses_anonymous_args = 0
 125              		@ link register save eliminated.
 126 0000 80B4     		push	{r7}
 127              	.LCFI4:
ARM GAS  C:\Users\Brian\AppData\Local\Temp\ccLHNPxG.s 			page 5


 128              		.cfi_def_cfa_offset 4
 129              		.cfi_offset 7, -4
 130 0002 83B0     		sub	sp, sp, #12
 131              	.LCFI5:
 132              		.cfi_def_cfa_offset 16
 133 0004 00AF     		add	r7, sp, #0
 134              	.LCFI6:
 135              		.cfi_def_cfa_register 7
 102:.\Generated_Source\PSoC5/ADC_SAR_1_theACLK.c ****     if ((ADC_SAR_1_theACLK_CLKEN & ADC_SAR_1_theACLK_CLKEN_MASK) != 0u)
 136              		.loc 1 102 0
 137 0006 44F2A133 		movw	r3, #17313
 138 000a C4F20003 		movt	r3, 16384
 139 000e 1B78     		ldrb	r3, [r3, #0]
 140 0010 DBB2     		uxtb	r3, r3
 141 0012 03F00403 		and	r3, r3, #4
 142 0016 002B     		cmp	r3, #0
 143 0018 69D0     		beq	.L3
 144              	.LBB2:
 103:.\Generated_Source\PSoC5/ADC_SAR_1_theACLK.c ****     {
 104:.\Generated_Source\PSoC5/ADC_SAR_1_theACLK.c **** #if HAS_CLKDIST_LD_DISABLE
 105:.\Generated_Source\PSoC5/ADC_SAR_1_theACLK.c ****         uint16 oldDivider;
 106:.\Generated_Source\PSoC5/ADC_SAR_1_theACLK.c **** 
 107:.\Generated_Source\PSoC5/ADC_SAR_1_theACLK.c ****         CLK_DIST_LD = 0u;
 145              		.loc 1 107 0
 146 001a 44F20103 		movw	r3, #16385
 147 001e C4F20003 		movt	r3, 16384
 148 0022 4FF00002 		mov	r2, #0
 149 0026 1A70     		strb	r2, [r3, #0]
 108:.\Generated_Source\PSoC5/ADC_SAR_1_theACLK.c **** 
 109:.\Generated_Source\PSoC5/ADC_SAR_1_theACLK.c ****         /* Clear all the mask bits except ours. */
 110:.\Generated_Source\PSoC5/ADC_SAR_1_theACLK.c **** #if defined(ADC_SAR_1_theACLK__CFG3)
 111:.\Generated_Source\PSoC5/ADC_SAR_1_theACLK.c ****         CLK_DIST_AMASK = ADC_SAR_1_theACLK_CLKEN_MASK;
 150              		.loc 1 111 0
 151 0028 44F21403 		movw	r3, #16404
 152 002c C4F20003 		movt	r3, 16384
 153 0030 4FF00402 		mov	r2, #4
 154 0034 1A70     		strb	r2, [r3, #0]
 112:.\Generated_Source\PSoC5/ADC_SAR_1_theACLK.c ****         CLK_DIST_DMASK = 0x00u;
 155              		.loc 1 112 0
 156 0036 44F21003 		movw	r3, #16400
 157 003a C4F20003 		movt	r3, 16384
 158 003e 4FF00002 		mov	r2, #0
 159 0042 1A70     		strb	r2, [r3, #0]
 113:.\Generated_Source\PSoC5/ADC_SAR_1_theACLK.c **** #else
 114:.\Generated_Source\PSoC5/ADC_SAR_1_theACLK.c ****         CLK_DIST_DMASK = ADC_SAR_1_theACLK_CLKEN_MASK;
 115:.\Generated_Source\PSoC5/ADC_SAR_1_theACLK.c ****         CLK_DIST_AMASK = 0x00u;
 116:.\Generated_Source\PSoC5/ADC_SAR_1_theACLK.c **** #endif /* ADC_SAR_1_theACLK__CFG3 */
 117:.\Generated_Source\PSoC5/ADC_SAR_1_theACLK.c **** 
 118:.\Generated_Source\PSoC5/ADC_SAR_1_theACLK.c ****         /* Clear mask of bus clock. */
 119:.\Generated_Source\PSoC5/ADC_SAR_1_theACLK.c ****         CLK_DIST_BCFG2 &= (uint8)(~BCFG2_MASK);
 160              		.loc 1 119 0
 161 0044 44F20803 		movw	r3, #16392
 162 0048 C4F20003 		movt	r3, 16384
 163 004c 44F20802 		movw	r2, #16392
 164 0050 C4F20002 		movt	r2, 16384
 165 0054 1278     		ldrb	r2, [r2, #0]
 166 0056 D2B2     		uxtb	r2, r2
ARM GAS  C:\Users\Brian\AppData\Local\Temp\ccLHNPxG.s 			page 6


 167 0058 02F07F02 		and	r2, r2, #127
 168 005c D2B2     		uxtb	r2, r2
 169 005e 1A70     		strb	r2, [r3, #0]
 120:.\Generated_Source\PSoC5/ADC_SAR_1_theACLK.c **** 
 121:.\Generated_Source\PSoC5/ADC_SAR_1_theACLK.c ****         oldDivider = CY_GET_REG16(ADC_SAR_1_theACLK_DIV_PTR);
 170              		.loc 1 121 0
 171 0060 44F20813 		movw	r3, #16648
 172 0064 C4F20003 		movt	r3, 16384
 173 0068 1B88     		ldrh	r3, [r3, #0]	@ movhi
 174 006a FB80     		strh	r3, [r7, #6]	@ movhi
 122:.\Generated_Source\PSoC5/ADC_SAR_1_theACLK.c ****         CY_SET_REG16(CYREG_CLKDIST_WRK0, oldDivider);
 175              		.loc 1 122 0
 176 006c 44F20203 		movw	r3, #16386
 177 0070 C4F20003 		movt	r3, 16384
 178 0074 FA88     		ldrh	r2, [r7, #6]	@ movhi
 179 0076 1A80     		strh	r2, [r3, #0]	@ movhi
 123:.\Generated_Source\PSoC5/ADC_SAR_1_theACLK.c ****         CLK_DIST_LD = CYCLK_LD_DISABLE | CYCLK_LD_SYNC_EN | CYCLK_LD_LOAD;
 180              		.loc 1 123 0
 181 0078 44F20103 		movw	r3, #16385
 182 007c C4F20003 		movt	r3, 16384
 183 0080 4FF00702 		mov	r2, #7
 184 0084 1A70     		strb	r2, [r3, #0]
 124:.\Generated_Source\PSoC5/ADC_SAR_1_theACLK.c **** 
 125:.\Generated_Source\PSoC5/ADC_SAR_1_theACLK.c ****         /* Wait for clock to be disabled */
 126:.\Generated_Source\PSoC5/ADC_SAR_1_theACLK.c ****         while ((CLK_DIST_LD & CYCLK_LD_LOAD) != 0u) { }
 185              		.loc 1 126 0
 186 0086 00BF     		nop
 187              	.L5:
 188              		.loc 1 126 0 is_stmt 0 discriminator 1
 189 0088 44F20103 		movw	r3, #16385
 190 008c C4F20003 		movt	r3, 16384
 191 0090 1B78     		ldrb	r3, [r3, #0]
 192 0092 DBB2     		uxtb	r3, r3
 193 0094 03F00103 		and	r3, r3, #1
 194 0098 002B     		cmp	r3, #0
 195 009a F5D1     		bne	.L5
 127:.\Generated_Source\PSoC5/ADC_SAR_1_theACLK.c **** #endif /* HAS_CLKDIST_LD_DISABLE */
 128:.\Generated_Source\PSoC5/ADC_SAR_1_theACLK.c **** 
 129:.\Generated_Source\PSoC5/ADC_SAR_1_theACLK.c ****         /* Clear the bit to disable the clock. */
 130:.\Generated_Source\PSoC5/ADC_SAR_1_theACLK.c ****         ADC_SAR_1_theACLK_CLKEN &= (uint8)(~ADC_SAR_1_theACLK_CLKEN_MASK);
 196              		.loc 1 130 0 is_stmt 1
 197 009c 44F2A133 		movw	r3, #17313
 198 00a0 C4F20003 		movt	r3, 16384
 199 00a4 44F2A132 		movw	r2, #17313
 200 00a8 C4F20002 		movt	r2, 16384
 201 00ac 1278     		ldrb	r2, [r2, #0]
 202 00ae D2B2     		uxtb	r2, r2
 203 00b0 22F00402 		bic	r2, r2, #4
 204 00b4 D2B2     		uxtb	r2, r2
 205 00b6 1A70     		strb	r2, [r3, #0]
 131:.\Generated_Source\PSoC5/ADC_SAR_1_theACLK.c ****         ADC_SAR_1_theACLK_CLKSTBY &= (uint8)(~ADC_SAR_1_theACLK_CLKSTBY_MASK);
 206              		.loc 1 131 0
 207 00b8 44F2B133 		movw	r3, #17329
 208 00bc C4F20003 		movt	r3, 16384
 209 00c0 44F2B132 		movw	r2, #17329
 210 00c4 C4F20002 		movt	r2, 16384
 211 00c8 1278     		ldrb	r2, [r2, #0]
ARM GAS  C:\Users\Brian\AppData\Local\Temp\ccLHNPxG.s 			page 7


 212 00ca D2B2     		uxtb	r2, r2
 213 00cc 22F00402 		bic	r2, r2, #4
 214 00d0 D2B2     		uxtb	r2, r2
 215 00d2 1A70     		strb	r2, [r3, #0]
 132:.\Generated_Source\PSoC5/ADC_SAR_1_theACLK.c **** 
 133:.\Generated_Source\PSoC5/ADC_SAR_1_theACLK.c **** #if HAS_CLKDIST_LD_DISABLE
 134:.\Generated_Source\PSoC5/ADC_SAR_1_theACLK.c ****         /* Clear the disable bit */
 135:.\Generated_Source\PSoC5/ADC_SAR_1_theACLK.c ****         CLK_DIST_LD = 0x00u;
 216              		.loc 1 135 0
 217 00d4 44F20103 		movw	r3, #16385
 218 00d8 C4F20003 		movt	r3, 16384
 219 00dc 4FF00002 		mov	r2, #0
 220 00e0 1A70     		strb	r2, [r3, #0]
 136:.\Generated_Source\PSoC5/ADC_SAR_1_theACLK.c ****         CY_SET_REG16(ADC_SAR_1_theACLK_DIV_PTR, oldDivider);
 221              		.loc 1 136 0
 222 00e2 44F20813 		movw	r3, #16648
 223 00e6 C4F20003 		movt	r3, 16384
 224 00ea FA88     		ldrh	r2, [r7, #6]	@ movhi
 225 00ec 1A80     		strh	r2, [r3, #0]	@ movhi
 226              	.L3:
 227              	.LBE2:
 137:.\Generated_Source\PSoC5/ADC_SAR_1_theACLK.c **** #endif /* HAS_CLKDIST_LD_DISABLE */
 138:.\Generated_Source\PSoC5/ADC_SAR_1_theACLK.c ****     }
 139:.\Generated_Source\PSoC5/ADC_SAR_1_theACLK.c **** }
 228              		.loc 1 139 0
 229 00ee 07F10C07 		add	r7, r7, #12
 230 00f2 BD46     		mov	sp, r7
 231 00f4 80BC     		pop	{r7}
 232 00f6 7047     		bx	lr
 233              		.cfi_endproc
 234              	.LFE2:
 235              		.size	ADC_SAR_1_theACLK_StopBlock, .-ADC_SAR_1_theACLK_StopBlock
 236              		.section	.text.ADC_SAR_1_theACLK_StandbyPower,"ax",%progbits
 237              		.align	2
 238              		.global	ADC_SAR_1_theACLK_StandbyPower
 239              		.thumb
 240              		.thumb_func
 241              		.type	ADC_SAR_1_theACLK_StandbyPower, %function
 242              	ADC_SAR_1_theACLK_StandbyPower:
 243              	.LFB3:
 140:.\Generated_Source\PSoC5/ADC_SAR_1_theACLK.c **** #endif /* (CY_PSOC3 || CY_PSOC5LP) */
 141:.\Generated_Source\PSoC5/ADC_SAR_1_theACLK.c **** 
 142:.\Generated_Source\PSoC5/ADC_SAR_1_theACLK.c **** 
 143:.\Generated_Source\PSoC5/ADC_SAR_1_theACLK.c **** /*******************************************************************************
 144:.\Generated_Source\PSoC5/ADC_SAR_1_theACLK.c **** * Function Name: ADC_SAR_1_theACLK_StandbyPower
 145:.\Generated_Source\PSoC5/ADC_SAR_1_theACLK.c **** ********************************************************************************
 146:.\Generated_Source\PSoC5/ADC_SAR_1_theACLK.c **** *
 147:.\Generated_Source\PSoC5/ADC_SAR_1_theACLK.c **** * Summary:
 148:.\Generated_Source\PSoC5/ADC_SAR_1_theACLK.c **** *  Sets whether the clock is active in standby mode.
 149:.\Generated_Source\PSoC5/ADC_SAR_1_theACLK.c **** *
 150:.\Generated_Source\PSoC5/ADC_SAR_1_theACLK.c **** * Parameters:
 151:.\Generated_Source\PSoC5/ADC_SAR_1_theACLK.c **** *  state:  0 to disable clock during standby, nonzero to enable.
 152:.\Generated_Source\PSoC5/ADC_SAR_1_theACLK.c **** *
 153:.\Generated_Source\PSoC5/ADC_SAR_1_theACLK.c **** * Returns:
 154:.\Generated_Source\PSoC5/ADC_SAR_1_theACLK.c **** *  None
 155:.\Generated_Source\PSoC5/ADC_SAR_1_theACLK.c **** *
 156:.\Generated_Source\PSoC5/ADC_SAR_1_theACLK.c **** *******************************************************************************/
ARM GAS  C:\Users\Brian\AppData\Local\Temp\ccLHNPxG.s 			page 8


 157:.\Generated_Source\PSoC5/ADC_SAR_1_theACLK.c **** void ADC_SAR_1_theACLK_StandbyPower(uint8 state) 
 158:.\Generated_Source\PSoC5/ADC_SAR_1_theACLK.c **** {
 244              		.loc 1 158 0
 245              		.cfi_startproc
 246              		@ args = 0, pretend = 0, frame = 8
 247              		@ frame_needed = 1, uses_anonymous_args = 0
 248              		@ link register save eliminated.
 249 0000 80B4     		push	{r7}
 250              	.LCFI7:
 251              		.cfi_def_cfa_offset 4
 252              		.cfi_offset 7, -4
 253 0002 83B0     		sub	sp, sp, #12
 254              	.LCFI8:
 255              		.cfi_def_cfa_offset 16
 256 0004 00AF     		add	r7, sp, #0
 257              	.LCFI9:
 258              		.cfi_def_cfa_register 7
 259 0006 0346     		mov	r3, r0
 260 0008 FB71     		strb	r3, [r7, #7]
 159:.\Generated_Source\PSoC5/ADC_SAR_1_theACLK.c ****     if(state == 0u)
 261              		.loc 1 159 0
 262 000a FB79     		ldrb	r3, [r7, #7]	@ zero_extendqisi2
 263 000c 002B     		cmp	r3, #0
 264 000e 0ED1     		bne	.L7
 160:.\Generated_Source\PSoC5/ADC_SAR_1_theACLK.c ****     {
 161:.\Generated_Source\PSoC5/ADC_SAR_1_theACLK.c ****         ADC_SAR_1_theACLK_CLKSTBY &= (uint8)(~ADC_SAR_1_theACLK_CLKSTBY_MASK);
 265              		.loc 1 161 0
 266 0010 44F2B133 		movw	r3, #17329
 267 0014 C4F20003 		movt	r3, 16384
 268 0018 44F2B132 		movw	r2, #17329
 269 001c C4F20002 		movt	r2, 16384
 270 0020 1278     		ldrb	r2, [r2, #0]
 271 0022 D2B2     		uxtb	r2, r2
 272 0024 22F00402 		bic	r2, r2, #4
 273 0028 D2B2     		uxtb	r2, r2
 274 002a 1A70     		strb	r2, [r3, #0]
 275 002c 0DE0     		b	.L6
 276              	.L7:
 162:.\Generated_Source\PSoC5/ADC_SAR_1_theACLK.c ****     }
 163:.\Generated_Source\PSoC5/ADC_SAR_1_theACLK.c ****     else
 164:.\Generated_Source\PSoC5/ADC_SAR_1_theACLK.c ****     {
 165:.\Generated_Source\PSoC5/ADC_SAR_1_theACLK.c ****         ADC_SAR_1_theACLK_CLKSTBY |= ADC_SAR_1_theACLK_CLKSTBY_MASK;
 277              		.loc 1 165 0
 278 002e 44F2B133 		movw	r3, #17329
 279 0032 C4F20003 		movt	r3, 16384
 280 0036 44F2B132 		movw	r2, #17329
 281 003a C4F20002 		movt	r2, 16384
 282 003e 1278     		ldrb	r2, [r2, #0]
 283 0040 D2B2     		uxtb	r2, r2
 284 0042 42F00402 		orr	r2, r2, #4
 285 0046 D2B2     		uxtb	r2, r2
 286 0048 1A70     		strb	r2, [r3, #0]
 287              	.L6:
 166:.\Generated_Source\PSoC5/ADC_SAR_1_theACLK.c ****     }
 167:.\Generated_Source\PSoC5/ADC_SAR_1_theACLK.c **** }
 288              		.loc 1 167 0
 289 004a 07F10C07 		add	r7, r7, #12
ARM GAS  C:\Users\Brian\AppData\Local\Temp\ccLHNPxG.s 			page 9


 290 004e BD46     		mov	sp, r7
 291 0050 80BC     		pop	{r7}
 292 0052 7047     		bx	lr
 293              		.cfi_endproc
 294              	.LFE3:
 295              		.size	ADC_SAR_1_theACLK_StandbyPower, .-ADC_SAR_1_theACLK_StandbyPower
 296              		.section	.text.ADC_SAR_1_theACLK_SetDividerRegister,"ax",%progbits
 297              		.align	2
 298              		.global	ADC_SAR_1_theACLK_SetDividerRegister
 299              		.thumb
 300              		.thumb_func
 301              		.type	ADC_SAR_1_theACLK_SetDividerRegister, %function
 302              	ADC_SAR_1_theACLK_SetDividerRegister:
 303              	.LFB4:
 168:.\Generated_Source\PSoC5/ADC_SAR_1_theACLK.c **** 
 169:.\Generated_Source\PSoC5/ADC_SAR_1_theACLK.c **** 
 170:.\Generated_Source\PSoC5/ADC_SAR_1_theACLK.c **** /*******************************************************************************
 171:.\Generated_Source\PSoC5/ADC_SAR_1_theACLK.c **** * Function Name: ADC_SAR_1_theACLK_SetDividerRegister
 172:.\Generated_Source\PSoC5/ADC_SAR_1_theACLK.c **** ********************************************************************************
 173:.\Generated_Source\PSoC5/ADC_SAR_1_theACLK.c **** *
 174:.\Generated_Source\PSoC5/ADC_SAR_1_theACLK.c **** * Summary:
 175:.\Generated_Source\PSoC5/ADC_SAR_1_theACLK.c **** *  Modifies the clock divider and, thus, the frequency. When the clock divider
 176:.\Generated_Source\PSoC5/ADC_SAR_1_theACLK.c **** *  register is set to zero or changed from zero, the clock will be temporarily
 177:.\Generated_Source\PSoC5/ADC_SAR_1_theACLK.c **** *  disabled in order to change the SSS mode bit. If the clock is enabled when
 178:.\Generated_Source\PSoC5/ADC_SAR_1_theACLK.c **** *  SetDividerRegister is called, then the source clock must be running.
 179:.\Generated_Source\PSoC5/ADC_SAR_1_theACLK.c **** *
 180:.\Generated_Source\PSoC5/ADC_SAR_1_theACLK.c **** * Parameters:
 181:.\Generated_Source\PSoC5/ADC_SAR_1_theACLK.c **** *  clkDivider:  Divider register value (0-65,535). This value is NOT the
 182:.\Generated_Source\PSoC5/ADC_SAR_1_theACLK.c **** *    divider; the clock hardware divides by clkDivider plus one. For example,
 183:.\Generated_Source\PSoC5/ADC_SAR_1_theACLK.c **** *    to divide the clock by 2, this parameter should be set to 1.
 184:.\Generated_Source\PSoC5/ADC_SAR_1_theACLK.c **** *  restart:  If nonzero, restarts the clock divider: the current clock cycle
 185:.\Generated_Source\PSoC5/ADC_SAR_1_theACLK.c **** *   will be truncated and the new divide value will take effect immediately. If
 186:.\Generated_Source\PSoC5/ADC_SAR_1_theACLK.c **** *   zero, the new divide value will take effect at the end of the current clock
 187:.\Generated_Source\PSoC5/ADC_SAR_1_theACLK.c **** *   cycle.
 188:.\Generated_Source\PSoC5/ADC_SAR_1_theACLK.c **** *
 189:.\Generated_Source\PSoC5/ADC_SAR_1_theACLK.c **** * Returns:
 190:.\Generated_Source\PSoC5/ADC_SAR_1_theACLK.c **** *  None
 191:.\Generated_Source\PSoC5/ADC_SAR_1_theACLK.c **** *
 192:.\Generated_Source\PSoC5/ADC_SAR_1_theACLK.c **** *******************************************************************************/
 193:.\Generated_Source\PSoC5/ADC_SAR_1_theACLK.c **** void ADC_SAR_1_theACLK_SetDividerRegister(uint16 clkDivider, uint8 restart)
 194:.\Generated_Source\PSoC5/ADC_SAR_1_theACLK.c ****                                 
 195:.\Generated_Source\PSoC5/ADC_SAR_1_theACLK.c **** {
 304              		.loc 1 195 0
 305              		.cfi_startproc
 306              		@ args = 0, pretend = 0, frame = 16
 307              		@ frame_needed = 1, uses_anonymous_args = 0
 308 0000 80B5     		push	{r7, lr}
 309              	.LCFI10:
 310              		.cfi_def_cfa_offset 8
 311              		.cfi_offset 7, -8
 312              		.cfi_offset 14, -4
 313 0002 84B0     		sub	sp, sp, #16
 314              	.LCFI11:
 315              		.cfi_def_cfa_offset 24
 316 0004 00AF     		add	r7, sp, #0
 317              	.LCFI12:
 318              		.cfi_def_cfa_register 7
ARM GAS  C:\Users\Brian\AppData\Local\Temp\ccLHNPxG.s 			page 10


 319 0006 0246     		mov	r2, r0
 320 0008 0B46     		mov	r3, r1
 321 000a FA80     		strh	r2, [r7, #6]	@ movhi
 322 000c 7B71     		strb	r3, [r7, #5]
 196:.\Generated_Source\PSoC5/ADC_SAR_1_theACLK.c ****     uint8 enabled;
 197:.\Generated_Source\PSoC5/ADC_SAR_1_theACLK.c **** 
 198:.\Generated_Source\PSoC5/ADC_SAR_1_theACLK.c ****     uint8 currSrc = ADC_SAR_1_theACLK_GetSourceRegister();
 323              		.loc 1 198 0
 324 000e FFF7FEFF 		bl	ADC_SAR_1_theACLK_GetSourceRegister
 325 0012 0346     		mov	r3, r0
 326 0014 FB73     		strb	r3, [r7, #15]
 199:.\Generated_Source\PSoC5/ADC_SAR_1_theACLK.c ****     uint16 oldDivider = ADC_SAR_1_theACLK_GetDividerRegister();
 327              		.loc 1 199 0
 328 0016 FFF7FEFF 		bl	ADC_SAR_1_theACLK_GetDividerRegister
 329 001a 0346     		mov	r3, r0
 330 001c BB81     		strh	r3, [r7, #12]	@ movhi
 200:.\Generated_Source\PSoC5/ADC_SAR_1_theACLK.c **** 
 201:.\Generated_Source\PSoC5/ADC_SAR_1_theACLK.c ****     if (clkDivider != oldDivider)
 331              		.loc 1 201 0
 332 001e FA88     		ldrh	r2, [r7, #6]
 333 0020 BB89     		ldrh	r3, [r7, #12]
 334 0022 9A42     		cmp	r2, r3
 335 0024 00F0DC80 		beq	.L9
 202:.\Generated_Source\PSoC5/ADC_SAR_1_theACLK.c ****     {
 203:.\Generated_Source\PSoC5/ADC_SAR_1_theACLK.c ****         enabled = ADC_SAR_1_theACLK_CLKEN & ADC_SAR_1_theACLK_CLKEN_MASK;
 336              		.loc 1 203 0
 337 0028 44F2A133 		movw	r3, #17313
 338 002c C4F20003 		movt	r3, 16384
 339 0030 1B78     		ldrb	r3, [r3, #0]
 340 0032 DBB2     		uxtb	r3, r3
 341 0034 03F00403 		and	r3, r3, #4
 342 0038 FB72     		strb	r3, [r7, #11]
 204:.\Generated_Source\PSoC5/ADC_SAR_1_theACLK.c **** 
 205:.\Generated_Source\PSoC5/ADC_SAR_1_theACLK.c ****         if ((currSrc == (uint8)CYCLK_SRC_SEL_CLK_SYNC_D) && ((oldDivider == 0u) || (clkDivider == 0
 343              		.loc 1 205 0
 344 003a FB7B     		ldrb	r3, [r7, #15]	@ zero_extendqisi2
 345 003c 002B     		cmp	r3, #0
 346 003e 32D1     		bne	.L11
 347              		.loc 1 205 0 is_stmt 0 discriminator 1
 348 0040 BB89     		ldrh	r3, [r7, #12]
 349 0042 002B     		cmp	r3, #0
 350 0044 02D0     		beq	.L12
 351 0046 FB88     		ldrh	r3, [r7, #6]
 352 0048 002B     		cmp	r3, #0
 353 004a 2CD1     		bne	.L11
 354              	.L12:
 206:.\Generated_Source\PSoC5/ADC_SAR_1_theACLK.c ****         {
 207:.\Generated_Source\PSoC5/ADC_SAR_1_theACLK.c ****             /* Moving to/from SSS requires correct ordering to prevent halting the clock    */
 208:.\Generated_Source\PSoC5/ADC_SAR_1_theACLK.c ****             if (oldDivider == 0u)
 355              		.loc 1 208 0 is_stmt 1
 356 004c BB89     		ldrh	r3, [r7, #12]
 357 004e 002B     		cmp	r3, #0
 358 0050 14D1     		bne	.L13
 209:.\Generated_Source\PSoC5/ADC_SAR_1_theACLK.c ****             {
 210:.\Generated_Source\PSoC5/ADC_SAR_1_theACLK.c ****                 /* Moving away from SSS, set the divider first so when SSS is cleared we    */
 211:.\Generated_Source\PSoC5/ADC_SAR_1_theACLK.c ****                 /* don't halt the clock.  Using the shadow load isn't required as the       */
 212:.\Generated_Source\PSoC5/ADC_SAR_1_theACLK.c ****                 /* divider is ignored while SSS is set.                                     */
ARM GAS  C:\Users\Brian\AppData\Local\Temp\ccLHNPxG.s 			page 11


 213:.\Generated_Source\PSoC5/ADC_SAR_1_theACLK.c ****                 CY_SET_REG16(ADC_SAR_1_theACLK_DIV_PTR, clkDivider);
 359              		.loc 1 213 0
 360 0052 44F20813 		movw	r3, #16648
 361 0056 C4F20003 		movt	r3, 16384
 362 005a FA88     		ldrh	r2, [r7, #6]	@ movhi
 363 005c 1A80     		strh	r2, [r3, #0]	@ movhi
 214:.\Generated_Source\PSoC5/ADC_SAR_1_theACLK.c ****                 ADC_SAR_1_theACLK_MOD_SRC &= (uint8)(~CYCLK_SSS);
 364              		.loc 1 214 0
 365 005e 44F20A13 		movw	r3, #16650
 366 0062 C4F20003 		movt	r3, 16384
 367 0066 44F20A12 		movw	r2, #16650
 368 006a C4F20002 		movt	r2, 16384
 369 006e 1278     		ldrb	r2, [r2, #0]
 370 0070 D2B2     		uxtb	r2, r2
 371 0072 22F04002 		bic	r2, r2, #64
 372 0076 D2B2     		uxtb	r2, r2
 373 0078 1A70     		strb	r2, [r3, #0]
 208:.\Generated_Source\PSoC5/ADC_SAR_1_theACLK.c ****             if (oldDivider == 0u)
 374              		.loc 1 208 0
 375 007a B1E0     		b	.L9
 376              	.L13:
 215:.\Generated_Source\PSoC5/ADC_SAR_1_theACLK.c ****             }
 216:.\Generated_Source\PSoC5/ADC_SAR_1_theACLK.c ****             else
 217:.\Generated_Source\PSoC5/ADC_SAR_1_theACLK.c ****             {
 218:.\Generated_Source\PSoC5/ADC_SAR_1_theACLK.c ****                 /* Moving to SSS, set SSS which then ignores the divider and we can set     */
 219:.\Generated_Source\PSoC5/ADC_SAR_1_theACLK.c ****                 /* it without bothering with the shadow load.                               */
 220:.\Generated_Source\PSoC5/ADC_SAR_1_theACLK.c ****                 ADC_SAR_1_theACLK_MOD_SRC |= CYCLK_SSS;
 377              		.loc 1 220 0
 378 007c 44F20A13 		movw	r3, #16650
 379 0080 C4F20003 		movt	r3, 16384
 380 0084 44F20A12 		movw	r2, #16650
 381 0088 C4F20002 		movt	r2, 16384
 382 008c 1278     		ldrb	r2, [r2, #0]
 383 008e D2B2     		uxtb	r2, r2
 384 0090 42F04002 		orr	r2, r2, #64
 385 0094 D2B2     		uxtb	r2, r2
 386 0096 1A70     		strb	r2, [r3, #0]
 221:.\Generated_Source\PSoC5/ADC_SAR_1_theACLK.c ****                 CY_SET_REG16(ADC_SAR_1_theACLK_DIV_PTR, clkDivider);
 387              		.loc 1 221 0
 388 0098 44F20813 		movw	r3, #16648
 389 009c C4F20003 		movt	r3, 16384
 390 00a0 FA88     		ldrh	r2, [r7, #6]	@ movhi
 391 00a2 1A80     		strh	r2, [r3, #0]	@ movhi
 208:.\Generated_Source\PSoC5/ADC_SAR_1_theACLK.c ****             if (oldDivider == 0u)
 392              		.loc 1 208 0
 393 00a4 9CE0     		b	.L9
 394              	.L11:
 222:.\Generated_Source\PSoC5/ADC_SAR_1_theACLK.c ****             }
 223:.\Generated_Source\PSoC5/ADC_SAR_1_theACLK.c ****         }
 224:.\Generated_Source\PSoC5/ADC_SAR_1_theACLK.c ****         else
 225:.\Generated_Source\PSoC5/ADC_SAR_1_theACLK.c ****         {
 226:.\Generated_Source\PSoC5/ADC_SAR_1_theACLK.c **** 			
 227:.\Generated_Source\PSoC5/ADC_SAR_1_theACLK.c ****             if (enabled != 0u)
 395              		.loc 1 227 0
 396 00a6 FB7A     		ldrb	r3, [r7, #11]	@ zero_extendqisi2
 397 00a8 002B     		cmp	r3, #0
 398 00aa 5CD0     		beq	.L15
ARM GAS  C:\Users\Brian\AppData\Local\Temp\ccLHNPxG.s 			page 12


 228:.\Generated_Source\PSoC5/ADC_SAR_1_theACLK.c ****             {
 229:.\Generated_Source\PSoC5/ADC_SAR_1_theACLK.c ****                 CLK_DIST_LD = 0x00u;
 399              		.loc 1 229 0
 400 00ac 44F20103 		movw	r3, #16385
 401 00b0 C4F20003 		movt	r3, 16384
 402 00b4 4FF00002 		mov	r2, #0
 403 00b8 1A70     		strb	r2, [r3, #0]
 230:.\Generated_Source\PSoC5/ADC_SAR_1_theACLK.c **** 
 231:.\Generated_Source\PSoC5/ADC_SAR_1_theACLK.c ****                 /* Clear all the mask bits except ours. */
 232:.\Generated_Source\PSoC5/ADC_SAR_1_theACLK.c **** #if defined(ADC_SAR_1_theACLK__CFG3)
 233:.\Generated_Source\PSoC5/ADC_SAR_1_theACLK.c ****                 CLK_DIST_AMASK = ADC_SAR_1_theACLK_CLKEN_MASK;
 404              		.loc 1 233 0
 405 00ba 44F21403 		movw	r3, #16404
 406 00be C4F20003 		movt	r3, 16384
 407 00c2 4FF00402 		mov	r2, #4
 408 00c6 1A70     		strb	r2, [r3, #0]
 234:.\Generated_Source\PSoC5/ADC_SAR_1_theACLK.c ****                 CLK_DIST_DMASK = 0x00u;
 409              		.loc 1 234 0
 410 00c8 44F21003 		movw	r3, #16400
 411 00cc C4F20003 		movt	r3, 16384
 412 00d0 4FF00002 		mov	r2, #0
 413 00d4 1A70     		strb	r2, [r3, #0]
 235:.\Generated_Source\PSoC5/ADC_SAR_1_theACLK.c **** #else
 236:.\Generated_Source\PSoC5/ADC_SAR_1_theACLK.c ****                 CLK_DIST_DMASK = ADC_SAR_1_theACLK_CLKEN_MASK;
 237:.\Generated_Source\PSoC5/ADC_SAR_1_theACLK.c ****                 CLK_DIST_AMASK = 0x00u;
 238:.\Generated_Source\PSoC5/ADC_SAR_1_theACLK.c **** #endif /* ADC_SAR_1_theACLK__CFG3 */
 239:.\Generated_Source\PSoC5/ADC_SAR_1_theACLK.c ****                 /* Clear mask of bus clock. */
 240:.\Generated_Source\PSoC5/ADC_SAR_1_theACLK.c ****                 CLK_DIST_BCFG2 &= (uint8)(~BCFG2_MASK);
 414              		.loc 1 240 0
 415 00d6 44F20803 		movw	r3, #16392
 416 00da C4F20003 		movt	r3, 16384
 417 00de 44F20802 		movw	r2, #16392
 418 00e2 C4F20002 		movt	r2, 16384
 419 00e6 1278     		ldrb	r2, [r2, #0]
 420 00e8 D2B2     		uxtb	r2, r2
 421 00ea 02F07F02 		and	r2, r2, #127
 422 00ee D2B2     		uxtb	r2, r2
 423 00f0 1A70     		strb	r2, [r3, #0]
 241:.\Generated_Source\PSoC5/ADC_SAR_1_theACLK.c **** 
 242:.\Generated_Source\PSoC5/ADC_SAR_1_theACLK.c ****                 /* If clock is currently enabled, disable it if async or going from N-to-1*/
 243:.\Generated_Source\PSoC5/ADC_SAR_1_theACLK.c ****                 if (((ADC_SAR_1_theACLK_MOD_SRC & CYCLK_SYNC) == 0u) || (clkDivider == 0u))
 424              		.loc 1 243 0
 425 00f2 44F20A13 		movw	r3, #16650
 426 00f6 C4F20003 		movt	r3, 16384
 427 00fa 1B78     		ldrb	r3, [r3, #0]
 428 00fc DBB2     		uxtb	r3, r3
 429 00fe 03F00803 		and	r3, r3, #8
 430 0102 002B     		cmp	r3, #0
 431 0104 02D0     		beq	.L16
 432              		.loc 1 243 0 is_stmt 0 discriminator 1
 433 0106 FB88     		ldrh	r3, [r7, #6]
 434 0108 002B     		cmp	r3, #0
 435 010a 2CD1     		bne	.L15
 436              	.L16:
 244:.\Generated_Source\PSoC5/ADC_SAR_1_theACLK.c ****                 {
 245:.\Generated_Source\PSoC5/ADC_SAR_1_theACLK.c **** #if HAS_CLKDIST_LD_DISABLE
 246:.\Generated_Source\PSoC5/ADC_SAR_1_theACLK.c ****                     CY_SET_REG16(CYREG_CLKDIST_WRK0, oldDivider);
ARM GAS  C:\Users\Brian\AppData\Local\Temp\ccLHNPxG.s 			page 13


 437              		.loc 1 246 0 is_stmt 1
 438 010c 44F20203 		movw	r3, #16386
 439 0110 C4F20003 		movt	r3, 16384
 440 0114 BA89     		ldrh	r2, [r7, #12]	@ movhi
 441 0116 1A80     		strh	r2, [r3, #0]	@ movhi
 247:.\Generated_Source\PSoC5/ADC_SAR_1_theACLK.c ****                     CLK_DIST_LD = CYCLK_LD_DISABLE|CYCLK_LD_SYNC_EN|CYCLK_LD_LOAD;
 442              		.loc 1 247 0
 443 0118 44F20103 		movw	r3, #16385
 444 011c C4F20003 		movt	r3, 16384
 445 0120 4FF00702 		mov	r2, #7
 446 0124 1A70     		strb	r2, [r3, #0]
 248:.\Generated_Source\PSoC5/ADC_SAR_1_theACLK.c **** 
 249:.\Generated_Source\PSoC5/ADC_SAR_1_theACLK.c ****                     /* Wait for clock to be disabled */
 250:.\Generated_Source\PSoC5/ADC_SAR_1_theACLK.c ****                     while ((CLK_DIST_LD & CYCLK_LD_LOAD) != 0u) { }
 447              		.loc 1 250 0
 448 0126 00BF     		nop
 449              	.L17:
 450              		.loc 1 250 0 is_stmt 0 discriminator 1
 451 0128 44F20103 		movw	r3, #16385
 452 012c C4F20003 		movt	r3, 16384
 453 0130 1B78     		ldrb	r3, [r3, #0]
 454 0132 DBB2     		uxtb	r3, r3
 455 0134 03F00103 		and	r3, r3, #1
 456 0138 002B     		cmp	r3, #0
 457 013a F5D1     		bne	.L17
 251:.\Generated_Source\PSoC5/ADC_SAR_1_theACLK.c **** #endif /* HAS_CLKDIST_LD_DISABLE */
 252:.\Generated_Source\PSoC5/ADC_SAR_1_theACLK.c **** 
 253:.\Generated_Source\PSoC5/ADC_SAR_1_theACLK.c ****                     ADC_SAR_1_theACLK_CLKEN &= (uint8)(~ADC_SAR_1_theACLK_CLKEN_MASK);
 458              		.loc 1 253 0 is_stmt 1
 459 013c 44F2A133 		movw	r3, #17313
 460 0140 C4F20003 		movt	r3, 16384
 461 0144 44F2A132 		movw	r2, #17313
 462 0148 C4F20002 		movt	r2, 16384
 463 014c 1278     		ldrb	r2, [r2, #0]
 464 014e D2B2     		uxtb	r2, r2
 465 0150 22F00402 		bic	r2, r2, #4
 466 0154 D2B2     		uxtb	r2, r2
 467 0156 1A70     		strb	r2, [r3, #0]
 254:.\Generated_Source\PSoC5/ADC_SAR_1_theACLK.c **** 
 255:.\Generated_Source\PSoC5/ADC_SAR_1_theACLK.c **** #if HAS_CLKDIST_LD_DISABLE
 256:.\Generated_Source\PSoC5/ADC_SAR_1_theACLK.c ****                     /* Clear the disable bit */
 257:.\Generated_Source\PSoC5/ADC_SAR_1_theACLK.c ****                     CLK_DIST_LD = 0x00u;
 468              		.loc 1 257 0
 469 0158 44F20103 		movw	r3, #16385
 470 015c C4F20003 		movt	r3, 16384
 471 0160 4FF00002 		mov	r2, #0
 472 0164 1A70     		strb	r2, [r3, #0]
 473              	.L15:
 258:.\Generated_Source\PSoC5/ADC_SAR_1_theACLK.c **** #endif /* HAS_CLKDIST_LD_DISABLE */
 259:.\Generated_Source\PSoC5/ADC_SAR_1_theACLK.c ****                 }
 260:.\Generated_Source\PSoC5/ADC_SAR_1_theACLK.c ****             }
 261:.\Generated_Source\PSoC5/ADC_SAR_1_theACLK.c **** 
 262:.\Generated_Source\PSoC5/ADC_SAR_1_theACLK.c ****             /* Load divide value. */
 263:.\Generated_Source\PSoC5/ADC_SAR_1_theACLK.c ****             if ((ADC_SAR_1_theACLK_CLKEN & ADC_SAR_1_theACLK_CLKEN_MASK) != 0u)
 474              		.loc 1 263 0
 475 0166 44F2A133 		movw	r3, #17313
 476 016a C4F20003 		movt	r3, 16384
ARM GAS  C:\Users\Brian\AppData\Local\Temp\ccLHNPxG.s 			page 14


 477 016e 1B78     		ldrb	r3, [r3, #0]
 478 0170 DBB2     		uxtb	r3, r3
 479 0172 03F00403 		and	r3, r3, #4
 480 0176 002B     		cmp	r3, #0
 481 0178 1ED0     		beq	.L18
 264:.\Generated_Source\PSoC5/ADC_SAR_1_theACLK.c ****             {
 265:.\Generated_Source\PSoC5/ADC_SAR_1_theACLK.c ****                 /* If the clock is still enabled, use the shadow registers */
 266:.\Generated_Source\PSoC5/ADC_SAR_1_theACLK.c ****                 CY_SET_REG16(CYREG_CLKDIST_WRK0, clkDivider);
 482              		.loc 1 266 0
 483 017a 44F20203 		movw	r3, #16386
 484 017e C4F20003 		movt	r3, 16384
 485 0182 FA88     		ldrh	r2, [r7, #6]	@ movhi
 486 0184 1A80     		strh	r2, [r3, #0]	@ movhi
 267:.\Generated_Source\PSoC5/ADC_SAR_1_theACLK.c **** 
 268:.\Generated_Source\PSoC5/ADC_SAR_1_theACLK.c ****                 CLK_DIST_LD = (CYCLK_LD_LOAD | ((restart != 0u) ? CYCLK_LD_SYNC_EN : 0x00u));
 487              		.loc 1 268 0
 488 0186 44F20103 		movw	r3, #16385
 489 018a C4F20003 		movt	r3, 16384
 490 018e 7A79     		ldrb	r2, [r7, #5]	@ zero_extendqisi2
 491 0190 002A     		cmp	r2, #0
 492 0192 02D0     		beq	.L19
 493              		.loc 1 268 0 is_stmt 0 discriminator 1
 494 0194 4FF00302 		mov	r2, #3
 495 0198 01E0     		b	.L20
 496              	.L19:
 497              		.loc 1 268 0 discriminator 2
 498 019a 4FF00102 		mov	r2, #1
 499              	.L20:
 500              		.loc 1 268 0 discriminator 3
 501 019e 1A70     		strb	r2, [r3, #0]
 269:.\Generated_Source\PSoC5/ADC_SAR_1_theACLK.c ****                 while ((CLK_DIST_LD & CYCLK_LD_LOAD) != 0u) { }
 502              		.loc 1 269 0 is_stmt 1
 503 01a0 00BF     		nop
 504              	.L21:
 505              		.loc 1 269 0 is_stmt 0 discriminator 1
 506 01a2 44F20103 		movw	r3, #16385
 507 01a6 C4F20003 		movt	r3, 16384
 508 01aa 1B78     		ldrb	r3, [r3, #0]
 509 01ac DBB2     		uxtb	r3, r3
 510 01ae 03F00103 		and	r3, r3, #1
 511 01b2 002B     		cmp	r3, #0
 512 01b4 F5D1     		bne	.L21
 513              		.loc 1 269 0
 514 01b6 13E0     		b	.L9
 515              	.L18:
 270:.\Generated_Source\PSoC5/ADC_SAR_1_theACLK.c ****             }
 271:.\Generated_Source\PSoC5/ADC_SAR_1_theACLK.c ****             else
 272:.\Generated_Source\PSoC5/ADC_SAR_1_theACLK.c ****             {
 273:.\Generated_Source\PSoC5/ADC_SAR_1_theACLK.c ****                 /* If the clock is disabled, set the divider directly */
 274:.\Generated_Source\PSoC5/ADC_SAR_1_theACLK.c ****                 CY_SET_REG16(ADC_SAR_1_theACLK_DIV_PTR, clkDivider);
 516              		.loc 1 274 0 is_stmt 1
 517 01b8 44F20813 		movw	r3, #16648
 518 01bc C4F20003 		movt	r3, 16384
 519 01c0 FA88     		ldrh	r2, [r7, #6]	@ movhi
 520 01c2 1A80     		strh	r2, [r3, #0]	@ movhi
 275:.\Generated_Source\PSoC5/ADC_SAR_1_theACLK.c **** 				ADC_SAR_1_theACLK_CLKEN |= enabled;
 521              		.loc 1 275 0
ARM GAS  C:\Users\Brian\AppData\Local\Temp\ccLHNPxG.s 			page 15


 522 01c4 44F2A133 		movw	r3, #17313
 523 01c8 C4F20003 		movt	r3, 16384
 524 01cc 44F2A132 		movw	r2, #17313
 525 01d0 C4F20002 		movt	r2, 16384
 526 01d4 1278     		ldrb	r2, [r2, #0]
 527 01d6 D1B2     		uxtb	r1, r2
 528 01d8 FA7A     		ldrb	r2, [r7, #11]
 529 01da 0A43     		orrs	r2, r2, r1
 530 01dc D2B2     		uxtb	r2, r2
 531 01de 1A70     		strb	r2, [r3, #0]
 532              	.L9:
 276:.\Generated_Source\PSoC5/ADC_SAR_1_theACLK.c ****             }
 277:.\Generated_Source\PSoC5/ADC_SAR_1_theACLK.c ****         }
 278:.\Generated_Source\PSoC5/ADC_SAR_1_theACLK.c ****     }
 279:.\Generated_Source\PSoC5/ADC_SAR_1_theACLK.c **** }
 533              		.loc 1 279 0
 534 01e0 07F11007 		add	r7, r7, #16
 535 01e4 BD46     		mov	sp, r7
 536 01e6 80BD     		pop	{r7, pc}
 537              		.cfi_endproc
 538              	.LFE4:
 539              		.size	ADC_SAR_1_theACLK_SetDividerRegister, .-ADC_SAR_1_theACLK_SetDividerRegister
 540              		.section	.text.ADC_SAR_1_theACLK_GetDividerRegister,"ax",%progbits
 541              		.align	2
 542              		.global	ADC_SAR_1_theACLK_GetDividerRegister
 543              		.thumb
 544              		.thumb_func
 545              		.type	ADC_SAR_1_theACLK_GetDividerRegister, %function
 546              	ADC_SAR_1_theACLK_GetDividerRegister:
 547              	.LFB5:
 280:.\Generated_Source\PSoC5/ADC_SAR_1_theACLK.c **** 
 281:.\Generated_Source\PSoC5/ADC_SAR_1_theACLK.c **** 
 282:.\Generated_Source\PSoC5/ADC_SAR_1_theACLK.c **** /*******************************************************************************
 283:.\Generated_Source\PSoC5/ADC_SAR_1_theACLK.c **** * Function Name: ADC_SAR_1_theACLK_GetDividerRegister
 284:.\Generated_Source\PSoC5/ADC_SAR_1_theACLK.c **** ********************************************************************************
 285:.\Generated_Source\PSoC5/ADC_SAR_1_theACLK.c **** *
 286:.\Generated_Source\PSoC5/ADC_SAR_1_theACLK.c **** * Summary:
 287:.\Generated_Source\PSoC5/ADC_SAR_1_theACLK.c **** *  Gets the clock divider register value.
 288:.\Generated_Source\PSoC5/ADC_SAR_1_theACLK.c **** *
 289:.\Generated_Source\PSoC5/ADC_SAR_1_theACLK.c **** * Parameters:
 290:.\Generated_Source\PSoC5/ADC_SAR_1_theACLK.c **** *  None
 291:.\Generated_Source\PSoC5/ADC_SAR_1_theACLK.c **** *
 292:.\Generated_Source\PSoC5/ADC_SAR_1_theACLK.c **** * Returns:
 293:.\Generated_Source\PSoC5/ADC_SAR_1_theACLK.c **** *  Divide value of the clock minus 1. For example, if the clock is set to
 294:.\Generated_Source\PSoC5/ADC_SAR_1_theACLK.c **** *  divide by 2, the return value will be 1.
 295:.\Generated_Source\PSoC5/ADC_SAR_1_theACLK.c **** *
 296:.\Generated_Source\PSoC5/ADC_SAR_1_theACLK.c **** *******************************************************************************/
 297:.\Generated_Source\PSoC5/ADC_SAR_1_theACLK.c **** uint16 ADC_SAR_1_theACLK_GetDividerRegister(void) 
 298:.\Generated_Source\PSoC5/ADC_SAR_1_theACLK.c **** {
 548              		.loc 1 298 0
 549              		.cfi_startproc
 550              		@ args = 0, pretend = 0, frame = 0
 551              		@ frame_needed = 1, uses_anonymous_args = 0
 552              		@ link register save eliminated.
 553 0000 80B4     		push	{r7}
 554              	.LCFI13:
 555              		.cfi_def_cfa_offset 4
ARM GAS  C:\Users\Brian\AppData\Local\Temp\ccLHNPxG.s 			page 16


 556              		.cfi_offset 7, -4
 557 0002 00AF     		add	r7, sp, #0
 558              	.LCFI14:
 559              		.cfi_def_cfa_register 7
 299:.\Generated_Source\PSoC5/ADC_SAR_1_theACLK.c ****     return CY_GET_REG16(ADC_SAR_1_theACLK_DIV_PTR);
 560              		.loc 1 299 0
 561 0004 44F20813 		movw	r3, #16648
 562 0008 C4F20003 		movt	r3, 16384
 563 000c 1B88     		ldrh	r3, [r3, #0]	@ movhi
 564 000e 9BB2     		uxth	r3, r3
 300:.\Generated_Source\PSoC5/ADC_SAR_1_theACLK.c **** }
 565              		.loc 1 300 0
 566 0010 1846     		mov	r0, r3
 567 0012 BD46     		mov	sp, r7
 568 0014 80BC     		pop	{r7}
 569 0016 7047     		bx	lr
 570              		.cfi_endproc
 571              	.LFE5:
 572              		.size	ADC_SAR_1_theACLK_GetDividerRegister, .-ADC_SAR_1_theACLK_GetDividerRegister
 573              		.section	.text.ADC_SAR_1_theACLK_SetModeRegister,"ax",%progbits
 574              		.align	2
 575              		.global	ADC_SAR_1_theACLK_SetModeRegister
 576              		.thumb
 577              		.thumb_func
 578              		.type	ADC_SAR_1_theACLK_SetModeRegister, %function
 579              	ADC_SAR_1_theACLK_SetModeRegister:
 580              	.LFB6:
 301:.\Generated_Source\PSoC5/ADC_SAR_1_theACLK.c **** 
 302:.\Generated_Source\PSoC5/ADC_SAR_1_theACLK.c **** 
 303:.\Generated_Source\PSoC5/ADC_SAR_1_theACLK.c **** /*******************************************************************************
 304:.\Generated_Source\PSoC5/ADC_SAR_1_theACLK.c **** * Function Name: ADC_SAR_1_theACLK_SetModeRegister
 305:.\Generated_Source\PSoC5/ADC_SAR_1_theACLK.c **** ********************************************************************************
 306:.\Generated_Source\PSoC5/ADC_SAR_1_theACLK.c **** *
 307:.\Generated_Source\PSoC5/ADC_SAR_1_theACLK.c **** * Summary:
 308:.\Generated_Source\PSoC5/ADC_SAR_1_theACLK.c **** *  Sets flags that control the operating mode of the clock. This function only
 309:.\Generated_Source\PSoC5/ADC_SAR_1_theACLK.c **** *  changes flags from 0 to 1; flags that are already 1 will remain unchanged.
 310:.\Generated_Source\PSoC5/ADC_SAR_1_theACLK.c **** *  To clear flags, use the ClearModeRegister function. The clock must be
 311:.\Generated_Source\PSoC5/ADC_SAR_1_theACLK.c **** *  disabled before changing the mode.
 312:.\Generated_Source\PSoC5/ADC_SAR_1_theACLK.c **** *
 313:.\Generated_Source\PSoC5/ADC_SAR_1_theACLK.c **** * Parameters:
 314:.\Generated_Source\PSoC5/ADC_SAR_1_theACLK.c **** *  clkMode: Bit mask containing the bits to set. For PSoC 3 and PSoC 5,
 315:.\Generated_Source\PSoC5/ADC_SAR_1_theACLK.c **** *   clkMode should be a set of the following optional bits or'ed together.
 316:.\Generated_Source\PSoC5/ADC_SAR_1_theACLK.c **** *   - CYCLK_EARLY Enable early phase mode. Rising edge of output clock will
 317:.\Generated_Source\PSoC5/ADC_SAR_1_theACLK.c **** *                 occur when the divider count reaches half of the divide
 318:.\Generated_Source\PSoC5/ADC_SAR_1_theACLK.c **** *                 value.
 319:.\Generated_Source\PSoC5/ADC_SAR_1_theACLK.c **** *   - CYCLK_DUTY  Enable 50% duty cycle output. When enabled, the output clock
 320:.\Generated_Source\PSoC5/ADC_SAR_1_theACLK.c **** *                 is asserted for approximately half of its period. When
 321:.\Generated_Source\PSoC5/ADC_SAR_1_theACLK.c **** *                 disabled, the output clock is asserted for one period of the
 322:.\Generated_Source\PSoC5/ADC_SAR_1_theACLK.c **** *                 source clock.
 323:.\Generated_Source\PSoC5/ADC_SAR_1_theACLK.c **** *   - CYCLK_SYNC  Enable output synchronization to master clock. This should
 324:.\Generated_Source\PSoC5/ADC_SAR_1_theACLK.c **** *                 be enabled for all synchronous clocks.
 325:.\Generated_Source\PSoC5/ADC_SAR_1_theACLK.c **** *   See the Technical Reference Manual for details about setting the mode of
 326:.\Generated_Source\PSoC5/ADC_SAR_1_theACLK.c **** *   the clock. Specifically, see the CLKDIST.DCFG.CFG2 register.
 327:.\Generated_Source\PSoC5/ADC_SAR_1_theACLK.c **** *
 328:.\Generated_Source\PSoC5/ADC_SAR_1_theACLK.c **** * Returns:
 329:.\Generated_Source\PSoC5/ADC_SAR_1_theACLK.c **** *  None
 330:.\Generated_Source\PSoC5/ADC_SAR_1_theACLK.c **** *
ARM GAS  C:\Users\Brian\AppData\Local\Temp\ccLHNPxG.s 			page 17


 331:.\Generated_Source\PSoC5/ADC_SAR_1_theACLK.c **** *******************************************************************************/
 332:.\Generated_Source\PSoC5/ADC_SAR_1_theACLK.c **** void ADC_SAR_1_theACLK_SetModeRegister(uint8 modeBitMask) 
 333:.\Generated_Source\PSoC5/ADC_SAR_1_theACLK.c **** {
 581              		.loc 1 333 0
 582              		.cfi_startproc
 583              		@ args = 0, pretend = 0, frame = 8
 584              		@ frame_needed = 1, uses_anonymous_args = 0
 585              		@ link register save eliminated.
 586 0000 80B4     		push	{r7}
 587              	.LCFI15:
 588              		.cfi_def_cfa_offset 4
 589              		.cfi_offset 7, -4
 590 0002 83B0     		sub	sp, sp, #12
 591              	.LCFI16:
 592              		.cfi_def_cfa_offset 16
 593 0004 00AF     		add	r7, sp, #0
 594              	.LCFI17:
 595              		.cfi_def_cfa_register 7
 596 0006 0346     		mov	r3, r0
 597 0008 FB71     		strb	r3, [r7, #7]
 334:.\Generated_Source\PSoC5/ADC_SAR_1_theACLK.c ****     ADC_SAR_1_theACLK_MOD_SRC |= modeBitMask & (uint8)ADC_SAR_1_theACLK_MODE_MASK;
 598              		.loc 1 334 0
 599 000a 44F20A13 		movw	r3, #16650
 600 000e C4F20003 		movt	r3, 16384
 601 0012 44F20A12 		movw	r2, #16650
 602 0016 C4F20002 		movt	r2, 16384
 603 001a 1278     		ldrb	r2, [r2, #0]
 604 001c D2B2     		uxtb	r2, r2
 605 001e D1B2     		uxtb	r1, r2
 606 0020 FA79     		ldrb	r2, [r7, #7]	@ zero_extendqisi2
 607 0022 22F00702 		bic	r2, r2, #7
 608 0026 D2B2     		uxtb	r2, r2
 609 0028 0A43     		orrs	r2, r2, r1
 610 002a D2B2     		uxtb	r2, r2
 611 002c D2B2     		uxtb	r2, r2
 612 002e 1A70     		strb	r2, [r3, #0]
 335:.\Generated_Source\PSoC5/ADC_SAR_1_theACLK.c **** }
 613              		.loc 1 335 0
 614 0030 07F10C07 		add	r7, r7, #12
 615 0034 BD46     		mov	sp, r7
 616 0036 80BC     		pop	{r7}
 617 0038 7047     		bx	lr
 618              		.cfi_endproc
 619              	.LFE6:
 620              		.size	ADC_SAR_1_theACLK_SetModeRegister, .-ADC_SAR_1_theACLK_SetModeRegister
 621 003a 00BF     		.section	.text.ADC_SAR_1_theACLK_ClearModeRegister,"ax",%progbits
 622              		.align	2
 623              		.global	ADC_SAR_1_theACLK_ClearModeRegister
 624              		.thumb
 625              		.thumb_func
 626              		.type	ADC_SAR_1_theACLK_ClearModeRegister, %function
 627              	ADC_SAR_1_theACLK_ClearModeRegister:
 628              	.LFB7:
 336:.\Generated_Source\PSoC5/ADC_SAR_1_theACLK.c **** 
 337:.\Generated_Source\PSoC5/ADC_SAR_1_theACLK.c **** 
 338:.\Generated_Source\PSoC5/ADC_SAR_1_theACLK.c **** /*******************************************************************************
 339:.\Generated_Source\PSoC5/ADC_SAR_1_theACLK.c **** * Function Name: ADC_SAR_1_theACLK_ClearModeRegister
ARM GAS  C:\Users\Brian\AppData\Local\Temp\ccLHNPxG.s 			page 18


 340:.\Generated_Source\PSoC5/ADC_SAR_1_theACLK.c **** ********************************************************************************
 341:.\Generated_Source\PSoC5/ADC_SAR_1_theACLK.c **** *
 342:.\Generated_Source\PSoC5/ADC_SAR_1_theACLK.c **** * Summary:
 343:.\Generated_Source\PSoC5/ADC_SAR_1_theACLK.c **** *  Clears flags that control the operating mode of the clock. This function
 344:.\Generated_Source\PSoC5/ADC_SAR_1_theACLK.c **** *  only changes flags from 1 to 0; flags that are already 0 will remain
 345:.\Generated_Source\PSoC5/ADC_SAR_1_theACLK.c **** *  unchanged. To set flags, use the SetModeRegister function. The clock must be
 346:.\Generated_Source\PSoC5/ADC_SAR_1_theACLK.c **** *  disabled before changing the mode.
 347:.\Generated_Source\PSoC5/ADC_SAR_1_theACLK.c **** *
 348:.\Generated_Source\PSoC5/ADC_SAR_1_theACLK.c **** * Parameters:
 349:.\Generated_Source\PSoC5/ADC_SAR_1_theACLK.c **** *  clkMode: Bit mask containing the bits to clear. For PSoC 3 and PSoC 5,
 350:.\Generated_Source\PSoC5/ADC_SAR_1_theACLK.c **** *   clkMode should be a set of the following optional bits or'ed together.
 351:.\Generated_Source\PSoC5/ADC_SAR_1_theACLK.c **** *   - CYCLK_EARLY Enable early phase mode. Rising edge of output clock will
 352:.\Generated_Source\PSoC5/ADC_SAR_1_theACLK.c **** *                 occur when the divider count reaches half of the divide
 353:.\Generated_Source\PSoC5/ADC_SAR_1_theACLK.c **** *                 value.
 354:.\Generated_Source\PSoC5/ADC_SAR_1_theACLK.c **** *   - CYCLK_DUTY  Enable 50% duty cycle output. When enabled, the output clock
 355:.\Generated_Source\PSoC5/ADC_SAR_1_theACLK.c **** *                 is asserted for approximately half of its period. When
 356:.\Generated_Source\PSoC5/ADC_SAR_1_theACLK.c **** *                 disabled, the output clock is asserted for one period of the
 357:.\Generated_Source\PSoC5/ADC_SAR_1_theACLK.c **** *                 source clock.
 358:.\Generated_Source\PSoC5/ADC_SAR_1_theACLK.c **** *   - CYCLK_SYNC  Enable output synchronization to master clock. This should
 359:.\Generated_Source\PSoC5/ADC_SAR_1_theACLK.c **** *                 be enabled for all synchronous clocks.
 360:.\Generated_Source\PSoC5/ADC_SAR_1_theACLK.c **** *   See the Technical Reference Manual for details about setting the mode of
 361:.\Generated_Source\PSoC5/ADC_SAR_1_theACLK.c **** *   the clock. Specifically, see the CLKDIST.DCFG.CFG2 register.
 362:.\Generated_Source\PSoC5/ADC_SAR_1_theACLK.c **** *
 363:.\Generated_Source\PSoC5/ADC_SAR_1_theACLK.c **** * Returns:
 364:.\Generated_Source\PSoC5/ADC_SAR_1_theACLK.c **** *  None
 365:.\Generated_Source\PSoC5/ADC_SAR_1_theACLK.c **** *
 366:.\Generated_Source\PSoC5/ADC_SAR_1_theACLK.c **** *******************************************************************************/
 367:.\Generated_Source\PSoC5/ADC_SAR_1_theACLK.c **** void ADC_SAR_1_theACLK_ClearModeRegister(uint8 modeBitMask) 
 368:.\Generated_Source\PSoC5/ADC_SAR_1_theACLK.c **** {
 629              		.loc 1 368 0
 630              		.cfi_startproc
 631              		@ args = 0, pretend = 0, frame = 8
 632              		@ frame_needed = 1, uses_anonymous_args = 0
 633              		@ link register save eliminated.
 634 0000 80B4     		push	{r7}
 635              	.LCFI18:
 636              		.cfi_def_cfa_offset 4
 637              		.cfi_offset 7, -4
 638 0002 83B0     		sub	sp, sp, #12
 639              	.LCFI19:
 640              		.cfi_def_cfa_offset 16
 641 0004 00AF     		add	r7, sp, #0
 642              	.LCFI20:
 643              		.cfi_def_cfa_register 7
 644 0006 0346     		mov	r3, r0
 645 0008 FB71     		strb	r3, [r7, #7]
 369:.\Generated_Source\PSoC5/ADC_SAR_1_theACLK.c ****     ADC_SAR_1_theACLK_MOD_SRC &= (uint8)(~modeBitMask) | (uint8)(~(uint8)(ADC_SAR_1_theACLK_MODE_MA
 646              		.loc 1 369 0
 647 000a 44F20A13 		movw	r3, #16650
 648 000e C4F20003 		movt	r3, 16384
 649 0012 44F20A12 		movw	r2, #16650
 650 0016 C4F20002 		movt	r2, 16384
 651 001a 1278     		ldrb	r2, [r2, #0]
 652 001c D1B2     		uxtb	r1, r2
 653 001e FA79     		ldrb	r2, [r7, #7]
 654 0020 6FEA0202 		mvn	r2, r2
 655 0024 D2B2     		uxtb	r2, r2
ARM GAS  C:\Users\Brian\AppData\Local\Temp\ccLHNPxG.s 			page 19


 656 0026 42F00702 		orr	r2, r2, #7
 657 002a D2B2     		uxtb	r2, r2
 658 002c 0A40     		ands	r2, r2, r1
 659 002e D2B2     		uxtb	r2, r2
 660 0030 1A70     		strb	r2, [r3, #0]
 370:.\Generated_Source\PSoC5/ADC_SAR_1_theACLK.c **** }
 661              		.loc 1 370 0
 662 0032 07F10C07 		add	r7, r7, #12
 663 0036 BD46     		mov	sp, r7
 664 0038 80BC     		pop	{r7}
 665 003a 7047     		bx	lr
 666              		.cfi_endproc
 667              	.LFE7:
 668              		.size	ADC_SAR_1_theACLK_ClearModeRegister, .-ADC_SAR_1_theACLK_ClearModeRegister
 669              		.section	.text.ADC_SAR_1_theACLK_GetModeRegister,"ax",%progbits
 670              		.align	2
 671              		.global	ADC_SAR_1_theACLK_GetModeRegister
 672              		.thumb
 673              		.thumb_func
 674              		.type	ADC_SAR_1_theACLK_GetModeRegister, %function
 675              	ADC_SAR_1_theACLK_GetModeRegister:
 676              	.LFB8:
 371:.\Generated_Source\PSoC5/ADC_SAR_1_theACLK.c **** 
 372:.\Generated_Source\PSoC5/ADC_SAR_1_theACLK.c **** 
 373:.\Generated_Source\PSoC5/ADC_SAR_1_theACLK.c **** /*******************************************************************************
 374:.\Generated_Source\PSoC5/ADC_SAR_1_theACLK.c **** * Function Name: ADC_SAR_1_theACLK_GetModeRegister
 375:.\Generated_Source\PSoC5/ADC_SAR_1_theACLK.c **** ********************************************************************************
 376:.\Generated_Source\PSoC5/ADC_SAR_1_theACLK.c **** *
 377:.\Generated_Source\PSoC5/ADC_SAR_1_theACLK.c **** * Summary:
 378:.\Generated_Source\PSoC5/ADC_SAR_1_theACLK.c **** *  Gets the clock mode register value.
 379:.\Generated_Source\PSoC5/ADC_SAR_1_theACLK.c **** *
 380:.\Generated_Source\PSoC5/ADC_SAR_1_theACLK.c **** * Parameters:
 381:.\Generated_Source\PSoC5/ADC_SAR_1_theACLK.c **** *  None
 382:.\Generated_Source\PSoC5/ADC_SAR_1_theACLK.c **** *
 383:.\Generated_Source\PSoC5/ADC_SAR_1_theACLK.c **** * Returns:
 384:.\Generated_Source\PSoC5/ADC_SAR_1_theACLK.c **** *  Bit mask representing the enabled mode bits. See the SetModeRegister and
 385:.\Generated_Source\PSoC5/ADC_SAR_1_theACLK.c **** *  ClearModeRegister descriptions for details about the mode bits.
 386:.\Generated_Source\PSoC5/ADC_SAR_1_theACLK.c **** *
 387:.\Generated_Source\PSoC5/ADC_SAR_1_theACLK.c **** *******************************************************************************/
 388:.\Generated_Source\PSoC5/ADC_SAR_1_theACLK.c **** uint8 ADC_SAR_1_theACLK_GetModeRegister(void) 
 389:.\Generated_Source\PSoC5/ADC_SAR_1_theACLK.c **** {
 677              		.loc 1 389 0
 678              		.cfi_startproc
 679              		@ args = 0, pretend = 0, frame = 0
 680              		@ frame_needed = 1, uses_anonymous_args = 0
 681              		@ link register save eliminated.
 682 0000 80B4     		push	{r7}
 683              	.LCFI21:
 684              		.cfi_def_cfa_offset 4
 685              		.cfi_offset 7, -4
 686 0002 00AF     		add	r7, sp, #0
 687              	.LCFI22:
 688              		.cfi_def_cfa_register 7
 390:.\Generated_Source\PSoC5/ADC_SAR_1_theACLK.c ****     return ADC_SAR_1_theACLK_MOD_SRC & (uint8)(ADC_SAR_1_theACLK_MODE_MASK);
 689              		.loc 1 390 0
 690 0004 44F20A13 		movw	r3, #16650
 691 0008 C4F20003 		movt	r3, 16384
ARM GAS  C:\Users\Brian\AppData\Local\Temp\ccLHNPxG.s 			page 20


 692 000c 1B78     		ldrb	r3, [r3, #0]
 693 000e DBB2     		uxtb	r3, r3
 694 0010 23F00703 		bic	r3, r3, #7
 695 0014 DBB2     		uxtb	r3, r3
 391:.\Generated_Source\PSoC5/ADC_SAR_1_theACLK.c **** }
 696              		.loc 1 391 0
 697 0016 1846     		mov	r0, r3
 698 0018 BD46     		mov	sp, r7
 699 001a 80BC     		pop	{r7}
 700 001c 7047     		bx	lr
 701              		.cfi_endproc
 702              	.LFE8:
 703              		.size	ADC_SAR_1_theACLK_GetModeRegister, .-ADC_SAR_1_theACLK_GetModeRegister
 704 001e 00BF     		.section	.text.ADC_SAR_1_theACLK_SetSourceRegister,"ax",%progbits
 705              		.align	2
 706              		.global	ADC_SAR_1_theACLK_SetSourceRegister
 707              		.thumb
 708              		.thumb_func
 709              		.type	ADC_SAR_1_theACLK_SetSourceRegister, %function
 710              	ADC_SAR_1_theACLK_SetSourceRegister:
 711              	.LFB9:
 392:.\Generated_Source\PSoC5/ADC_SAR_1_theACLK.c **** 
 393:.\Generated_Source\PSoC5/ADC_SAR_1_theACLK.c **** 
 394:.\Generated_Source\PSoC5/ADC_SAR_1_theACLK.c **** /*******************************************************************************
 395:.\Generated_Source\PSoC5/ADC_SAR_1_theACLK.c **** * Function Name: ADC_SAR_1_theACLK_SetSourceRegister
 396:.\Generated_Source\PSoC5/ADC_SAR_1_theACLK.c **** ********************************************************************************
 397:.\Generated_Source\PSoC5/ADC_SAR_1_theACLK.c **** *
 398:.\Generated_Source\PSoC5/ADC_SAR_1_theACLK.c **** * Summary:
 399:.\Generated_Source\PSoC5/ADC_SAR_1_theACLK.c **** *  Sets the input source of the clock. The clock must be disabled before
 400:.\Generated_Source\PSoC5/ADC_SAR_1_theACLK.c **** *  changing the source. The old and new clock sources must be running.
 401:.\Generated_Source\PSoC5/ADC_SAR_1_theACLK.c **** *
 402:.\Generated_Source\PSoC5/ADC_SAR_1_theACLK.c **** * Parameters:
 403:.\Generated_Source\PSoC5/ADC_SAR_1_theACLK.c **** *  clkSource:  For PSoC 3 and PSoC 5 devices, clkSource should be one of the
 404:.\Generated_Source\PSoC5/ADC_SAR_1_theACLK.c **** *   following input sources:
 405:.\Generated_Source\PSoC5/ADC_SAR_1_theACLK.c **** *   - CYCLK_SRC_SEL_SYNC_DIG
 406:.\Generated_Source\PSoC5/ADC_SAR_1_theACLK.c **** *   - CYCLK_SRC_SEL_IMO
 407:.\Generated_Source\PSoC5/ADC_SAR_1_theACLK.c **** *   - CYCLK_SRC_SEL_XTALM
 408:.\Generated_Source\PSoC5/ADC_SAR_1_theACLK.c **** *   - CYCLK_SRC_SEL_ILO
 409:.\Generated_Source\PSoC5/ADC_SAR_1_theACLK.c **** *   - CYCLK_SRC_SEL_PLL
 410:.\Generated_Source\PSoC5/ADC_SAR_1_theACLK.c **** *   - CYCLK_SRC_SEL_XTALK
 411:.\Generated_Source\PSoC5/ADC_SAR_1_theACLK.c **** *   - CYCLK_SRC_SEL_DSI_G
 412:.\Generated_Source\PSoC5/ADC_SAR_1_theACLK.c **** *   - CYCLK_SRC_SEL_DSI_D/CYCLK_SRC_SEL_DSI_A
 413:.\Generated_Source\PSoC5/ADC_SAR_1_theACLK.c **** *   See the Technical Reference Manual for details on clock sources.
 414:.\Generated_Source\PSoC5/ADC_SAR_1_theACLK.c **** *
 415:.\Generated_Source\PSoC5/ADC_SAR_1_theACLK.c **** * Returns:
 416:.\Generated_Source\PSoC5/ADC_SAR_1_theACLK.c **** *  None
 417:.\Generated_Source\PSoC5/ADC_SAR_1_theACLK.c **** *
 418:.\Generated_Source\PSoC5/ADC_SAR_1_theACLK.c **** *******************************************************************************/
 419:.\Generated_Source\PSoC5/ADC_SAR_1_theACLK.c **** void ADC_SAR_1_theACLK_SetSourceRegister(uint8 clkSource) 
 420:.\Generated_Source\PSoC5/ADC_SAR_1_theACLK.c **** {
 712              		.loc 1 420 0
 713              		.cfi_startproc
 714              		@ args = 0, pretend = 0, frame = 16
 715              		@ frame_needed = 1, uses_anonymous_args = 0
 716 0000 80B5     		push	{r7, lr}
 717              	.LCFI23:
 718              		.cfi_def_cfa_offset 8
ARM GAS  C:\Users\Brian\AppData\Local\Temp\ccLHNPxG.s 			page 21


 719              		.cfi_offset 7, -8
 720              		.cfi_offset 14, -4
 721 0002 84B0     		sub	sp, sp, #16
 722              	.LCFI24:
 723              		.cfi_def_cfa_offset 24
 724 0004 00AF     		add	r7, sp, #0
 725              	.LCFI25:
 726              		.cfi_def_cfa_register 7
 727 0006 0346     		mov	r3, r0
 728 0008 FB71     		strb	r3, [r7, #7]
 421:.\Generated_Source\PSoC5/ADC_SAR_1_theACLK.c ****     uint16 currDiv = ADC_SAR_1_theACLK_GetDividerRegister();
 729              		.loc 1 421 0
 730 000a FFF7FEFF 		bl	ADC_SAR_1_theACLK_GetDividerRegister
 731 000e 0346     		mov	r3, r0
 732 0010 FB81     		strh	r3, [r7, #14]	@ movhi
 422:.\Generated_Source\PSoC5/ADC_SAR_1_theACLK.c ****     uint8 oldSrc = ADC_SAR_1_theACLK_GetSourceRegister();
 733              		.loc 1 422 0
 734 0012 FFF7FEFF 		bl	ADC_SAR_1_theACLK_GetSourceRegister
 735 0016 0346     		mov	r3, r0
 736 0018 7B73     		strb	r3, [r7, #13]
 423:.\Generated_Source\PSoC5/ADC_SAR_1_theACLK.c **** 
 424:.\Generated_Source\PSoC5/ADC_SAR_1_theACLK.c ****     if (((oldSrc != ((uint8)CYCLK_SRC_SEL_CLK_SYNC_D)) && 
 737              		.loc 1 424 0
 738 001a 7B7B     		ldrb	r3, [r7, #13]	@ zero_extendqisi2
 739 001c 002B     		cmp	r3, #0
 740 001e 27D0     		beq	.L29
 741              		.loc 1 424 0 is_stmt 0 discriminator 1
 742 0020 FB79     		ldrb	r3, [r7, #7]	@ zero_extendqisi2
 743 0022 002B     		cmp	r3, #0
 744 0024 24D1     		bne	.L29
 425:.\Generated_Source\PSoC5/ADC_SAR_1_theACLK.c ****         (clkSource == ((uint8)CYCLK_SRC_SEL_CLK_SYNC_D))) && (currDiv == 0u))
 745              		.loc 1 425 0 is_stmt 1
 746 0026 FB89     		ldrh	r3, [r7, #14]
 747 0028 002B     		cmp	r3, #0
 748 002a 21D1     		bne	.L29
 426:.\Generated_Source\PSoC5/ADC_SAR_1_theACLK.c ****     {
 427:.\Generated_Source\PSoC5/ADC_SAR_1_theACLK.c ****         /* Switching to Master and divider is 1, set SSS, which will output master, */
 428:.\Generated_Source\PSoC5/ADC_SAR_1_theACLK.c ****         /* then set the source so we are consistent.                                */
 429:.\Generated_Source\PSoC5/ADC_SAR_1_theACLK.c ****         ADC_SAR_1_theACLK_MOD_SRC |= CYCLK_SSS;
 749              		.loc 1 429 0
 750 002c 44F20A13 		movw	r3, #16650
 751 0030 C4F20003 		movt	r3, 16384
 752 0034 44F20A12 		movw	r2, #16650
 753 0038 C4F20002 		movt	r2, 16384
 754 003c 1278     		ldrb	r2, [r2, #0]
 755 003e D2B2     		uxtb	r2, r2
 756 0040 42F04002 		orr	r2, r2, #64
 757 0044 D2B2     		uxtb	r2, r2
 758 0046 1A70     		strb	r2, [r3, #0]
 430:.\Generated_Source\PSoC5/ADC_SAR_1_theACLK.c ****         ADC_SAR_1_theACLK_MOD_SRC =
 759              		.loc 1 430 0
 760 0048 44F20A13 		movw	r3, #16650
 761 004c C4F20003 		movt	r3, 16384
 431:.\Generated_Source\PSoC5/ADC_SAR_1_theACLK.c ****             (ADC_SAR_1_theACLK_MOD_SRC & (uint8)(~ADC_SAR_1_theACLK_SRC_SEL_MSK)) | clkSource;
 762              		.loc 1 431 0
 763 0050 44F20A12 		movw	r2, #16650
 764 0054 C4F20002 		movt	r2, 16384
ARM GAS  C:\Users\Brian\AppData\Local\Temp\ccLHNPxG.s 			page 22


 765 0058 1278     		ldrb	r2, [r2, #0]
 766 005a D2B2     		uxtb	r2, r2
 430:.\Generated_Source\PSoC5/ADC_SAR_1_theACLK.c ****         ADC_SAR_1_theACLK_MOD_SRC =
 767              		.loc 1 430 0
 768 005c D2B2     		uxtb	r2, r2
 769 005e 22F00702 		bic	r2, r2, #7
 770 0062 D1B2     		uxtb	r1, r2
 771 0064 FA79     		ldrb	r2, [r7, #7]	@ zero_extendqisi2
 772 0066 0A43     		orrs	r2, r2, r1
 773 0068 D2B2     		uxtb	r2, r2
 774 006a D2B2     		uxtb	r2, r2
 775 006c 1A70     		strb	r2, [r3, #0]
 776 006e 3DE0     		b	.L28
 777              	.L29:
 432:.\Generated_Source\PSoC5/ADC_SAR_1_theACLK.c ****     }
 433:.\Generated_Source\PSoC5/ADC_SAR_1_theACLK.c ****     else if (((oldSrc == ((uint8)CYCLK_SRC_SEL_CLK_SYNC_D)) && 
 778              		.loc 1 433 0
 779 0070 7B7B     		ldrb	r3, [r7, #13]	@ zero_extendqisi2
 780 0072 002B     		cmp	r3, #0
 781 0074 27D1     		bne	.L31
 782              		.loc 1 433 0 is_stmt 0 discriminator 1
 783 0076 FB79     		ldrb	r3, [r7, #7]	@ zero_extendqisi2
 784 0078 002B     		cmp	r3, #0
 785 007a 24D0     		beq	.L31
 434:.\Generated_Source\PSoC5/ADC_SAR_1_theACLK.c ****             (clkSource != ((uint8)CYCLK_SRC_SEL_CLK_SYNC_D))) && (currDiv == 0u))
 786              		.loc 1 434 0 is_stmt 1
 787 007c FB89     		ldrh	r3, [r7, #14]
 788 007e 002B     		cmp	r3, #0
 789 0080 21D1     		bne	.L31
 435:.\Generated_Source\PSoC5/ADC_SAR_1_theACLK.c ****     {
 436:.\Generated_Source\PSoC5/ADC_SAR_1_theACLK.c ****         /* Switching from Master to not and divider is 1, set source, so we don't   */
 437:.\Generated_Source\PSoC5/ADC_SAR_1_theACLK.c ****         /* lock when we clear SSS.                                                  */
 438:.\Generated_Source\PSoC5/ADC_SAR_1_theACLK.c ****         ADC_SAR_1_theACLK_MOD_SRC =
 790              		.loc 1 438 0
 791 0082 44F20A13 		movw	r3, #16650
 792 0086 C4F20003 		movt	r3, 16384
 439:.\Generated_Source\PSoC5/ADC_SAR_1_theACLK.c ****             (ADC_SAR_1_theACLK_MOD_SRC & (uint8)(~ADC_SAR_1_theACLK_SRC_SEL_MSK)) | clkSource;
 793              		.loc 1 439 0
 794 008a 44F20A12 		movw	r2, #16650
 795 008e C4F20002 		movt	r2, 16384
 796 0092 1278     		ldrb	r2, [r2, #0]
 797 0094 D2B2     		uxtb	r2, r2
 438:.\Generated_Source\PSoC5/ADC_SAR_1_theACLK.c ****         ADC_SAR_1_theACLK_MOD_SRC =
 798              		.loc 1 438 0
 799 0096 D2B2     		uxtb	r2, r2
 800 0098 22F00702 		bic	r2, r2, #7
 801 009c D1B2     		uxtb	r1, r2
 802 009e FA79     		ldrb	r2, [r7, #7]	@ zero_extendqisi2
 803 00a0 0A43     		orrs	r2, r2, r1
 804 00a2 D2B2     		uxtb	r2, r2
 805 00a4 D2B2     		uxtb	r2, r2
 806 00a6 1A70     		strb	r2, [r3, #0]
 440:.\Generated_Source\PSoC5/ADC_SAR_1_theACLK.c ****         ADC_SAR_1_theACLK_MOD_SRC &= (uint8)(~CYCLK_SSS);
 807              		.loc 1 440 0
 808 00a8 44F20A13 		movw	r3, #16650
 809 00ac C4F20003 		movt	r3, 16384
 810 00b0 44F20A12 		movw	r2, #16650
ARM GAS  C:\Users\Brian\AppData\Local\Temp\ccLHNPxG.s 			page 23


 811 00b4 C4F20002 		movt	r2, 16384
 812 00b8 1278     		ldrb	r2, [r2, #0]
 813 00ba D2B2     		uxtb	r2, r2
 814 00bc 22F04002 		bic	r2, r2, #64
 815 00c0 D2B2     		uxtb	r2, r2
 816 00c2 1A70     		strb	r2, [r3, #0]
 817 00c4 12E0     		b	.L28
 818              	.L31:
 441:.\Generated_Source\PSoC5/ADC_SAR_1_theACLK.c ****     }
 442:.\Generated_Source\PSoC5/ADC_SAR_1_theACLK.c ****     else
 443:.\Generated_Source\PSoC5/ADC_SAR_1_theACLK.c ****     {
 444:.\Generated_Source\PSoC5/ADC_SAR_1_theACLK.c ****         ADC_SAR_1_theACLK_MOD_SRC =
 819              		.loc 1 444 0
 820 00c6 44F20A13 		movw	r3, #16650
 821 00ca C4F20003 		movt	r3, 16384
 445:.\Generated_Source\PSoC5/ADC_SAR_1_theACLK.c ****             (ADC_SAR_1_theACLK_MOD_SRC & (uint8)(~ADC_SAR_1_theACLK_SRC_SEL_MSK)) | clkSource;
 822              		.loc 1 445 0
 823 00ce 44F20A12 		movw	r2, #16650
 824 00d2 C4F20002 		movt	r2, 16384
 825 00d6 1278     		ldrb	r2, [r2, #0]
 826 00d8 D2B2     		uxtb	r2, r2
 444:.\Generated_Source\PSoC5/ADC_SAR_1_theACLK.c ****         ADC_SAR_1_theACLK_MOD_SRC =
 827              		.loc 1 444 0
 828 00da D2B2     		uxtb	r2, r2
 829 00dc 22F00702 		bic	r2, r2, #7
 830 00e0 D1B2     		uxtb	r1, r2
 831 00e2 FA79     		ldrb	r2, [r7, #7]	@ zero_extendqisi2
 832 00e4 0A43     		orrs	r2, r2, r1
 833 00e6 D2B2     		uxtb	r2, r2
 834 00e8 D2B2     		uxtb	r2, r2
 835 00ea 1A70     		strb	r2, [r3, #0]
 836              	.L28:
 446:.\Generated_Source\PSoC5/ADC_SAR_1_theACLK.c ****     }
 447:.\Generated_Source\PSoC5/ADC_SAR_1_theACLK.c **** }
 837              		.loc 1 447 0
 838 00ec 07F11007 		add	r7, r7, #16
 839 00f0 BD46     		mov	sp, r7
 840 00f2 80BD     		pop	{r7, pc}
 841              		.cfi_endproc
 842              	.LFE9:
 843              		.size	ADC_SAR_1_theACLK_SetSourceRegister, .-ADC_SAR_1_theACLK_SetSourceRegister
 844              		.section	.text.ADC_SAR_1_theACLK_GetSourceRegister,"ax",%progbits
 845              		.align	2
 846              		.global	ADC_SAR_1_theACLK_GetSourceRegister
 847              		.thumb
 848              		.thumb_func
 849              		.type	ADC_SAR_1_theACLK_GetSourceRegister, %function
 850              	ADC_SAR_1_theACLK_GetSourceRegister:
 851              	.LFB10:
 448:.\Generated_Source\PSoC5/ADC_SAR_1_theACLK.c **** 
 449:.\Generated_Source\PSoC5/ADC_SAR_1_theACLK.c **** 
 450:.\Generated_Source\PSoC5/ADC_SAR_1_theACLK.c **** /*******************************************************************************
 451:.\Generated_Source\PSoC5/ADC_SAR_1_theACLK.c **** * Function Name: ADC_SAR_1_theACLK_GetSourceRegister
 452:.\Generated_Source\PSoC5/ADC_SAR_1_theACLK.c **** ********************************************************************************
 453:.\Generated_Source\PSoC5/ADC_SAR_1_theACLK.c **** *
 454:.\Generated_Source\PSoC5/ADC_SAR_1_theACLK.c **** * Summary:
 455:.\Generated_Source\PSoC5/ADC_SAR_1_theACLK.c **** *  Gets the input source of the clock.
ARM GAS  C:\Users\Brian\AppData\Local\Temp\ccLHNPxG.s 			page 24


 456:.\Generated_Source\PSoC5/ADC_SAR_1_theACLK.c **** *
 457:.\Generated_Source\PSoC5/ADC_SAR_1_theACLK.c **** * Parameters:
 458:.\Generated_Source\PSoC5/ADC_SAR_1_theACLK.c **** *  None
 459:.\Generated_Source\PSoC5/ADC_SAR_1_theACLK.c **** *
 460:.\Generated_Source\PSoC5/ADC_SAR_1_theACLK.c **** * Returns:
 461:.\Generated_Source\PSoC5/ADC_SAR_1_theACLK.c **** *  The input source of the clock. See SetSourceRegister for details.
 462:.\Generated_Source\PSoC5/ADC_SAR_1_theACLK.c **** *
 463:.\Generated_Source\PSoC5/ADC_SAR_1_theACLK.c **** *******************************************************************************/
 464:.\Generated_Source\PSoC5/ADC_SAR_1_theACLK.c **** uint8 ADC_SAR_1_theACLK_GetSourceRegister(void) 
 465:.\Generated_Source\PSoC5/ADC_SAR_1_theACLK.c **** {
 852              		.loc 1 465 0
 853              		.cfi_startproc
 854              		@ args = 0, pretend = 0, frame = 0
 855              		@ frame_needed = 1, uses_anonymous_args = 0
 856              		@ link register save eliminated.
 857 0000 80B4     		push	{r7}
 858              	.LCFI26:
 859              		.cfi_def_cfa_offset 4
 860              		.cfi_offset 7, -4
 861 0002 00AF     		add	r7, sp, #0
 862              	.LCFI27:
 863              		.cfi_def_cfa_register 7
 466:.\Generated_Source\PSoC5/ADC_SAR_1_theACLK.c ****     return ADC_SAR_1_theACLK_MOD_SRC & ADC_SAR_1_theACLK_SRC_SEL_MSK;
 864              		.loc 1 466 0
 865 0004 44F20A13 		movw	r3, #16650
 866 0008 C4F20003 		movt	r3, 16384
 867 000c 1B78     		ldrb	r3, [r3, #0]
 868 000e DBB2     		uxtb	r3, r3
 869 0010 03F00703 		and	r3, r3, #7
 870 0014 DBB2     		uxtb	r3, r3
 467:.\Generated_Source\PSoC5/ADC_SAR_1_theACLK.c **** }
 871              		.loc 1 467 0
 872 0016 1846     		mov	r0, r3
 873 0018 BD46     		mov	sp, r7
 874 001a 80BC     		pop	{r7}
 875 001c 7047     		bx	lr
 876              		.cfi_endproc
 877              	.LFE10:
 878              		.size	ADC_SAR_1_theACLK_GetSourceRegister, .-ADC_SAR_1_theACLK_GetSourceRegister
 879 001e 00BF     		.section	.text.ADC_SAR_1_theACLK_SetPhaseRegister,"ax",%progbits
 880              		.align	2
 881              		.global	ADC_SAR_1_theACLK_SetPhaseRegister
 882              		.thumb
 883              		.thumb_func
 884              		.type	ADC_SAR_1_theACLK_SetPhaseRegister, %function
 885              	ADC_SAR_1_theACLK_SetPhaseRegister:
 886              	.LFB11:
 468:.\Generated_Source\PSoC5/ADC_SAR_1_theACLK.c **** 
 469:.\Generated_Source\PSoC5/ADC_SAR_1_theACLK.c **** 
 470:.\Generated_Source\PSoC5/ADC_SAR_1_theACLK.c **** #if defined(ADC_SAR_1_theACLK__CFG3)
 471:.\Generated_Source\PSoC5/ADC_SAR_1_theACLK.c **** 
 472:.\Generated_Source\PSoC5/ADC_SAR_1_theACLK.c **** 
 473:.\Generated_Source\PSoC5/ADC_SAR_1_theACLK.c **** /*******************************************************************************
 474:.\Generated_Source\PSoC5/ADC_SAR_1_theACLK.c **** * Function Name: ADC_SAR_1_theACLK_SetPhaseRegister
 475:.\Generated_Source\PSoC5/ADC_SAR_1_theACLK.c **** ********************************************************************************
 476:.\Generated_Source\PSoC5/ADC_SAR_1_theACLK.c **** *
 477:.\Generated_Source\PSoC5/ADC_SAR_1_theACLK.c **** * Summary:
ARM GAS  C:\Users\Brian\AppData\Local\Temp\ccLHNPxG.s 			page 25


 478:.\Generated_Source\PSoC5/ADC_SAR_1_theACLK.c **** *  Sets the phase delay of the analog clock. This function is only available
 479:.\Generated_Source\PSoC5/ADC_SAR_1_theACLK.c **** *  for analog clocks. The clock must be disabled before changing the phase
 480:.\Generated_Source\PSoC5/ADC_SAR_1_theACLK.c **** *  delay to avoid glitches.
 481:.\Generated_Source\PSoC5/ADC_SAR_1_theACLK.c **** *
 482:.\Generated_Source\PSoC5/ADC_SAR_1_theACLK.c **** * Parameters:
 483:.\Generated_Source\PSoC5/ADC_SAR_1_theACLK.c **** *  clkPhase: Amount to delay the phase of the clock, in 1.0ns increments.
 484:.\Generated_Source\PSoC5/ADC_SAR_1_theACLK.c **** *   clkPhase must be from 1 to 11 inclusive. Other values, including 0,
 485:.\Generated_Source\PSoC5/ADC_SAR_1_theACLK.c **** *   disable the clock. clkPhase = 1 produces a 0ns delay and clkPhase = 11 
 486:.\Generated_Source\PSoC5/ADC_SAR_1_theACLK.c **** *   produces a 10ns delay.
 487:.\Generated_Source\PSoC5/ADC_SAR_1_theACLK.c **** *
 488:.\Generated_Source\PSoC5/ADC_SAR_1_theACLK.c **** * Returns:
 489:.\Generated_Source\PSoC5/ADC_SAR_1_theACLK.c **** *  None
 490:.\Generated_Source\PSoC5/ADC_SAR_1_theACLK.c **** *
 491:.\Generated_Source\PSoC5/ADC_SAR_1_theACLK.c **** *******************************************************************************/
 492:.\Generated_Source\PSoC5/ADC_SAR_1_theACLK.c **** void ADC_SAR_1_theACLK_SetPhaseRegister(uint8 clkPhase) 
 493:.\Generated_Source\PSoC5/ADC_SAR_1_theACLK.c **** {
 887              		.loc 1 493 0
 888              		.cfi_startproc
 889              		@ args = 0, pretend = 0, frame = 8
 890              		@ frame_needed = 1, uses_anonymous_args = 0
 891              		@ link register save eliminated.
 892 0000 80B4     		push	{r7}
 893              	.LCFI28:
 894              		.cfi_def_cfa_offset 4
 895              		.cfi_offset 7, -4
 896 0002 83B0     		sub	sp, sp, #12
 897              	.LCFI29:
 898              		.cfi_def_cfa_offset 16
 899 0004 00AF     		add	r7, sp, #0
 900              	.LCFI30:
 901              		.cfi_def_cfa_register 7
 902 0006 0346     		mov	r3, r0
 903 0008 FB71     		strb	r3, [r7, #7]
 494:.\Generated_Source\PSoC5/ADC_SAR_1_theACLK.c ****     ADC_SAR_1_theACLK_PHASE = clkPhase & ADC_SAR_1_theACLK_PHASE_MASK;
 904              		.loc 1 494 0
 905 000a 44F20B13 		movw	r3, #16651
 906 000e C4F20003 		movt	r3, 16384
 907 0012 FA79     		ldrb	r2, [r7, #7]
 908 0014 02F00F02 		and	r2, r2, #15
 909 0018 D2B2     		uxtb	r2, r2
 910 001a 1A70     		strb	r2, [r3, #0]
 495:.\Generated_Source\PSoC5/ADC_SAR_1_theACLK.c **** }
 911              		.loc 1 495 0
 912 001c 07F10C07 		add	r7, r7, #12
 913 0020 BD46     		mov	sp, r7
 914 0022 80BC     		pop	{r7}
 915 0024 7047     		bx	lr
 916              		.cfi_endproc
 917              	.LFE11:
 918              		.size	ADC_SAR_1_theACLK_SetPhaseRegister, .-ADC_SAR_1_theACLK_SetPhaseRegister
 919 0026 00BF     		.section	.text.ADC_SAR_1_theACLK_GetPhaseRegister,"ax",%progbits
 920              		.align	2
 921              		.global	ADC_SAR_1_theACLK_GetPhaseRegister
 922              		.thumb
 923              		.thumb_func
 924              		.type	ADC_SAR_1_theACLK_GetPhaseRegister, %function
 925              	ADC_SAR_1_theACLK_GetPhaseRegister:
ARM GAS  C:\Users\Brian\AppData\Local\Temp\ccLHNPxG.s 			page 26


 926              	.LFB12:
 496:.\Generated_Source\PSoC5/ADC_SAR_1_theACLK.c **** 
 497:.\Generated_Source\PSoC5/ADC_SAR_1_theACLK.c **** 
 498:.\Generated_Source\PSoC5/ADC_SAR_1_theACLK.c **** /*******************************************************************************
 499:.\Generated_Source\PSoC5/ADC_SAR_1_theACLK.c **** * Function Name: ADC_SAR_1_theACLK_GetPhase
 500:.\Generated_Source\PSoC5/ADC_SAR_1_theACLK.c **** ********************************************************************************
 501:.\Generated_Source\PSoC5/ADC_SAR_1_theACLK.c **** *
 502:.\Generated_Source\PSoC5/ADC_SAR_1_theACLK.c **** * Summary:
 503:.\Generated_Source\PSoC5/ADC_SAR_1_theACLK.c **** *  Gets the phase delay of the analog clock. This function is only available
 504:.\Generated_Source\PSoC5/ADC_SAR_1_theACLK.c **** *  for analog clocks.
 505:.\Generated_Source\PSoC5/ADC_SAR_1_theACLK.c **** *
 506:.\Generated_Source\PSoC5/ADC_SAR_1_theACLK.c **** * Parameters:
 507:.\Generated_Source\PSoC5/ADC_SAR_1_theACLK.c **** *  None
 508:.\Generated_Source\PSoC5/ADC_SAR_1_theACLK.c **** *
 509:.\Generated_Source\PSoC5/ADC_SAR_1_theACLK.c **** * Returns:
 510:.\Generated_Source\PSoC5/ADC_SAR_1_theACLK.c **** *  Phase of the analog clock. See SetPhaseRegister for details.
 511:.\Generated_Source\PSoC5/ADC_SAR_1_theACLK.c **** *
 512:.\Generated_Source\PSoC5/ADC_SAR_1_theACLK.c **** *******************************************************************************/
 513:.\Generated_Source\PSoC5/ADC_SAR_1_theACLK.c **** uint8 ADC_SAR_1_theACLK_GetPhaseRegister(void) 
 514:.\Generated_Source\PSoC5/ADC_SAR_1_theACLK.c **** {
 927              		.loc 1 514 0
 928              		.cfi_startproc
 929              		@ args = 0, pretend = 0, frame = 0
 930              		@ frame_needed = 1, uses_anonymous_args = 0
 931              		@ link register save eliminated.
 932 0000 80B4     		push	{r7}
 933              	.LCFI31:
 934              		.cfi_def_cfa_offset 4
 935              		.cfi_offset 7, -4
 936 0002 00AF     		add	r7, sp, #0
 937              	.LCFI32:
 938              		.cfi_def_cfa_register 7
 515:.\Generated_Source\PSoC5/ADC_SAR_1_theACLK.c ****     return ADC_SAR_1_theACLK_PHASE & ADC_SAR_1_theACLK_PHASE_MASK;
 939              		.loc 1 515 0
 940 0004 44F20B13 		movw	r3, #16651
 941 0008 C4F20003 		movt	r3, 16384
 942 000c 1B78     		ldrb	r3, [r3, #0]
 943 000e DBB2     		uxtb	r3, r3
 944 0010 03F00F03 		and	r3, r3, #15
 945 0014 DBB2     		uxtb	r3, r3
 516:.\Generated_Source\PSoC5/ADC_SAR_1_theACLK.c **** }
 946              		.loc 1 516 0
 947 0016 1846     		mov	r0, r3
 948 0018 BD46     		mov	sp, r7
 949 001a 80BC     		pop	{r7}
 950 001c 7047     		bx	lr
 951              		.cfi_endproc
 952              	.LFE12:
 953              		.size	ADC_SAR_1_theACLK_GetPhaseRegister, .-ADC_SAR_1_theACLK_GetPhaseRegister
 954 001e 00BF     		.text
 955              	.Letext0:
 956              		.file 2 "./Generated_Source/PSoC5/cytypes.h"