ARM GAS  C:\Users\Brian\AppData\Local\Temp\cclOhuzj.s 			page 1


   1              		.syntax unified
   2              		.cpu cortex-m3
   3              		.fpu softvfp
   4              		.eabi_attribute 20, 1
   5              		.eabi_attribute 21, 1
   6              		.eabi_attribute 23, 3
   7              		.eabi_attribute 24, 1
   8              		.eabi_attribute 25, 1
   9              		.eabi_attribute 26, 1
  10              		.eabi_attribute 30, 6
  11              		.eabi_attribute 34, 1
  12              		.eabi_attribute 18, 4
  13              		.thumb
  14              		.file	"ADC_DelSig_1.c"
  15              		.text
  16              	.Ltext0:
  17              		.cfi_sections	.debug_frame
  18              		.global	ADC_DelSig_1_convDone
  19              		.bss
  20              		.type	ADC_DelSig_1_convDone, %object
  21              		.size	ADC_DelSig_1_convDone, 1
  22              	ADC_DelSig_1_convDone:
  23 0000 00       		.space	1
  24              		.global	ADC_DelSig_1_stopConversion
  25              		.type	ADC_DelSig_1_stopConversion, %object
  26              		.size	ADC_DelSig_1_stopConversion, 1
  27              	ADC_DelSig_1_stopConversion:
  28 0001 00       		.space	1
  29              		.global	ADC_DelSig_1_initVar
  30              		.type	ADC_DelSig_1_initVar, %object
  31              		.size	ADC_DelSig_1_initVar, 1
  32              	ADC_DelSig_1_initVar:
  33 0002 00       		.space	1
  34              		.global	ADC_DelSig_1_started
  35              		.type	ADC_DelSig_1_started, %object
  36              		.size	ADC_DelSig_1_started, 1
  37              	ADC_DelSig_1_started:
  38 0003 00       		.space	1
  39              		.global	ADC_DelSig_1_Config
  40              		.data
  41              		.type	ADC_DelSig_1_Config, %object
  42              		.size	ADC_DelSig_1_Config, 1
  43              	ADC_DelSig_1_Config:
  44 0000 01       		.byte	1
  45              		.comm	ADC_DelSig_1_Offset,4,4
  46              		.comm	ADC_DelSig_1_CountsPerVolt,4,4
  47              		.bss
  48              		.align	2
  49              	ADC_DelSig_1_gcor:
  50 0004 00000000 		.space	4
  51              		.section	.text.ADC_DelSig_1_Init,"ax",%progbits
  52              		.align	2
  53              		.global	ADC_DelSig_1_Init
  54              		.thumb
  55              		.thumb_func
  56              		.type	ADC_DelSig_1_Init, %function
  57              	ADC_DelSig_1_Init:
ARM GAS  C:\Users\Brian\AppData\Local\Temp\cclOhuzj.s 			page 2


  58              	.LFB0:
  59              		.file 1 ".\\Generated_Source\\PSoC5\\ADC_DelSig_1.c"
   1:.\Generated_Source\PSoC5/ADC_DelSig_1.c **** /*******************************************************************************
   2:.\Generated_Source\PSoC5/ADC_DelSig_1.c **** * File Name: ADC_DelSig_1.c
   3:.\Generated_Source\PSoC5/ADC_DelSig_1.c **** * Version 3.0
   4:.\Generated_Source\PSoC5/ADC_DelSig_1.c **** *
   5:.\Generated_Source\PSoC5/ADC_DelSig_1.c **** * Description:
   6:.\Generated_Source\PSoC5/ADC_DelSig_1.c **** *  This file provides the source code to the API for the Delta-Sigma ADC
   7:.\Generated_Source\PSoC5/ADC_DelSig_1.c **** *  Component.
   8:.\Generated_Source\PSoC5/ADC_DelSig_1.c **** *
   9:.\Generated_Source\PSoC5/ADC_DelSig_1.c **** * Note:
  10:.\Generated_Source\PSoC5/ADC_DelSig_1.c **** *
  11:.\Generated_Source\PSoC5/ADC_DelSig_1.c **** ********************************************************************************
  12:.\Generated_Source\PSoC5/ADC_DelSig_1.c **** * Copyright 2008-2013, Cypress Semiconductor Corporation.  All rights reserved.
  13:.\Generated_Source\PSoC5/ADC_DelSig_1.c **** * You may use this file only in accordance with the license, terms, conditions,
  14:.\Generated_Source\PSoC5/ADC_DelSig_1.c **** * disclaimers, and limitations in the end user license agreement accompanying
  15:.\Generated_Source\PSoC5/ADC_DelSig_1.c **** * the software package with which this file was provided.
  16:.\Generated_Source\PSoC5/ADC_DelSig_1.c **** *******************************************************************************/
  17:.\Generated_Source\PSoC5/ADC_DelSig_1.c **** 
  18:.\Generated_Source\PSoC5/ADC_DelSig_1.c **** #include "ADC_DelSig_1.h"
  19:.\Generated_Source\PSoC5/ADC_DelSig_1.c **** 
  20:.\Generated_Source\PSoC5/ADC_DelSig_1.c **** #if(ADC_DelSig_1_DEFAULT_INTERNAL_CLK)
  21:.\Generated_Source\PSoC5/ADC_DelSig_1.c ****     #include "ADC_DelSig_1_theACLK.h"
  22:.\Generated_Source\PSoC5/ADC_DelSig_1.c **** #endif /* ADC_DelSig_1_DEFAULT_INTERNAL_CLK */
  23:.\Generated_Source\PSoC5/ADC_DelSig_1.c **** 
  24:.\Generated_Source\PSoC5/ADC_DelSig_1.c **** #include "ADC_DelSig_1_Ext_CP_Clk.h"
  25:.\Generated_Source\PSoC5/ADC_DelSig_1.c **** 
  26:.\Generated_Source\PSoC5/ADC_DelSig_1.c **** #if(ADC_DelSig_1_DEFAULT_INPUT_MODE)
  27:.\Generated_Source\PSoC5/ADC_DelSig_1.c ****     #include "ADC_DelSig_1_AMux.h"
  28:.\Generated_Source\PSoC5/ADC_DelSig_1.c **** #endif /* ADC_DelSig_1_DEFAULT_INPUT_MODE */
  29:.\Generated_Source\PSoC5/ADC_DelSig_1.c **** 
  30:.\Generated_Source\PSoC5/ADC_DelSig_1.c **** 
  31:.\Generated_Source\PSoC5/ADC_DelSig_1.c **** /***************************************
  32:.\Generated_Source\PSoC5/ADC_DelSig_1.c **** * Global data allocation
  33:.\Generated_Source\PSoC5/ADC_DelSig_1.c **** ***************************************/
  34:.\Generated_Source\PSoC5/ADC_DelSig_1.c **** 
  35:.\Generated_Source\PSoC5/ADC_DelSig_1.c **** /* Software flag for checking conversion completed or not */
  36:.\Generated_Source\PSoC5/ADC_DelSig_1.c **** volatile uint8 ADC_DelSig_1_convDone = 0u;
  37:.\Generated_Source\PSoC5/ADC_DelSig_1.c **** 
  38:.\Generated_Source\PSoC5/ADC_DelSig_1.c **** /* Software flag to stop conversion for single sample conversion mode
  39:.\Generated_Source\PSoC5/ADC_DelSig_1.c **** *   with resolution above 16 bits 
  40:.\Generated_Source\PSoC5/ADC_DelSig_1.c **** */
  41:.\Generated_Source\PSoC5/ADC_DelSig_1.c **** volatile uint8 ADC_DelSig_1_stopConversion = 0u;
  42:.\Generated_Source\PSoC5/ADC_DelSig_1.c **** 
  43:.\Generated_Source\PSoC5/ADC_DelSig_1.c **** /* To run the initialization block only at the start up */
  44:.\Generated_Source\PSoC5/ADC_DelSig_1.c **** uint8 ADC_DelSig_1_initVar = 0u;
  45:.\Generated_Source\PSoC5/ADC_DelSig_1.c **** 
  46:.\Generated_Source\PSoC5/ADC_DelSig_1.c **** /* To check whether ADC started or not before switching the configuration */
  47:.\Generated_Source\PSoC5/ADC_DelSig_1.c **** volatile uint8 ADC_DelSig_1_started = 0u;
  48:.\Generated_Source\PSoC5/ADC_DelSig_1.c **** 
  49:.\Generated_Source\PSoC5/ADC_DelSig_1.c **** /* Flag to hold ADC config number. By default active config is 1. */
  50:.\Generated_Source\PSoC5/ADC_DelSig_1.c **** volatile uint8 ADC_DelSig_1_Config = 1u;
  51:.\Generated_Source\PSoC5/ADC_DelSig_1.c **** 
  52:.\Generated_Source\PSoC5/ADC_DelSig_1.c **** volatile int32 ADC_DelSig_1_Offset;
  53:.\Generated_Source\PSoC5/ADC_DelSig_1.c **** volatile int32 ADC_DelSig_1_CountsPerVolt;
  54:.\Generated_Source\PSoC5/ADC_DelSig_1.c **** 
  55:.\Generated_Source\PSoC5/ADC_DelSig_1.c **** 
ARM GAS  C:\Users\Brian\AppData\Local\Temp\cclOhuzj.s 			page 3


  56:.\Generated_Source\PSoC5/ADC_DelSig_1.c **** /***************************************
  57:.\Generated_Source\PSoC5/ADC_DelSig_1.c **** * Local data allocation
  58:.\Generated_Source\PSoC5/ADC_DelSig_1.c **** ***************************************/
  59:.\Generated_Source\PSoC5/ADC_DelSig_1.c **** 
  60:.\Generated_Source\PSoC5/ADC_DelSig_1.c **** /* The array with precalculated gain compensation coefficients */
  61:.\Generated_Source\PSoC5/ADC_DelSig_1.c **** static ADC_DelSig_1_GCOR_STRUCT ADC_DelSig_1_gcor[ADC_DelSig_1_DEFAULT_NUM_CONFIGS];
  62:.\Generated_Source\PSoC5/ADC_DelSig_1.c **** 
  63:.\Generated_Source\PSoC5/ADC_DelSig_1.c **** 
  64:.\Generated_Source\PSoC5/ADC_DelSig_1.c **** 
  65:.\Generated_Source\PSoC5/ADC_DelSig_1.c **** /***************************************
  66:.\Generated_Source\PSoC5/ADC_DelSig_1.c **** * Forward function references
  67:.\Generated_Source\PSoC5/ADC_DelSig_1.c **** ***************************************/
  68:.\Generated_Source\PSoC5/ADC_DelSig_1.c **** static void ADC_DelSig_1_InitConfig(uint8 config) ;
  69:.\Generated_Source\PSoC5/ADC_DelSig_1.c **** static void ADC_DelSig_1_GainCompensation(uint8 inputRange, uint16 idealDecGain, uint16 idealOddDec
  70:.\Generated_Source\PSoC5/ADC_DelSig_1.c ****                             uint8 resolution, uint8 config) ;
  71:.\Generated_Source\PSoC5/ADC_DelSig_1.c **** static void ADC_DelSig_1_SetDSMRef0Reg(uint8 value) ;
  72:.\Generated_Source\PSoC5/ADC_DelSig_1.c **** 
  73:.\Generated_Source\PSoC5/ADC_DelSig_1.c **** 
  74:.\Generated_Source\PSoC5/ADC_DelSig_1.c **** /******************************************************************************
  75:.\Generated_Source\PSoC5/ADC_DelSig_1.c **** * Function Name: ADC_DelSig_1_Init
  76:.\Generated_Source\PSoC5/ADC_DelSig_1.c **** *******************************************************************************
  77:.\Generated_Source\PSoC5/ADC_DelSig_1.c **** *
  78:.\Generated_Source\PSoC5/ADC_DelSig_1.c **** * Summary:
  79:.\Generated_Source\PSoC5/ADC_DelSig_1.c **** *  Initialize component's parameters to the parameters set by user in the
  80:.\Generated_Source\PSoC5/ADC_DelSig_1.c **** *  customizer of the component placed onto schematic. Usually called in
  81:.\Generated_Source\PSoC5/ADC_DelSig_1.c **** * ADC_DelSig_1_Start().
  82:.\Generated_Source\PSoC5/ADC_DelSig_1.c **** *
  83:.\Generated_Source\PSoC5/ADC_DelSig_1.c **** *
  84:.\Generated_Source\PSoC5/ADC_DelSig_1.c **** * Parameters:
  85:.\Generated_Source\PSoC5/ADC_DelSig_1.c **** *  None
  86:.\Generated_Source\PSoC5/ADC_DelSig_1.c **** *
  87:.\Generated_Source\PSoC5/ADC_DelSig_1.c **** * Return:
  88:.\Generated_Source\PSoC5/ADC_DelSig_1.c **** *  None
  89:.\Generated_Source\PSoC5/ADC_DelSig_1.c **** *
  90:.\Generated_Source\PSoC5/ADC_DelSig_1.c **** *******************************************************************************/
  91:.\Generated_Source\PSoC5/ADC_DelSig_1.c **** void ADC_DelSig_1_Init(void) 
  92:.\Generated_Source\PSoC5/ADC_DelSig_1.c **** {
  60              		.loc 1 92 0
  61              		.cfi_startproc
  62              		@ args = 0, pretend = 0, frame = 0
  63              		@ frame_needed = 1, uses_anonymous_args = 0
  64 0000 80B5     		push	{r7, lr}
  65              	.LCFI0:
  66              		.cfi_def_cfa_offset 8
  67              		.cfi_offset 7, -8
  68              		.cfi_offset 14, -4
  69 0002 82B0     		sub	sp, sp, #8
  70              	.LCFI1:
  71              		.cfi_def_cfa_offset 16
  72 0004 02AF     		add	r7, sp, #8
  73              	.LCFI2:
  74              		.cfi_def_cfa 7, 8
  93:.\Generated_Source\PSoC5/ADC_DelSig_1.c **** 
  94:.\Generated_Source\PSoC5/ADC_DelSig_1.c ****     ADC_DelSig_1_Config = 1u;
  75              		.loc 1 94 0
  76 0006 40F20003 		movw	r3, #:lower16:ADC_DelSig_1_Config
  77 000a C0F20003 		movt	r3, #:upper16:ADC_DelSig_1_Config
ARM GAS  C:\Users\Brian\AppData\Local\Temp\cclOhuzj.s 			page 4


  78 000e 4FF00102 		mov	r2, #1
  79 0012 1A70     		strb	r2, [r3, #0]
  95:.\Generated_Source\PSoC5/ADC_DelSig_1.c ****     ADC_DelSig_1_convDone = 0u;
  80              		.loc 1 95 0
  81 0014 40F20003 		movw	r3, #:lower16:ADC_DelSig_1_convDone
  82 0018 C0F20003 		movt	r3, #:upper16:ADC_DelSig_1_convDone
  83 001c 4FF00002 		mov	r2, #0
  84 0020 1A70     		strb	r2, [r3, #0]
  96:.\Generated_Source\PSoC5/ADC_DelSig_1.c **** 
  97:.\Generated_Source\PSoC5/ADC_DelSig_1.c ****     ADC_DelSig_1_Ext_CP_Clk_SetMode(CYCLK_DUTY);
  85              		.loc 1 97 0
  86 0022 4FF01000 		mov	r0, #16
  87 0026 FFF7FEFF 		bl	ADC_DelSig_1_Ext_CP_Clk_SetModeRegister
  98:.\Generated_Source\PSoC5/ADC_DelSig_1.c **** 
  99:.\Generated_Source\PSoC5/ADC_DelSig_1.c ****     /* This is only valid if there is an internal clock */
 100:.\Generated_Source\PSoC5/ADC_DelSig_1.c ****     #if(ADC_DelSig_1_DEFAULT_INTERNAL_CLK)
 101:.\Generated_Source\PSoC5/ADC_DelSig_1.c ****         ADC_DelSig_1_theACLK_SetMode(CYCLK_DUTY);
  88              		.loc 1 101 0
  89 002a 4FF01000 		mov	r0, #16
  90 002e FFF7FEFF 		bl	ADC_DelSig_1_theACLK_SetModeRegister
 102:.\Generated_Source\PSoC5/ADC_DelSig_1.c ****     #endif /* ADC_DelSig_1_DEFAULT_INTERNAL_CLK */
 103:.\Generated_Source\PSoC5/ADC_DelSig_1.c **** 
 104:.\Generated_Source\PSoC5/ADC_DelSig_1.c ****     #if(ADC_DelSig_1_IRQ_REMOVE == 0u)
 105:.\Generated_Source\PSoC5/ADC_DelSig_1.c ****         /* Set interrupt priority */
 106:.\Generated_Source\PSoC5/ADC_DelSig_1.c ****         CyIntSetPriority(ADC_DelSig_1_INTC_NUMBER, ADC_DelSig_1_INTC_PRIOR_NUMBER);
  91              		.loc 1 106 0
  92 0032 4FF01D00 		mov	r0, #29
  93 0036 4FF00701 		mov	r1, #7
  94 003a FFF7FEFF 		bl	CyIntSetPriority
 107:.\Generated_Source\PSoC5/ADC_DelSig_1.c ****     #endif   /* End ADC_DelSig_1_IRQ_REMOVE */
 108:.\Generated_Source\PSoC5/ADC_DelSig_1.c **** 
 109:.\Generated_Source\PSoC5/ADC_DelSig_1.c ****     /* Init static registers with common configuration */
 110:.\Generated_Source\PSoC5/ADC_DelSig_1.c ****     ADC_DelSig_1_DSM_DEM0_REG    = ADC_DelSig_1_CFG1_DSM_DEM0;
  95              		.loc 1 110 0
  96 003e 45F69603 		movw	r3, #22678
  97 0042 C4F20003 		movt	r3, 16384
  98 0046 4FF00702 		mov	r2, #7
  99 004a 1A70     		strb	r2, [r3, #0]
 111:.\Generated_Source\PSoC5/ADC_DelSig_1.c ****     ADC_DelSig_1_DSM_DEM1_REG    = ADC_DelSig_1_CFG1_DSM_DEM1;
 100              		.loc 1 111 0
 101 004c 45F69703 		movw	r3, #22679
 102 0050 C4F20003 		movt	r3, 16384
 103 0054 4FF00002 		mov	r2, #0
 104 0058 1A70     		strb	r2, [r3, #0]
 112:.\Generated_Source\PSoC5/ADC_DelSig_1.c ****     ADC_DelSig_1_DSM_MISC_REG    = ADC_DelSig_1_CFG1_DSM_MISC;
 105              		.loc 1 112 0
 106 005a 45F69E03 		movw	r3, #22686
 107 005e C4F20003 		movt	r3, 16384
 108 0062 4FF00002 		mov	r2, #0
 109 0066 1A70     		strb	r2, [r3, #0]
 113:.\Generated_Source\PSoC5/ADC_DelSig_1.c ****     ADC_DelSig_1_DSM_CLK_REG    |= ADC_DelSig_1_CFG1_DSM_CLK;
 110              		.loc 1 113 0
 111 0068 45F60733 		movw	r3, #23303
 112 006c C4F20003 		movt	r3, 16384
 113 0070 45F60732 		movw	r2, #23303
 114 0074 C4F20002 		movt	r2, 16384
 115 0078 1278     		ldrb	r2, [r2, #0]
ARM GAS  C:\Users\Brian\AppData\Local\Temp\cclOhuzj.s 			page 5


 116 007a D2B2     		uxtb	r2, r2
 117 007c 42F01802 		orr	r2, r2, #24
 118 0080 D2B2     		uxtb	r2, r2
 119 0082 1A70     		strb	r2, [r3, #0]
 114:.\Generated_Source\PSoC5/ADC_DelSig_1.c ****     ADC_DelSig_1_DSM_REF1_REG    = ADC_DelSig_1_CFG1_DSM_REF1;
 120              		.loc 1 114 0
 121 0084 45F69303 		movw	r3, #22675
 122 0088 C4F20003 		movt	r3, 16384
 123 008c 4FF00002 		mov	r2, #0
 124 0090 1A70     		strb	r2, [r3, #0]
 115:.\Generated_Source\PSoC5/ADC_DelSig_1.c **** 
 116:.\Generated_Source\PSoC5/ADC_DelSig_1.c ****     ADC_DelSig_1_DSM_OUT0_REG    = ADC_DelSig_1_CFG1_DSM_OUT0;
 125              		.loc 1 116 0
 126 0092 45F68833 		movw	r3, #23432
 127 0096 C4F20003 		movt	r3, 16384
 128 009a 4FF00002 		mov	r2, #0
 129 009e 1A70     		strb	r2, [r3, #0]
 117:.\Generated_Source\PSoC5/ADC_DelSig_1.c ****     ADC_DelSig_1_DSM_OUT1_REG    = ADC_DelSig_1_CFG1_DSM_OUT1;
 130              		.loc 1 117 0
 131 00a0 45F68933 		movw	r3, #23433
 132 00a4 C4F20003 		movt	r3, 16384
 133 00a8 4FF00002 		mov	r2, #0
 134 00ac 1A70     		strb	r2, [r3, #0]
 118:.\Generated_Source\PSoC5/ADC_DelSig_1.c **** 
 119:.\Generated_Source\PSoC5/ADC_DelSig_1.c ****     ADC_DelSig_1_DSM_CR0_REG     = ADC_DelSig_1_CFG1_DSM_CR0;
 135              		.loc 1 119 0
 136 00ae 4FF4B143 		mov	r3, #22656
 137 00b2 C4F20003 		movt	r3, 16384
 138 00b6 4FF00A02 		mov	r2, #10
 139 00ba 1A70     		strb	r2, [r3, #0]
 120:.\Generated_Source\PSoC5/ADC_DelSig_1.c ****     ADC_DelSig_1_DSM_CR1_REG     = ADC_DelSig_1_CFG1_DSM_CR1;
 140              		.loc 1 120 0
 141 00bc 45F68103 		movw	r3, #22657
 142 00c0 C4F20003 		movt	r3, 16384
 143 00c4 4FF00002 		mov	r2, #0
 144 00c8 1A70     		strb	r2, [r3, #0]
 121:.\Generated_Source\PSoC5/ADC_DelSig_1.c **** #if(ADC_DelSig_1_MI_ENABLE != 0u) /* Enable Modulator Input */
 122:.\Generated_Source\PSoC5/ADC_DelSig_1.c ****     ADC_DelSig_1_DSM_CR3_REG     |= ADC_DelSig_1_DSM_MODBIT_EN;
 123:.\Generated_Source\PSoC5/ADC_DelSig_1.c **** #else
 124:.\Generated_Source\PSoC5/ADC_DelSig_1.c ****     ADC_DelSig_1_DSM_CR3_REG     = ADC_DelSig_1_CFG1_DSM_CR3;
 145              		.loc 1 124 0
 146 00ca 45F68303 		movw	r3, #22659
 147 00ce C4F20003 		movt	r3, 16384
 148 00d2 4FF00002 		mov	r2, #0
 149 00d6 1A70     		strb	r2, [r3, #0]
 125:.\Generated_Source\PSoC5/ADC_DelSig_1.c **** #endif /* ADC_DelSig_1_MI_ENABLE != 0u*/    
 126:.\Generated_Source\PSoC5/ADC_DelSig_1.c ****     ADC_DelSig_1_DSM_CR8_REG     = ADC_DelSig_1_CFG1_DSM_CR8;
 150              		.loc 1 126 0
 151 00d8 45F68803 		movw	r3, #22664
 152 00dc C4F20003 		movt	r3, 16384
 153 00e0 4FF05B02 		mov	r2, #91
 154 00e4 1A70     		strb	r2, [r3, #0]
 127:.\Generated_Source\PSoC5/ADC_DelSig_1.c ****     ADC_DelSig_1_DSM_CR9_REG     = ADC_DelSig_1_CFG1_DSM_CR9;
 155              		.loc 1 127 0
 156 00e6 45F68903 		movw	r3, #22665
 157 00ea C4F20003 		movt	r3, 16384
 158 00ee 4FF05E02 		mov	r2, #94
ARM GAS  C:\Users\Brian\AppData\Local\Temp\cclOhuzj.s 			page 6


 159 00f2 1A70     		strb	r2, [r3, #0]
 128:.\Generated_Source\PSoC5/ADC_DelSig_1.c ****     ADC_DelSig_1_DSM_CR13_REG    = ADC_DelSig_1_CFG1_DSM_CR13;
 160              		.loc 1 128 0
 161 00f4 45F68D03 		movw	r3, #22669
 162 00f8 C4F20003 		movt	r3, 16384
 163 00fc 4FF00002 		mov	r2, #0
 164 0100 1A70     		strb	r2, [r3, #0]
 129:.\Generated_Source\PSoC5/ADC_DelSig_1.c **** 
 130:.\Generated_Source\PSoC5/ADC_DelSig_1.c ****     ADC_DelSig_1_DEC_SR_REG      = ADC_DelSig_1_CFG1_DEC_SR;
 165              		.loc 1 130 0
 166 0102 44F60163 		movw	r3, #19969
 167 0106 C4F20003 		movt	r3, 16384
 168 010a 4FF01402 		mov	r2, #20
 169 010e 1A70     		strb	r2, [r3, #0]
 131:.\Generated_Source\PSoC5/ADC_DelSig_1.c **** 
 132:.\Generated_Source\PSoC5/ADC_DelSig_1.c ****     /* Calculate Gain compensation coefficients for all configurations */
 133:.\Generated_Source\PSoC5/ADC_DelSig_1.c ****     ADC_DelSig_1_GainCompensation(ADC_DelSig_1_CFG1_INPUT_RANGE,
 170              		.loc 1 133 0
 171 0110 4FF00103 		mov	r3, #1
 172 0114 0093     		str	r3, [sp, #0]
 173 0116 4FF00300 		mov	r0, #3
 174 011a 47F60271 		movw	r1, #32514
 175 011e 4FF40042 		mov	r2, #32768
 176 0122 4FF01003 		mov	r3, #16
 177 0126 FFF7FEFF 		bl	ADC_DelSig_1_GainCompensation
 134:.\Generated_Source\PSoC5/ADC_DelSig_1.c ****                                       ADC_DelSig_1_CFG1_IDEAL_DEC_GAIN,
 135:.\Generated_Source\PSoC5/ADC_DelSig_1.c ****                                       ADC_DelSig_1_CFG1_IDEAL_ODDDEC_GAIN,
 136:.\Generated_Source\PSoC5/ADC_DelSig_1.c ****                                       ADC_DelSig_1_CFG1_RESOLUTION,
 137:.\Generated_Source\PSoC5/ADC_DelSig_1.c ****                                       ADC_DelSig_1_CFG1);
 138:.\Generated_Source\PSoC5/ADC_DelSig_1.c ****     #if(ADC_DelSig_1_DEFAULT_NUM_CONFIGS > 1)
 139:.\Generated_Source\PSoC5/ADC_DelSig_1.c ****         ADC_DelSig_1_GainCompensation(ADC_DelSig_1_CFG2_INPUT_RANGE,
 140:.\Generated_Source\PSoC5/ADC_DelSig_1.c ****                                           ADC_DelSig_1_CFG2_IDEAL_DEC_GAIN,
 141:.\Generated_Source\PSoC5/ADC_DelSig_1.c ****                                           ADC_DelSig_1_CFG2_IDEAL_ODDDEC_GAIN,
 142:.\Generated_Source\PSoC5/ADC_DelSig_1.c ****                                           ADC_DelSig_1_CFG2_RESOLUTION,
 143:.\Generated_Source\PSoC5/ADC_DelSig_1.c ****                                           ADC_DelSig_1_CFG2);
 144:.\Generated_Source\PSoC5/ADC_DelSig_1.c ****     #endif /* ADC_DelSig_1_DEFAULT_NUM_CONFIGS > 1 */
 145:.\Generated_Source\PSoC5/ADC_DelSig_1.c ****     #if(ADC_DelSig_1_DEFAULT_NUM_CONFIGS > 2)
 146:.\Generated_Source\PSoC5/ADC_DelSig_1.c ****         ADC_DelSig_1_GainCompensation(ADC_DelSig_1_CFG3_INPUT_RANGE,
 147:.\Generated_Source\PSoC5/ADC_DelSig_1.c ****                                           ADC_DelSig_1_CFG3_IDEAL_DEC_GAIN,
 148:.\Generated_Source\PSoC5/ADC_DelSig_1.c ****                                           ADC_DelSig_1_CFG3_IDEAL_ODDDEC_GAIN,
 149:.\Generated_Source\PSoC5/ADC_DelSig_1.c ****                                           ADC_DelSig_1_CFG3_RESOLUTION,
 150:.\Generated_Source\PSoC5/ADC_DelSig_1.c ****                                           ADC_DelSig_1_CFG3);
 151:.\Generated_Source\PSoC5/ADC_DelSig_1.c ****     #endif /* ADC_DelSig_1_DEFAULT_NUM_CONFIGS > 2 */
 152:.\Generated_Source\PSoC5/ADC_DelSig_1.c ****     #if(ADC_DelSig_1_DEFAULT_NUM_CONFIGS > 3)
 153:.\Generated_Source\PSoC5/ADC_DelSig_1.c ****         ADC_DelSig_1_GainCompensation(ADC_DelSig_1_CFG4_INPUT_RANGE,
 154:.\Generated_Source\PSoC5/ADC_DelSig_1.c ****                                           ADC_DelSig_1_CFG4_IDEAL_DEC_GAIN,
 155:.\Generated_Source\PSoC5/ADC_DelSig_1.c ****                                           ADC_DelSig_1_CFG4_IDEAL_ODDDEC_GAIN,
 156:.\Generated_Source\PSoC5/ADC_DelSig_1.c ****                                           ADC_DelSig_1_CFG4_RESOLUTION,
 157:.\Generated_Source\PSoC5/ADC_DelSig_1.c ****                                           ADC_DelSig_1_CFG4);
 158:.\Generated_Source\PSoC5/ADC_DelSig_1.c ****     #endif /* ADC_DelSig_1_DEFAULT_NUM_CONFIGS > 3 */
 159:.\Generated_Source\PSoC5/ADC_DelSig_1.c **** 
 160:.\Generated_Source\PSoC5/ADC_DelSig_1.c ****     /* Set GCOR register for config1 */
 161:.\Generated_Source\PSoC5/ADC_DelSig_1.c ****     ADC_DelSig_1_DEC_GVAL_REG = ADC_DelSig_1_gcor[ADC_DelSig_1_Config - 1u].gval;
 178              		.loc 1 161 0
 179 012a 44F60E63 		movw	r3, #19982
 180 012e C4F20003 		movt	r3, 16384
 181 0132 40F20002 		movw	r2, #:lower16:ADC_DelSig_1_Config
ARM GAS  C:\Users\Brian\AppData\Local\Temp\cclOhuzj.s 			page 7


 182 0136 C0F20002 		movt	r2, #:upper16:ADC_DelSig_1_Config
 183 013a 1278     		ldrb	r2, [r2, #0]
 184 013c D2B2     		uxtb	r2, r2
 185 013e 02F1FF32 		add	r2, r2, #-1
 186 0142 40F20001 		movw	r1, #:lower16:ADC_DelSig_1_gcor
 187 0146 C0F20001 		movt	r1, #:upper16:ADC_DelSig_1_gcor
 188 014a 4FEA8202 		lsl	r2, r2, #2
 189 014e 8A18     		adds	r2, r1, r2
 190 0150 9278     		ldrb	r2, [r2, #2]	@ zero_extendqisi2
 191 0152 1A70     		strb	r2, [r3, #0]
 162:.\Generated_Source\PSoC5/ADC_DelSig_1.c ****     CY_SET_REG16(ADC_DelSig_1_DEC_GCOR_16B_PTR, ADC_DelSig_1_gcor[ADC_DelSig_1_Config - 1u].gcor);
 192              		.loc 1 162 0
 193 0154 44F60C63 		movw	r3, #19980
 194 0158 C4F20003 		movt	r3, 16384
 195 015c 40F20002 		movw	r2, #:lower16:ADC_DelSig_1_Config
 196 0160 C0F20002 		movt	r2, #:upper16:ADC_DelSig_1_Config
 197 0164 1278     		ldrb	r2, [r2, #0]
 198 0166 D2B2     		uxtb	r2, r2
 199 0168 02F1FF31 		add	r1, r2, #-1
 200 016c 40F20002 		movw	r2, #:lower16:ADC_DelSig_1_gcor
 201 0170 C0F20002 		movt	r2, #:upper16:ADC_DelSig_1_gcor
 202 0174 32F82120 		ldrh	r2, [r2, r1, lsl #2]
 203 0178 1A80     		strh	r2, [r3, #0]	@ movhi
 163:.\Generated_Source\PSoC5/ADC_DelSig_1.c **** 
 164:.\Generated_Source\PSoC5/ADC_DelSig_1.c ****     /* Initialize the registers with default customizer settings for config1 */
 165:.\Generated_Source\PSoC5/ADC_DelSig_1.c ****     ADC_DelSig_1_InitConfig(ADC_DelSig_1_Config);
 204              		.loc 1 165 0
 205 017a 40F20003 		movw	r3, #:lower16:ADC_DelSig_1_Config
 206 017e C0F20003 		movt	r3, #:upper16:ADC_DelSig_1_Config
 207 0182 1B78     		ldrb	r3, [r3, #0]
 208 0184 DBB2     		uxtb	r3, r3
 209 0186 1846     		mov	r0, r3
 210 0188 FFF7FEFF 		bl	ADC_DelSig_1_InitConfig
 166:.\Generated_Source\PSoC5/ADC_DelSig_1.c **** }
 211              		.loc 1 166 0
 212 018c BD46     		mov	sp, r7
 213 018e 80BD     		pop	{r7, pc}
 214              		.cfi_endproc
 215              	.LFE0:
 216              		.size	ADC_DelSig_1_Init, .-ADC_DelSig_1_Init
 217              		.section	.text.ADC_DelSig_1_Enable,"ax",%progbits
 218              		.align	2
 219              		.global	ADC_DelSig_1_Enable
 220              		.thumb
 221              		.thumb_func
 222              		.type	ADC_DelSig_1_Enable, %function
 223              	ADC_DelSig_1_Enable:
 224              	.LFB1:
 167:.\Generated_Source\PSoC5/ADC_DelSig_1.c **** 
 168:.\Generated_Source\PSoC5/ADC_DelSig_1.c **** 
 169:.\Generated_Source\PSoC5/ADC_DelSig_1.c **** /******************************************************************************
 170:.\Generated_Source\PSoC5/ADC_DelSig_1.c **** * Function Name: ADC_DelSig_1_Enable
 171:.\Generated_Source\PSoC5/ADC_DelSig_1.c **** *******************************************************************************
 172:.\Generated_Source\PSoC5/ADC_DelSig_1.c **** *
 173:.\Generated_Source\PSoC5/ADC_DelSig_1.c **** * Summary:
 174:.\Generated_Source\PSoC5/ADC_DelSig_1.c **** *  Enables the ADC DelSig block operation.
 175:.\Generated_Source\PSoC5/ADC_DelSig_1.c **** *
ARM GAS  C:\Users\Brian\AppData\Local\Temp\cclOhuzj.s 			page 8


 176:.\Generated_Source\PSoC5/ADC_DelSig_1.c **** *
 177:.\Generated_Source\PSoC5/ADC_DelSig_1.c **** * Parameters:
 178:.\Generated_Source\PSoC5/ADC_DelSig_1.c **** *  None
 179:.\Generated_Source\PSoC5/ADC_DelSig_1.c **** *
 180:.\Generated_Source\PSoC5/ADC_DelSig_1.c **** * Return:
 181:.\Generated_Source\PSoC5/ADC_DelSig_1.c **** *  None
 182:.\Generated_Source\PSoC5/ADC_DelSig_1.c **** *
 183:.\Generated_Source\PSoC5/ADC_DelSig_1.c **** *******************************************************************************/
 184:.\Generated_Source\PSoC5/ADC_DelSig_1.c **** void ADC_DelSig_1_Enable(void) 
 185:.\Generated_Source\PSoC5/ADC_DelSig_1.c **** {
 225              		.loc 1 185 0
 226              		.cfi_startproc
 227              		@ args = 0, pretend = 0, frame = 8
 228              		@ frame_needed = 1, uses_anonymous_args = 0
 229 0000 80B5     		push	{r7, lr}
 230              	.LCFI3:
 231              		.cfi_def_cfa_offset 8
 232              		.cfi_offset 7, -8
 233              		.cfi_offset 14, -4
 234 0002 82B0     		sub	sp, sp, #8
 235              	.LCFI4:
 236              		.cfi_def_cfa_offset 16
 237 0004 00AF     		add	r7, sp, #0
 238              	.LCFI5:
 239              		.cfi_def_cfa_register 7
 186:.\Generated_Source\PSoC5/ADC_DelSig_1.c **** 	uint8 config;
 187:.\Generated_Source\PSoC5/ADC_DelSig_1.c ****     uint8 enableInterrupts;
 188:.\Generated_Source\PSoC5/ADC_DelSig_1.c ****     enableInterrupts = CyEnterCriticalSection();
 240              		.loc 1 188 0
 241 0006 FFF7FEFF 		bl	CyEnterCriticalSection
 242 000a 0346     		mov	r3, r0
 243 000c FB71     		strb	r3, [r7, #7]
 189:.\Generated_Source\PSoC5/ADC_DelSig_1.c **** 
 190:.\Generated_Source\PSoC5/ADC_DelSig_1.c ****     /* Read volatile variable to the local variable */
 191:.\Generated_Source\PSoC5/ADC_DelSig_1.c ****     config = ADC_DelSig_1_Config;
 244              		.loc 1 191 0
 245 000e 40F20003 		movw	r3, #:lower16:ADC_DelSig_1_Config
 246 0012 C0F20003 		movt	r3, #:upper16:ADC_DelSig_1_Config
 247 0016 1B78     		ldrb	r3, [r3, #0]
 248 0018 BB71     		strb	r3, [r7, #6]
 192:.\Generated_Source\PSoC5/ADC_DelSig_1.c ****     
 193:.\Generated_Source\PSoC5/ADC_DelSig_1.c ****     /* Enable active mode power for ADC */
 194:.\Generated_Source\PSoC5/ADC_DelSig_1.c ****     ADC_DelSig_1_PWRMGR_DEC_REG |= ADC_DelSig_1_ACT_PWR_DEC_EN;
 249              		.loc 1 194 0
 250 001a 44F2AA33 		movw	r3, #17322
 251 001e C4F20003 		movt	r3, 16384
 252 0022 44F2AA32 		movw	r2, #17322
 253 0026 C4F20002 		movt	r2, 16384
 254 002a 1278     		ldrb	r2, [r2, #0]
 255 002c D2B2     		uxtb	r2, r2
 256 002e 42F00102 		orr	r2, r2, #1
 257 0032 D2B2     		uxtb	r2, r2
 258 0034 1A70     		strb	r2, [r3, #0]
 195:.\Generated_Source\PSoC5/ADC_DelSig_1.c ****     ADC_DelSig_1_PWRMGR_DSM_REG |= ADC_DelSig_1_ACT_PWR_DSM_EN;
 259              		.loc 1 195 0
 260 0036 44F2AA33 		movw	r3, #17322
 261 003a C4F20003 		movt	r3, 16384
ARM GAS  C:\Users\Brian\AppData\Local\Temp\cclOhuzj.s 			page 9


 262 003e 44F2AA32 		movw	r2, #17322
 263 0042 C4F20002 		movt	r2, 16384
 264 0046 1278     		ldrb	r2, [r2, #0]
 265 0048 D2B2     		uxtb	r2, r2
 266 004a 42F01002 		orr	r2, r2, #16
 267 004e D2B2     		uxtb	r2, r2
 268 0050 1A70     		strb	r2, [r3, #0]
 196:.\Generated_Source\PSoC5/ADC_DelSig_1.c **** 
 197:.\Generated_Source\PSoC5/ADC_DelSig_1.c ****      /* Enable alternative active mode power for ADC */
 198:.\Generated_Source\PSoC5/ADC_DelSig_1.c ****     ADC_DelSig_1_STBY_PWRMGR_DEC_REG |= ADC_DelSig_1_STBY_PWR_DEC_EN;
 269              		.loc 1 198 0
 270 0052 44F2BA33 		movw	r3, #17338
 271 0056 C4F20003 		movt	r3, 16384
 272 005a 44F2BA32 		movw	r2, #17338
 273 005e C4F20002 		movt	r2, 16384
 274 0062 1278     		ldrb	r2, [r2, #0]
 275 0064 D2B2     		uxtb	r2, r2
 276 0066 42F00102 		orr	r2, r2, #1
 277 006a D2B2     		uxtb	r2, r2
 278 006c 1A70     		strb	r2, [r3, #0]
 199:.\Generated_Source\PSoC5/ADC_DelSig_1.c ****     ADC_DelSig_1_STBY_PWRMGR_DSM_REG |= ADC_DelSig_1_STBY_PWR_DSM_EN;
 279              		.loc 1 199 0
 280 006e 44F2BA33 		movw	r3, #17338
 281 0072 C4F20003 		movt	r3, 16384
 282 0076 44F2BA32 		movw	r2, #17338
 283 007a C4F20002 		movt	r2, 16384
 284 007e 1278     		ldrb	r2, [r2, #0]
 285 0080 D2B2     		uxtb	r2, r2
 286 0082 42F01002 		orr	r2, r2, #16
 287 0086 D2B2     		uxtb	r2, r2
 288 0088 1A70     		strb	r2, [r3, #0]
 200:.\Generated_Source\PSoC5/ADC_DelSig_1.c **** 
 201:.\Generated_Source\PSoC5/ADC_DelSig_1.c ****     /* Disable PRES, Enable power to VCMBUF0, REFBUF0 and REFBUF1, enable PRES */
 202:.\Generated_Source\PSoC5/ADC_DelSig_1.c ****     ADC_DelSig_1_RESET_CR4_REG |= ADC_DelSig_1_IGNORE_PRESA1;
 289              		.loc 1 202 0
 290 008a 44F2F863 		movw	r3, #18168
 291 008e C4F20003 		movt	r3, 16384
 292 0092 44F2F862 		movw	r2, #18168
 293 0096 C4F20002 		movt	r2, 16384
 294 009a 1278     		ldrb	r2, [r2, #0]
 295 009c D2B2     		uxtb	r2, r2
 296 009e 42F00202 		orr	r2, r2, #2
 297 00a2 D2B2     		uxtb	r2, r2
 298 00a4 1A70     		strb	r2, [r3, #0]
 203:.\Generated_Source\PSoC5/ADC_DelSig_1.c ****     ADC_DelSig_1_RESET_CR5_REG |= ADC_DelSig_1_IGNORE_PRESA2;
 299              		.loc 1 203 0
 300 00a6 44F2F963 		movw	r3, #18169
 301 00aa C4F20003 		movt	r3, 16384
 302 00ae 44F2F962 		movw	r2, #18169
 303 00b2 C4F20002 		movt	r2, 16384
 304 00b6 1278     		ldrb	r2, [r2, #0]
 305 00b8 D2B2     		uxtb	r2, r2
 306 00ba 42F00202 		orr	r2, r2, #2
 307 00be D2B2     		uxtb	r2, r2
 308 00c0 1A70     		strb	r2, [r3, #0]
 204:.\Generated_Source\PSoC5/ADC_DelSig_1.c **** 
 205:.\Generated_Source\PSoC5/ADC_DelSig_1.c ****     ADC_DelSig_1_DSM_CR17_REG |= (ADC_DelSig_1_DSM_EN_BUF_VREF | ADC_DelSig_1_DSM_EN_BUF_VCM);
ARM GAS  C:\Users\Brian\AppData\Local\Temp\cclOhuzj.s 			page 10


 309              		.loc 1 205 0
 310 00c2 45F69103 		movw	r3, #22673
 311 00c6 C4F20003 		movt	r3, 16384
 312 00ca 45F69102 		movw	r2, #22673
 313 00ce C4F20002 		movt	r2, 16384
 314 00d2 1278     		ldrb	r2, [r2, #0]
 315 00d4 D2B2     		uxtb	r2, r2
 316 00d6 42F00302 		orr	r2, r2, #3
 317 00da D2B2     		uxtb	r2, r2
 318 00dc 1A70     		strb	r2, [r3, #0]
 206:.\Generated_Source\PSoC5/ADC_DelSig_1.c **** 
 207:.\Generated_Source\PSoC5/ADC_DelSig_1.c ****     /* Code to disable the REFBUF0 if reference chosen is External ref */
 208:.\Generated_Source\PSoC5/ADC_DelSig_1.c ****     #if (((ADC_DelSig_1_CFG1_REFERENCE == ADC_DelSig_1_EXT_REF_ON_P03) || \
 209:.\Generated_Source\PSoC5/ADC_DelSig_1.c ****           (ADC_DelSig_1_CFG1_REFERENCE == ADC_DelSig_1_EXT_REF_ON_P32)) || \
 210:.\Generated_Source\PSoC5/ADC_DelSig_1.c ****          ((ADC_DelSig_1_DEFAULT_NUM_CONFIGS > 1) && \
 211:.\Generated_Source\PSoC5/ADC_DelSig_1.c ****           ((ADC_DelSig_1_CFG2_REFERENCE == ADC_DelSig_1_EXT_REF_ON_P03) ||  \
 212:.\Generated_Source\PSoC5/ADC_DelSig_1.c ****            (ADC_DelSig_1_CFG2_REFERENCE == ADC_DelSig_1_EXT_REF_ON_P32))) || \
 213:.\Generated_Source\PSoC5/ADC_DelSig_1.c ****          ((ADC_DelSig_1_DEFAULT_NUM_CONFIGS > 2) && \
 214:.\Generated_Source\PSoC5/ADC_DelSig_1.c ****           ((ADC_DelSig_1_CFG3_REFERENCE == ADC_DelSig_1_EXT_REF_ON_P03) ||  \
 215:.\Generated_Source\PSoC5/ADC_DelSig_1.c ****            (ADC_DelSig_1_CFG3_REFERENCE == ADC_DelSig_1_EXT_REF_ON_P32))) || \
 216:.\Generated_Source\PSoC5/ADC_DelSig_1.c ****          ((ADC_DelSig_1_DEFAULT_NUM_CONFIGS > 3) && \
 217:.\Generated_Source\PSoC5/ADC_DelSig_1.c ****           ((ADC_DelSig_1_CFG4_REFERENCE == ADC_DelSig_1_EXT_REF_ON_P03) || \
 218:.\Generated_Source\PSoC5/ADC_DelSig_1.c ****            (ADC_DelSig_1_CFG4_REFERENCE == ADC_DelSig_1_EXT_REF_ON_P32))))
 219:.\Generated_Source\PSoC5/ADC_DelSig_1.c ****         if (((config == 1u) &&
 220:.\Generated_Source\PSoC5/ADC_DelSig_1.c ****             ((ADC_DelSig_1_CFG1_REFERENCE == ADC_DelSig_1_EXT_REF_ON_P03) ||
 221:.\Generated_Source\PSoC5/ADC_DelSig_1.c ****              (ADC_DelSig_1_CFG1_REFERENCE == ADC_DelSig_1_EXT_REF_ON_P32))) ||
 222:.\Generated_Source\PSoC5/ADC_DelSig_1.c ****             ((config == 2u) &&
 223:.\Generated_Source\PSoC5/ADC_DelSig_1.c ****             ((ADC_DelSig_1_CFG2_REFERENCE == ADC_DelSig_1_EXT_REF_ON_P03) ||
 224:.\Generated_Source\PSoC5/ADC_DelSig_1.c ****              (ADC_DelSig_1_CFG2_REFERENCE == ADC_DelSig_1_EXT_REF_ON_P32))) ||
 225:.\Generated_Source\PSoC5/ADC_DelSig_1.c ****             ((config == 3u) &&
 226:.\Generated_Source\PSoC5/ADC_DelSig_1.c ****             ((ADC_DelSig_1_CFG3_REFERENCE == ADC_DelSig_1_EXT_REF_ON_P03) ||
 227:.\Generated_Source\PSoC5/ADC_DelSig_1.c ****              (ADC_DelSig_1_CFG3_REFERENCE == ADC_DelSig_1_EXT_REF_ON_P32))) ||
 228:.\Generated_Source\PSoC5/ADC_DelSig_1.c ****             ((config == 4u) &&
 229:.\Generated_Source\PSoC5/ADC_DelSig_1.c ****             ((ADC_DelSig_1_CFG4_REFERENCE == ADC_DelSig_1_EXT_REF_ON_P03) ||
 230:.\Generated_Source\PSoC5/ADC_DelSig_1.c ****              (ADC_DelSig_1_CFG4_REFERENCE == ADC_DelSig_1_EXT_REF_ON_P32))))
 231:.\Generated_Source\PSoC5/ADC_DelSig_1.c ****         {
 232:.\Generated_Source\PSoC5/ADC_DelSig_1.c ****             /* Disable the REFBUF0 */
 233:.\Generated_Source\PSoC5/ADC_DelSig_1.c ****             ADC_DelSig_1_DSM_CR17_REG &= (uint8)~ADC_DelSig_1_DSM_EN_BUF_VREF;
 234:.\Generated_Source\PSoC5/ADC_DelSig_1.c ****         }
 235:.\Generated_Source\PSoC5/ADC_DelSig_1.c ****     #endif /* External ref */
 236:.\Generated_Source\PSoC5/ADC_DelSig_1.c **** 
 237:.\Generated_Source\PSoC5/ADC_DelSig_1.c ****     #if (((ADC_DelSig_1_CFG1_INPUT_RANGE == ADC_DelSig_1_IR_VSSA_TO_2VREF) || \
 238:.\Generated_Source\PSoC5/ADC_DelSig_1.c ****          ((ADC_DelSig_1_DEFAULT_NUM_CONFIGS > 1) && \
 239:.\Generated_Source\PSoC5/ADC_DelSig_1.c ****           (ADC_DelSig_1_CFG2_INPUT_RANGE == ADC_DelSig_1_IR_VSSA_TO_2VREF)) || \
 240:.\Generated_Source\PSoC5/ADC_DelSig_1.c ****          ((ADC_DelSig_1_DEFAULT_NUM_CONFIGS > 2) && \
 241:.\Generated_Source\PSoC5/ADC_DelSig_1.c ****           (ADC_DelSig_1_CFG3_INPUT_RANGE == ADC_DelSig_1_IR_VSSA_TO_2VREF)) || \
 242:.\Generated_Source\PSoC5/ADC_DelSig_1.c ****          ((ADC_DelSig_1_DEFAULT_NUM_CONFIGS > 3) && \
 243:.\Generated_Source\PSoC5/ADC_DelSig_1.c ****           (ADC_DelSig_1_CFG4_INPUT_RANGE == ADC_DelSig_1_IR_VSSA_TO_2VREF))))
 244:.\Generated_Source\PSoC5/ADC_DelSig_1.c ****         if(((config == 1u) &&
 245:.\Generated_Source\PSoC5/ADC_DelSig_1.c ****             (ADC_DelSig_1_CFG1_INPUT_RANGE == ADC_DelSig_1_IR_VSSA_TO_2VREF) &&
 246:.\Generated_Source\PSoC5/ADC_DelSig_1.c ****             ((ADC_DelSig_1_CFG1_REFERENCE != ADC_DelSig_1_EXT_REF_ON_P03) &&
 247:.\Generated_Source\PSoC5/ADC_DelSig_1.c ****              (ADC_DelSig_1_CFG1_REFERENCE != ADC_DelSig_1_EXT_REF_ON_P32))) ||
 248:.\Generated_Source\PSoC5/ADC_DelSig_1.c ****              ((config == 2u) &&
 249:.\Generated_Source\PSoC5/ADC_DelSig_1.c ****               (ADC_DelSig_1_CFG2_INPUT_RANGE == ADC_DelSig_1_IR_VSSA_TO_2VREF) &&
 250:.\Generated_Source\PSoC5/ADC_DelSig_1.c ****              ((ADC_DelSig_1_CFG2_REFERENCE != ADC_DelSig_1_EXT_REF_ON_P03) &&
 251:.\Generated_Source\PSoC5/ADC_DelSig_1.c ****              (ADC_DelSig_1_CFG2_REFERENCE != ADC_DelSig_1_EXT_REF_ON_P32))) ||
 252:.\Generated_Source\PSoC5/ADC_DelSig_1.c ****              ((config == 3u) &&
ARM GAS  C:\Users\Brian\AppData\Local\Temp\cclOhuzj.s 			page 11


 253:.\Generated_Source\PSoC5/ADC_DelSig_1.c ****               (ADC_DelSig_1_CFG3_INPUT_RANGE == ADC_DelSig_1_IR_VSSA_TO_2VREF) &&
 254:.\Generated_Source\PSoC5/ADC_DelSig_1.c ****              ((ADC_DelSig_1_CFG3_REFERENCE != ADC_DelSig_1_EXT_REF_ON_P03) &&
 255:.\Generated_Source\PSoC5/ADC_DelSig_1.c ****              (ADC_DelSig_1_CFG3_REFERENCE != ADC_DelSig_1_EXT_REF_ON_P32))) ||
 256:.\Generated_Source\PSoC5/ADC_DelSig_1.c ****              ((config == 4u) &&
 257:.\Generated_Source\PSoC5/ADC_DelSig_1.c ****               (ADC_DelSig_1_CFG4_INPUT_RANGE == ADC_DelSig_1_IR_VSSA_TO_2VREF) &&
 258:.\Generated_Source\PSoC5/ADC_DelSig_1.c ****              ((ADC_DelSig_1_CFG4_REFERENCE != ADC_DelSig_1_EXT_REF_ON_P03) &&
 259:.\Generated_Source\PSoC5/ADC_DelSig_1.c ****              (ADC_DelSig_1_CFG4_REFERENCE != ADC_DelSig_1_EXT_REF_ON_P32))))
 260:.\Generated_Source\PSoC5/ADC_DelSig_1.c ****         {
 261:.\Generated_Source\PSoC5/ADC_DelSig_1.c ****             /* Enable the REFBUF1 */
 262:.\Generated_Source\PSoC5/ADC_DelSig_1.c ****             ADC_DelSig_1_DSM_REF0_REG |= ADC_DelSig_1_DSM_EN_BUF_VREF_INN;
 263:.\Generated_Source\PSoC5/ADC_DelSig_1.c ****         }
 264:.\Generated_Source\PSoC5/ADC_DelSig_1.c ****     #endif /* VSSA_TO_2VREF */
 265:.\Generated_Source\PSoC5/ADC_DelSig_1.c ****     if(config != 0u)
 266:.\Generated_Source\PSoC5/ADC_DelSig_1.c ****     {
 267:.\Generated_Source\PSoC5/ADC_DelSig_1.c ****         /* Suppress compiler warning */
 268:.\Generated_Source\PSoC5/ADC_DelSig_1.c ****     }
 269:.\Generated_Source\PSoC5/ADC_DelSig_1.c **** 
 270:.\Generated_Source\PSoC5/ADC_DelSig_1.c ****     /* Wait for 3 microseconds */
 271:.\Generated_Source\PSoC5/ADC_DelSig_1.c ****     CyDelayUs(ADC_DelSig_1_PRES_DELAY_TIME);
 319              		.loc 1 271 0
 320 00de 4FF00300 		mov	r0, #3
 321 00e2 FFF7FEFF 		bl	CyDelayUs
 272:.\Generated_Source\PSoC5/ADC_DelSig_1.c **** 
 273:.\Generated_Source\PSoC5/ADC_DelSig_1.c ****     /* Enable the press circuit */
 274:.\Generated_Source\PSoC5/ADC_DelSig_1.c ****     ADC_DelSig_1_RESET_CR4_REG &= (uint8)~ADC_DelSig_1_IGNORE_PRESA1;
 322              		.loc 1 274 0
 323 00e6 44F2F863 		movw	r3, #18168
 324 00ea C4F20003 		movt	r3, 16384
 325 00ee 44F2F862 		movw	r2, #18168
 326 00f2 C4F20002 		movt	r2, 16384
 327 00f6 1278     		ldrb	r2, [r2, #0]
 328 00f8 D2B2     		uxtb	r2, r2
 329 00fa 22F00202 		bic	r2, r2, #2
 330 00fe D2B2     		uxtb	r2, r2
 331 0100 1A70     		strb	r2, [r3, #0]
 275:.\Generated_Source\PSoC5/ADC_DelSig_1.c ****     ADC_DelSig_1_RESET_CR5_REG &= (uint8)~ADC_DelSig_1_IGNORE_PRESA2;
 332              		.loc 1 275 0
 333 0102 44F2F963 		movw	r3, #18169
 334 0106 C4F20003 		movt	r3, 16384
 335 010a 44F2F962 		movw	r2, #18169
 336 010e C4F20002 		movt	r2, 16384
 337 0112 1278     		ldrb	r2, [r2, #0]
 338 0114 D2B2     		uxtb	r2, r2
 339 0116 22F00202 		bic	r2, r2, #2
 340 011a D2B2     		uxtb	r2, r2
 341 011c 1A70     		strb	r2, [r3, #0]
 276:.\Generated_Source\PSoC5/ADC_DelSig_1.c **** 
 277:.\Generated_Source\PSoC5/ADC_DelSig_1.c ****     /* Enable negative pumps for DSM  */
 278:.\Generated_Source\PSoC5/ADC_DelSig_1.c ****     ADC_DelSig_1_PUMP_CR1_REG  |= ( ADC_DelSig_1_PUMP_CR1_CLKSEL | ADC_DelSig_1_PUMP_CR1_FORCE );
 342              		.loc 1 278 0
 343 011e 45F67703 		movw	r3, #22647
 344 0122 C4F20003 		movt	r3, 16384
 345 0126 45F67702 		movw	r2, #22647
 346 012a C4F20002 		movt	r2, 16384
 347 012e 1278     		ldrb	r2, [r2, #0]
 348 0130 D2B2     		uxtb	r2, r2
 349 0132 42F00602 		orr	r2, r2, #6
ARM GAS  C:\Users\Brian\AppData\Local\Temp\cclOhuzj.s 			page 12


 350 0136 D2B2     		uxtb	r2, r2
 351 0138 1A70     		strb	r2, [r3, #0]
 279:.\Generated_Source\PSoC5/ADC_DelSig_1.c **** 
 280:.\Generated_Source\PSoC5/ADC_DelSig_1.c ****     /* Enable Modulator Chopping if required */
 281:.\Generated_Source\PSoC5/ADC_DelSig_1.c ****     ADC_DelSig_1_DSM_CR2_REG = ADC_DelSig_1_CFG1_DSM_CR2;
 352              		.loc 1 281 0
 353 013a 45F68203 		movw	r3, #22658
 354 013e C4F20003 		movt	r3, 16384
 355 0142 4FF07A02 		mov	r2, #122
 356 0146 1A70     		strb	r2, [r3, #0]
 282:.\Generated_Source\PSoC5/ADC_DelSig_1.c **** 
 283:.\Generated_Source\PSoC5/ADC_DelSig_1.c ****     /* This is only valid if there is an internal clock */
 284:.\Generated_Source\PSoC5/ADC_DelSig_1.c ****     #if(ADC_DelSig_1_DEFAULT_INTERNAL_CLK)
 285:.\Generated_Source\PSoC5/ADC_DelSig_1.c ****         ADC_DelSig_1_PWRMGR_CLK_REG |= ADC_DelSig_1_ACT_PWR_CLK_EN;
 357              		.loc 1 285 0
 358 0148 44F2A133 		movw	r3, #17313
 359 014c C4F20003 		movt	r3, 16384
 360 0150 44F2A132 		movw	r2, #17313
 361 0154 C4F20002 		movt	r2, 16384
 362 0158 1278     		ldrb	r2, [r2, #0]
 363 015a D2B2     		uxtb	r2, r2
 364 015c 42F00802 		orr	r2, r2, #8
 365 0160 D2B2     		uxtb	r2, r2
 366 0162 1A70     		strb	r2, [r3, #0]
 286:.\Generated_Source\PSoC5/ADC_DelSig_1.c ****         ADC_DelSig_1_STBY_PWRMGR_CLK_REG |= ADC_DelSig_1_STBY_PWR_CLK_EN;
 367              		.loc 1 286 0
 368 0164 44F2B133 		movw	r3, #17329
 369 0168 C4F20003 		movt	r3, 16384
 370 016c 44F2B132 		movw	r2, #17329
 371 0170 C4F20002 		movt	r2, 16384
 372 0174 1278     		ldrb	r2, [r2, #0]
 373 0176 D2B2     		uxtb	r2, r2
 374 0178 42F00802 		orr	r2, r2, #8
 375 017c D2B2     		uxtb	r2, r2
 376 017e 1A70     		strb	r2, [r3, #0]
 287:.\Generated_Source\PSoC5/ADC_DelSig_1.c ****     #endif /* ADC_DelSig_1_DEFAULT_INTERNAL_CLK */
 288:.\Generated_Source\PSoC5/ADC_DelSig_1.c **** 
 289:.\Generated_Source\PSoC5/ADC_DelSig_1.c ****     /* Enable the active and alternate active power for charge pump clock */
 290:.\Generated_Source\PSoC5/ADC_DelSig_1.c ****     ADC_DelSig_1_PWRMGR_CHARGE_PUMP_CLK_REG |= ADC_DelSig_1_ACT_PWR_CHARGE_PUMP_CLK_EN;
 377              		.loc 1 290 0
 378 0180 44F2A133 		movw	r3, #17313
 379 0184 C4F20003 		movt	r3, 16384
 380 0188 44F2A132 		movw	r2, #17313
 381 018c C4F20002 		movt	r2, 16384
 382 0190 1278     		ldrb	r2, [r2, #0]
 383 0192 D2B2     		uxtb	r2, r2
 384 0194 42F00202 		orr	r2, r2, #2
 385 0198 D2B2     		uxtb	r2, r2
 386 019a 1A70     		strb	r2, [r3, #0]
 291:.\Generated_Source\PSoC5/ADC_DelSig_1.c ****     ADC_DelSig_1_STBY_PWRMGR_CHARGE_PUMP_CLK_REG |= ADC_DelSig_1_STBY_PWR_CHARGE_PUMP_CLK_EN;
 387              		.loc 1 291 0
 388 019c 44F2B133 		movw	r3, #17329
 389 01a0 C4F20003 		movt	r3, 16384
 390 01a4 44F2B132 		movw	r2, #17329
 391 01a8 C4F20002 		movt	r2, 16384
 392 01ac 1278     		ldrb	r2, [r2, #0]
 393 01ae D2B2     		uxtb	r2, r2
ARM GAS  C:\Users\Brian\AppData\Local\Temp\cclOhuzj.s 			page 13


 394 01b0 42F00202 		orr	r2, r2, #2
 395 01b4 D2B2     		uxtb	r2, r2
 396 01b6 1A70     		strb	r2, [r3, #0]
 292:.\Generated_Source\PSoC5/ADC_DelSig_1.c **** 
 293:.\Generated_Source\PSoC5/ADC_DelSig_1.c ****     #if(ADC_DelSig_1_IRQ_REMOVE == 0u)
 294:.\Generated_Source\PSoC5/ADC_DelSig_1.c ****         /* Clear a pending interrupt */
 295:.\Generated_Source\PSoC5/ADC_DelSig_1.c ****         CyIntClearPending(ADC_DelSig_1_INTC_NUMBER);
 397              		.loc 1 295 0
 398 01b8 4EF28023 		movw	r3, #57984
 399 01bc CEF20003 		movt	r3, 57344
 400 01c0 4FF00052 		mov	r2, #536870912
 401 01c4 1A60     		str	r2, [r3, #0]
 296:.\Generated_Source\PSoC5/ADC_DelSig_1.c ****         /* Enable interrupt */
 297:.\Generated_Source\PSoC5/ADC_DelSig_1.c ****         CyIntEnable(ADC_DelSig_1_INTC_NUMBER);
 402              		.loc 1 297 0
 403 01c6 4FF46143 		mov	r3, #57600
 404 01ca CEF20003 		movt	r3, 57344
 405 01ce 4FF00052 		mov	r2, #536870912
 406 01d2 1A60     		str	r2, [r3, #0]
 298:.\Generated_Source\PSoC5/ADC_DelSig_1.c ****     #endif   /* End ADC_DelSig_1_IRQ_REMOVE */
 299:.\Generated_Source\PSoC5/ADC_DelSig_1.c **** 
 300:.\Generated_Source\PSoC5/ADC_DelSig_1.c ****     CyExitCriticalSection(enableInterrupts);
 407              		.loc 1 300 0
 408 01d4 FB79     		ldrb	r3, [r7, #7]	@ zero_extendqisi2
 409 01d6 1846     		mov	r0, r3
 410 01d8 FFF7FEFF 		bl	CyExitCriticalSection
 301:.\Generated_Source\PSoC5/ADC_DelSig_1.c **** 
 302:.\Generated_Source\PSoC5/ADC_DelSig_1.c **** }
 411              		.loc 1 302 0
 412 01dc 07F10807 		add	r7, r7, #8
 413 01e0 BD46     		mov	sp, r7
 414 01e2 80BD     		pop	{r7, pc}
 415              		.cfi_endproc
 416              	.LFE1:
 417              		.size	ADC_DelSig_1_Enable, .-ADC_DelSig_1_Enable
 418              		.section	.text.ADC_DelSig_1_Start,"ax",%progbits
 419              		.align	2
 420              		.global	ADC_DelSig_1_Start
 421              		.thumb
 422              		.thumb_func
 423              		.type	ADC_DelSig_1_Start, %function
 424              	ADC_DelSig_1_Start:
 425              	.LFB2:
 303:.\Generated_Source\PSoC5/ADC_DelSig_1.c **** 
 304:.\Generated_Source\PSoC5/ADC_DelSig_1.c **** 
 305:.\Generated_Source\PSoC5/ADC_DelSig_1.c **** /*******************************************************************************
 306:.\Generated_Source\PSoC5/ADC_DelSig_1.c **** * Function Name: ADC_DelSig_1_Start
 307:.\Generated_Source\PSoC5/ADC_DelSig_1.c **** ********************************************************************************
 308:.\Generated_Source\PSoC5/ADC_DelSig_1.c **** *
 309:.\Generated_Source\PSoC5/ADC_DelSig_1.c **** * Summary:
 310:.\Generated_Source\PSoC5/ADC_DelSig_1.c **** *  Performs all required initialization for this component and enables
 311:.\Generated_Source\PSoC5/ADC_DelSig_1.c **** *  the power. It configure all the register the first time it is called.
 312:.\Generated_Source\PSoC5/ADC_DelSig_1.c **** *  Subsequent calls of the Start function only enable the ADC and turn
 313:.\Generated_Source\PSoC5/ADC_DelSig_1.c **** *  on the power. If multiple configurations are selected, it will
 314:.\Generated_Source\PSoC5/ADC_DelSig_1.c **** *  configure the ADC for configuration 1 by default, unless the
 315:.\Generated_Source\PSoC5/ADC_DelSig_1.c **** *  ADC_DelSig_1_SelectConfiguration( ) function has been called to change
 316:.\Generated_Source\PSoC5/ADC_DelSig_1.c **** *  the default setting.
ARM GAS  C:\Users\Brian\AppData\Local\Temp\cclOhuzj.s 			page 14


 317:.\Generated_Source\PSoC5/ADC_DelSig_1.c **** *
 318:.\Generated_Source\PSoC5/ADC_DelSig_1.c **** * Parameters:
 319:.\Generated_Source\PSoC5/ADC_DelSig_1.c **** *  None
 320:.\Generated_Source\PSoC5/ADC_DelSig_1.c **** *
 321:.\Generated_Source\PSoC5/ADC_DelSig_1.c **** * Return:
 322:.\Generated_Source\PSoC5/ADC_DelSig_1.c **** *  None
 323:.\Generated_Source\PSoC5/ADC_DelSig_1.c **** *
 324:.\Generated_Source\PSoC5/ADC_DelSig_1.c **** * Global variables:
 325:.\Generated_Source\PSoC5/ADC_DelSig_1.c **** *  ADC_DelSig_1_initVar:  Used to check the initial configuration,
 326:.\Generated_Source\PSoC5/ADC_DelSig_1.c **** *  modified when this function is called for the first time.
 327:.\Generated_Source\PSoC5/ADC_DelSig_1.c **** *
 328:.\Generated_Source\PSoC5/ADC_DelSig_1.c **** *******************************************************************************/
 329:.\Generated_Source\PSoC5/ADC_DelSig_1.c **** void ADC_DelSig_1_Start(void) 
 330:.\Generated_Source\PSoC5/ADC_DelSig_1.c **** {
 426              		.loc 1 330 0
 427              		.cfi_startproc
 428              		@ args = 0, pretend = 0, frame = 0
 429              		@ frame_needed = 1, uses_anonymous_args = 0
 430 0000 80B5     		push	{r7, lr}
 431              	.LCFI6:
 432              		.cfi_def_cfa_offset 8
 433              		.cfi_offset 7, -8
 434              		.cfi_offset 14, -4
 435 0002 00AF     		add	r7, sp, #0
 436              	.LCFI7:
 437              		.cfi_def_cfa_register 7
 331:.\Generated_Source\PSoC5/ADC_DelSig_1.c ****     if(ADC_DelSig_1_initVar == 0u)
 438              		.loc 1 331 0
 439 0004 40F20003 		movw	r3, #:lower16:ADC_DelSig_1_initVar
 440 0008 C0F20003 		movt	r3, #:upper16:ADC_DelSig_1_initVar
 441 000c 1B78     		ldrb	r3, [r3, #0]	@ zero_extendqisi2
 442 000e 002B     		cmp	r3, #0
 443 0010 10D1     		bne	.L4
 332:.\Generated_Source\PSoC5/ADC_DelSig_1.c ****     {
 333:.\Generated_Source\PSoC5/ADC_DelSig_1.c ****         if(ADC_DelSig_1_started == 0u)
 444              		.loc 1 333 0
 445 0012 40F20003 		movw	r3, #:lower16:ADC_DelSig_1_started
 446 0016 C0F20003 		movt	r3, #:upper16:ADC_DelSig_1_started
 447 001a 1B78     		ldrb	r3, [r3, #0]
 448 001c DBB2     		uxtb	r3, r3
 449 001e 002B     		cmp	r3, #0
 450 0020 01D1     		bne	.L5
 334:.\Generated_Source\PSoC5/ADC_DelSig_1.c ****         {
 335:.\Generated_Source\PSoC5/ADC_DelSig_1.c ****             ADC_DelSig_1_Init();
 451              		.loc 1 335 0
 452 0022 FFF7FEFF 		bl	ADC_DelSig_1_Init
 453              	.L5:
 336:.\Generated_Source\PSoC5/ADC_DelSig_1.c ****         }
 337:.\Generated_Source\PSoC5/ADC_DelSig_1.c ****         ADC_DelSig_1_initVar = 1u;
 454              		.loc 1 337 0
 455 0026 40F20003 		movw	r3, #:lower16:ADC_DelSig_1_initVar
 456 002a C0F20003 		movt	r3, #:upper16:ADC_DelSig_1_initVar
 457 002e 4FF00102 		mov	r2, #1
 458 0032 1A70     		strb	r2, [r3, #0]
 459              	.L4:
 338:.\Generated_Source\PSoC5/ADC_DelSig_1.c ****     }
 339:.\Generated_Source\PSoC5/ADC_DelSig_1.c **** 
ARM GAS  C:\Users\Brian\AppData\Local\Temp\cclOhuzj.s 			page 15


 340:.\Generated_Source\PSoC5/ADC_DelSig_1.c ****     /* Enable the ADC */
 341:.\Generated_Source\PSoC5/ADC_DelSig_1.c ****     ADC_DelSig_1_Enable();
 460              		.loc 1 341 0
 461 0034 FFF7FEFF 		bl	ADC_DelSig_1_Enable
 342:.\Generated_Source\PSoC5/ADC_DelSig_1.c **** }
 462              		.loc 1 342 0
 463 0038 80BD     		pop	{r7, pc}
 464              		.cfi_endproc
 465              	.LFE2:
 466              		.size	ADC_DelSig_1_Start, .-ADC_DelSig_1_Start
 467 003a 00BF     		.section	.text.ADC_DelSig_1_Stop,"ax",%progbits
 468              		.align	2
 469              		.global	ADC_DelSig_1_Stop
 470              		.thumb
 471              		.thumb_func
 472              		.type	ADC_DelSig_1_Stop, %function
 473              	ADC_DelSig_1_Stop:
 474              	.LFB3:
 343:.\Generated_Source\PSoC5/ADC_DelSig_1.c **** 
 344:.\Generated_Source\PSoC5/ADC_DelSig_1.c **** 
 345:.\Generated_Source\PSoC5/ADC_DelSig_1.c **** /*******************************************************************************
 346:.\Generated_Source\PSoC5/ADC_DelSig_1.c **** * Function Name: ADC_DelSig_1_Stop
 347:.\Generated_Source\PSoC5/ADC_DelSig_1.c **** ********************************************************************************
 348:.\Generated_Source\PSoC5/ADC_DelSig_1.c **** *
 349:.\Generated_Source\PSoC5/ADC_DelSig_1.c **** * Summary:
 350:.\Generated_Source\PSoC5/ADC_DelSig_1.c **** *  This function stops and powers down the ADC component and the internal
 351:.\Generated_Source\PSoC5/ADC_DelSig_1.c **** *  clock if the external clock is not selected. If an external clock is
 352:.\Generated_Source\PSoC5/ADC_DelSig_1.c **** *  used, it is up to the designer to power down the external clock it
 353:.\Generated_Source\PSoC5/ADC_DelSig_1.c **** *  required.
 354:.\Generated_Source\PSoC5/ADC_DelSig_1.c **** *
 355:.\Generated_Source\PSoC5/ADC_DelSig_1.c **** * Parameters:
 356:.\Generated_Source\PSoC5/ADC_DelSig_1.c **** *  None
 357:.\Generated_Source\PSoC5/ADC_DelSig_1.c **** *
 358:.\Generated_Source\PSoC5/ADC_DelSig_1.c **** * Return:
 359:.\Generated_Source\PSoC5/ADC_DelSig_1.c **** *  None
 360:.\Generated_Source\PSoC5/ADC_DelSig_1.c **** *
 361:.\Generated_Source\PSoC5/ADC_DelSig_1.c **** *******************************************************************************/
 362:.\Generated_Source\PSoC5/ADC_DelSig_1.c **** void ADC_DelSig_1_Stop(void) 
 363:.\Generated_Source\PSoC5/ADC_DelSig_1.c **** {
 475              		.loc 1 363 0
 476              		.cfi_startproc
 477              		@ args = 0, pretend = 0, frame = 8
 478              		@ frame_needed = 1, uses_anonymous_args = 0
 479 0000 80B5     		push	{r7, lr}
 480              	.LCFI8:
 481              		.cfi_def_cfa_offset 8
 482              		.cfi_offset 7, -8
 483              		.cfi_offset 14, -4
 484 0002 82B0     		sub	sp, sp, #8
 485              	.LCFI9:
 486              		.cfi_def_cfa_offset 16
 487 0004 00AF     		add	r7, sp, #0
 488              	.LCFI10:
 489              		.cfi_def_cfa_register 7
 364:.\Generated_Source\PSoC5/ADC_DelSig_1.c ****     uint8 enableInterrupts;
 365:.\Generated_Source\PSoC5/ADC_DelSig_1.c ****     enableInterrupts = CyEnterCriticalSection();
 490              		.loc 1 365 0
ARM GAS  C:\Users\Brian\AppData\Local\Temp\cclOhuzj.s 			page 16


 491 0006 FFF7FEFF 		bl	CyEnterCriticalSection
 492 000a 0346     		mov	r3, r0
 493 000c FB71     		strb	r3, [r7, #7]
 366:.\Generated_Source\PSoC5/ADC_DelSig_1.c **** 
 367:.\Generated_Source\PSoC5/ADC_DelSig_1.c ****     /* Stop conversions */
 368:.\Generated_Source\PSoC5/ADC_DelSig_1.c ****     ADC_DelSig_1_DEC_CR_REG &= (uint8)~ADC_DelSig_1_DEC_START_CONV;
 494              		.loc 1 368 0
 495 000e 4FF49C43 		mov	r3, #19968
 496 0012 C4F20003 		movt	r3, 16384
 497 0016 4FF49C42 		mov	r2, #19968
 498 001a C4F20002 		movt	r2, 16384
 499 001e 1278     		ldrb	r2, [r2, #0]
 500 0020 D2B2     		uxtb	r2, r2
 501 0022 22F00102 		bic	r2, r2, #1
 502 0026 D2B2     		uxtb	r2, r2
 503 0028 1A70     		strb	r2, [r3, #0]
 369:.\Generated_Source\PSoC5/ADC_DelSig_1.c ****     ADC_DelSig_1_DEC_SR_REG |=  ADC_DelSig_1_DEC_INTR_CLEAR;
 504              		.loc 1 369 0
 505 002a 44F60163 		movw	r3, #19969
 506 002e C4F20003 		movt	r3, 16384
 507 0032 44F60162 		movw	r2, #19969
 508 0036 C4F20002 		movt	r2, 16384
 509 003a 1278     		ldrb	r2, [r2, #0]
 510 003c D2B2     		uxtb	r2, r2
 511 003e 42F00402 		orr	r2, r2, #4
 512 0042 D2B2     		uxtb	r2, r2
 513 0044 1A70     		strb	r2, [r3, #0]
 370:.\Generated_Source\PSoC5/ADC_DelSig_1.c **** 
 371:.\Generated_Source\PSoC5/ADC_DelSig_1.c ****     /* Disable PRES, Disable power to VCMBUF0, REFBUF0 and REFBUF1,
 372:.\Generated_Source\PSoC5/ADC_DelSig_1.c ****        enable PRES */
 373:.\Generated_Source\PSoC5/ADC_DelSig_1.c ****     ADC_DelSig_1_RESET_CR4_REG |= ADC_DelSig_1_IGNORE_PRESA1;
 514              		.loc 1 373 0
 515 0046 44F2F863 		movw	r3, #18168
 516 004a C4F20003 		movt	r3, 16384
 517 004e 44F2F862 		movw	r2, #18168
 518 0052 C4F20002 		movt	r2, 16384
 519 0056 1278     		ldrb	r2, [r2, #0]
 520 0058 D2B2     		uxtb	r2, r2
 521 005a 42F00202 		orr	r2, r2, #2
 522 005e D2B2     		uxtb	r2, r2
 523 0060 1A70     		strb	r2, [r3, #0]
 374:.\Generated_Source\PSoC5/ADC_DelSig_1.c ****     ADC_DelSig_1_RESET_CR5_REG |= ADC_DelSig_1_IGNORE_PRESA2;
 524              		.loc 1 374 0
 525 0062 44F2F963 		movw	r3, #18169
 526 0066 C4F20003 		movt	r3, 16384
 527 006a 44F2F962 		movw	r2, #18169
 528 006e C4F20002 		movt	r2, 16384
 529 0072 1278     		ldrb	r2, [r2, #0]
 530 0074 D2B2     		uxtb	r2, r2
 531 0076 42F00202 		orr	r2, r2, #2
 532 007a D2B2     		uxtb	r2, r2
 533 007c 1A70     		strb	r2, [r3, #0]
 375:.\Generated_Source\PSoC5/ADC_DelSig_1.c **** 
 376:.\Generated_Source\PSoC5/ADC_DelSig_1.c ****     ADC_DelSig_1_DSM_CR17_REG &= (uint8)~(ADC_DelSig_1_DSM_EN_BUF_VREF | ADC_DelSig_1_DSM_EN_BUF_VC
 534              		.loc 1 376 0
 535 007e 45F69103 		movw	r3, #22673
 536 0082 C4F20003 		movt	r3, 16384
ARM GAS  C:\Users\Brian\AppData\Local\Temp\cclOhuzj.s 			page 17


 537 0086 45F69102 		movw	r2, #22673
 538 008a C4F20002 		movt	r2, 16384
 539 008e 1278     		ldrb	r2, [r2, #0]
 540 0090 D2B2     		uxtb	r2, r2
 541 0092 22F00302 		bic	r2, r2, #3
 542 0096 D2B2     		uxtb	r2, r2
 543 0098 1A70     		strb	r2, [r3, #0]
 377:.\Generated_Source\PSoC5/ADC_DelSig_1.c ****     ADC_DelSig_1_DSM_REF0_REG &= (uint8)~ADC_DelSig_1_DSM_EN_BUF_VREF_INN;
 544              		.loc 1 377 0
 545 009a 45F69203 		movw	r3, #22674
 546 009e C4F20003 		movt	r3, 16384
 547 00a2 45F69202 		movw	r2, #22674
 548 00a6 C4F20002 		movt	r2, 16384
 549 00aa 1278     		ldrb	r2, [r2, #0]
 550 00ac D2B2     		uxtb	r2, r2
 551 00ae 22F00802 		bic	r2, r2, #8
 552 00b2 D2B2     		uxtb	r2, r2
 553 00b4 1A70     		strb	r2, [r3, #0]
 378:.\Generated_Source\PSoC5/ADC_DelSig_1.c **** 
 379:.\Generated_Source\PSoC5/ADC_DelSig_1.c ****     /* Wait for 3 microseconds. */
 380:.\Generated_Source\PSoC5/ADC_DelSig_1.c ****     CyDelayUs(ADC_DelSig_1_PRES_DELAY_TIME);
 554              		.loc 1 380 0
 555 00b6 4FF00300 		mov	r0, #3
 556 00ba FFF7FEFF 		bl	CyDelayUs
 381:.\Generated_Source\PSoC5/ADC_DelSig_1.c **** 
 382:.\Generated_Source\PSoC5/ADC_DelSig_1.c ****     /* Enable the press circuit */
 383:.\Generated_Source\PSoC5/ADC_DelSig_1.c ****     ADC_DelSig_1_RESET_CR4_REG &= (uint8)~ADC_DelSig_1_IGNORE_PRESA1;
 557              		.loc 1 383 0
 558 00be 44F2F863 		movw	r3, #18168
 559 00c2 C4F20003 		movt	r3, 16384
 560 00c6 44F2F862 		movw	r2, #18168
 561 00ca C4F20002 		movt	r2, 16384
 562 00ce 1278     		ldrb	r2, [r2, #0]
 563 00d0 D2B2     		uxtb	r2, r2
 564 00d2 22F00202 		bic	r2, r2, #2
 565 00d6 D2B2     		uxtb	r2, r2
 566 00d8 1A70     		strb	r2, [r3, #0]
 384:.\Generated_Source\PSoC5/ADC_DelSig_1.c ****     ADC_DelSig_1_RESET_CR5_REG &= (uint8)~ADC_DelSig_1_IGNORE_PRESA2;
 567              		.loc 1 384 0
 568 00da 44F2F963 		movw	r3, #18169
 569 00de C4F20003 		movt	r3, 16384
 570 00e2 44F2F962 		movw	r2, #18169
 571 00e6 C4F20002 		movt	r2, 16384
 572 00ea 1278     		ldrb	r2, [r2, #0]
 573 00ec D2B2     		uxtb	r2, r2
 574 00ee 22F00202 		bic	r2, r2, #2
 575 00f2 D2B2     		uxtb	r2, r2
 576 00f4 1A70     		strb	r2, [r3, #0]
 385:.\Generated_Source\PSoC5/ADC_DelSig_1.c **** 
 386:.\Generated_Source\PSoC5/ADC_DelSig_1.c ****     /* Disable power to the ADC */
 387:.\Generated_Source\PSoC5/ADC_DelSig_1.c ****     ADC_DelSig_1_PWRMGR_DSM_REG &= (uint8)~ADC_DelSig_1_ACT_PWR_DSM_EN;
 577              		.loc 1 387 0
 578 00f6 44F2AA33 		movw	r3, #17322
 579 00fa C4F20003 		movt	r3, 16384
 580 00fe 44F2AA32 		movw	r2, #17322
 581 0102 C4F20002 		movt	r2, 16384
 582 0106 1278     		ldrb	r2, [r2, #0]
ARM GAS  C:\Users\Brian\AppData\Local\Temp\cclOhuzj.s 			page 18


 583 0108 D2B2     		uxtb	r2, r2
 584 010a 22F01002 		bic	r2, r2, #16
 585 010e D2B2     		uxtb	r2, r2
 586 0110 1A70     		strb	r2, [r3, #0]
 388:.\Generated_Source\PSoC5/ADC_DelSig_1.c **** 
 389:.\Generated_Source\PSoC5/ADC_DelSig_1.c ****     /* Disable power to Decimator block */
 390:.\Generated_Source\PSoC5/ADC_DelSig_1.c ****     ADC_DelSig_1_PWRMGR_DEC_REG &= (uint8)~ADC_DelSig_1_ACT_PWR_DEC_EN;
 587              		.loc 1 390 0
 588 0112 44F2AA33 		movw	r3, #17322
 589 0116 C4F20003 		movt	r3, 16384
 590 011a 44F2AA32 		movw	r2, #17322
 591 011e C4F20002 		movt	r2, 16384
 592 0122 1278     		ldrb	r2, [r2, #0]
 593 0124 D2B2     		uxtb	r2, r2
 594 0126 22F00102 		bic	r2, r2, #1
 595 012a D2B2     		uxtb	r2, r2
 596 012c 1A70     		strb	r2, [r3, #0]
 391:.\Generated_Source\PSoC5/ADC_DelSig_1.c **** 
 392:.\Generated_Source\PSoC5/ADC_DelSig_1.c ****     /* Disable alternative active power to the ADC */
 393:.\Generated_Source\PSoC5/ADC_DelSig_1.c ****     ADC_DelSig_1_STBY_PWRMGR_DEC_REG &= (uint8)~ADC_DelSig_1_STBY_PWR_DEC_EN;
 597              		.loc 1 393 0
 598 012e 44F2BA33 		movw	r3, #17338
 599 0132 C4F20003 		movt	r3, 16384
 600 0136 44F2BA32 		movw	r2, #17338
 601 013a C4F20002 		movt	r2, 16384
 602 013e 1278     		ldrb	r2, [r2, #0]
 603 0140 D2B2     		uxtb	r2, r2
 604 0142 22F00102 		bic	r2, r2, #1
 605 0146 D2B2     		uxtb	r2, r2
 606 0148 1A70     		strb	r2, [r3, #0]
 394:.\Generated_Source\PSoC5/ADC_DelSig_1.c ****     ADC_DelSig_1_STBY_PWRMGR_DSM_REG &= (uint8)~ADC_DelSig_1_STBY_PWR_DSM_EN;
 607              		.loc 1 394 0
 608 014a 44F2BA33 		movw	r3, #17338
 609 014e C4F20003 		movt	r3, 16384
 610 0152 44F2BA32 		movw	r2, #17338
 611 0156 C4F20002 		movt	r2, 16384
 612 015a 1278     		ldrb	r2, [r2, #0]
 613 015c D2B2     		uxtb	r2, r2
 614 015e 22F01002 		bic	r2, r2, #16
 615 0162 D2B2     		uxtb	r2, r2
 616 0164 1A70     		strb	r2, [r3, #0]
 395:.\Generated_Source\PSoC5/ADC_DelSig_1.c **** 
 396:.\Generated_Source\PSoC5/ADC_DelSig_1.c ****    /* Disable negative pumps for DSM  */
 397:.\Generated_Source\PSoC5/ADC_DelSig_1.c ****     ADC_DelSig_1_PUMP_CR1_REG &= (uint8)~(ADC_DelSig_1_PUMP_CR1_CLKSEL | ADC_DelSig_1_PUMP_CR1_FORC
 617              		.loc 1 397 0
 618 0166 45F67703 		movw	r3, #22647
 619 016a C4F20003 		movt	r3, 16384
 620 016e 45F67702 		movw	r2, #22647
 621 0172 C4F20002 		movt	r2, 16384
 622 0176 1278     		ldrb	r2, [r2, #0]
 623 0178 D2B2     		uxtb	r2, r2
 624 017a 22F00602 		bic	r2, r2, #6
 625 017e D2B2     		uxtb	r2, r2
 626 0180 1A70     		strb	r2, [r3, #0]
 398:.\Generated_Source\PSoC5/ADC_DelSig_1.c **** 
 399:.\Generated_Source\PSoC5/ADC_DelSig_1.c ****     /* This is only valid if there is an internal clock */
 400:.\Generated_Source\PSoC5/ADC_DelSig_1.c ****     #if(ADC_DelSig_1_DEFAULT_INTERNAL_CLK)
ARM GAS  C:\Users\Brian\AppData\Local\Temp\cclOhuzj.s 			page 19


 401:.\Generated_Source\PSoC5/ADC_DelSig_1.c ****         ADC_DelSig_1_PWRMGR_CLK_REG &= (uint8)~ADC_DelSig_1_ACT_PWR_CLK_EN;
 627              		.loc 1 401 0
 628 0182 44F2A133 		movw	r3, #17313
 629 0186 C4F20003 		movt	r3, 16384
 630 018a 44F2A132 		movw	r2, #17313
 631 018e C4F20002 		movt	r2, 16384
 632 0192 1278     		ldrb	r2, [r2, #0]
 633 0194 D2B2     		uxtb	r2, r2
 634 0196 22F00802 		bic	r2, r2, #8
 635 019a D2B2     		uxtb	r2, r2
 636 019c 1A70     		strb	r2, [r3, #0]
 402:.\Generated_Source\PSoC5/ADC_DelSig_1.c ****         ADC_DelSig_1_STBY_PWRMGR_CLK_REG &= (uint8)~ADC_DelSig_1_STBY_PWR_CLK_EN;
 637              		.loc 1 402 0
 638 019e 44F2B133 		movw	r3, #17329
 639 01a2 C4F20003 		movt	r3, 16384
 640 01a6 44F2B132 		movw	r2, #17329
 641 01aa C4F20002 		movt	r2, 16384
 642 01ae 1278     		ldrb	r2, [r2, #0]
 643 01b0 D2B2     		uxtb	r2, r2
 644 01b2 22F00802 		bic	r2, r2, #8
 645 01b6 D2B2     		uxtb	r2, r2
 646 01b8 1A70     		strb	r2, [r3, #0]
 403:.\Generated_Source\PSoC5/ADC_DelSig_1.c ****     #endif /* ADC_DelSig_1_DEFAULT_INTERNAL_CLK */
 404:.\Generated_Source\PSoC5/ADC_DelSig_1.c **** 
 405:.\Generated_Source\PSoC5/ADC_DelSig_1.c ****     /* Disable Modulator Chopping */
 406:.\Generated_Source\PSoC5/ADC_DelSig_1.c ****     ADC_DelSig_1_DSM_CR2_REG &= (uint8)~ADC_DelSig_1_DSM_MOD_CHOP_EN;
 647              		.loc 1 406 0
 648 01ba 45F68203 		movw	r3, #22658
 649 01be C4F20003 		movt	r3, 16384
 650 01c2 45F68202 		movw	r2, #22658
 651 01c6 C4F20002 		movt	r2, 16384
 652 01ca 1278     		ldrb	r2, [r2, #0]
 653 01cc D2B2     		uxtb	r2, r2
 654 01ce 22F00802 		bic	r2, r2, #8
 655 01d2 D2B2     		uxtb	r2, r2
 656 01d4 1A70     		strb	r2, [r3, #0]
 407:.\Generated_Source\PSoC5/ADC_DelSig_1.c ****     /* Disable power to charge pump clock */
 408:.\Generated_Source\PSoC5/ADC_DelSig_1.c ****     ADC_DelSig_1_PWRMGR_CHARGE_PUMP_CLK_REG &= (uint8)~ADC_DelSig_1_ACT_PWR_CHARGE_PUMP_CLK_EN;
 657              		.loc 1 408 0
 658 01d6 44F2A133 		movw	r3, #17313
 659 01da C4F20003 		movt	r3, 16384
 660 01de 44F2A132 		movw	r2, #17313
 661 01e2 C4F20002 		movt	r2, 16384
 662 01e6 1278     		ldrb	r2, [r2, #0]
 663 01e8 D2B2     		uxtb	r2, r2
 664 01ea 22F00202 		bic	r2, r2, #2
 665 01ee D2B2     		uxtb	r2, r2
 666 01f0 1A70     		strb	r2, [r3, #0]
 409:.\Generated_Source\PSoC5/ADC_DelSig_1.c ****     ADC_DelSig_1_STBY_PWRMGR_CHARGE_PUMP_CLK_REG &= (uint8)~ADC_DelSig_1_STBY_PWR_CHARGE_PUMP_CLK_E
 667              		.loc 1 409 0
 668 01f2 44F2B133 		movw	r3, #17329
 669 01f6 C4F20003 		movt	r3, 16384
 670 01fa 44F2B132 		movw	r2, #17329
 671 01fe C4F20002 		movt	r2, 16384
 672 0202 1278     		ldrb	r2, [r2, #0]
 673 0204 D2B2     		uxtb	r2, r2
 674 0206 22F00202 		bic	r2, r2, #2
ARM GAS  C:\Users\Brian\AppData\Local\Temp\cclOhuzj.s 			page 20


 675 020a D2B2     		uxtb	r2, r2
 676 020c 1A70     		strb	r2, [r3, #0]
 410:.\Generated_Source\PSoC5/ADC_DelSig_1.c ****     
 411:.\Generated_Source\PSoC5/ADC_DelSig_1.c ****     CyExitCriticalSection(enableInterrupts);
 677              		.loc 1 411 0
 678 020e FB79     		ldrb	r3, [r7, #7]	@ zero_extendqisi2
 679 0210 1846     		mov	r0, r3
 680 0212 FFF7FEFF 		bl	CyExitCriticalSection
 412:.\Generated_Source\PSoC5/ADC_DelSig_1.c **** }
 681              		.loc 1 412 0
 682 0216 07F10807 		add	r7, r7, #8
 683 021a BD46     		mov	sp, r7
 684 021c 80BD     		pop	{r7, pc}
 685              		.cfi_endproc
 686              	.LFE3:
 687              		.size	ADC_DelSig_1_Stop, .-ADC_DelSig_1_Stop
 688 021e 00BF     		.section	.text.ADC_DelSig_1_SetBufferGain,"ax",%progbits
 689              		.align	2
 690              		.global	ADC_DelSig_1_SetBufferGain
 691              		.thumb
 692              		.thumb_func
 693              		.type	ADC_DelSig_1_SetBufferGain, %function
 694              	ADC_DelSig_1_SetBufferGain:
 695              	.LFB4:
 413:.\Generated_Source\PSoC5/ADC_DelSig_1.c **** 
 414:.\Generated_Source\PSoC5/ADC_DelSig_1.c **** 
 415:.\Generated_Source\PSoC5/ADC_DelSig_1.c **** /*******************************************************************************
 416:.\Generated_Source\PSoC5/ADC_DelSig_1.c **** * Function Name: ADC_DelSig_1_SetBufferGain
 417:.\Generated_Source\PSoC5/ADC_DelSig_1.c **** ********************************************************************************
 418:.\Generated_Source\PSoC5/ADC_DelSig_1.c **** *
 419:.\Generated_Source\PSoC5/ADC_DelSig_1.c **** * Summary:
 420:.\Generated_Source\PSoC5/ADC_DelSig_1.c **** *  Sets input buffer gain.
 421:.\Generated_Source\PSoC5/ADC_DelSig_1.c **** *
 422:.\Generated_Source\PSoC5/ADC_DelSig_1.c **** * Parameters:
 423:.\Generated_Source\PSoC5/ADC_DelSig_1.c **** *  gain:  Two bit value to select a gain of 1, 2, 4, or 8.
 424:.\Generated_Source\PSoC5/ADC_DelSig_1.c **** *
 425:.\Generated_Source\PSoC5/ADC_DelSig_1.c **** * Return:
 426:.\Generated_Source\PSoC5/ADC_DelSig_1.c **** *  None
 427:.\Generated_Source\PSoC5/ADC_DelSig_1.c **** *
 428:.\Generated_Source\PSoC5/ADC_DelSig_1.c **** *******************************************************************************/
 429:.\Generated_Source\PSoC5/ADC_DelSig_1.c **** void ADC_DelSig_1_SetBufferGain(uint8 gain) 
 430:.\Generated_Source\PSoC5/ADC_DelSig_1.c **** {
 696              		.loc 1 430 0
 697              		.cfi_startproc
 698              		@ args = 0, pretend = 0, frame = 16
 699              		@ frame_needed = 1, uses_anonymous_args = 0
 700              		@ link register save eliminated.
 701 0000 80B4     		push	{r7}
 702              	.LCFI11:
 703              		.cfi_def_cfa_offset 4
 704              		.cfi_offset 7, -4
 705 0002 85B0     		sub	sp, sp, #20
 706              	.LCFI12:
 707              		.cfi_def_cfa_offset 24
 708 0004 00AF     		add	r7, sp, #0
 709              	.LCFI13:
 710              		.cfi_def_cfa_register 7
ARM GAS  C:\Users\Brian\AppData\Local\Temp\cclOhuzj.s 			page 21


 711 0006 0346     		mov	r3, r0
 712 0008 FB71     		strb	r3, [r7, #7]
 431:.\Generated_Source\PSoC5/ADC_DelSig_1.c ****     uint8 tmpReg;
 432:.\Generated_Source\PSoC5/ADC_DelSig_1.c ****     tmpReg = ADC_DelSig_1_DSM_BUF1_REG & (uint8)~ADC_DelSig_1_DSM_GAIN_MASK;
 713              		.loc 1 432 0
 714 000a 45F69B03 		movw	r3, #22683
 715 000e C4F20003 		movt	r3, 16384
 716 0012 1B78     		ldrb	r3, [r3, #0]
 717 0014 DBB2     		uxtb	r3, r3
 718 0016 23F00C03 		bic	r3, r3, #12
 719 001a FB73     		strb	r3, [r7, #15]
 433:.\Generated_Source\PSoC5/ADC_DelSig_1.c ****     tmpReg |= (uint8)(gain << ADC_DelSig_1_DSM_GAIN_SHIFT) & ADC_DelSig_1_DSM_GAIN_MASK;
 720              		.loc 1 433 0
 721 001c FB79     		ldrb	r3, [r7, #7]
 722 001e 4FEA8303 		lsl	r3, r3, #2
 723 0022 DBB2     		uxtb	r3, r3
 724 0024 03F00C03 		and	r3, r3, #12
 725 0028 DAB2     		uxtb	r2, r3
 726 002a FB7B     		ldrb	r3, [r7, #15]
 727 002c 1343     		orrs	r3, r3, r2
 728 002e FB73     		strb	r3, [r7, #15]
 434:.\Generated_Source\PSoC5/ADC_DelSig_1.c ****     ADC_DelSig_1_DSM_BUF1_REG = tmpReg;
 729              		.loc 1 434 0
 730 0030 45F69B03 		movw	r3, #22683
 731 0034 C4F20003 		movt	r3, 16384
 732 0038 FA7B     		ldrb	r2, [r7, #15]
 733 003a 1A70     		strb	r2, [r3, #0]
 435:.\Generated_Source\PSoC5/ADC_DelSig_1.c **** }
 734              		.loc 1 435 0
 735 003c 07F11407 		add	r7, r7, #20
 736 0040 BD46     		mov	sp, r7
 737 0042 80BC     		pop	{r7}
 738 0044 7047     		bx	lr
 739              		.cfi_endproc
 740              	.LFE4:
 741              		.size	ADC_DelSig_1_SetBufferGain, .-ADC_DelSig_1_SetBufferGain
 742 0046 00BF     		.section	.text.ADC_DelSig_1_SetCoherency,"ax",%progbits
 743              		.align	2
 744              		.global	ADC_DelSig_1_SetCoherency
 745              		.thumb
 746              		.thumb_func
 747              		.type	ADC_DelSig_1_SetCoherency, %function
 748              	ADC_DelSig_1_SetCoherency:
 749              	.LFB5:
 436:.\Generated_Source\PSoC5/ADC_DelSig_1.c **** 
 437:.\Generated_Source\PSoC5/ADC_DelSig_1.c **** 
 438:.\Generated_Source\PSoC5/ADC_DelSig_1.c **** /*******************************************************************************
 439:.\Generated_Source\PSoC5/ADC_DelSig_1.c **** * Function Name: ADC_DelSig_1_SetCoherency
 440:.\Generated_Source\PSoC5/ADC_DelSig_1.c **** ********************************************************************************
 441:.\Generated_Source\PSoC5/ADC_DelSig_1.c **** *
 442:.\Generated_Source\PSoC5/ADC_DelSig_1.c **** * Summary:
 443:.\Generated_Source\PSoC5/ADC_DelSig_1.c **** *  This function allows the user to change which of the ADC's 3 word
 444:.\Generated_Source\PSoC5/ADC_DelSig_1.c **** *  result will trigger a coherency unlock. The ADC's result will not be
 445:.\Generated_Source\PSoC5/ADC_DelSig_1.c **** *  updated until the set byte is read either by the ADC or DMA. 
 446:.\Generated_Source\PSoC5/ADC_DelSig_1.c **** *  By default the LSB is the coherency byte for right alignment data format. 
 447:.\Generated_Source\PSoC5/ADC_DelSig_1.c **** *  The middle or high byte is set automatically depend on left alignment 
 448:.\Generated_Source\PSoC5/ADC_DelSig_1.c **** *  configuration for DMA data transfer.
ARM GAS  C:\Users\Brian\AppData\Local\Temp\cclOhuzj.s 			page 22


 449:.\Generated_Source\PSoC5/ADC_DelSig_1.c **** *  If DMA or if a custom API requires different byte to be read the last,
 450:.\Generated_Source\PSoC5/ADC_DelSig_1.c **** *  this API should be used to set the last byte of the ADC result that is read. 
 451:.\Generated_Source\PSoC5/ADC_DelSig_1.c **** *  If a multibyte read is performed either by DMA or the ARM processor, the
 452:.\Generated_Source\PSoC5/ADC_DelSig_1.c **** *  coherency can be set to any byte in the last word read.
 453:.\Generated_Source\PSoC5/ADC_DelSig_1.c **** *
 454:.\Generated_Source\PSoC5/ADC_DelSig_1.c **** * Parameters:
 455:.\Generated_Source\PSoC5/ADC_DelSig_1.c **** *  coherency:  Two bit value to set the coherency bit.
 456:.\Generated_Source\PSoC5/ADC_DelSig_1.c **** *           00-Coherency checking off
 457:.\Generated_Source\PSoC5/ADC_DelSig_1.c **** *           01-low byte is key byte
 458:.\Generated_Source\PSoC5/ADC_DelSig_1.c **** *           02-middle byte is the key byte
 459:.\Generated_Source\PSoC5/ADC_DelSig_1.c **** *           03-high byte is the key byte
 460:.\Generated_Source\PSoC5/ADC_DelSig_1.c **** *
 461:.\Generated_Source\PSoC5/ADC_DelSig_1.c **** * Return:
 462:.\Generated_Source\PSoC5/ADC_DelSig_1.c **** *  None
 463:.\Generated_Source\PSoC5/ADC_DelSig_1.c **** *
 464:.\Generated_Source\PSoC5/ADC_DelSig_1.c **** *******************************************************************************/
 465:.\Generated_Source\PSoC5/ADC_DelSig_1.c **** void ADC_DelSig_1_SetCoherency(uint8 coherency) 
 466:.\Generated_Source\PSoC5/ADC_DelSig_1.c **** {
 750              		.loc 1 466 0
 751              		.cfi_startproc
 752              		@ args = 0, pretend = 0, frame = 16
 753              		@ frame_needed = 1, uses_anonymous_args = 0
 754              		@ link register save eliminated.
 755 0000 80B4     		push	{r7}
 756              	.LCFI14:
 757              		.cfi_def_cfa_offset 4
 758              		.cfi_offset 7, -4
 759 0002 85B0     		sub	sp, sp, #20
 760              	.LCFI15:
 761              		.cfi_def_cfa_offset 24
 762 0004 00AF     		add	r7, sp, #0
 763              	.LCFI16:
 764              		.cfi_def_cfa_register 7
 765 0006 0346     		mov	r3, r0
 766 0008 FB71     		strb	r3, [r7, #7]
 467:.\Generated_Source\PSoC5/ADC_DelSig_1.c ****     uint8 tmpReg;
 468:.\Generated_Source\PSoC5/ADC_DelSig_1.c **** 
 469:.\Generated_Source\PSoC5/ADC_DelSig_1.c ****     tmpReg = ADC_DelSig_1_DEC_COHER_REG & (uint8)~ADC_DelSig_1_DEC_SAMP_KEY_MASK;
 767              		.loc 1 469 0
 768 000a 44F61463 		movw	r3, #19988
 769 000e C4F20003 		movt	r3, 16384
 770 0012 1B78     		ldrb	r3, [r3, #0]
 771 0014 DBB2     		uxtb	r3, r3
 772 0016 23F00303 		bic	r3, r3, #3
 773 001a FB73     		strb	r3, [r7, #15]
 470:.\Generated_Source\PSoC5/ADC_DelSig_1.c ****     tmpReg |= coherency & ADC_DelSig_1_DEC_SAMP_KEY_MASK;
 774              		.loc 1 470 0
 775 001c FB79     		ldrb	r3, [r7, #7]
 776 001e 03F00303 		and	r3, r3, #3
 777 0022 DAB2     		uxtb	r2, r3
 778 0024 FB7B     		ldrb	r3, [r7, #15]
 779 0026 1343     		orrs	r3, r3, r2
 780 0028 FB73     		strb	r3, [r7, #15]
 471:.\Generated_Source\PSoC5/ADC_DelSig_1.c ****     ADC_DelSig_1_DEC_COHER_REG = tmpReg;
 781              		.loc 1 471 0
 782 002a 44F61463 		movw	r3, #19988
 783 002e C4F20003 		movt	r3, 16384
ARM GAS  C:\Users\Brian\AppData\Local\Temp\cclOhuzj.s 			page 23


 784 0032 FA7B     		ldrb	r2, [r7, #15]
 785 0034 1A70     		strb	r2, [r3, #0]
 472:.\Generated_Source\PSoC5/ADC_DelSig_1.c **** }
 786              		.loc 1 472 0
 787 0036 07F11407 		add	r7, r7, #20
 788 003a BD46     		mov	sp, r7
 789 003c 80BC     		pop	{r7}
 790 003e 7047     		bx	lr
 791              		.cfi_endproc
 792              	.LFE5:
 793              		.size	ADC_DelSig_1_SetCoherency, .-ADC_DelSig_1_SetCoherency
 794              		.global	__aeabi_ui2f
 795              		.global	__aeabi_fdiv
 796              		.global	__aeabi_fmul
 797              		.global	__aeabi_f2d
 798              		.global	__aeabi_dcmpgt
 799              		.global	__aeabi_f2uiz
 800              		.section	.text.ADC_DelSig_1_SetGCOR,"ax",%progbits
 801              		.align	2
 802              		.global	ADC_DelSig_1_SetGCOR
 803              		.thumb
 804              		.thumb_func
 805              		.type	ADC_DelSig_1_SetGCOR, %function
 806              	ADC_DelSig_1_SetGCOR:
 807              	.LFB6:
 473:.\Generated_Source\PSoC5/ADC_DelSig_1.c **** 
 474:.\Generated_Source\PSoC5/ADC_DelSig_1.c **** 
 475:.\Generated_Source\PSoC5/ADC_DelSig_1.c **** /*******************************************************************************
 476:.\Generated_Source\PSoC5/ADC_DelSig_1.c **** * Function Name: ADC_DelSig_1_SetGCOR
 477:.\Generated_Source\PSoC5/ADC_DelSig_1.c **** ********************************************************************************
 478:.\Generated_Source\PSoC5/ADC_DelSig_1.c **** *
 479:.\Generated_Source\PSoC5/ADC_DelSig_1.c **** * Summary:
 480:.\Generated_Source\PSoC5/ADC_DelSig_1.c **** *  Calculates a new GCOR value and writes it into the GCOR register. 
 481:.\Generated_Source\PSoC5/ADC_DelSig_1.c **** *  The GCOR value is a 16-bit value that represents a gain of 0 to 2. 
 482:.\Generated_Source\PSoC5/ADC_DelSig_1.c **** *  The ADC result is multiplied by this value before it is placed in the ADC 
 483:.\Generated_Source\PSoC5/ADC_DelSig_1.c **** *  output registers. The numerical format for the GCOR value is:
 484:.\Generated_Source\PSoC5/ADC_DelSig_1.c **** *  0x0000 -> 0.000
 485:.\Generated_Source\PSoC5/ADC_DelSig_1.c **** *  0x8000 -> 1.000
 486:.\Generated_Source\PSoC5/ADC_DelSig_1.c **** *  0xFFFF -> 1.99997
 487:.\Generated_Source\PSoC5/ADC_DelSig_1.c **** *  When executing the function, the old GCOR value is multiplied by
 488:.\Generated_Source\PSoC5/ADC_DelSig_1.c **** *  gainAdjust and reloaded into the GCOR register.
 489:.\Generated_Source\PSoC5/ADC_DelSig_1.c **** *
 490:.\Generated_Source\PSoC5/ADC_DelSig_1.c **** * Parameters:
 491:.\Generated_Source\PSoC5/ADC_DelSig_1.c **** *  gainAdjust:  floating point value to set GCOR registers.
 492:.\Generated_Source\PSoC5/ADC_DelSig_1.c **** *
 493:.\Generated_Source\PSoC5/ADC_DelSig_1.c **** * Return:
 494:.\Generated_Source\PSoC5/ADC_DelSig_1.c **** *  uint8: 0 - if GCOR value is within the expected range.
 495:.\Generated_Source\PSoC5/ADC_DelSig_1.c **** *         1 - the correction value is outside GCOR value range of
 496:.\Generated_Source\PSoC5/ADC_DelSig_1.c **** *             0.00 to 1.9999.
 497:.\Generated_Source\PSoC5/ADC_DelSig_1.c **** *
 498:.\Generated_Source\PSoC5/ADC_DelSig_1.c **** * Side Effects:  The GVAL register is set to the amount of valid bits in the
 499:.\Generated_Source\PSoC5/ADC_DelSig_1.c **** *                GCOR  register minus one. If GVAL is 15 (0x0F), all 16 bits
 500:.\Generated_Source\PSoC5/ADC_DelSig_1.c **** *                of the GCOR registers will be valid. If for example GVAL is
 501:.\Generated_Source\PSoC5/ADC_DelSig_1.c **** *                11 (0x0B) only 12 bits will be valid. The least 4 bits will
 502:.\Generated_Source\PSoC5/ADC_DelSig_1.c **** *                be lost when the GCOR value is shifted 4 places to the right.
 503:.\Generated_Source\PSoC5/ADC_DelSig_1.c **** *
 504:.\Generated_Source\PSoC5/ADC_DelSig_1.c **** ******************************************************************************/
ARM GAS  C:\Users\Brian\AppData\Local\Temp\cclOhuzj.s 			page 24


 505:.\Generated_Source\PSoC5/ADC_DelSig_1.c **** uint8 ADC_DelSig_1_SetGCOR(float32 gainAdjust) 
 506:.\Generated_Source\PSoC5/ADC_DelSig_1.c **** {
 808              		.loc 1 506 0
 809              		.cfi_startproc
 810              		@ args = 0, pretend = 0, frame = 16
 811              		@ frame_needed = 1, uses_anonymous_args = 0
 812 0000 80B5     		push	{r7, lr}
 813              	.LCFI17:
 814              		.cfi_def_cfa_offset 8
 815              		.cfi_offset 7, -8
 816              		.cfi_offset 14, -4
 817 0002 84B0     		sub	sp, sp, #16
 818              	.LCFI18:
 819              		.cfi_def_cfa_offset 24
 820 0004 00AF     		add	r7, sp, #0
 821              	.LCFI19:
 822              		.cfi_def_cfa_register 7
 823 0006 7860     		str	r0, [r7, #4]	@ float
 507:.\Generated_Source\PSoC5/ADC_DelSig_1.c ****     uint16 tmpReg;
 508:.\Generated_Source\PSoC5/ADC_DelSig_1.c ****     uint8 status;
 509:.\Generated_Source\PSoC5/ADC_DelSig_1.c ****     float32 tmpValue;
 510:.\Generated_Source\PSoC5/ADC_DelSig_1.c **** 
 511:.\Generated_Source\PSoC5/ADC_DelSig_1.c ****     tmpReg = ADC_DelSig_1_gcor[ADC_DelSig_1_Config - 1u].gcor;
 824              		.loc 1 511 0
 825 0008 40F20003 		movw	r3, #:lower16:ADC_DelSig_1_Config
 826 000c C0F20003 		movt	r3, #:upper16:ADC_DelSig_1_Config
 827 0010 1B78     		ldrb	r3, [r3, #0]
 828 0012 DBB2     		uxtb	r3, r3
 829 0014 03F1FF32 		add	r2, r3, #-1
 830 0018 40F20003 		movw	r3, #:lower16:ADC_DelSig_1_gcor
 831 001c C0F20003 		movt	r3, #:upper16:ADC_DelSig_1_gcor
 832 0020 33F82230 		ldrh	r3, [r3, r2, lsl #2]	@ movhi
 833 0024 BB81     		strh	r3, [r7, #12]	@ movhi
 512:.\Generated_Source\PSoC5/ADC_DelSig_1.c ****     tmpValue = ((float32)tmpReg / (float32)ADC_DelSig_1_IDEAL_GAIN_CONST);
 834              		.loc 1 512 0
 835 0026 BB89     		ldrh	r3, [r7, #12]
 836 0028 1846     		mov	r0, r3
 837 002a FFF7FEFF 		bl	__aeabi_ui2f
 838 002e 0346     		mov	r3, r0
 839 0030 1846     		mov	r0, r3
 840 0032 4FF08E41 		mov	r1, #1191182336
 841 0036 FFF7FEFF 		bl	__aeabi_fdiv
 842 003a 0346     		mov	r3, r0
 843 003c BB60     		str	r3, [r7, #8]	@ float
 513:.\Generated_Source\PSoC5/ADC_DelSig_1.c ****     tmpValue = tmpValue * gainAdjust;
 844              		.loc 1 513 0
 845 003e B868     		ldr	r0, [r7, #8]	@ float
 846 0040 7968     		ldr	r1, [r7, #4]	@ float
 847 0042 FFF7FEFF 		bl	__aeabi_fmul
 848 0046 0346     		mov	r3, r0
 849 0048 BB60     		str	r3, [r7, #8]	@ float
 514:.\Generated_Source\PSoC5/ADC_DelSig_1.c **** 
 515:.\Generated_Source\PSoC5/ADC_DelSig_1.c ****     if (tmpValue > 1.9999)
 850              		.loc 1 515 0
 851 004a B868     		ldr	r0, [r7, #8]	@ float
 852 004c FFF7FEFF 		bl	__aeabi_f2d
 853 0050 0246     		mov	r2, r0
ARM GAS  C:\Users\Brian\AppData\Local\Temp\cclOhuzj.s 			page 25


 854 0052 0B46     		mov	r3, r1
 855 0054 1046     		mov	r0, r2
 856 0056 1946     		mov	r1, r3
 857 0058 1BA3     		adr	r3, .L16
 858 005a D3E90023 		ldrd	r2, [r3]
 859 005e FFF7FEFF 		bl	__aeabi_dcmpgt
 860 0062 0346     		mov	r3, r0
 861 0064 002B     		cmp	r3, #0
 862 0066 03D0     		beq	.L15
 863              	.L14:
 516:.\Generated_Source\PSoC5/ADC_DelSig_1.c ****     {
 517:.\Generated_Source\PSoC5/ADC_DelSig_1.c ****         status = 1u;
 864              		.loc 1 517 0
 865 0068 4FF00103 		mov	r3, #1
 866 006c FB73     		strb	r3, [r7, #15]
 867 006e 23E0     		b	.L12
 868              	.L15:
 518:.\Generated_Source\PSoC5/ADC_DelSig_1.c ****     }
 519:.\Generated_Source\PSoC5/ADC_DelSig_1.c ****     else
 520:.\Generated_Source\PSoC5/ADC_DelSig_1.c ****     {
 521:.\Generated_Source\PSoC5/ADC_DelSig_1.c ****         tmpValue *= (float32)ADC_DelSig_1_IDEAL_GAIN_CONST;
 869              		.loc 1 521 0
 870 0070 B868     		ldr	r0, [r7, #8]	@ float
 871 0072 4FF08E41 		mov	r1, #1191182336
 872 0076 FFF7FEFF 		bl	__aeabi_fmul
 873 007a 0346     		mov	r3, r0
 874 007c BB60     		str	r3, [r7, #8]	@ float
 522:.\Generated_Source\PSoC5/ADC_DelSig_1.c **** 		tmpReg = (uint16)tmpValue;
 875              		.loc 1 522 0
 876 007e B868     		ldr	r0, [r7, #8]	@ float
 877 0080 FFF7FEFF 		bl	__aeabi_f2uiz
 878 0084 0346     		mov	r3, r0
 879 0086 BB81     		strh	r3, [r7, #12]	@ movhi
 523:.\Generated_Source\PSoC5/ADC_DelSig_1.c ****         CY_SET_REG16(ADC_DelSig_1_DEC_GCOR_16B_PTR, tmpReg);
 880              		.loc 1 523 0
 881 0088 44F60C63 		movw	r3, #19980
 882 008c C4F20003 		movt	r3, 16384
 883 0090 BA89     		ldrh	r2, [r7, #12]	@ movhi
 884 0092 1A80     		strh	r2, [r3, #0]	@ movhi
 524:.\Generated_Source\PSoC5/ADC_DelSig_1.c ****         /* Update gain array to be used by SelectConfiguration() API */
 525:.\Generated_Source\PSoC5/ADC_DelSig_1.c ****        ADC_DelSig_1_gcor[ADC_DelSig_1_Config - 1u].gcor = tmpReg;
 885              		.loc 1 525 0
 886 0094 40F20003 		movw	r3, #:lower16:ADC_DelSig_1_Config
 887 0098 C0F20003 		movt	r3, #:upper16:ADC_DelSig_1_Config
 888 009c 1B78     		ldrb	r3, [r3, #0]
 889 009e DBB2     		uxtb	r3, r3
 890 00a0 03F1FF32 		add	r2, r3, #-1
 891 00a4 40F20003 		movw	r3, #:lower16:ADC_DelSig_1_gcor
 892 00a8 C0F20003 		movt	r3, #:upper16:ADC_DelSig_1_gcor
 893 00ac B989     		ldrh	r1, [r7, #12]	@ movhi
 894 00ae 23F82210 		strh	r1, [r3, r2, lsl #2]	@ movhi
 526:.\Generated_Source\PSoC5/ADC_DelSig_1.c **** 
 527:.\Generated_Source\PSoC5/ADC_DelSig_1.c ****         status = 0u;
 895              		.loc 1 527 0
 896 00b2 4FF00003 		mov	r3, #0
 897 00b6 FB73     		strb	r3, [r7, #15]
 898              	.L12:
ARM GAS  C:\Users\Brian\AppData\Local\Temp\cclOhuzj.s 			page 26


 528:.\Generated_Source\PSoC5/ADC_DelSig_1.c **** 
 529:.\Generated_Source\PSoC5/ADC_DelSig_1.c ****     }
 530:.\Generated_Source\PSoC5/ADC_DelSig_1.c ****     return(status);
 899              		.loc 1 530 0
 900 00b8 FB7B     		ldrb	r3, [r7, #15]	@ zero_extendqisi2
 531:.\Generated_Source\PSoC5/ADC_DelSig_1.c **** }
 901              		.loc 1 531 0
 902 00ba 1846     		mov	r0, r3
 903 00bc 07F11007 		add	r7, r7, #16
 904 00c0 BD46     		mov	sp, r7
 905 00c2 80BD     		pop	{r7, pc}
 906              	.L17:
 907 00c4 AFF30080 		.align	3
 908              	.L16:
 909 00c8 8F537424 		.word	611603343
 910 00cc 97FFFF3F 		.word	1073741719
 911              		.cfi_endproc
 912              	.LFE6:
 913              		.size	ADC_DelSig_1_SetGCOR, .-ADC_DelSig_1_SetGCOR
 914              		.section	.text.ADC_DelSig_1_ReadGCOR,"ax",%progbits
 915              		.align	2
 916              		.global	ADC_DelSig_1_ReadGCOR
 917              		.thumb
 918              		.thumb_func
 919              		.type	ADC_DelSig_1_ReadGCOR, %function
 920              	ADC_DelSig_1_ReadGCOR:
 921              	.LFB7:
 532:.\Generated_Source\PSoC5/ADC_DelSig_1.c **** 
 533:.\Generated_Source\PSoC5/ADC_DelSig_1.c **** 
 534:.\Generated_Source\PSoC5/ADC_DelSig_1.c **** /******************************************************************************
 535:.\Generated_Source\PSoC5/ADC_DelSig_1.c **** * Function Name: ADC_DelSig_1_ReadGCOR
 536:.\Generated_Source\PSoC5/ADC_DelSig_1.c **** *******************************************************************************
 537:.\Generated_Source\PSoC5/ADC_DelSig_1.c **** *
 538:.\Generated_Source\PSoC5/ADC_DelSig_1.c **** * Summary:
 539:.\Generated_Source\PSoC5/ADC_DelSig_1.c **** *  This API returns the current GCOR register value, normalized based on the
 540:.\Generated_Source\PSoC5/ADC_DelSig_1.c **** *  GVAL register settings.
 541:.\Generated_Source\PSoC5/ADC_DelSig_1.c **** *  For example, if the GCOR value is 0x0812 and the GVAL register is set to 
 542:.\Generated_Source\PSoC5/ADC_DelSig_1.c **** *  11 (0x0B) then the returned value will be shifted by for bits to the left.
 543:.\Generated_Source\PSoC5/ADC_DelSig_1.c **** *  (Actual GCOR value = 0x0812, returned value = 0x8120)
 544:.\Generated_Source\PSoC5/ADC_DelSig_1.c **** *
 545:.\Generated_Source\PSoC5/ADC_DelSig_1.c **** * Parameters:
 546:.\Generated_Source\PSoC5/ADC_DelSig_1.c **** *  None
 547:.\Generated_Source\PSoC5/ADC_DelSig_1.c **** *
 548:.\Generated_Source\PSoC5/ADC_DelSig_1.c **** * Return:
 549:.\Generated_Source\PSoC5/ADC_DelSig_1.c **** *  uint16:  Normalized GCOR value.
 550:.\Generated_Source\PSoC5/ADC_DelSig_1.c **** *
 551:.\Generated_Source\PSoC5/ADC_DelSig_1.c **** *******************************************************************************/
 552:.\Generated_Source\PSoC5/ADC_DelSig_1.c **** uint16 ADC_DelSig_1_ReadGCOR(void) 
 553:.\Generated_Source\PSoC5/ADC_DelSig_1.c **** {
 922              		.loc 1 553 0
 923              		.cfi_startproc
 924              		@ args = 0, pretend = 0, frame = 8
 925              		@ frame_needed = 1, uses_anonymous_args = 0
 926              		@ link register save eliminated.
 927 0000 80B4     		push	{r7}
 928              	.LCFI20:
 929              		.cfi_def_cfa_offset 4
ARM GAS  C:\Users\Brian\AppData\Local\Temp\cclOhuzj.s 			page 27


 930              		.cfi_offset 7, -4
 931 0002 83B0     		sub	sp, sp, #12
 932              	.LCFI21:
 933              		.cfi_def_cfa_offset 16
 934 0004 00AF     		add	r7, sp, #0
 935              	.LCFI22:
 936              		.cfi_def_cfa_register 7
 554:.\Generated_Source\PSoC5/ADC_DelSig_1.c ****     uint8 gValue;
 555:.\Generated_Source\PSoC5/ADC_DelSig_1.c ****     uint16 gcorValue;
 556:.\Generated_Source\PSoC5/ADC_DelSig_1.c **** 
 557:.\Generated_Source\PSoC5/ADC_DelSig_1.c ****     gValue = ADC_DelSig_1_DEC_GVAL_REG;
 937              		.loc 1 557 0
 938 0006 44F60E63 		movw	r3, #19982
 939 000a C4F20003 		movt	r3, 16384
 940 000e 1B78     		ldrb	r3, [r3, #0]
 941 0010 7B71     		strb	r3, [r7, #5]
 558:.\Generated_Source\PSoC5/ADC_DelSig_1.c ****     gcorValue = CY_GET_REG16(ADC_DelSig_1_DEC_GCOR_16B_PTR);
 942              		.loc 1 558 0
 943 0012 44F60C63 		movw	r3, #19980
 944 0016 C4F20003 		movt	r3, 16384
 945 001a 1B88     		ldrh	r3, [r3, #0]	@ movhi
 946 001c FB80     		strh	r3, [r7, #6]	@ movhi
 559:.\Generated_Source\PSoC5/ADC_DelSig_1.c **** 
 560:.\Generated_Source\PSoC5/ADC_DelSig_1.c ****     if (gValue < ADC_DelSig_1_MAX_GVAL)
 947              		.loc 1 560 0
 948 001e 7B79     		ldrb	r3, [r7, #5]	@ zero_extendqisi2
 949 0020 0E2B     		cmp	r3, #14
 950 0022 06D8     		bhi	.L19
 561:.\Generated_Source\PSoC5/ADC_DelSig_1.c ****     {
 562:.\Generated_Source\PSoC5/ADC_DelSig_1.c ****         gcorValue <<= ADC_DelSig_1_MAX_GVAL - gValue;
 951              		.loc 1 562 0
 952 0024 FA88     		ldrh	r2, [r7, #6]
 953 0026 7B79     		ldrb	r3, [r7, #5]	@ zero_extendqisi2
 954 0028 C3F10F03 		rsb	r3, r3, #15
 955 002c 02FA03F3 		lsl	r3, r2, r3
 956 0030 FB80     		strh	r3, [r7, #6]	@ movhi
 957              	.L19:
 563:.\Generated_Source\PSoC5/ADC_DelSig_1.c ****     }
 564:.\Generated_Source\PSoC5/ADC_DelSig_1.c **** 
 565:.\Generated_Source\PSoC5/ADC_DelSig_1.c ****     return gcorValue;
 958              		.loc 1 565 0
 959 0032 FB88     		ldrh	r3, [r7, #6]
 566:.\Generated_Source\PSoC5/ADC_DelSig_1.c **** }
 960              		.loc 1 566 0
 961 0034 1846     		mov	r0, r3
 962 0036 07F10C07 		add	r7, r7, #12
 963 003a BD46     		mov	sp, r7
 964 003c 80BC     		pop	{r7}
 965 003e 7047     		bx	lr
 966              		.cfi_endproc
 967              	.LFE7:
 968              		.size	ADC_DelSig_1_ReadGCOR, .-ADC_DelSig_1_ReadGCOR
 969              		.section	.text.ADC_DelSig_1_StartConvert,"ax",%progbits
 970              		.align	2
 971              		.global	ADC_DelSig_1_StartConvert
 972              		.thumb
 973              		.thumb_func
ARM GAS  C:\Users\Brian\AppData\Local\Temp\cclOhuzj.s 			page 28


 974              		.type	ADC_DelSig_1_StartConvert, %function
 975              	ADC_DelSig_1_StartConvert:
 976              	.LFB8:
 567:.\Generated_Source\PSoC5/ADC_DelSig_1.c **** 
 568:.\Generated_Source\PSoC5/ADC_DelSig_1.c **** 
 569:.\Generated_Source\PSoC5/ADC_DelSig_1.c **** /*******************************************************************************
 570:.\Generated_Source\PSoC5/ADC_DelSig_1.c **** * Function Name: ADC_DelSig_1_StartConvert
 571:.\Generated_Source\PSoC5/ADC_DelSig_1.c **** ********************************************************************************
 572:.\Generated_Source\PSoC5/ADC_DelSig_1.c **** *
 573:.\Generated_Source\PSoC5/ADC_DelSig_1.c **** * Summary:
 574:.\Generated_Source\PSoC5/ADC_DelSig_1.c **** *  Forces the ADC to initiate a conversion. If in the "Single Sample"
 575:.\Generated_Source\PSoC5/ADC_DelSig_1.c **** *  mode, one conversion will be performed then the ADC will halt. If in
 576:.\Generated_Source\PSoC5/ADC_DelSig_1.c **** *  one of the other three conversion modes, the ADC will run
 577:.\Generated_Source\PSoC5/ADC_DelSig_1.c **** *  continuously until the ADC_Stop() or ADC_StopConvert() is called.
 578:.\Generated_Source\PSoC5/ADC_DelSig_1.c **** *
 579:.\Generated_Source\PSoC5/ADC_DelSig_1.c **** * Parameters:
 580:.\Generated_Source\PSoC5/ADC_DelSig_1.c **** *  None
 581:.\Generated_Source\PSoC5/ADC_DelSig_1.c **** *
 582:.\Generated_Source\PSoC5/ADC_DelSig_1.c **** * Return:
 583:.\Generated_Source\PSoC5/ADC_DelSig_1.c **** *  None
 584:.\Generated_Source\PSoC5/ADC_DelSig_1.c **** *
 585:.\Generated_Source\PSoC5/ADC_DelSig_1.c **** *******************************************************************************/
 586:.\Generated_Source\PSoC5/ADC_DelSig_1.c **** void ADC_DelSig_1_StartConvert(void) 
 587:.\Generated_Source\PSoC5/ADC_DelSig_1.c **** {
 977              		.loc 1 587 0
 978              		.cfi_startproc
 979              		@ args = 0, pretend = 0, frame = 0
 980              		@ frame_needed = 1, uses_anonymous_args = 0
 981              		@ link register save eliminated.
 982 0000 80B4     		push	{r7}
 983              	.LCFI23:
 984              		.cfi_def_cfa_offset 4
 985              		.cfi_offset 7, -4
 986 0002 00AF     		add	r7, sp, #0
 987              	.LCFI24:
 988              		.cfi_def_cfa_register 7
 588:.\Generated_Source\PSoC5/ADC_DelSig_1.c ****     /* Start the conversion */
 589:.\Generated_Source\PSoC5/ADC_DelSig_1.c ****     ADC_DelSig_1_DEC_CR_REG |= ADC_DelSig_1_DEC_START_CONV;
 989              		.loc 1 589 0
 990 0004 4FF49C43 		mov	r3, #19968
 991 0008 C4F20003 		movt	r3, 16384
 992 000c 4FF49C42 		mov	r2, #19968
 993 0010 C4F20002 		movt	r2, 16384
 994 0014 1278     		ldrb	r2, [r2, #0]
 995 0016 D2B2     		uxtb	r2, r2
 996 0018 42F00102 		orr	r2, r2, #1
 997 001c D2B2     		uxtb	r2, r2
 998 001e 1A70     		strb	r2, [r3, #0]
 590:.\Generated_Source\PSoC5/ADC_DelSig_1.c **** }
 999              		.loc 1 590 0
 1000 0020 BD46     		mov	sp, r7
 1001 0022 80BC     		pop	{r7}
 1002 0024 7047     		bx	lr
 1003              		.cfi_endproc
 1004              	.LFE8:
 1005              		.size	ADC_DelSig_1_StartConvert, .-ADC_DelSig_1_StartConvert
 1006 0026 00BF     		.section	.text.ADC_DelSig_1_StopConvert,"ax",%progbits
ARM GAS  C:\Users\Brian\AppData\Local\Temp\cclOhuzj.s 			page 29


 1007              		.align	2
 1008              		.global	ADC_DelSig_1_StopConvert
 1009              		.thumb
 1010              		.thumb_func
 1011              		.type	ADC_DelSig_1_StopConvert, %function
 1012              	ADC_DelSig_1_StopConvert:
 1013              	.LFB9:
 591:.\Generated_Source\PSoC5/ADC_DelSig_1.c **** 
 592:.\Generated_Source\PSoC5/ADC_DelSig_1.c **** 
 593:.\Generated_Source\PSoC5/ADC_DelSig_1.c **** /*******************************************************************************
 594:.\Generated_Source\PSoC5/ADC_DelSig_1.c **** * Function Name: ADC_DelSig_1_StopConvert
 595:.\Generated_Source\PSoC5/ADC_DelSig_1.c **** ********************************************************************************
 596:.\Generated_Source\PSoC5/ADC_DelSig_1.c **** *
 597:.\Generated_Source\PSoC5/ADC_DelSig_1.c **** * Summary:
 598:.\Generated_Source\PSoC5/ADC_DelSig_1.c **** *  Forces the ADC to stop all conversions. If the ADC is in the middle of a
 599:.\Generated_Source\PSoC5/ADC_DelSig_1.c **** *  conversion, the ADC will be reset and not provide a result for that partial
 600:.\Generated_Source\PSoC5/ADC_DelSig_1.c **** *  conversion.
 601:.\Generated_Source\PSoC5/ADC_DelSig_1.c **** *
 602:.\Generated_Source\PSoC5/ADC_DelSig_1.c **** * Parameters:
 603:.\Generated_Source\PSoC5/ADC_DelSig_1.c **** *  None
 604:.\Generated_Source\PSoC5/ADC_DelSig_1.c **** *
 605:.\Generated_Source\PSoC5/ADC_DelSig_1.c **** * Return:
 606:.\Generated_Source\PSoC5/ADC_DelSig_1.c **** *  None
 607:.\Generated_Source\PSoC5/ADC_DelSig_1.c **** *
 608:.\Generated_Source\PSoC5/ADC_DelSig_1.c **** *******************************************************************************/
 609:.\Generated_Source\PSoC5/ADC_DelSig_1.c **** void ADC_DelSig_1_StopConvert(void) 
 610:.\Generated_Source\PSoC5/ADC_DelSig_1.c **** {
 1014              		.loc 1 610 0
 1015              		.cfi_startproc
 1016              		@ args = 0, pretend = 0, frame = 0
 1017              		@ frame_needed = 1, uses_anonymous_args = 0
 1018              		@ link register save eliminated.
 1019 0000 80B4     		push	{r7}
 1020              	.LCFI25:
 1021              		.cfi_def_cfa_offset 4
 1022              		.cfi_offset 7, -4
 1023 0002 00AF     		add	r7, sp, #0
 1024              	.LCFI26:
 1025              		.cfi_def_cfa_register 7
 611:.\Generated_Source\PSoC5/ADC_DelSig_1.c ****     /* Stop all conversions */
 612:.\Generated_Source\PSoC5/ADC_DelSig_1.c ****     ADC_DelSig_1_DEC_CR_REG &= (uint8)~ADC_DelSig_1_DEC_START_CONV;
 1026              		.loc 1 612 0
 1027 0004 4FF49C43 		mov	r3, #19968
 1028 0008 C4F20003 		movt	r3, 16384
 1029 000c 4FF49C42 		mov	r2, #19968
 1030 0010 C4F20002 		movt	r2, 16384
 1031 0014 1278     		ldrb	r2, [r2, #0]
 1032 0016 D2B2     		uxtb	r2, r2
 1033 0018 22F00102 		bic	r2, r2, #1
 1034 001c D2B2     		uxtb	r2, r2
 1035 001e 1A70     		strb	r2, [r3, #0]
 613:.\Generated_Source\PSoC5/ADC_DelSig_1.c **** }
 1036              		.loc 1 613 0
 1037 0020 BD46     		mov	sp, r7
 1038 0022 80BC     		pop	{r7}
 1039 0024 7047     		bx	lr
 1040              		.cfi_endproc
ARM GAS  C:\Users\Brian\AppData\Local\Temp\cclOhuzj.s 			page 30


 1041              	.LFE9:
 1042              		.size	ADC_DelSig_1_StopConvert, .-ADC_DelSig_1_StopConvert
 1043 0026 00BF     		.section	.text.ADC_DelSig_1_IsEndConversion,"ax",%progbits
 1044              		.align	2
 1045              		.global	ADC_DelSig_1_IsEndConversion
 1046              		.thumb
 1047              		.thumb_func
 1048              		.type	ADC_DelSig_1_IsEndConversion, %function
 1049              	ADC_DelSig_1_IsEndConversion:
 1050              	.LFB10:
 614:.\Generated_Source\PSoC5/ADC_DelSig_1.c **** 
 615:.\Generated_Source\PSoC5/ADC_DelSig_1.c **** 
 616:.\Generated_Source\PSoC5/ADC_DelSig_1.c **** /*******************************************************************************
 617:.\Generated_Source\PSoC5/ADC_DelSig_1.c **** * Function Name: ADC_DelSig_1_IsEndConversion
 618:.\Generated_Source\PSoC5/ADC_DelSig_1.c **** ********************************************************************************
 619:.\Generated_Source\PSoC5/ADC_DelSig_1.c **** *
 620:.\Generated_Source\PSoC5/ADC_DelSig_1.c **** * Summary:
 621:.\Generated_Source\PSoC5/ADC_DelSig_1.c **** *  Checks the status that the most recently started conversion has completed.
 622:.\Generated_Source\PSoC5/ADC_DelSig_1.c **** *  The status is cleared by any of ADC_GetResult8(), ADC_GetResult16() or 
 623:.\Generated_Source\PSoC5/ADC_DelSig_1.c **** *  ADC_GetResult32() API.
 624:.\Generated_Source\PSoC5/ADC_DelSig_1.c **** *  This function provides the programmer with two options. In one mode this 
 625:.\Generated_Source\PSoC5/ADC_DelSig_1.c **** *  function immediately returns with the conversion status. In the other mode,
 626:.\Generated_Source\PSoC5/ADC_DelSig_1.c **** *  the function does not return (blocking) until the conversion has completed.
 627:.\Generated_Source\PSoC5/ADC_DelSig_1.c **** *
 628:.\Generated_Source\PSoC5/ADC_DelSig_1.c **** * Parameters:
 629:.\Generated_Source\PSoC5/ADC_DelSig_1.c **** *  retMode: Check conversion return mode. See the following table for options.
 630:.\Generated_Source\PSoC5/ADC_DelSig_1.c **** *   ADC_DelSig_1_RETURN_STATUS -   Immediately returns conversion result
 631:.\Generated_Source\PSoC5/ADC_DelSig_1.c **** *                                      status.
 632:.\Generated_Source\PSoC5/ADC_DelSig_1.c **** *   ADC_DelSig_1_WAIT_FOR_RESULT - Does not return until ADC conversion
 633:.\Generated_Source\PSoC5/ADC_DelSig_1.c **** *                                      is complete.
 634:.\Generated_Source\PSoC5/ADC_DelSig_1.c **** *
 635:.\Generated_Source\PSoC5/ADC_DelSig_1.c **** * Return:
 636:.\Generated_Source\PSoC5/ADC_DelSig_1.c **** *  If a nonzero value is returned, the last conversion has completed.
 637:.\Generated_Source\PSoC5/ADC_DelSig_1.c **** *  If the returned value is zero, the ADC is still calculating the last result.
 638:.\Generated_Source\PSoC5/ADC_DelSig_1.c **** *
 639:.\Generated_Source\PSoC5/ADC_DelSig_1.c **** * Global variables:
 640:.\Generated_Source\PSoC5/ADC_DelSig_1.c **** *  ADC_DelSig_1_convDone:  Used to check whether conversion is complete
 641:.\Generated_Source\PSoC5/ADC_DelSig_1.c **** *  or not for single sample mode with resolution is above 16
 642:.\Generated_Source\PSoC5/ADC_DelSig_1.c **** *
 643:.\Generated_Source\PSoC5/ADC_DelSig_1.c **** *******************************************************************************/
 644:.\Generated_Source\PSoC5/ADC_DelSig_1.c **** uint8 ADC_DelSig_1_IsEndConversion(uint8 retMode) 
 645:.\Generated_Source\PSoC5/ADC_DelSig_1.c **** {
 1051              		.loc 1 645 0
 1052              		.cfi_startproc
 1053              		@ args = 0, pretend = 0, frame = 16
 1054              		@ frame_needed = 1, uses_anonymous_args = 0
 1055              		@ link register save eliminated.
 1056 0000 80B4     		push	{r7}
 1057              	.LCFI27:
 1058              		.cfi_def_cfa_offset 4
 1059              		.cfi_offset 7, -4
 1060 0002 85B0     		sub	sp, sp, #20
 1061              	.LCFI28:
 1062              		.cfi_def_cfa_offset 24
 1063 0004 00AF     		add	r7, sp, #0
 1064              	.LCFI29:
 1065              		.cfi_def_cfa_register 7
ARM GAS  C:\Users\Brian\AppData\Local\Temp\cclOhuzj.s 			page 31


 1066 0006 0346     		mov	r3, r0
 1067 0008 FB71     		strb	r3, [r7, #7]
 1068              	.L27:
 646:.\Generated_Source\PSoC5/ADC_DelSig_1.c ****     uint8 status;
 647:.\Generated_Source\PSoC5/ADC_DelSig_1.c **** 
 648:.\Generated_Source\PSoC5/ADC_DelSig_1.c ****     do
 649:.\Generated_Source\PSoC5/ADC_DelSig_1.c ****     {
 650:.\Generated_Source\PSoC5/ADC_DelSig_1.c ****         /* Check for stop convert if conversion mode is Single Sample with
 651:.\Generated_Source\PSoC5/ADC_DelSig_1.c ****         *   resolution above 16 bit
 652:.\Generated_Source\PSoC5/ADC_DelSig_1.c ****         */
 653:.\Generated_Source\PSoC5/ADC_DelSig_1.c ****         if(ADC_DelSig_1_stopConversion != 0u)
 1069              		.loc 1 653 0
 1070 000a 40F20003 		movw	r3, #:lower16:ADC_DelSig_1_stopConversion
 1071 000e C0F20003 		movt	r3, #:upper16:ADC_DelSig_1_stopConversion
 1072 0012 1B78     		ldrb	r3, [r3, #0]
 1073 0014 DBB2     		uxtb	r3, r3
 1074 0016 002B     		cmp	r3, #0
 1075 0018 06D0     		beq	.L24
 654:.\Generated_Source\PSoC5/ADC_DelSig_1.c ****         {
 655:.\Generated_Source\PSoC5/ADC_DelSig_1.c ****             status = ADC_DelSig_1_convDone;
 1076              		.loc 1 655 0
 1077 001a 40F20003 		movw	r3, #:lower16:ADC_DelSig_1_convDone
 1078 001e C0F20003 		movt	r3, #:upper16:ADC_DelSig_1_convDone
 1079 0022 1B78     		ldrb	r3, [r3, #0]
 1080 0024 FB73     		strb	r3, [r7, #15]
 1081 0026 08E0     		b	.L25
 1082              	.L24:
 656:.\Generated_Source\PSoC5/ADC_DelSig_1.c ****         }
 657:.\Generated_Source\PSoC5/ADC_DelSig_1.c ****         else
 658:.\Generated_Source\PSoC5/ADC_DelSig_1.c ****         {
 659:.\Generated_Source\PSoC5/ADC_DelSig_1.c ****             status = ADC_DelSig_1_DEC_SR_REG & ADC_DelSig_1_DEC_CONV_DONE;
 1083              		.loc 1 659 0
 1084 0028 44F60163 		movw	r3, #19969
 1085 002c C4F20003 		movt	r3, 16384
 1086 0030 1B78     		ldrb	r3, [r3, #0]
 1087 0032 DBB2     		uxtb	r3, r3
 1088 0034 03F00103 		and	r3, r3, #1
 1089 0038 FB73     		strb	r3, [r7, #15]
 1090              	.L25:
 660:.\Generated_Source\PSoC5/ADC_DelSig_1.c ****         }
 661:.\Generated_Source\PSoC5/ADC_DelSig_1.c ****     }while((status != ADC_DelSig_1_DEC_CONV_DONE) && (retMode == ADC_DelSig_1_WAIT_FOR_RESULT));
 1091              		.loc 1 661 0
 1092 003a FB7B     		ldrb	r3, [r7, #15]	@ zero_extendqisi2
 1093 003c 012B     		cmp	r3, #1
 1094 003e 02D0     		beq	.L26
 1095              		.loc 1 661 0 is_stmt 0 discriminator 1
 1096 0040 FB79     		ldrb	r3, [r7, #7]	@ zero_extendqisi2
 1097 0042 002B     		cmp	r3, #0
 1098 0044 E1D0     		beq	.L27
 1099              	.L26:
 662:.\Generated_Source\PSoC5/ADC_DelSig_1.c **** 
 663:.\Generated_Source\PSoC5/ADC_DelSig_1.c ****     return(status);
 1100              		.loc 1 663 0 is_stmt 1
 1101 0046 FB7B     		ldrb	r3, [r7, #15]	@ zero_extendqisi2
 664:.\Generated_Source\PSoC5/ADC_DelSig_1.c **** }
 1102              		.loc 1 664 0
 1103 0048 1846     		mov	r0, r3
ARM GAS  C:\Users\Brian\AppData\Local\Temp\cclOhuzj.s 			page 32


 1104 004a 07F11407 		add	r7, r7, #20
 1105 004e BD46     		mov	sp, r7
 1106 0050 80BC     		pop	{r7}
 1107 0052 7047     		bx	lr
 1108              		.cfi_endproc
 1109              	.LFE10:
 1110              		.size	ADC_DelSig_1_IsEndConversion, .-ADC_DelSig_1_IsEndConversion
 1111              		.section	.text.ADC_DelSig_1_GetResult8,"ax",%progbits
 1112              		.align	2
 1113              		.global	ADC_DelSig_1_GetResult8
 1114              		.thumb
 1115              		.thumb_func
 1116              		.type	ADC_DelSig_1_GetResult8, %function
 1117              	ADC_DelSig_1_GetResult8:
 1118              	.LFB11:
 665:.\Generated_Source\PSoC5/ADC_DelSig_1.c **** 
 666:.\Generated_Source\PSoC5/ADC_DelSig_1.c **** 
 667:.\Generated_Source\PSoC5/ADC_DelSig_1.c **** /*******************************************************************************
 668:.\Generated_Source\PSoC5/ADC_DelSig_1.c **** * Function Name: ADC_DelSig_1_GetResult8
 669:.\Generated_Source\PSoC5/ADC_DelSig_1.c **** ********************************************************************************
 670:.\Generated_Source\PSoC5/ADC_DelSig_1.c **** *
 671:.\Generated_Source\PSoC5/ADC_DelSig_1.c **** * Summary:
 672:.\Generated_Source\PSoC5/ADC_DelSig_1.c **** *  This function returns the result of an 8-bit conversion. If the
 673:.\Generated_Source\PSoC5/ADC_DelSig_1.c **** *  resolution is set greater than 8-bits, the LSB of the result will be
 674:.\Generated_Source\PSoC5/ADC_DelSig_1.c **** *  returned. When the ADC is configured for 8-bit single ended mode,
 675:.\Generated_Source\PSoC5/ADC_DelSig_1.c **** *  the ADC_GetResult16() function should be used instead. This
 676:.\Generated_Source\PSoC5/ADC_DelSig_1.c **** *  function returns only signed 8-bit values. The maximum positive
 677:.\Generated_Source\PSoC5/ADC_DelSig_1.c **** *  signed 8-bit value is 127, but in singled ended 8-bit mode, the
 678:.\Generated_Source\PSoC5/ADC_DelSig_1.c **** *  maximum positive value is 255.
 679:.\Generated_Source\PSoC5/ADC_DelSig_1.c **** *
 680:.\Generated_Source\PSoC5/ADC_DelSig_1.c **** * Parameters:
 681:.\Generated_Source\PSoC5/ADC_DelSig_1.c **** *  None
 682:.\Generated_Source\PSoC5/ADC_DelSig_1.c **** *
 683:.\Generated_Source\PSoC5/ADC_DelSig_1.c **** * Return:
 684:.\Generated_Source\PSoC5/ADC_DelSig_1.c **** *  int8: The LSB of the last ADC conversion.
 685:.\Generated_Source\PSoC5/ADC_DelSig_1.c **** *
 686:.\Generated_Source\PSoC5/ADC_DelSig_1.c **** * Global variables:
 687:.\Generated_Source\PSoC5/ADC_DelSig_1.c **** *  ADC_DelSig_1_convDone:  Cleared in single sample mode with resolution
 688:.\Generated_Source\PSoC5/ADC_DelSig_1.c **** *                              above 16 bits
 689:.\Generated_Source\PSoC5/ADC_DelSig_1.c **** *
 690:.\Generated_Source\PSoC5/ADC_DelSig_1.c **** *******************************************************************************/
 691:.\Generated_Source\PSoC5/ADC_DelSig_1.c **** int8 ADC_DelSig_1_GetResult8( void ) 
 692:.\Generated_Source\PSoC5/ADC_DelSig_1.c **** {
 1119              		.loc 1 692 0
 1120              		.cfi_startproc
 1121              		@ args = 0, pretend = 0, frame = 8
 1122              		@ frame_needed = 1, uses_anonymous_args = 0
 1123              		@ link register save eliminated.
 1124 0000 80B4     		push	{r7}
 1125              	.LCFI30:
 1126              		.cfi_def_cfa_offset 4
 1127              		.cfi_offset 7, -4
 1128 0002 83B0     		sub	sp, sp, #12
 1129              	.LCFI31:
 1130              		.cfi_def_cfa_offset 16
 1131 0004 00AF     		add	r7, sp, #0
 1132              	.LCFI32:
ARM GAS  C:\Users\Brian\AppData\Local\Temp\cclOhuzj.s 			page 33


 1133              		.cfi_def_cfa_register 7
 693:.\Generated_Source\PSoC5/ADC_DelSig_1.c ****     int8 result;
 694:.\Generated_Source\PSoC5/ADC_DelSig_1.c ****     uint8 coherency;
 695:.\Generated_Source\PSoC5/ADC_DelSig_1.c **** 
 696:.\Generated_Source\PSoC5/ADC_DelSig_1.c ****     /* Read active coherency configuration */
 697:.\Generated_Source\PSoC5/ADC_DelSig_1.c ****     coherency = ADC_DelSig_1_DEC_COHER_REG & ADC_DelSig_1_DEC_SAMP_KEY_MASK;
 1134              		.loc 1 697 0
 1135 0006 44F61463 		movw	r3, #19988
 1136 000a C4F20003 		movt	r3, 16384
 1137 000e 1B78     		ldrb	r3, [r3, #0]
 1138 0010 DBB2     		uxtb	r3, r3
 1139 0012 03F00303 		and	r3, r3, #3
 1140 0016 FB71     		strb	r3, [r7, #7]
 698:.\Generated_Source\PSoC5/ADC_DelSig_1.c **** 
 699:.\Generated_Source\PSoC5/ADC_DelSig_1.c ****     result = (int8)ADC_DelSig_1_DEC_SAMP_REG;
 1141              		.loc 1 699 0
 1142 0018 44F61063 		movw	r3, #19984
 1143 001c C4F20003 		movt	r3, 16384
 1144 0020 1B78     		ldrb	r3, [r3, #0]
 1145 0022 DBB2     		uxtb	r3, r3
 1146 0024 BB71     		strb	r3, [r7, #6]
 700:.\Generated_Source\PSoC5/ADC_DelSig_1.c **** 
 701:.\Generated_Source\PSoC5/ADC_DelSig_1.c ****     if(coherency == ADC_DelSig_1_DEC_SAMP_KEY_MID)
 1147              		.loc 1 701 0
 1148 0026 FB79     		ldrb	r3, [r7, #7]	@ zero_extendqisi2
 1149 0028 022B     		cmp	r3, #2
 1150 002a 05D1     		bne	.L30
 702:.\Generated_Source\PSoC5/ADC_DelSig_1.c ****     {   /* Dummy read of the middle byte to unlock the coherency */
 703:.\Generated_Source\PSoC5/ADC_DelSig_1.c ****         (void)ADC_DelSig_1_DEC_SAMPM_REG;
 1151              		.loc 1 703 0
 1152 002c 44F61163 		movw	r3, #19985
 1153 0030 C4F20003 		movt	r3, 16384
 1154 0034 1B78     		ldrb	r3, [r3, #0]
 1155 0036 07E0     		b	.L31
 1156              	.L30:
 704:.\Generated_Source\PSoC5/ADC_DelSig_1.c ****     }
 705:.\Generated_Source\PSoC5/ADC_DelSig_1.c ****     else  if(coherency == ADC_DelSig_1_DEC_SAMP_KEY_HIGH)
 1157              		.loc 1 705 0
 1158 0038 FB79     		ldrb	r3, [r7, #7]	@ zero_extendqisi2
 1159 003a 032B     		cmp	r3, #3
 1160 003c 04D1     		bne	.L31
 706:.\Generated_Source\PSoC5/ADC_DelSig_1.c ****     {   /* Dummy read of the MSB byte to unlock the coherency */
 707:.\Generated_Source\PSoC5/ADC_DelSig_1.c ****         (void)ADC_DelSig_1_DEC_SAMPH_REG;
 1161              		.loc 1 707 0
 1162 003e 44F61263 		movw	r3, #19986
 1163 0042 C4F20003 		movt	r3, 16384
 1164 0046 1B78     		ldrb	r3, [r3, #0]
 1165              	.L31:
 708:.\Generated_Source\PSoC5/ADC_DelSig_1.c ****     }
 709:.\Generated_Source\PSoC5/ADC_DelSig_1.c ****     else /*No action required for other coherency */
 710:.\Generated_Source\PSoC5/ADC_DelSig_1.c ****     {
 711:.\Generated_Source\PSoC5/ADC_DelSig_1.c ****     }
 712:.\Generated_Source\PSoC5/ADC_DelSig_1.c ****     /* Clear conversion complete status in Single Sample mode with resolution above 16 bit */
 713:.\Generated_Source\PSoC5/ADC_DelSig_1.c ****     if(ADC_DelSig_1_stopConversion != 0u)
 1166              		.loc 1 713 0
 1167 0048 40F20003 		movw	r3, #:lower16:ADC_DelSig_1_stopConversion
 1168 004c C0F20003 		movt	r3, #:upper16:ADC_DelSig_1_stopConversion
ARM GAS  C:\Users\Brian\AppData\Local\Temp\cclOhuzj.s 			page 34


 1169 0050 1B78     		ldrb	r3, [r3, #0]
 1170 0052 DBB2     		uxtb	r3, r3
 1171 0054 002B     		cmp	r3, #0
 1172 0056 06D0     		beq	.L32
 714:.\Generated_Source\PSoC5/ADC_DelSig_1.c ****     {
 715:.\Generated_Source\PSoC5/ADC_DelSig_1.c ****         ADC_DelSig_1_convDone = 0u;
 1173              		.loc 1 715 0
 1174 0058 40F20003 		movw	r3, #:lower16:ADC_DelSig_1_convDone
 1175 005c C0F20003 		movt	r3, #:upper16:ADC_DelSig_1_convDone
 1176 0060 4FF00002 		mov	r2, #0
 1177 0064 1A70     		strb	r2, [r3, #0]
 1178              	.L32:
 716:.\Generated_Source\PSoC5/ADC_DelSig_1.c ****     }
 717:.\Generated_Source\PSoC5/ADC_DelSig_1.c ****     return (result);
 1179              		.loc 1 717 0
 1180 0066 BB79     		ldrb	r3, [r7, #6]	@ zero_extendqisi2
 1181 0068 5BB2     		sxtb	r3, r3
 718:.\Generated_Source\PSoC5/ADC_DelSig_1.c **** }
 1182              		.loc 1 718 0
 1183 006a 1846     		mov	r0, r3
 1184 006c 07F10C07 		add	r7, r7, #12
 1185 0070 BD46     		mov	sp, r7
 1186 0072 80BC     		pop	{r7}
 1187 0074 7047     		bx	lr
 1188              		.cfi_endproc
 1189              	.LFE11:
 1190              		.size	ADC_DelSig_1_GetResult8, .-ADC_DelSig_1_GetResult8
 1191 0076 00BF     		.section	.text.ADC_DelSig_1_GetResult16,"ax",%progbits
 1192              		.align	2
 1193              		.global	ADC_DelSig_1_GetResult16
 1194              		.thumb
 1195              		.thumb_func
 1196              		.type	ADC_DelSig_1_GetResult16, %function
 1197              	ADC_DelSig_1_GetResult16:
 1198              	.LFB12:
 719:.\Generated_Source\PSoC5/ADC_DelSig_1.c **** 
 720:.\Generated_Source\PSoC5/ADC_DelSig_1.c **** 
 721:.\Generated_Source\PSoC5/ADC_DelSig_1.c **** /*******************************************************************************
 722:.\Generated_Source\PSoC5/ADC_DelSig_1.c **** * Function Name: ADC_DelSig_1_GetResult16
 723:.\Generated_Source\PSoC5/ADC_DelSig_1.c **** ********************************************************************************
 724:.\Generated_Source\PSoC5/ADC_DelSig_1.c **** *
 725:.\Generated_Source\PSoC5/ADC_DelSig_1.c **** * Summary:
 726:.\Generated_Source\PSoC5/ADC_DelSig_1.c **** *  Returns a 16-bit result for a conversion with a result that has a
 727:.\Generated_Source\PSoC5/ADC_DelSig_1.c **** *  resolution of 8 to 16 bits. If the resolution is set greater than 16-bits,
 728:.\Generated_Source\PSoC5/ADC_DelSig_1.c **** *  it will return the 16 least significant bits of the result. When the ADC
 729:.\Generated_Source\PSoC5/ADC_DelSig_1.c **** *  is configured for 16-bit single ended mode, the ADC_GetResult32()
 730:.\Generated_Source\PSoC5/ADC_DelSig_1.c **** *  function should be used instead. This function returns only signed
 731:.\Generated_Source\PSoC5/ADC_DelSig_1.c **** *  16-bit result, which allows a maximum positive value of 32767, not 65535.
 732:.\Generated_Source\PSoC5/ADC_DelSig_1.c **** *  This function supports different coherency settings.
 733:.\Generated_Source\PSoC5/ADC_DelSig_1.c **** *
 734:.\Generated_Source\PSoC5/ADC_DelSig_1.c **** * Parameters:
 735:.\Generated_Source\PSoC5/ADC_DelSig_1.c **** *   void
 736:.\Generated_Source\PSoC5/ADC_DelSig_1.c **** *
 737:.\Generated_Source\PSoC5/ADC_DelSig_1.c **** * Return:
 738:.\Generated_Source\PSoC5/ADC_DelSig_1.c **** *  int16:  ADC result.
 739:.\Generated_Source\PSoC5/ADC_DelSig_1.c **** *
 740:.\Generated_Source\PSoC5/ADC_DelSig_1.c **** * Global variables:
ARM GAS  C:\Users\Brian\AppData\Local\Temp\cclOhuzj.s 			page 35


 741:.\Generated_Source\PSoC5/ADC_DelSig_1.c **** *  ADC_DelSig_1_convDone:  Cleared in single sample mode with resolution
 742:.\Generated_Source\PSoC5/ADC_DelSig_1.c **** *                              above 16 bits
 743:.\Generated_Source\PSoC5/ADC_DelSig_1.c **** *
 744:.\Generated_Source\PSoC5/ADC_DelSig_1.c **** *******************************************************************************/
 745:.\Generated_Source\PSoC5/ADC_DelSig_1.c **** int16 ADC_DelSig_1_GetResult16(void) 
 746:.\Generated_Source\PSoC5/ADC_DelSig_1.c **** {
 1199              		.loc 1 746 0
 1200              		.cfi_startproc
 1201              		@ args = 0, pretend = 0, frame = 8
 1202              		@ frame_needed = 1, uses_anonymous_args = 0
 1203              		@ link register save eliminated.
 1204 0000 80B4     		push	{r7}
 1205              	.LCFI33:
 1206              		.cfi_def_cfa_offset 4
 1207              		.cfi_offset 7, -4
 1208 0002 83B0     		sub	sp, sp, #12
 1209              	.LCFI34:
 1210              		.cfi_def_cfa_offset 16
 1211 0004 00AF     		add	r7, sp, #0
 1212              	.LCFI35:
 1213              		.cfi_def_cfa_register 7
 747:.\Generated_Source\PSoC5/ADC_DelSig_1.c ****     uint16 result;
 748:.\Generated_Source\PSoC5/ADC_DelSig_1.c ****     uint8 coherency;
 749:.\Generated_Source\PSoC5/ADC_DelSig_1.c **** 
 750:.\Generated_Source\PSoC5/ADC_DelSig_1.c ****     /* Read active coherency configuration */
 751:.\Generated_Source\PSoC5/ADC_DelSig_1.c ****     coherency = ADC_DelSig_1_DEC_COHER_REG & ADC_DelSig_1_DEC_SAMP_KEY_MASK;
 1214              		.loc 1 751 0
 1215 0006 44F61463 		movw	r3, #19988
 1216 000a C4F20003 		movt	r3, 16384
 1217 000e 1B78     		ldrb	r3, [r3, #0]
 1218 0010 DBB2     		uxtb	r3, r3
 1219 0012 03F00303 		and	r3, r3, #3
 1220 0016 7B71     		strb	r3, [r7, #5]
 752:.\Generated_Source\PSoC5/ADC_DelSig_1.c **** 
 753:.\Generated_Source\PSoC5/ADC_DelSig_1.c ****     if(coherency <= ADC_DelSig_1_DEC_SAMP_KEY_LOW)
 1221              		.loc 1 753 0
 1222 0018 7B79     		ldrb	r3, [r7, #5]	@ zero_extendqisi2
 1223 001a 012B     		cmp	r3, #1
 1224 001c 06D8     		bhi	.L35
 754:.\Generated_Source\PSoC5/ADC_DelSig_1.c ****     {   /*  Use default method to read result registers i.e. LSB byte read at the end*/
 755:.\Generated_Source\PSoC5/ADC_DelSig_1.c ****         #if (CY_PSOC3)
 756:.\Generated_Source\PSoC5/ADC_DelSig_1.c ****             result = ADC_DelSig_1_DEC_SAMPM_REG;
 757:.\Generated_Source\PSoC5/ADC_DelSig_1.c ****             result = (result << 8u) | ADC_DelSig_1_DEC_SAMP_REG;
 758:.\Generated_Source\PSoC5/ADC_DelSig_1.c ****         #else
 759:.\Generated_Source\PSoC5/ADC_DelSig_1.c ****             result = (CY_GET_REG16(ADC_DelSig_1_DEC_SAMP_16B_PTR));
 1225              		.loc 1 759 0
 1226 001e 44F61063 		movw	r3, #19984
 1227 0022 C4F20003 		movt	r3, 16384
 1228 0026 1B88     		ldrh	r3, [r3, #0]	@ movhi
 1229 0028 FB80     		strh	r3, [r7, #6]	@ movhi
 1230 002a 1AE0     		b	.L36
 1231              	.L35:
 760:.\Generated_Source\PSoC5/ADC_DelSig_1.c ****         #endif /* CY_PSOC3 */
 761:.\Generated_Source\PSoC5/ADC_DelSig_1.c ****     }
 762:.\Generated_Source\PSoC5/ADC_DelSig_1.c ****     else /* MID or HIGH */
 763:.\Generated_Source\PSoC5/ADC_DelSig_1.c ****     {   /* Read middle byte at the end */
 764:.\Generated_Source\PSoC5/ADC_DelSig_1.c ****         #if (CY_PSOC3)
ARM GAS  C:\Users\Brian\AppData\Local\Temp\cclOhuzj.s 			page 36


 765:.\Generated_Source\PSoC5/ADC_DelSig_1.c ****             result = (CY_GET_REG16(ADC_DelSig_1_DEC_SAMP_16B_PTR));
 766:.\Generated_Source\PSoC5/ADC_DelSig_1.c ****         #else
 767:.\Generated_Source\PSoC5/ADC_DelSig_1.c ****             result = ADC_DelSig_1_DEC_SAMP_REG;
 1232              		.loc 1 767 0
 1233 002c 44F61063 		movw	r3, #19984
 1234 0030 C4F20003 		movt	r3, 16384
 1235 0034 1B78     		ldrb	r3, [r3, #0]
 1236 0036 DBB2     		uxtb	r3, r3
 1237 0038 FB80     		strh	r3, [r7, #6]	@ movhi
 768:.\Generated_Source\PSoC5/ADC_DelSig_1.c ****             result |=  (uint16)((uint16)ADC_DelSig_1_DEC_SAMPM_REG << 8u);
 1238              		.loc 1 768 0
 1239 003a 44F61163 		movw	r3, #19985
 1240 003e C4F20003 		movt	r3, 16384
 1241 0042 1B78     		ldrb	r3, [r3, #0]
 1242 0044 DBB2     		uxtb	r3, r3
 1243 0046 4FEA0323 		lsl	r3, r3, #8
 1244 004a 9AB2     		uxth	r2, r3
 1245 004c FB88     		ldrh	r3, [r7, #6]	@ movhi
 1246 004e 1343     		orrs	r3, r3, r2
 1247 0050 FB80     		strh	r3, [r7, #6]	@ movhi
 769:.\Generated_Source\PSoC5/ADC_DelSig_1.c ****         #endif /* CY_PSOC3 */
 770:.\Generated_Source\PSoC5/ADC_DelSig_1.c ****         if(coherency == ADC_DelSig_1_DEC_SAMP_KEY_HIGH)
 1248              		.loc 1 770 0
 1249 0052 7B79     		ldrb	r3, [r7, #5]	@ zero_extendqisi2
 1250 0054 032B     		cmp	r3, #3
 1251 0056 04D1     		bne	.L36
 771:.\Generated_Source\PSoC5/ADC_DelSig_1.c ****         {   /* Dummy read of the MSB byte to unlock the coherency */
 772:.\Generated_Source\PSoC5/ADC_DelSig_1.c ****             (void)ADC_DelSig_1_DEC_SAMPH_REG;
 1252              		.loc 1 772 0
 1253 0058 44F61263 		movw	r3, #19986
 1254 005c C4F20003 		movt	r3, 16384
 1255 0060 1B78     		ldrb	r3, [r3, #0]
 1256              	.L36:
 773:.\Generated_Source\PSoC5/ADC_DelSig_1.c ****         }
 774:.\Generated_Source\PSoC5/ADC_DelSig_1.c ****     }
 775:.\Generated_Source\PSoC5/ADC_DelSig_1.c ****     /* Clear conversion complete status in Single Sample mode with resolution above 16 bit */
 776:.\Generated_Source\PSoC5/ADC_DelSig_1.c ****     if(ADC_DelSig_1_stopConversion != 0u)
 1257              		.loc 1 776 0
 1258 0062 40F20003 		movw	r3, #:lower16:ADC_DelSig_1_stopConversion
 1259 0066 C0F20003 		movt	r3, #:upper16:ADC_DelSig_1_stopConversion
 1260 006a 1B78     		ldrb	r3, [r3, #0]
 1261 006c DBB2     		uxtb	r3, r3
 1262 006e 002B     		cmp	r3, #0
 1263 0070 06D0     		beq	.L37
 777:.\Generated_Source\PSoC5/ADC_DelSig_1.c ****     {
 778:.\Generated_Source\PSoC5/ADC_DelSig_1.c ****         ADC_DelSig_1_convDone = 0u;
 1264              		.loc 1 778 0
 1265 0072 40F20003 		movw	r3, #:lower16:ADC_DelSig_1_convDone
 1266 0076 C0F20003 		movt	r3, #:upper16:ADC_DelSig_1_convDone
 1267 007a 4FF00002 		mov	r2, #0
 1268 007e 1A70     		strb	r2, [r3, #0]
 1269              	.L37:
 779:.\Generated_Source\PSoC5/ADC_DelSig_1.c ****     }
 780:.\Generated_Source\PSoC5/ADC_DelSig_1.c **** 
 781:.\Generated_Source\PSoC5/ADC_DelSig_1.c ****     return ((int16)result);
 1270              		.loc 1 781 0
 1271 0080 FB88     		ldrh	r3, [r7, #6]
ARM GAS  C:\Users\Brian\AppData\Local\Temp\cclOhuzj.s 			page 37


 1272 0082 1BB2     		sxth	r3, r3
 782:.\Generated_Source\PSoC5/ADC_DelSig_1.c **** }
 1273              		.loc 1 782 0
 1274 0084 1846     		mov	r0, r3
 1275 0086 07F10C07 		add	r7, r7, #12
 1276 008a BD46     		mov	sp, r7
 1277 008c 80BC     		pop	{r7}
 1278 008e 7047     		bx	lr
 1279              		.cfi_endproc
 1280              	.LFE12:
 1281              		.size	ADC_DelSig_1_GetResult16, .-ADC_DelSig_1_GetResult16
 1282              		.section	.text.ADC_DelSig_1_GetResult32,"ax",%progbits
 1283              		.align	2
 1284              		.global	ADC_DelSig_1_GetResult32
 1285              		.thumb
 1286              		.thumb_func
 1287              		.type	ADC_DelSig_1_GetResult32, %function
 1288              	ADC_DelSig_1_GetResult32:
 1289              	.LFB13:
 783:.\Generated_Source\PSoC5/ADC_DelSig_1.c **** 
 784:.\Generated_Source\PSoC5/ADC_DelSig_1.c **** 
 785:.\Generated_Source\PSoC5/ADC_DelSig_1.c **** /*******************************************************************************
 786:.\Generated_Source\PSoC5/ADC_DelSig_1.c **** * Function Name: ADC_DelSig_1_GetResult32
 787:.\Generated_Source\PSoC5/ADC_DelSig_1.c **** ********************************************************************************
 788:.\Generated_Source\PSoC5/ADC_DelSig_1.c **** *
 789:.\Generated_Source\PSoC5/ADC_DelSig_1.c **** * Summary:
 790:.\Generated_Source\PSoC5/ADC_DelSig_1.c **** *  Returns a 32-bit result for a conversion with a result that has a
 791:.\Generated_Source\PSoC5/ADC_DelSig_1.c **** *  resolution of 8 to 20 bits.
 792:.\Generated_Source\PSoC5/ADC_DelSig_1.c **** *  This function supports different coherency settings.
 793:.\Generated_Source\PSoC5/ADC_DelSig_1.c **** *
 794:.\Generated_Source\PSoC5/ADC_DelSig_1.c **** * Parameters:
 795:.\Generated_Source\PSoC5/ADC_DelSig_1.c **** *  None
 796:.\Generated_Source\PSoC5/ADC_DelSig_1.c **** *
 797:.\Generated_Source\PSoC5/ADC_DelSig_1.c **** * Return:
 798:.\Generated_Source\PSoC5/ADC_DelSig_1.c **** *  int32: Result of the last ADC conversion.
 799:.\Generated_Source\PSoC5/ADC_DelSig_1.c **** *
 800:.\Generated_Source\PSoC5/ADC_DelSig_1.c **** * Global variables:
 801:.\Generated_Source\PSoC5/ADC_DelSig_1.c **** *  ADC_DelSig_1_convDone:  Cleared in single sample mode with resolution
 802:.\Generated_Source\PSoC5/ADC_DelSig_1.c **** *                              above 16 bits
 803:.\Generated_Source\PSoC5/ADC_DelSig_1.c **** *
 804:.\Generated_Source\PSoC5/ADC_DelSig_1.c **** *******************************************************************************/
 805:.\Generated_Source\PSoC5/ADC_DelSig_1.c **** int32 ADC_DelSig_1_GetResult32(void) 
 806:.\Generated_Source\PSoC5/ADC_DelSig_1.c **** {
 1290              		.loc 1 806 0
 1291              		.cfi_startproc
 1292              		@ args = 0, pretend = 0, frame = 8
 1293              		@ frame_needed = 1, uses_anonymous_args = 0
 1294              		@ link register save eliminated.
 1295 0000 80B4     		push	{r7}
 1296              	.LCFI36:
 1297              		.cfi_def_cfa_offset 4
 1298              		.cfi_offset 7, -4
 1299 0002 83B0     		sub	sp, sp, #12
 1300              	.LCFI37:
 1301              		.cfi_def_cfa_offset 16
 1302 0004 00AF     		add	r7, sp, #0
 1303              	.LCFI38:
ARM GAS  C:\Users\Brian\AppData\Local\Temp\cclOhuzj.s 			page 38


 1304              		.cfi_def_cfa_register 7
 807:.\Generated_Source\PSoC5/ADC_DelSig_1.c ****     uint32 result;
 808:.\Generated_Source\PSoC5/ADC_DelSig_1.c ****     uint8 coherency;
 809:.\Generated_Source\PSoC5/ADC_DelSig_1.c ****     #if (CY_PSOC3)
 810:.\Generated_Source\PSoC5/ADC_DelSig_1.c **** 	    uint16 tmp;
 811:.\Generated_Source\PSoC5/ADC_DelSig_1.c ****     #endif /* CY_PSOC3 */
 812:.\Generated_Source\PSoC5/ADC_DelSig_1.c **** 
 813:.\Generated_Source\PSoC5/ADC_DelSig_1.c ****     /* Read active coherency configuration */
 814:.\Generated_Source\PSoC5/ADC_DelSig_1.c ****     coherency = ADC_DelSig_1_DEC_COHER_REG & ADC_DelSig_1_DEC_SAMP_KEY_MASK;
 1305              		.loc 1 814 0
 1306 0006 44F61463 		movw	r3, #19988
 1307 000a C4F20003 		movt	r3, 16384
 1308 000e 1B78     		ldrb	r3, [r3, #0]
 1309 0010 DBB2     		uxtb	r3, r3
 1310 0012 03F00303 		and	r3, r3, #3
 1311 0016 FB70     		strb	r3, [r7, #3]
 815:.\Generated_Source\PSoC5/ADC_DelSig_1.c **** 
 816:.\Generated_Source\PSoC5/ADC_DelSig_1.c ****     if(coherency <= ADC_DelSig_1_DEC_SAMP_KEY_LOW)
 1312              		.loc 1 816 0
 1313 0018 FB78     		ldrb	r3, [r7, #3]	@ zero_extendqisi2
 1314 001a 012B     		cmp	r3, #1
 1315 001c 12D8     		bhi	.L40
 817:.\Generated_Source\PSoC5/ADC_DelSig_1.c ****     {   /*  Use default method to read result registers i.e. LSB byte read at the end*/
 818:.\Generated_Source\PSoC5/ADC_DelSig_1.c ****         #if (CY_PSOC3)
 819:.\Generated_Source\PSoC5/ADC_DelSig_1.c ****             result = ADC_DelSig_1_DEC_SAMPH_REG;
 820:.\Generated_Source\PSoC5/ADC_DelSig_1.c ****             if((result & 0x80u) != 0u)
 821:.\Generated_Source\PSoC5/ADC_DelSig_1.c ****             {   /* Sign extend */
 822:.\Generated_Source\PSoC5/ADC_DelSig_1.c ****                 result |= 0xFF00u;
 823:.\Generated_Source\PSoC5/ADC_DelSig_1.c ****             }
 824:.\Generated_Source\PSoC5/ADC_DelSig_1.c ****             result = (result << 8u) | ADC_DelSig_1_DEC_SAMPM_REG;
 825:.\Generated_Source\PSoC5/ADC_DelSig_1.c ****             result = (result << 8u) | ADC_DelSig_1_DEC_SAMP_REG;
 826:.\Generated_Source\PSoC5/ADC_DelSig_1.c ****         #else
 827:.\Generated_Source\PSoC5/ADC_DelSig_1.c ****             result = CY_GET_REG16(ADC_DelSig_1_DEC_SAMPH_16B_PTR);
 1316              		.loc 1 827 0
 1317 001e 44F61263 		movw	r3, #19986
 1318 0022 C4F20003 		movt	r3, 16384
 1319 0026 1B88     		ldrh	r3, [r3, #0]	@ movhi
 1320 0028 9BB2     		uxth	r3, r3
 1321 002a 7B60     		str	r3, [r7, #4]
 828:.\Generated_Source\PSoC5/ADC_DelSig_1.c ****             result = (result << 16u) | (CY_GET_REG16(ADC_DelSig_1_DEC_SAMP_16B_PTR));
 1322              		.loc 1 828 0
 1323 002c 7B68     		ldr	r3, [r7, #4]
 1324 002e 4FEA0342 		lsl	r2, r3, #16
 1325 0032 44F61063 		movw	r3, #19984
 1326 0036 C4F20003 		movt	r3, 16384
 1327 003a 1B88     		ldrh	r3, [r3, #0]	@ movhi
 1328 003c 9BB2     		uxth	r3, r3
 1329 003e 1343     		orrs	r3, r3, r2
 1330 0040 7B60     		str	r3, [r7, #4]
 1331 0042 32E0     		b	.L41
 1332              	.L40:
 829:.\Generated_Source\PSoC5/ADC_DelSig_1.c ****         #endif /* CY_PSOC3 */
 830:.\Generated_Source\PSoC5/ADC_DelSig_1.c ****     }
 831:.\Generated_Source\PSoC5/ADC_DelSig_1.c ****     else if(coherency == ADC_DelSig_1_DEC_SAMP_KEY_MID)
 1333              		.loc 1 831 0
 1334 0044 FB78     		ldrb	r3, [r7, #3]	@ zero_extendqisi2
 1335 0046 022B     		cmp	r3, #2
ARM GAS  C:\Users\Brian\AppData\Local\Temp\cclOhuzj.s 			page 39


 1336 0048 1DD1     		bne	.L42
 832:.\Generated_Source\PSoC5/ADC_DelSig_1.c ****     {   /* Read middle byte at the end */
 833:.\Generated_Source\PSoC5/ADC_DelSig_1.c ****         #if (CY_PSOC3)
 834:.\Generated_Source\PSoC5/ADC_DelSig_1.c ****             result = ADC_DelSig_1_DEC_SAMPH_REG;
 835:.\Generated_Source\PSoC5/ADC_DelSig_1.c ****             if((result & 0x80u) != 0u)
 836:.\Generated_Source\PSoC5/ADC_DelSig_1.c ****             {   /* Sign extend */
 837:.\Generated_Source\PSoC5/ADC_DelSig_1.c ****                 result |= 0xFF00u;
 838:.\Generated_Source\PSoC5/ADC_DelSig_1.c ****             }
 839:.\Generated_Source\PSoC5/ADC_DelSig_1.c ****             result = (result << 16u) | (CY_GET_REG16(ADC_DelSig_1_DEC_SAMP_16B_PTR));
 840:.\Generated_Source\PSoC5/ADC_DelSig_1.c ****         #else
 841:.\Generated_Source\PSoC5/ADC_DelSig_1.c ****             result = CY_GET_REG16(ADC_DelSig_1_DEC_SAMPH_16B_PTR);
 1337              		.loc 1 841 0
 1338 004a 44F61263 		movw	r3, #19986
 1339 004e C4F20003 		movt	r3, 16384
 1340 0052 1B88     		ldrh	r3, [r3, #0]	@ movhi
 1341 0054 9BB2     		uxth	r3, r3
 1342 0056 7B60     		str	r3, [r7, #4]
 842:.\Generated_Source\PSoC5/ADC_DelSig_1.c ****             result = (result << 16u) | ADC_DelSig_1_DEC_SAMP_REG;
 1343              		.loc 1 842 0
 1344 0058 7B68     		ldr	r3, [r7, #4]
 1345 005a 4FEA0342 		lsl	r2, r3, #16
 1346 005e 44F61063 		movw	r3, #19984
 1347 0062 C4F20003 		movt	r3, 16384
 1348 0066 1B78     		ldrb	r3, [r3, #0]
 1349 0068 DBB2     		uxtb	r3, r3
 1350 006a 1343     		orrs	r3, r3, r2
 1351 006c 7B60     		str	r3, [r7, #4]
 843:.\Generated_Source\PSoC5/ADC_DelSig_1.c ****             result |=  (uint32)((uint32)ADC_DelSig_1_DEC_SAMPM_REG << 8u);
 1352              		.loc 1 843 0
 1353 006e 44F61163 		movw	r3, #19985
 1354 0072 C4F20003 		movt	r3, 16384
 1355 0076 1B78     		ldrb	r3, [r3, #0]
 1356 0078 DBB2     		uxtb	r3, r3
 1357 007a 4FEA0323 		lsl	r3, r3, #8
 1358 007e 7A68     		ldr	r2, [r7, #4]
 1359 0080 1343     		orrs	r3, r3, r2
 1360 0082 7B60     		str	r3, [r7, #4]
 1361 0084 11E0     		b	.L41
 1362              	.L42:
 844:.\Generated_Source\PSoC5/ADC_DelSig_1.c ****         #endif /* CY_PSOC3 */
 845:.\Generated_Source\PSoC5/ADC_DelSig_1.c ****     }
 846:.\Generated_Source\PSoC5/ADC_DelSig_1.c ****     else /*ADC_DelSig_1_DEC_SAMP_KEY_HIGH */
 847:.\Generated_Source\PSoC5/ADC_DelSig_1.c ****     {
 848:.\Generated_Source\PSoC5/ADC_DelSig_1.c ****         /* Read MSB byte at the end */
 849:.\Generated_Source\PSoC5/ADC_DelSig_1.c ****         #if (CY_PSOC3)
 850:.\Generated_Source\PSoC5/ADC_DelSig_1.c ****             result = CY_GET_REG16(ADC_DelSig_1_DEC_SAMP_16B_PTR);
 851:.\Generated_Source\PSoC5/ADC_DelSig_1.c **** 			tmp = ADC_DelSig_1_DEC_SAMPH_REG;
 852:.\Generated_Source\PSoC5/ADC_DelSig_1.c ****             if((tmp & 0x80u) != 0u)
 853:.\Generated_Source\PSoC5/ADC_DelSig_1.c ****             {   /* Sign extend */
 854:.\Generated_Source\PSoC5/ADC_DelSig_1.c ****                 tmp |= 0xFF00u;
 855:.\Generated_Source\PSoC5/ADC_DelSig_1.c ****             }
 856:.\Generated_Source\PSoC5/ADC_DelSig_1.c ****             result |= (uint32)tmp << 16u;
 857:.\Generated_Source\PSoC5/ADC_DelSig_1.c ****         #else
 858:.\Generated_Source\PSoC5/ADC_DelSig_1.c ****             result = CY_GET_REG16(ADC_DelSig_1_DEC_SAMP_16B_PTR);
 1363              		.loc 1 858 0
 1364 0086 44F61063 		movw	r3, #19984
 1365 008a C4F20003 		movt	r3, 16384
ARM GAS  C:\Users\Brian\AppData\Local\Temp\cclOhuzj.s 			page 40


 1366 008e 1B88     		ldrh	r3, [r3, #0]	@ movhi
 1367 0090 9BB2     		uxth	r3, r3
 1368 0092 7B60     		str	r3, [r7, #4]
 859:.\Generated_Source\PSoC5/ADC_DelSig_1.c ****             result |= (uint32)((uint32)CY_GET_REG16(ADC_DelSig_1_DEC_SAMPH_16B_PTR) << 16u);
 1369              		.loc 1 859 0
 1370 0094 44F61263 		movw	r3, #19986
 1371 0098 C4F20003 		movt	r3, 16384
 1372 009c 1B88     		ldrh	r3, [r3, #0]	@ movhi
 1373 009e 9BB2     		uxth	r3, r3
 1374 00a0 4FEA0343 		lsl	r3, r3, #16
 1375 00a4 7A68     		ldr	r2, [r7, #4]
 1376 00a6 1343     		orrs	r3, r3, r2
 1377 00a8 7B60     		str	r3, [r7, #4]
 1378              	.L41:
 860:.\Generated_Source\PSoC5/ADC_DelSig_1.c ****         #endif /* CY_PSOC3 */
 861:.\Generated_Source\PSoC5/ADC_DelSig_1.c ****     }
 862:.\Generated_Source\PSoC5/ADC_DelSig_1.c ****     /* Clear conversion complete status in Single Sample mode with resolution above 16 bit */
 863:.\Generated_Source\PSoC5/ADC_DelSig_1.c ****     if(ADC_DelSig_1_stopConversion != 0u)
 1379              		.loc 1 863 0
 1380 00aa 40F20003 		movw	r3, #:lower16:ADC_DelSig_1_stopConversion
 1381 00ae C0F20003 		movt	r3, #:upper16:ADC_DelSig_1_stopConversion
 1382 00b2 1B78     		ldrb	r3, [r3, #0]
 1383 00b4 DBB2     		uxtb	r3, r3
 1384 00b6 002B     		cmp	r3, #0
 1385 00b8 06D0     		beq	.L43
 864:.\Generated_Source\PSoC5/ADC_DelSig_1.c ****     {
 865:.\Generated_Source\PSoC5/ADC_DelSig_1.c ****         ADC_DelSig_1_convDone = 0u;
 1386              		.loc 1 865 0
 1387 00ba 40F20003 		movw	r3, #:lower16:ADC_DelSig_1_convDone
 1388 00be C0F20003 		movt	r3, #:upper16:ADC_DelSig_1_convDone
 1389 00c2 4FF00002 		mov	r2, #0
 1390 00c6 1A70     		strb	r2, [r3, #0]
 1391              	.L43:
 866:.\Generated_Source\PSoC5/ADC_DelSig_1.c ****     }
 867:.\Generated_Source\PSoC5/ADC_DelSig_1.c **** 
 868:.\Generated_Source\PSoC5/ADC_DelSig_1.c ****     return ((int32)result);
 1392              		.loc 1 868 0
 1393 00c8 7B68     		ldr	r3, [r7, #4]
 869:.\Generated_Source\PSoC5/ADC_DelSig_1.c **** }
 1394              		.loc 1 869 0
 1395 00ca 1846     		mov	r0, r3
 1396 00cc 07F10C07 		add	r7, r7, #12
 1397 00d0 BD46     		mov	sp, r7
 1398 00d2 80BC     		pop	{r7}
 1399 00d4 7047     		bx	lr
 1400              		.cfi_endproc
 1401              	.LFE13:
 1402              		.size	ADC_DelSig_1_GetResult32, .-ADC_DelSig_1_GetResult32
 1403 00d6 00BF     		.section	.text.ADC_DelSig_1_SetOffset,"ax",%progbits
 1404              		.align	2
 1405              		.global	ADC_DelSig_1_SetOffset
 1406              		.thumb
 1407              		.thumb_func
 1408              		.type	ADC_DelSig_1_SetOffset, %function
 1409              	ADC_DelSig_1_SetOffset:
 1410              	.LFB14:
 870:.\Generated_Source\PSoC5/ADC_DelSig_1.c **** 
ARM GAS  C:\Users\Brian\AppData\Local\Temp\cclOhuzj.s 			page 41


 871:.\Generated_Source\PSoC5/ADC_DelSig_1.c **** 
 872:.\Generated_Source\PSoC5/ADC_DelSig_1.c **** /*******************************************************************************
 873:.\Generated_Source\PSoC5/ADC_DelSig_1.c **** * Function Name: ADC_DelSig_1_SetOffset
 874:.\Generated_Source\PSoC5/ADC_DelSig_1.c **** ********************************************************************************
 875:.\Generated_Source\PSoC5/ADC_DelSig_1.c **** *
 876:.\Generated_Source\PSoC5/ADC_DelSig_1.c **** * Summary:
 877:.\Generated_Source\PSoC5/ADC_DelSig_1.c **** *  Sets the ADC offset which is used by the functions ADC_CountsTo_uVolts, 
 878:.\Generated_Source\PSoC5/ADC_DelSig_1.c **** *  ADC_CountsTo_mVolts, and ADC_CountsTo_Volts to subtract the offset from the 
 879:.\Generated_Source\PSoC5/ADC_DelSig_1.c **** *  given reading before calculating the voltage conversion.
 880:.\Generated_Source\PSoC5/ADC_DelSig_1.c **** *
 881:.\Generated_Source\PSoC5/ADC_DelSig_1.c **** * Parameters:
 882:.\Generated_Source\PSoC5/ADC_DelSig_1.c **** *  int32:  This value is a measured value when the inputs are shorted or 
 883:.\Generated_Source\PSoC5/ADC_DelSig_1.c **** *          connected to the same input voltage.
 884:.\Generated_Source\PSoC5/ADC_DelSig_1.c **** *
 885:.\Generated_Source\PSoC5/ADC_DelSig_1.c **** * Return:
 886:.\Generated_Source\PSoC5/ADC_DelSig_1.c **** *  None
 887:.\Generated_Source\PSoC5/ADC_DelSig_1.c **** *
 888:.\Generated_Source\PSoC5/ADC_DelSig_1.c **** * Global variables:
 889:.\Generated_Source\PSoC5/ADC_DelSig_1.c **** *  ADC_DelSig_1_Offset:  Modified to set the user provided offset. This
 890:.\Generated_Source\PSoC5/ADC_DelSig_1.c **** *  variable is used for offset calibration purpose.
 891:.\Generated_Source\PSoC5/ADC_DelSig_1.c **** *
 892:.\Generated_Source\PSoC5/ADC_DelSig_1.c **** * Side Effects:
 893:.\Generated_Source\PSoC5/ADC_DelSig_1.c **** *  Affects the ADC_DelSig_1_CountsTo_Volts,
 894:.\Generated_Source\PSoC5/ADC_DelSig_1.c **** *  ADC_DelSig_1_CountsTo_mVolts, ADC_DelSig_1_CountsTo_uVolts functions
 895:.\Generated_Source\PSoC5/ADC_DelSig_1.c **** *  by subtracting the given offset.
 896:.\Generated_Source\PSoC5/ADC_DelSig_1.c **** *
 897:.\Generated_Source\PSoC5/ADC_DelSig_1.c **** *******************************************************************************/
 898:.\Generated_Source\PSoC5/ADC_DelSig_1.c **** void ADC_DelSig_1_SetOffset(int32 offset) 
 899:.\Generated_Source\PSoC5/ADC_DelSig_1.c **** {
 1411              		.loc 1 899 0
 1412              		.cfi_startproc
 1413              		@ args = 0, pretend = 0, frame = 8
 1414              		@ frame_needed = 1, uses_anonymous_args = 0
 1415              		@ link register save eliminated.
 1416 0000 80B4     		push	{r7}
 1417              	.LCFI39:
 1418              		.cfi_def_cfa_offset 4
 1419              		.cfi_offset 7, -4
 1420 0002 83B0     		sub	sp, sp, #12
 1421              	.LCFI40:
 1422              		.cfi_def_cfa_offset 16
 1423 0004 00AF     		add	r7, sp, #0
 1424              	.LCFI41:
 1425              		.cfi_def_cfa_register 7
 1426 0006 7860     		str	r0, [r7, #4]
 900:.\Generated_Source\PSoC5/ADC_DelSig_1.c **** 
 901:.\Generated_Source\PSoC5/ADC_DelSig_1.c ****     ADC_DelSig_1_Offset = offset;
 1427              		.loc 1 901 0
 1428 0008 40F20003 		movw	r3, #:lower16:ADC_DelSig_1_Offset
 1429 000c C0F20003 		movt	r3, #:upper16:ADC_DelSig_1_Offset
 1430 0010 7A68     		ldr	r2, [r7, #4]
 1431 0012 1A60     		str	r2, [r3, #0]
 902:.\Generated_Source\PSoC5/ADC_DelSig_1.c **** }
 1432              		.loc 1 902 0
 1433 0014 07F10C07 		add	r7, r7, #12
 1434 0018 BD46     		mov	sp, r7
 1435 001a 80BC     		pop	{r7}
ARM GAS  C:\Users\Brian\AppData\Local\Temp\cclOhuzj.s 			page 42


 1436 001c 7047     		bx	lr
 1437              		.cfi_endproc
 1438              	.LFE14:
 1439              		.size	ADC_DelSig_1_SetOffset, .-ADC_DelSig_1_SetOffset
 1440 001e 00BF     		.section	.text.ADC_DelSig_1_SetGain,"ax",%progbits
 1441              		.align	2
 1442              		.global	ADC_DelSig_1_SetGain
 1443              		.thumb
 1444              		.thumb_func
 1445              		.type	ADC_DelSig_1_SetGain, %function
 1446              	ADC_DelSig_1_SetGain:
 1447              	.LFB15:
 903:.\Generated_Source\PSoC5/ADC_DelSig_1.c **** 
 904:.\Generated_Source\PSoC5/ADC_DelSig_1.c **** 
 905:.\Generated_Source\PSoC5/ADC_DelSig_1.c **** /*******************************************************************************
 906:.\Generated_Source\PSoC5/ADC_DelSig_1.c **** * Function Name: ADC_DelSig_1_SetGain
 907:.\Generated_Source\PSoC5/ADC_DelSig_1.c **** ********************************************************************************
 908:.\Generated_Source\PSoC5/ADC_DelSig_1.c **** *
 909:.\Generated_Source\PSoC5/ADC_DelSig_1.c **** * Summary:
 910:.\Generated_Source\PSoC5/ADC_DelSig_1.c **** *  Sets the ADC gain in counts per volt for the voltage conversion
 911:.\Generated_Source\PSoC5/ADC_DelSig_1.c **** *  functions below. This value is set by default by the reference and
 912:.\Generated_Source\PSoC5/ADC_DelSig_1.c **** *  input range settings. It should only be used to further calibrate the
 913:.\Generated_Source\PSoC5/ADC_DelSig_1.c **** *  ADC with a known input or if an external reference is used. This
 914:.\Generated_Source\PSoC5/ADC_DelSig_1.c **** *  function may also be used to calibrate an entire signal chain, not
 915:.\Generated_Source\PSoC5/ADC_DelSig_1.c **** *  just the ADC.
 916:.\Generated_Source\PSoC5/ADC_DelSig_1.c **** *
 917:.\Generated_Source\PSoC5/ADC_DelSig_1.c **** * Parameters:
 918:.\Generated_Source\PSoC5/ADC_DelSig_1.c **** *  int32: ADC gain in counts per volt.
 919:.\Generated_Source\PSoC5/ADC_DelSig_1.c **** *
 920:.\Generated_Source\PSoC5/ADC_DelSig_1.c **** * Return:
 921:.\Generated_Source\PSoC5/ADC_DelSig_1.c **** *  None
 922:.\Generated_Source\PSoC5/ADC_DelSig_1.c **** *
 923:.\Generated_Source\PSoC5/ADC_DelSig_1.c **** * Global variables:
 924:.\Generated_Source\PSoC5/ADC_DelSig_1.c **** *  ADC_DelSig_1_CountsPerVolt:  modified to set the ADC gain in counts
 925:.\Generated_Source\PSoC5/ADC_DelSig_1.c **** *   per volt.
 926:.\Generated_Source\PSoC5/ADC_DelSig_1.c **** *
 927:.\Generated_Source\PSoC5/ADC_DelSig_1.c **** * Side Effects:
 928:.\Generated_Source\PSoC5/ADC_DelSig_1.c **** *  Affects the ADC_DelSig_1_CountsTo_Volts,
 929:.\Generated_Source\PSoC5/ADC_DelSig_1.c **** *  ADC_DelSig_1_CountsTo_mVolts, ADC_DelSig_1_CountsTo_uVolts functions
 930:.\Generated_Source\PSoC5/ADC_DelSig_1.c **** *  supplying the correct conversion between ADC counts and voltage.
 931:.\Generated_Source\PSoC5/ADC_DelSig_1.c **** *
 932:.\Generated_Source\PSoC5/ADC_DelSig_1.c **** *******************************************************************************/
 933:.\Generated_Source\PSoC5/ADC_DelSig_1.c **** void ADC_DelSig_1_SetGain(int32 adcGain) 
 934:.\Generated_Source\PSoC5/ADC_DelSig_1.c **** {
 1448              		.loc 1 934 0
 1449              		.cfi_startproc
 1450              		@ args = 0, pretend = 0, frame = 8
 1451              		@ frame_needed = 1, uses_anonymous_args = 0
 1452              		@ link register save eliminated.
 1453 0000 80B4     		push	{r7}
 1454              	.LCFI42:
 1455              		.cfi_def_cfa_offset 4
 1456              		.cfi_offset 7, -4
 1457 0002 83B0     		sub	sp, sp, #12
 1458              	.LCFI43:
 1459              		.cfi_def_cfa_offset 16
 1460 0004 00AF     		add	r7, sp, #0
ARM GAS  C:\Users\Brian\AppData\Local\Temp\cclOhuzj.s 			page 43


 1461              	.LCFI44:
 1462              		.cfi_def_cfa_register 7
 1463 0006 7860     		str	r0, [r7, #4]
 935:.\Generated_Source\PSoC5/ADC_DelSig_1.c ****     ADC_DelSig_1_CountsPerVolt = adcGain;
 1464              		.loc 1 935 0
 1465 0008 40F20003 		movw	r3, #:lower16:ADC_DelSig_1_CountsPerVolt
 1466 000c C0F20003 		movt	r3, #:upper16:ADC_DelSig_1_CountsPerVolt
 1467 0010 7A68     		ldr	r2, [r7, #4]
 1468 0012 1A60     		str	r2, [r3, #0]
 936:.\Generated_Source\PSoC5/ADC_DelSig_1.c **** }
 1469              		.loc 1 936 0
 1470 0014 07F10C07 		add	r7, r7, #12
 1471 0018 BD46     		mov	sp, r7
 1472 001a 80BC     		pop	{r7}
 1473 001c 7047     		bx	lr
 1474              		.cfi_endproc
 1475              	.LFE15:
 1476              		.size	ADC_DelSig_1_SetGain, .-ADC_DelSig_1_SetGain
 1477 001e 00BF     		.section	.text.ADC_DelSig_1_CountsTo_mVolts,"ax",%progbits
 1478              		.align	2
 1479              		.global	ADC_DelSig_1_CountsTo_mVolts
 1480              		.thumb
 1481              		.thumb_func
 1482              		.type	ADC_DelSig_1_CountsTo_mVolts, %function
 1483              	ADC_DelSig_1_CountsTo_mVolts:
 1484              	.LFB16:
 937:.\Generated_Source\PSoC5/ADC_DelSig_1.c **** 
 938:.\Generated_Source\PSoC5/ADC_DelSig_1.c **** 
 939:.\Generated_Source\PSoC5/ADC_DelSig_1.c **** /*******************************************************************************
 940:.\Generated_Source\PSoC5/ADC_DelSig_1.c **** * Function Name: ADC_DelSig_1_CountsTo_mVolts
 941:.\Generated_Source\PSoC5/ADC_DelSig_1.c **** ********************************************************************************
 942:.\Generated_Source\PSoC5/ADC_DelSig_1.c **** *
 943:.\Generated_Source\PSoC5/ADC_DelSig_1.c **** * Summary:
 944:.\Generated_Source\PSoC5/ADC_DelSig_1.c **** *  Converts the ADC counts output to mVolts as a 16-bit integer. For
 945:.\Generated_Source\PSoC5/ADC_DelSig_1.c **** *  example, if the ADC measured 0.534 volts, the return value would
 946:.\Generated_Source\PSoC5/ADC_DelSig_1.c **** *  be 534 mVolts.
 947:.\Generated_Source\PSoC5/ADC_DelSig_1.c **** *
 948:.\Generated_Source\PSoC5/ADC_DelSig_1.c **** * Parameters:
 949:.\Generated_Source\PSoC5/ADC_DelSig_1.c **** *  int32: adcCounts Result from the ADC conversion.
 950:.\Generated_Source\PSoC5/ADC_DelSig_1.c **** *
 951:.\Generated_Source\PSoC5/ADC_DelSig_1.c **** * Return:
 952:.\Generated_Source\PSoC5/ADC_DelSig_1.c **** *  int16:  Result in mVolts
 953:.\Generated_Source\PSoC5/ADC_DelSig_1.c **** *
 954:.\Generated_Source\PSoC5/ADC_DelSig_1.c **** * Global variables:
 955:.\Generated_Source\PSoC5/ADC_DelSig_1.c **** *  ADC_DelSig_1_CountsPerVolt:  used to convert ADC counts to mVolts.
 956:.\Generated_Source\PSoC5/ADC_DelSig_1.c **** *  ADC_DelSig_1_Offset:  Used as the offset while converting ADC counts
 957:.\Generated_Source\PSoC5/ADC_DelSig_1.c **** *   to mVolts.
 958:.\Generated_Source\PSoC5/ADC_DelSig_1.c **** *
 959:.\Generated_Source\PSoC5/ADC_DelSig_1.c **** *******************************************************************************/
 960:.\Generated_Source\PSoC5/ADC_DelSig_1.c **** int16 ADC_DelSig_1_CountsTo_mVolts(int32 adcCounts) 
 961:.\Generated_Source\PSoC5/ADC_DelSig_1.c **** {
 1485              		.loc 1 961 0
 1486              		.cfi_startproc
 1487              		@ args = 0, pretend = 0, frame = 16
 1488              		@ frame_needed = 1, uses_anonymous_args = 0
 1489              		@ link register save eliminated.
 1490 0000 80B4     		push	{r7}
ARM GAS  C:\Users\Brian\AppData\Local\Temp\cclOhuzj.s 			page 44


 1491              	.LCFI45:
 1492              		.cfi_def_cfa_offset 4
 1493              		.cfi_offset 7, -4
 1494 0002 85B0     		sub	sp, sp, #20
 1495              	.LCFI46:
 1496              		.cfi_def_cfa_offset 24
 1497 0004 00AF     		add	r7, sp, #0
 1498              	.LCFI47:
 1499              		.cfi_def_cfa_register 7
 1500 0006 7860     		str	r0, [r7, #4]
 962:.\Generated_Source\PSoC5/ADC_DelSig_1.c **** 
 963:.\Generated_Source\PSoC5/ADC_DelSig_1.c ****     int16 mVolts;
 964:.\Generated_Source\PSoC5/ADC_DelSig_1.c **** 
 965:.\Generated_Source\PSoC5/ADC_DelSig_1.c ****     /* Convert adcCounts to the right align if left option selected */
 966:.\Generated_Source\PSoC5/ADC_DelSig_1.c ****     #if(ADC_DelSig_1_CFG1_DEC_DIV != 0)
 967:.\Generated_Source\PSoC5/ADC_DelSig_1.c ****         if(ADC_DelSig_1_Config == ADC_DelSig_1_CFG1)
 968:.\Generated_Source\PSoC5/ADC_DelSig_1.c ****         {
 969:.\Generated_Source\PSoC5/ADC_DelSig_1.c ****             adcCounts /= ADC_DelSig_1_CFG1_DEC_DIV;
 970:.\Generated_Source\PSoC5/ADC_DelSig_1.c ****         }
 971:.\Generated_Source\PSoC5/ADC_DelSig_1.c ****     #endif /* ADC_DelSig_1_CFG1_DEC_DIV */
 972:.\Generated_Source\PSoC5/ADC_DelSig_1.c ****     #if((ADC_DelSig_1_CFG2_DEC_DIV != 0) && (ADC_DelSig_1_DEFAULT_NUM_CONFIGS > 1))
 973:.\Generated_Source\PSoC5/ADC_DelSig_1.c ****         if(ADC_DelSig_1_Config == ADC_DelSig_1_CFG2)
 974:.\Generated_Source\PSoC5/ADC_DelSig_1.c ****         {
 975:.\Generated_Source\PSoC5/ADC_DelSig_1.c ****             adcCounts /= ADC_DelSig_1_CFG2_DEC_DIV;
 976:.\Generated_Source\PSoC5/ADC_DelSig_1.c ****         }
 977:.\Generated_Source\PSoC5/ADC_DelSig_1.c ****     #endif /* ADC_DelSig_1_CFG2_DEC_DIV */
 978:.\Generated_Source\PSoC5/ADC_DelSig_1.c ****     #if((ADC_DelSig_1_CFG3_DEC_DIV != 0) && (ADC_DelSig_1_DEFAULT_NUM_CONFIGS > 2))
 979:.\Generated_Source\PSoC5/ADC_DelSig_1.c ****         if(ADC_DelSig_1_Config == ADC_DelSig_1_CFG3)
 980:.\Generated_Source\PSoC5/ADC_DelSig_1.c ****         {
 981:.\Generated_Source\PSoC5/ADC_DelSig_1.c ****             adcCounts /= ADC_DelSig_1_CFG3_DEC_DIV;
 982:.\Generated_Source\PSoC5/ADC_DelSig_1.c ****         }
 983:.\Generated_Source\PSoC5/ADC_DelSig_1.c ****     #endif /* ADC_DelSig_1_CFG2_DEC_DIV */
 984:.\Generated_Source\PSoC5/ADC_DelSig_1.c ****     #if((ADC_DelSig_1_CFG4_DEC_DIV != 0) && (ADC_DelSig_1_DEFAULT_NUM_CONFIGS > 3))
 985:.\Generated_Source\PSoC5/ADC_DelSig_1.c ****         if(ADC_DelSig_1_Config == ADC_DelSig_1_CFG4)
 986:.\Generated_Source\PSoC5/ADC_DelSig_1.c ****         {
 987:.\Generated_Source\PSoC5/ADC_DelSig_1.c ****             adcCounts /= ADC_DelSig_1_CFG4_DEC_DIV;
 988:.\Generated_Source\PSoC5/ADC_DelSig_1.c ****         }
 989:.\Generated_Source\PSoC5/ADC_DelSig_1.c ****     #endif /* ADC_DelSig_1_CFG2_DEC_DIV */
 990:.\Generated_Source\PSoC5/ADC_DelSig_1.c **** 
 991:.\Generated_Source\PSoC5/ADC_DelSig_1.c ****     /* Subtract ADC offset */
 992:.\Generated_Source\PSoC5/ADC_DelSig_1.c ****     adcCounts -= ADC_DelSig_1_Offset;
 1501              		.loc 1 992 0
 1502 0008 40F20003 		movw	r3, #:lower16:ADC_DelSig_1_Offset
 1503 000c C0F20003 		movt	r3, #:upper16:ADC_DelSig_1_Offset
 1504 0010 1B68     		ldr	r3, [r3, #0]
 1505 0012 7A68     		ldr	r2, [r7, #4]
 1506 0014 D31A     		subs	r3, r2, r3
 1507 0016 7B60     		str	r3, [r7, #4]
 993:.\Generated_Source\PSoC5/ADC_DelSig_1.c **** 
 994:.\Generated_Source\PSoC5/ADC_DelSig_1.c ****     mVolts = (int16)(( adcCounts * ADC_DelSig_1_1MV_COUNTS ) / ADC_DelSig_1_CountsPerVolt) ;
 1508              		.loc 1 994 0
 1509 0018 7B68     		ldr	r3, [r7, #4]
 1510 001a 4FF47A72 		mov	r2, #1000
 1511 001e 02FB03F2 		mul	r2, r2, r3
 1512 0022 40F20003 		movw	r3, #:lower16:ADC_DelSig_1_CountsPerVolt
 1513 0026 C0F20003 		movt	r3, #:upper16:ADC_DelSig_1_CountsPerVolt
 1514 002a 1B68     		ldr	r3, [r3, #0]
ARM GAS  C:\Users\Brian\AppData\Local\Temp\cclOhuzj.s 			page 45


 1515 002c 92FBF3F3 		sdiv	r3, r2, r3
 1516 0030 FB81     		strh	r3, [r7, #14]	@ movhi
 995:.\Generated_Source\PSoC5/ADC_DelSig_1.c **** 
 996:.\Generated_Source\PSoC5/ADC_DelSig_1.c ****     return(mVolts);
 1517              		.loc 1 996 0
 1518 0032 FB89     		ldrh	r3, [r7, #14]
 1519 0034 1BB2     		sxth	r3, r3
 997:.\Generated_Source\PSoC5/ADC_DelSig_1.c **** }
 1520              		.loc 1 997 0
 1521 0036 1846     		mov	r0, r3
 1522 0038 07F11407 		add	r7, r7, #20
 1523 003c BD46     		mov	sp, r7
 1524 003e 80BC     		pop	{r7}
 1525 0040 7047     		bx	lr
 1526              		.cfi_endproc
 1527              	.LFE16:
 1528              		.size	ADC_DelSig_1_CountsTo_mVolts, .-ADC_DelSig_1_CountsTo_mVolts
 1529              		.global	__aeabi_i2f
 1530 0042 00BF     		.section	.text.ADC_DelSig_1_CountsTo_Volts,"ax",%progbits
 1531              		.align	2
 1532              		.global	ADC_DelSig_1_CountsTo_Volts
 1533              		.thumb
 1534              		.thumb_func
 1535              		.type	ADC_DelSig_1_CountsTo_Volts, %function
 1536              	ADC_DelSig_1_CountsTo_Volts:
 1537              	.LFB17:
 998:.\Generated_Source\PSoC5/ADC_DelSig_1.c **** 
 999:.\Generated_Source\PSoC5/ADC_DelSig_1.c **** 
1000:.\Generated_Source\PSoC5/ADC_DelSig_1.c **** /*******************************************************************************
1001:.\Generated_Source\PSoC5/ADC_DelSig_1.c **** * Function Name: ADC_DelSig_1_CountsTo_Volts
1002:.\Generated_Source\PSoC5/ADC_DelSig_1.c **** ********************************************************************************
1003:.\Generated_Source\PSoC5/ADC_DelSig_1.c **** *
1004:.\Generated_Source\PSoC5/ADC_DelSig_1.c **** * Summary:
1005:.\Generated_Source\PSoC5/ADC_DelSig_1.c **** *  Converts the ADC output to Volts as a floating point number. For
1006:.\Generated_Source\PSoC5/ADC_DelSig_1.c **** *  example, if the ADC measure a voltage of 1.2345 Volts, the
1007:.\Generated_Source\PSoC5/ADC_DelSig_1.c **** *  returned result would be +1.2345 Volts.
1008:.\Generated_Source\PSoC5/ADC_DelSig_1.c **** *
1009:.\Generated_Source\PSoC5/ADC_DelSig_1.c **** * Parameters:
1010:.\Generated_Source\PSoC5/ADC_DelSig_1.c **** *  int32 adcCounts:  Result from the ADC conversion.
1011:.\Generated_Source\PSoC5/ADC_DelSig_1.c **** *
1012:.\Generated_Source\PSoC5/ADC_DelSig_1.c **** * Return:
1013:.\Generated_Source\PSoC5/ADC_DelSig_1.c **** *  float32: Result in Volts
1014:.\Generated_Source\PSoC5/ADC_DelSig_1.c **** *
1015:.\Generated_Source\PSoC5/ADC_DelSig_1.c **** * Global variables:
1016:.\Generated_Source\PSoC5/ADC_DelSig_1.c **** *  ADC_DelSig_1_CountsPerVolt:  used to convert to Volts.
1017:.\Generated_Source\PSoC5/ADC_DelSig_1.c **** *  ADC_DelSig_1_Offset:  Used as the offset while converting ADC counts
1018:.\Generated_Source\PSoC5/ADC_DelSig_1.c **** *   to Volts.
1019:.\Generated_Source\PSoC5/ADC_DelSig_1.c **** *
1020:.\Generated_Source\PSoC5/ADC_DelSig_1.c **** *******************************************************************************/
1021:.\Generated_Source\PSoC5/ADC_DelSig_1.c **** float32 ADC_DelSig_1_CountsTo_Volts(int32 adcCounts) 
1022:.\Generated_Source\PSoC5/ADC_DelSig_1.c **** {
 1538              		.loc 1 1022 0
 1539              		.cfi_startproc
 1540              		@ args = 0, pretend = 0, frame = 16
 1541              		@ frame_needed = 1, uses_anonymous_args = 0
 1542 0000 90B5     		push	{r4, r7, lr}
 1543              	.LCFI48:
ARM GAS  C:\Users\Brian\AppData\Local\Temp\cclOhuzj.s 			page 46


 1544              		.cfi_def_cfa_offset 12
 1545              		.cfi_offset 4, -12
 1546              		.cfi_offset 7, -8
 1547              		.cfi_offset 14, -4
 1548 0002 85B0     		sub	sp, sp, #20
 1549              	.LCFI49:
 1550              		.cfi_def_cfa_offset 32
 1551 0004 00AF     		add	r7, sp, #0
 1552              	.LCFI50:
 1553              		.cfi_def_cfa_register 7
 1554 0006 7860     		str	r0, [r7, #4]
1023:.\Generated_Source\PSoC5/ADC_DelSig_1.c **** 
1024:.\Generated_Source\PSoC5/ADC_DelSig_1.c ****     float32 Volts;
1025:.\Generated_Source\PSoC5/ADC_DelSig_1.c **** 
1026:.\Generated_Source\PSoC5/ADC_DelSig_1.c ****     /* Convert adcCounts to the right align if left option selected */
1027:.\Generated_Source\PSoC5/ADC_DelSig_1.c ****     #if(ADC_DelSig_1_CFG1_DEC_DIV != 0)
1028:.\Generated_Source\PSoC5/ADC_DelSig_1.c ****         if(ADC_DelSig_1_Config == ADC_DelSig_1_CFG1)
1029:.\Generated_Source\PSoC5/ADC_DelSig_1.c ****         {
1030:.\Generated_Source\PSoC5/ADC_DelSig_1.c ****             adcCounts /= ADC_DelSig_1_CFG1_DEC_DIV;
1031:.\Generated_Source\PSoC5/ADC_DelSig_1.c ****         }
1032:.\Generated_Source\PSoC5/ADC_DelSig_1.c ****     #endif /* ADC_DelSig_1_CFG1_DEC_DIV */
1033:.\Generated_Source\PSoC5/ADC_DelSig_1.c ****     #if((ADC_DelSig_1_CFG2_DEC_DIV != 0) && (ADC_DelSig_1_DEFAULT_NUM_CONFIGS > 1))
1034:.\Generated_Source\PSoC5/ADC_DelSig_1.c ****         if(ADC_DelSig_1_Config == ADC_DelSig_1_CFG2)
1035:.\Generated_Source\PSoC5/ADC_DelSig_1.c ****         {
1036:.\Generated_Source\PSoC5/ADC_DelSig_1.c ****             adcCounts /= ADC_DelSig_1_CFG2_DEC_DIV;
1037:.\Generated_Source\PSoC5/ADC_DelSig_1.c ****         }
1038:.\Generated_Source\PSoC5/ADC_DelSig_1.c ****     #endif /* ADC_DelSig_1_CFG2_DEC_DIV */
1039:.\Generated_Source\PSoC5/ADC_DelSig_1.c ****     #if((ADC_DelSig_1_CFG3_DEC_DIV != 0) && (ADC_DelSig_1_DEFAULT_NUM_CONFIGS > 2))
1040:.\Generated_Source\PSoC5/ADC_DelSig_1.c ****         if(ADC_DelSig_1_Config == ADC_DelSig_1_CFG3)
1041:.\Generated_Source\PSoC5/ADC_DelSig_1.c ****         {
1042:.\Generated_Source\PSoC5/ADC_DelSig_1.c ****             adcCounts /= ADC_DelSig_1_CFG3_DEC_DIV;
1043:.\Generated_Source\PSoC5/ADC_DelSig_1.c ****         }
1044:.\Generated_Source\PSoC5/ADC_DelSig_1.c ****     #endif /* ADC_DelSig_1_CFG2_DEC_DIV */
1045:.\Generated_Source\PSoC5/ADC_DelSig_1.c ****     #if((ADC_DelSig_1_CFG4_DEC_DIV != 0) && (ADC_DelSig_1_DEFAULT_NUM_CONFIGS > 3))
1046:.\Generated_Source\PSoC5/ADC_DelSig_1.c ****         if(ADC_DelSig_1_Config == ADC_DelSig_1_CFG4)
1047:.\Generated_Source\PSoC5/ADC_DelSig_1.c ****         {
1048:.\Generated_Source\PSoC5/ADC_DelSig_1.c ****             adcCounts /= ADC_DelSig_1_CFG4_DEC_DIV;
1049:.\Generated_Source\PSoC5/ADC_DelSig_1.c ****         }
1050:.\Generated_Source\PSoC5/ADC_DelSig_1.c ****     #endif /* ADC_DelSig_1_CFG2_DEC_DIV */
1051:.\Generated_Source\PSoC5/ADC_DelSig_1.c **** 
1052:.\Generated_Source\PSoC5/ADC_DelSig_1.c ****     /* Subtract ADC offset */
1053:.\Generated_Source\PSoC5/ADC_DelSig_1.c ****     adcCounts -= ADC_DelSig_1_Offset;
 1555              		.loc 1 1053 0
 1556 0008 40F20003 		movw	r3, #:lower16:ADC_DelSig_1_Offset
 1557 000c C0F20003 		movt	r3, #:upper16:ADC_DelSig_1_Offset
 1558 0010 1B68     		ldr	r3, [r3, #0]
 1559 0012 7A68     		ldr	r2, [r7, #4]
 1560 0014 D31A     		subs	r3, r2, r3
 1561 0016 7B60     		str	r3, [r7, #4]
1054:.\Generated_Source\PSoC5/ADC_DelSig_1.c **** 
1055:.\Generated_Source\PSoC5/ADC_DelSig_1.c ****     Volts = (float32)adcCounts / (float32)ADC_DelSig_1_CountsPerVolt;
 1562              		.loc 1 1055 0
 1563 0018 7868     		ldr	r0, [r7, #4]
 1564 001a FFF7FEFF 		bl	__aeabi_i2f
 1565 001e 0446     		mov	r4, r0
 1566 0020 40F20003 		movw	r3, #:lower16:ADC_DelSig_1_CountsPerVolt
 1567 0024 C0F20003 		movt	r3, #:upper16:ADC_DelSig_1_CountsPerVolt
ARM GAS  C:\Users\Brian\AppData\Local\Temp\cclOhuzj.s 			page 47


 1568 0028 1B68     		ldr	r3, [r3, #0]
 1569 002a 1846     		mov	r0, r3
 1570 002c FFF7FEFF 		bl	__aeabi_i2f
 1571 0030 0346     		mov	r3, r0
 1572 0032 2046     		mov	r0, r4
 1573 0034 1946     		mov	r1, r3
 1574 0036 FFF7FEFF 		bl	__aeabi_fdiv
 1575 003a 0346     		mov	r3, r0
 1576 003c FB60     		str	r3, [r7, #12]	@ float
1056:.\Generated_Source\PSoC5/ADC_DelSig_1.c **** 
1057:.\Generated_Source\PSoC5/ADC_DelSig_1.c ****     return( Volts );
 1577              		.loc 1 1057 0
 1578 003e FB68     		ldr	r3, [r7, #12]	@ float
1058:.\Generated_Source\PSoC5/ADC_DelSig_1.c **** }
 1579              		.loc 1 1058 0
 1580 0040 1846     		mov	r0, r3
 1581 0042 07F11407 		add	r7, r7, #20
 1582 0046 BD46     		mov	sp, r7
 1583 0048 90BD     		pop	{r4, r7, pc}
 1584              		.cfi_endproc
 1585              	.LFE17:
 1586              		.size	ADC_DelSig_1_CountsTo_Volts, .-ADC_DelSig_1_CountsTo_Volts
 1587 004a 00BF     		.section	.text.ADC_DelSig_1_CountsTo_uVolts,"ax",%progbits
 1588              		.align	2
 1589              		.global	ADC_DelSig_1_CountsTo_uVolts
 1590              		.thumb
 1591              		.thumb_func
 1592              		.type	ADC_DelSig_1_CountsTo_uVolts, %function
 1593              	ADC_DelSig_1_CountsTo_uVolts:
 1594              	.LFB18:
1059:.\Generated_Source\PSoC5/ADC_DelSig_1.c **** 
1060:.\Generated_Source\PSoC5/ADC_DelSig_1.c **** 
1061:.\Generated_Source\PSoC5/ADC_DelSig_1.c **** /*******************************************************************************
1062:.\Generated_Source\PSoC5/ADC_DelSig_1.c **** * Function Name: ADC_DelSig_1_CountsTo_uVolts
1063:.\Generated_Source\PSoC5/ADC_DelSig_1.c **** ********************************************************************************
1064:.\Generated_Source\PSoC5/ADC_DelSig_1.c **** *
1065:.\Generated_Source\PSoC5/ADC_DelSig_1.c **** * Summary:
1066:.\Generated_Source\PSoC5/ADC_DelSig_1.c **** *  Converts the ADC output to uVolts as a 32-bit integer. For example,
1067:.\Generated_Source\PSoC5/ADC_DelSig_1.c **** *  if the ADC measured -0.02345 Volts, the return value would be -23450 uVolts.
1068:.\Generated_Source\PSoC5/ADC_DelSig_1.c **** *
1069:.\Generated_Source\PSoC5/ADC_DelSig_1.c **** * Parameters:
1070:.\Generated_Source\PSoC5/ADC_DelSig_1.c **** *  int32 adcCounts: Result from the ADC conversion.
1071:.\Generated_Source\PSoC5/ADC_DelSig_1.c **** *
1072:.\Generated_Source\PSoC5/ADC_DelSig_1.c **** * Return:
1073:.\Generated_Source\PSoC5/ADC_DelSig_1.c **** *  int32:  Result in uVolts
1074:.\Generated_Source\PSoC5/ADC_DelSig_1.c **** *
1075:.\Generated_Source\PSoC5/ADC_DelSig_1.c **** * Global variables:
1076:.\Generated_Source\PSoC5/ADC_DelSig_1.c **** *  ADC_DelSig_1_CountsPerVolt:  used to convert ADC counts to mVolts.
1077:.\Generated_Source\PSoC5/ADC_DelSig_1.c **** *  ADC_DelSig_1_Offset:  Used as the offset while converting ADC counts
1078:.\Generated_Source\PSoC5/ADC_DelSig_1.c **** *   to mVolts.
1079:.\Generated_Source\PSoC5/ADC_DelSig_1.c **** *
1080:.\Generated_Source\PSoC5/ADC_DelSig_1.c **** * Theory:
1081:.\Generated_Source\PSoC5/ADC_DelSig_1.c **** *  Care must be taken to not exceed the maximum value for a 31 bit signed
1082:.\Generated_Source\PSoC5/ADC_DelSig_1.c **** *  number in the conversion to uVolts and at the same time not lose resolution.
1083:.\Generated_Source\PSoC5/ADC_DelSig_1.c **** *
1084:.\Generated_Source\PSoC5/ADC_DelSig_1.c **** *  uVolts = ((A * adcCounts) / ((int32)ADC_DelSig_1_CountsPerVolt / B));
1085:.\Generated_Source\PSoC5/ADC_DelSig_1.c **** *
ARM GAS  C:\Users\Brian\AppData\Local\Temp\cclOhuzj.s 			page 48


1086:.\Generated_Source\PSoC5/ADC_DelSig_1.c **** *******************************************************************************/
1087:.\Generated_Source\PSoC5/ADC_DelSig_1.c **** int32 ADC_DelSig_1_CountsTo_uVolts(int32 adcCounts) 
1088:.\Generated_Source\PSoC5/ADC_DelSig_1.c **** {
 1595              		.loc 1 1088 0
 1596              		.cfi_startproc
 1597              		@ args = 0, pretend = 0, frame = 24
 1598              		@ frame_needed = 1, uses_anonymous_args = 0
 1599              		@ link register save eliminated.
 1600 0000 80B4     		push	{r7}
 1601              	.LCFI51:
 1602              		.cfi_def_cfa_offset 4
 1603              		.cfi_offset 7, -4
 1604 0002 87B0     		sub	sp, sp, #28
 1605              	.LCFI52:
 1606              		.cfi_def_cfa_offset 32
 1607 0004 00AF     		add	r7, sp, #0
 1608              	.LCFI53:
 1609              		.cfi_def_cfa_register 7
 1610 0006 7860     		str	r0, [r7, #4]
1089:.\Generated_Source\PSoC5/ADC_DelSig_1.c **** 
1090:.\Generated_Source\PSoC5/ADC_DelSig_1.c ****     int32 uVolts;
1091:.\Generated_Source\PSoC5/ADC_DelSig_1.c ****     int32 coefA;
1092:.\Generated_Source\PSoC5/ADC_DelSig_1.c ****     int32 coefB;
1093:.\Generated_Source\PSoC5/ADC_DelSig_1.c ****     uint8 resolution;
1094:.\Generated_Source\PSoC5/ADC_DelSig_1.c **** 
1095:.\Generated_Source\PSoC5/ADC_DelSig_1.c ****     /* Set the resolution based on the configuration */
1096:.\Generated_Source\PSoC5/ADC_DelSig_1.c ****     /* Convert adcCounts to the right align if left option selected */
1097:.\Generated_Source\PSoC5/ADC_DelSig_1.c ****     if (ADC_DelSig_1_Config == ADC_DelSig_1_CFG1)
 1611              		.loc 1 1097 0
 1612 0008 40F20003 		movw	r3, #:lower16:ADC_DelSig_1_Config
 1613 000c C0F20003 		movt	r3, #:upper16:ADC_DelSig_1_Config
 1614 0010 1B78     		ldrb	r3, [r3, #0]
 1615 0012 DBB2     		uxtb	r3, r3
 1616 0014 012B     		cmp	r3, #1
 1617 0016 03D1     		bne	.L52
1098:.\Generated_Source\PSoC5/ADC_DelSig_1.c ****     {
1099:.\Generated_Source\PSoC5/ADC_DelSig_1.c ****         resolution = ADC_DelSig_1_CFG1_RESOLUTION;
 1618              		.loc 1 1099 0
 1619 0018 4FF01003 		mov	r3, #16
 1620 001c FB73     		strb	r3, [r7, #15]
 1621 001e 1AE0     		b	.L53
 1622              	.L52:
1100:.\Generated_Source\PSoC5/ADC_DelSig_1.c ****         #if(ADC_DelSig_1_CFG1_DEC_DIV != 0)
1101:.\Generated_Source\PSoC5/ADC_DelSig_1.c ****             adcCounts /= ADC_DelSig_1_CFG1_DEC_DIV;
1102:.\Generated_Source\PSoC5/ADC_DelSig_1.c ****         #endif /* ADC_DelSig_1_CFG1_DEC_DIV */
1103:.\Generated_Source\PSoC5/ADC_DelSig_1.c ****     }
1104:.\Generated_Source\PSoC5/ADC_DelSig_1.c ****     else if (ADC_DelSig_1_Config == ADC_DelSig_1_CFG2)
 1623              		.loc 1 1104 0
 1624 0020 40F20003 		movw	r3, #:lower16:ADC_DelSig_1_Config
 1625 0024 C0F20003 		movt	r3, #:upper16:ADC_DelSig_1_Config
 1626 0028 1B78     		ldrb	r3, [r3, #0]
 1627 002a DBB2     		uxtb	r3, r3
 1628 002c 022B     		cmp	r3, #2
 1629 002e 03D1     		bne	.L54
1105:.\Generated_Source\PSoC5/ADC_DelSig_1.c ****     {
1106:.\Generated_Source\PSoC5/ADC_DelSig_1.c ****         resolution = ADC_DelSig_1_CFG2_RESOLUTION;
 1630              		.loc 1 1106 0
ARM GAS  C:\Users\Brian\AppData\Local\Temp\cclOhuzj.s 			page 49


 1631 0030 4FF01003 		mov	r3, #16
 1632 0034 FB73     		strb	r3, [r7, #15]
 1633 0036 0EE0     		b	.L53
 1634              	.L54:
1107:.\Generated_Source\PSoC5/ADC_DelSig_1.c ****         #if(ADC_DelSig_1_CFG2_DEC_DIV != 0)
1108:.\Generated_Source\PSoC5/ADC_DelSig_1.c ****             adcCounts /= ADC_DelSig_1_CFG2_DEC_DIV;
1109:.\Generated_Source\PSoC5/ADC_DelSig_1.c ****         #endif /* ADC_DelSig_1_CFG2_DEC_DIV */
1110:.\Generated_Source\PSoC5/ADC_DelSig_1.c ****     }
1111:.\Generated_Source\PSoC5/ADC_DelSig_1.c ****     else if (ADC_DelSig_1_Config == ADC_DelSig_1_CFG3)
 1635              		.loc 1 1111 0
 1636 0038 40F20003 		movw	r3, #:lower16:ADC_DelSig_1_Config
 1637 003c C0F20003 		movt	r3, #:upper16:ADC_DelSig_1_Config
 1638 0040 1B78     		ldrb	r3, [r3, #0]
 1639 0042 DBB2     		uxtb	r3, r3
 1640 0044 032B     		cmp	r3, #3
 1641 0046 03D1     		bne	.L55
1112:.\Generated_Source\PSoC5/ADC_DelSig_1.c ****     {
1113:.\Generated_Source\PSoC5/ADC_DelSig_1.c ****         resolution = ADC_DelSig_1_CFG3_RESOLUTION;
 1642              		.loc 1 1113 0
 1643 0048 4FF01003 		mov	r3, #16
 1644 004c FB73     		strb	r3, [r7, #15]
 1645 004e 02E0     		b	.L53
 1646              	.L55:
1114:.\Generated_Source\PSoC5/ADC_DelSig_1.c ****         #if(ADC_DelSig_1_CFG3_DEC_DIV != 0)
1115:.\Generated_Source\PSoC5/ADC_DelSig_1.c ****             adcCounts /= ADC_DelSig_1_CFG3_DEC_DIV;
1116:.\Generated_Source\PSoC5/ADC_DelSig_1.c ****         #endif /* ADC_DelSig_1_CFG3_DEC_DIV */
1117:.\Generated_Source\PSoC5/ADC_DelSig_1.c ****     }
1118:.\Generated_Source\PSoC5/ADC_DelSig_1.c ****     else
1119:.\Generated_Source\PSoC5/ADC_DelSig_1.c ****     {
1120:.\Generated_Source\PSoC5/ADC_DelSig_1.c ****         resolution = ADC_DelSig_1_CFG4_RESOLUTION;
 1647              		.loc 1 1120 0
 1648 0050 4FF01003 		mov	r3, #16
 1649 0054 FB73     		strb	r3, [r7, #15]
 1650              	.L53:
1121:.\Generated_Source\PSoC5/ADC_DelSig_1.c ****         #if(ADC_DelSig_1_CFG4_DEC_DIV != 0)
1122:.\Generated_Source\PSoC5/ADC_DelSig_1.c ****             adcCounts /= ADC_DelSig_1_CFG4_DEC_DIV;
1123:.\Generated_Source\PSoC5/ADC_DelSig_1.c ****         #endif /* ADC_DelSig_1_CFG4_DEC_DIV */
1124:.\Generated_Source\PSoC5/ADC_DelSig_1.c ****     }
1125:.\Generated_Source\PSoC5/ADC_DelSig_1.c **** 
1126:.\Generated_Source\PSoC5/ADC_DelSig_1.c ****     switch (resolution)
 1651              		.loc 1 1126 0
 1652 0056 FB7B     		ldrb	r3, [r7, #15]	@ zero_extendqisi2
 1653 0058 102B     		cmp	r3, #16
 1654 005a 06D1     		bne	.L60
 1655              	.L57:
1127:.\Generated_Source\PSoC5/ADC_DelSig_1.c ****     {
1128:.\Generated_Source\PSoC5/ADC_DelSig_1.c ****         #if( (ADC_DelSig_1_CFG1_RESOLUTION == ADC_DelSig_1__BITS_12) || \
1129:.\Generated_Source\PSoC5/ADC_DelSig_1.c ****              (ADC_DelSig_1_CFG2_RESOLUTION == ADC_DelSig_1__BITS_12) || \
1130:.\Generated_Source\PSoC5/ADC_DelSig_1.c ****              (ADC_DelSig_1_CFG3_RESOLUTION == ADC_DelSig_1__BITS_12) || \
1131:.\Generated_Source\PSoC5/ADC_DelSig_1.c ****              (ADC_DelSig_1_CFG4_RESOLUTION == ADC_DelSig_1__BITS_12) )
1132:.\Generated_Source\PSoC5/ADC_DelSig_1.c ****             case (uint8)ADC_DelSig_1__BITS_12:
1133:.\Generated_Source\PSoC5/ADC_DelSig_1.c ****                 coefA = ADC_DelSig_1_1UV_COUNTS / ADC_DelSig_1_DIVISOR_2;
1134:.\Generated_Source\PSoC5/ADC_DelSig_1.c ****                 coefB = ADC_DelSig_1_DIVISOR_2;
1135:.\Generated_Source\PSoC5/ADC_DelSig_1.c ****                 break;
1136:.\Generated_Source\PSoC5/ADC_DelSig_1.c ****         #endif /* ADC_DelSig_1__BITS_12 */    
1137:.\Generated_Source\PSoC5/ADC_DelSig_1.c ****         #if( (ADC_DelSig_1_CFG1_RESOLUTION == ADC_DelSig_1__BITS_13) || \
1138:.\Generated_Source\PSoC5/ADC_DelSig_1.c ****              (ADC_DelSig_1_CFG2_RESOLUTION == ADC_DelSig_1__BITS_13) || \
ARM GAS  C:\Users\Brian\AppData\Local\Temp\cclOhuzj.s 			page 50


1139:.\Generated_Source\PSoC5/ADC_DelSig_1.c ****              (ADC_DelSig_1_CFG3_RESOLUTION == ADC_DelSig_1__BITS_13) || \
1140:.\Generated_Source\PSoC5/ADC_DelSig_1.c ****              (ADC_DelSig_1_CFG4_RESOLUTION == ADC_DelSig_1__BITS_13) )
1141:.\Generated_Source\PSoC5/ADC_DelSig_1.c ****             case (uint8)ADC_DelSig_1__BITS_13:
1142:.\Generated_Source\PSoC5/ADC_DelSig_1.c ****                 coefA = ADC_DelSig_1_1UV_COUNTS / ADC_DelSig_1_DIVISOR_4;
1143:.\Generated_Source\PSoC5/ADC_DelSig_1.c ****                 coefB = ADC_DelSig_1_DIVISOR_4;
1144:.\Generated_Source\PSoC5/ADC_DelSig_1.c ****                 break;
1145:.\Generated_Source\PSoC5/ADC_DelSig_1.c ****         #endif /* ADC_DelSig_1__BITS_13 */    
1146:.\Generated_Source\PSoC5/ADC_DelSig_1.c ****         #if( (ADC_DelSig_1_CFG1_RESOLUTION == ADC_DelSig_1__BITS_14) || \
1147:.\Generated_Source\PSoC5/ADC_DelSig_1.c ****              (ADC_DelSig_1_CFG2_RESOLUTION == ADC_DelSig_1__BITS_14) || \
1148:.\Generated_Source\PSoC5/ADC_DelSig_1.c ****              (ADC_DelSig_1_CFG3_RESOLUTION == ADC_DelSig_1__BITS_14) || \
1149:.\Generated_Source\PSoC5/ADC_DelSig_1.c ****              (ADC_DelSig_1_CFG4_RESOLUTION == ADC_DelSig_1__BITS_14) )
1150:.\Generated_Source\PSoC5/ADC_DelSig_1.c ****             case (uint8)ADC_DelSig_1__BITS_14:
1151:.\Generated_Source\PSoC5/ADC_DelSig_1.c ****                 coefA = ADC_DelSig_1_1UV_COUNTS / ADC_DelSig_1_DIVISOR_8;
1152:.\Generated_Source\PSoC5/ADC_DelSig_1.c ****                 coefB = ADC_DelSig_1_DIVISOR_8;
1153:.\Generated_Source\PSoC5/ADC_DelSig_1.c ****                 break;
1154:.\Generated_Source\PSoC5/ADC_DelSig_1.c ****         #endif /* ADC_DelSig_1__BITS_14 */    
1155:.\Generated_Source\PSoC5/ADC_DelSig_1.c ****         #if( (ADC_DelSig_1_CFG1_RESOLUTION == ADC_DelSig_1__BITS_15) || \
1156:.\Generated_Source\PSoC5/ADC_DelSig_1.c ****              (ADC_DelSig_1_CFG2_RESOLUTION == ADC_DelSig_1__BITS_15) || \
1157:.\Generated_Source\PSoC5/ADC_DelSig_1.c ****              (ADC_DelSig_1_CFG3_RESOLUTION == ADC_DelSig_1__BITS_15) || \
1158:.\Generated_Source\PSoC5/ADC_DelSig_1.c ****              (ADC_DelSig_1_CFG4_RESOLUTION == ADC_DelSig_1__BITS_15) )
1159:.\Generated_Source\PSoC5/ADC_DelSig_1.c ****             case (uint8)ADC_DelSig_1__BITS_15:
1160:.\Generated_Source\PSoC5/ADC_DelSig_1.c ****                 coefA = ADC_DelSig_1_1UV_COUNTS / ADC_DelSig_1_DIVISOR_16;
1161:.\Generated_Source\PSoC5/ADC_DelSig_1.c ****                 coefB = ADC_DelSig_1_DIVISOR_16;
1162:.\Generated_Source\PSoC5/ADC_DelSig_1.c ****                 break;
1163:.\Generated_Source\PSoC5/ADC_DelSig_1.c ****         #endif /* ADC_DelSig_1__BITS_15 */    
1164:.\Generated_Source\PSoC5/ADC_DelSig_1.c ****         #if( (ADC_DelSig_1_CFG1_RESOLUTION == ADC_DelSig_1__BITS_16) || \
1165:.\Generated_Source\PSoC5/ADC_DelSig_1.c ****              (ADC_DelSig_1_CFG2_RESOLUTION == ADC_DelSig_1__BITS_16) || \
1166:.\Generated_Source\PSoC5/ADC_DelSig_1.c ****              (ADC_DelSig_1_CFG3_RESOLUTION == ADC_DelSig_1__BITS_16) || \
1167:.\Generated_Source\PSoC5/ADC_DelSig_1.c ****              (ADC_DelSig_1_CFG4_RESOLUTION == ADC_DelSig_1__BITS_16) )
1168:.\Generated_Source\PSoC5/ADC_DelSig_1.c ****             case (uint8)ADC_DelSig_1__BITS_16:
1169:.\Generated_Source\PSoC5/ADC_DelSig_1.c ****                 coefA = ADC_DelSig_1_1UV_COUNTS / ADC_DelSig_1_DIVISOR_32;
 1656              		.loc 1 1169 0
 1657 005c 47F61223 		movw	r3, #31250
 1658 0060 7B61     		str	r3, [r7, #20]
1170:.\Generated_Source\PSoC5/ADC_DelSig_1.c ****                 coefB = ADC_DelSig_1_DIVISOR_32;
 1659              		.loc 1 1170 0
 1660 0062 4FF02003 		mov	r3, #32
 1661 0066 3B61     		str	r3, [r7, #16]
1171:.\Generated_Source\PSoC5/ADC_DelSig_1.c ****                 break;
 1662              		.loc 1 1171 0
 1663 0068 08E0     		b	.L58
 1664              	.L60:
1172:.\Generated_Source\PSoC5/ADC_DelSig_1.c ****         #endif /* ADC_DelSig_1__BITS_16 */    
1173:.\Generated_Source\PSoC5/ADC_DelSig_1.c ****         #if( (ADC_DelSig_1_CFG1_RESOLUTION == ADC_DelSig_1__BITS_17) || \
1174:.\Generated_Source\PSoC5/ADC_DelSig_1.c ****              (ADC_DelSig_1_CFG2_RESOLUTION == ADC_DelSig_1__BITS_17) || \
1175:.\Generated_Source\PSoC5/ADC_DelSig_1.c ****              (ADC_DelSig_1_CFG3_RESOLUTION == ADC_DelSig_1__BITS_17) || \
1176:.\Generated_Source\PSoC5/ADC_DelSig_1.c ****              (ADC_DelSig_1_CFG4_RESOLUTION == ADC_DelSig_1__BITS_17) )
1177:.\Generated_Source\PSoC5/ADC_DelSig_1.c ****             case (uint8)ADC_DelSig_1__BITS_17:
1178:.\Generated_Source\PSoC5/ADC_DelSig_1.c ****                 coefA = ADC_DelSig_1_1UV_COUNTS / ADC_DelSig_1_DIVISOR_64;
1179:.\Generated_Source\PSoC5/ADC_DelSig_1.c ****                 coefB = ADC_DelSig_1_DIVISOR_64;
1180:.\Generated_Source\PSoC5/ADC_DelSig_1.c ****                 break;
1181:.\Generated_Source\PSoC5/ADC_DelSig_1.c ****         #endif /* ADC_DelSig_1__BITS_17 */    
1182:.\Generated_Source\PSoC5/ADC_DelSig_1.c ****         #if( (ADC_DelSig_1_CFG1_RESOLUTION == ADC_DelSig_1__BITS_18) || \
1183:.\Generated_Source\PSoC5/ADC_DelSig_1.c ****              (ADC_DelSig_1_CFG2_RESOLUTION == ADC_DelSig_1__BITS_18) || \
1184:.\Generated_Source\PSoC5/ADC_DelSig_1.c ****              (ADC_DelSig_1_CFG3_RESOLUTION == ADC_DelSig_1__BITS_18) || \
1185:.\Generated_Source\PSoC5/ADC_DelSig_1.c ****              (ADC_DelSig_1_CFG4_RESOLUTION == ADC_DelSig_1__BITS_18) )
1186:.\Generated_Source\PSoC5/ADC_DelSig_1.c ****             case (uint8)ADC_DelSig_1__BITS_18:
ARM GAS  C:\Users\Brian\AppData\Local\Temp\cclOhuzj.s 			page 51


1187:.\Generated_Source\PSoC5/ADC_DelSig_1.c ****                 coefA = ADC_DelSig_1_1UV_COUNTS / ADC_DelSig_1_DIVISOR_125;
1188:.\Generated_Source\PSoC5/ADC_DelSig_1.c ****                 coefB = ADC_DelSig_1_DIVISOR_125;
1189:.\Generated_Source\PSoC5/ADC_DelSig_1.c ****                 break;
1190:.\Generated_Source\PSoC5/ADC_DelSig_1.c ****         #endif /* ADC_DelSig_1__BITS_18 */    
1191:.\Generated_Source\PSoC5/ADC_DelSig_1.c ****         #if( (ADC_DelSig_1_CFG1_RESOLUTION == ADC_DelSig_1__BITS_19) || \
1192:.\Generated_Source\PSoC5/ADC_DelSig_1.c ****              (ADC_DelSig_1_CFG2_RESOLUTION == ADC_DelSig_1__BITS_19) || \
1193:.\Generated_Source\PSoC5/ADC_DelSig_1.c ****              (ADC_DelSig_1_CFG3_RESOLUTION == ADC_DelSig_1__BITS_19) || \
1194:.\Generated_Source\PSoC5/ADC_DelSig_1.c ****              (ADC_DelSig_1_CFG4_RESOLUTION == ADC_DelSig_1__BITS_19) )
1195:.\Generated_Source\PSoC5/ADC_DelSig_1.c ****             case (uint8)ADC_DelSig_1__BITS_19:
1196:.\Generated_Source\PSoC5/ADC_DelSig_1.c ****                 coefA = ADC_DelSig_1_1UV_COUNTS / ADC_DelSig_1_DIVISOR_250;
1197:.\Generated_Source\PSoC5/ADC_DelSig_1.c ****                 coefB = ADC_DelSig_1_DIVISOR_250;
1198:.\Generated_Source\PSoC5/ADC_DelSig_1.c ****                 break;
1199:.\Generated_Source\PSoC5/ADC_DelSig_1.c ****         #endif /* ADC_DelSig_1__BITS_19 */    
1200:.\Generated_Source\PSoC5/ADC_DelSig_1.c ****         #if( (ADC_DelSig_1_CFG1_RESOLUTION == ADC_DelSig_1__BITS_20) || \
1201:.\Generated_Source\PSoC5/ADC_DelSig_1.c ****              (ADC_DelSig_1_CFG2_RESOLUTION == ADC_DelSig_1__BITS_20) || \
1202:.\Generated_Source\PSoC5/ADC_DelSig_1.c ****              (ADC_DelSig_1_CFG3_RESOLUTION == ADC_DelSig_1__BITS_20) || \
1203:.\Generated_Source\PSoC5/ADC_DelSig_1.c ****              (ADC_DelSig_1_CFG4_RESOLUTION == ADC_DelSig_1__BITS_20) )
1204:.\Generated_Source\PSoC5/ADC_DelSig_1.c ****             case (uint8)ADC_DelSig_1__BITS_20:
1205:.\Generated_Source\PSoC5/ADC_DelSig_1.c ****                 coefA = ADC_DelSig_1_1UV_COUNTS / ADC_DelSig_1_DIVISOR_500;
1206:.\Generated_Source\PSoC5/ADC_DelSig_1.c ****                 coefB = ADC_DelSig_1_DIVISOR_500;
1207:.\Generated_Source\PSoC5/ADC_DelSig_1.c ****                 break;
1208:.\Generated_Source\PSoC5/ADC_DelSig_1.c ****         #endif /* ADC_DelSig_1__BITS_20 */    
1209:.\Generated_Source\PSoC5/ADC_DelSig_1.c ****         default:    /* resolution < 12 */
1210:.\Generated_Source\PSoC5/ADC_DelSig_1.c ****             /* 11 bits ADC + 2^20(1048576) = 31 bits */
1211:.\Generated_Source\PSoC5/ADC_DelSig_1.c ****             coefA = ADC_DelSig_1_1UV_COUNTS;
 1665              		.loc 1 1211 0
 1666 006a 44F24023 		movw	r3, #16960
 1667 006e C0F20F03 		movt	r3, 15
 1668 0072 7B61     		str	r3, [r7, #20]
1212:.\Generated_Source\PSoC5/ADC_DelSig_1.c ****             coefB = ADC_DelSig_1_DIVISOR_1;
 1669              		.loc 1 1212 0
 1670 0074 4FF00103 		mov	r3, #1
 1671 0078 3B61     		str	r3, [r7, #16]
1213:.\Generated_Source\PSoC5/ADC_DelSig_1.c ****             break;
 1672              		.loc 1 1213 0
 1673 007a 00BF     		nop
 1674              	.L58:
1214:.\Generated_Source\PSoC5/ADC_DelSig_1.c ****     }
1215:.\Generated_Source\PSoC5/ADC_DelSig_1.c ****     coefB = ADC_DelSig_1_CountsPerVolt / coefB;
 1675              		.loc 1 1215 0
 1676 007c 40F20003 		movw	r3, #:lower16:ADC_DelSig_1_CountsPerVolt
 1677 0080 C0F20003 		movt	r3, #:upper16:ADC_DelSig_1_CountsPerVolt
 1678 0084 1A68     		ldr	r2, [r3, #0]
 1679 0086 3B69     		ldr	r3, [r7, #16]
 1680 0088 92FBF3F3 		sdiv	r3, r2, r3
 1681 008c 3B61     		str	r3, [r7, #16]
1216:.\Generated_Source\PSoC5/ADC_DelSig_1.c ****     uVolts = ((coefA * adcCounts) / coefB) - ((coefA * ADC_DelSig_1_Offset) / coefB);
 1682              		.loc 1 1216 0
 1683 008e 7B69     		ldr	r3, [r7, #20]
 1684 0090 7A68     		ldr	r2, [r7, #4]
 1685 0092 02FB03F2 		mul	r2, r2, r3
 1686 0096 3B69     		ldr	r3, [r7, #16]
 1687 0098 92FBF3F2 		sdiv	r2, r2, r3
 1688 009c 40F20003 		movw	r3, #:lower16:ADC_DelSig_1_Offset
 1689 00a0 C0F20003 		movt	r3, #:upper16:ADC_DelSig_1_Offset
 1690 00a4 1B68     		ldr	r3, [r3, #0]
 1691 00a6 7969     		ldr	r1, [r7, #20]
ARM GAS  C:\Users\Brian\AppData\Local\Temp\cclOhuzj.s 			page 52


 1692 00a8 01FB03F1 		mul	r1, r1, r3
 1693 00ac 3B69     		ldr	r3, [r7, #16]
 1694 00ae 91FBF3F3 		sdiv	r3, r1, r3
 1695 00b2 D31A     		subs	r3, r2, r3
 1696 00b4 BB60     		str	r3, [r7, #8]
1217:.\Generated_Source\PSoC5/ADC_DelSig_1.c **** 
1218:.\Generated_Source\PSoC5/ADC_DelSig_1.c ****     return( uVolts );
 1697              		.loc 1 1218 0
 1698 00b6 BB68     		ldr	r3, [r7, #8]
1219:.\Generated_Source\PSoC5/ADC_DelSig_1.c **** }
 1699              		.loc 1 1219 0
 1700 00b8 1846     		mov	r0, r3
 1701 00ba 07F11C07 		add	r7, r7, #28
 1702 00be BD46     		mov	sp, r7
 1703 00c0 80BC     		pop	{r7}
 1704 00c2 7047     		bx	lr
 1705              		.cfi_endproc
 1706              	.LFE18:
 1707              		.size	ADC_DelSig_1_CountsTo_uVolts, .-ADC_DelSig_1_CountsTo_uVolts
 1708              		.section	.text.ADC_DelSig_1_InitConfig,"ax",%progbits
 1709              		.align	2
 1710              		.thumb
 1711              		.thumb_func
 1712              		.type	ADC_DelSig_1_InitConfig, %function
 1713              	ADC_DelSig_1_InitConfig:
 1714              	.LFB19:
1220:.\Generated_Source\PSoC5/ADC_DelSig_1.c **** 
1221:.\Generated_Source\PSoC5/ADC_DelSig_1.c **** 
1222:.\Generated_Source\PSoC5/ADC_DelSig_1.c **** /*******************************************************************************
1223:.\Generated_Source\PSoC5/ADC_DelSig_1.c **** * Function Name: ADC_DelSig_1_InitConfig(uint8 config)
1224:.\Generated_Source\PSoC5/ADC_DelSig_1.c **** ********************************************************************************
1225:.\Generated_Source\PSoC5/ADC_DelSig_1.c **** *
1226:.\Generated_Source\PSoC5/ADC_DelSig_1.c **** * Summary:
1227:.\Generated_Source\PSoC5/ADC_DelSig_1.c **** *  Initializes all registers based on customizer settings
1228:.\Generated_Source\PSoC5/ADC_DelSig_1.c **** *
1229:.\Generated_Source\PSoC5/ADC_DelSig_1.c **** * Parameters:
1230:.\Generated_Source\PSoC5/ADC_DelSig_1.c **** *   void
1231:.\Generated_Source\PSoC5/ADC_DelSig_1.c **** *
1232:.\Generated_Source\PSoC5/ADC_DelSig_1.c **** * Return:
1233:.\Generated_Source\PSoC5/ADC_DelSig_1.c **** *  None
1234:.\Generated_Source\PSoC5/ADC_DelSig_1.c **** *
1235:.\Generated_Source\PSoC5/ADC_DelSig_1.c **** * Global variables:
1236:.\Generated_Source\PSoC5/ADC_DelSig_1.c **** *  ADC_DelSig_1_CountsPerVolt:  Used to set the default counts per volt.
1237:.\Generated_Source\PSoC5/ADC_DelSig_1.c **** *
1238:.\Generated_Source\PSoC5/ADC_DelSig_1.c **** * Side Effects: Rewrites the coherency set by ADC_DelSig_1_SetCoherency()
1239:.\Generated_Source\PSoC5/ADC_DelSig_1.c **** *   API to the default value.
1240:.\Generated_Source\PSoC5/ADC_DelSig_1.c **** *
1241:.\Generated_Source\PSoC5/ADC_DelSig_1.c **** *******************************************************************************/
1242:.\Generated_Source\PSoC5/ADC_DelSig_1.c **** static void ADC_DelSig_1_InitConfig(uint8 config) 
1243:.\Generated_Source\PSoC5/ADC_DelSig_1.c **** {
 1715              		.loc 1 1243 0
 1716              		.cfi_startproc
 1717              		@ args = 0, pretend = 0, frame = 8
 1718              		@ frame_needed = 1, uses_anonymous_args = 0
 1719 0000 80B5     		push	{r7, lr}
 1720              	.LCFI54:
 1721              		.cfi_def_cfa_offset 8
ARM GAS  C:\Users\Brian\AppData\Local\Temp\cclOhuzj.s 			page 53


 1722              		.cfi_offset 7, -8
 1723              		.cfi_offset 14, -4
 1724 0002 82B0     		sub	sp, sp, #8
 1725              	.LCFI55:
 1726              		.cfi_def_cfa_offset 16
 1727 0004 00AF     		add	r7, sp, #0
 1728              	.LCFI56:
 1729              		.cfi_def_cfa_register 7
 1730 0006 0346     		mov	r3, r0
 1731 0008 FB71     		strb	r3, [r7, #7]
1244:.\Generated_Source\PSoC5/ADC_DelSig_1.c ****     ADC_DelSig_1_stopConversion = 0u;
 1732              		.loc 1 1244 0
 1733 000a 40F20003 		movw	r3, #:lower16:ADC_DelSig_1_stopConversion
 1734 000e C0F20003 		movt	r3, #:upper16:ADC_DelSig_1_stopConversion
 1735 0012 4FF00002 		mov	r2, #0
 1736 0016 1A70     		strb	r2, [r3, #0]
1245:.\Generated_Source\PSoC5/ADC_DelSig_1.c **** 
1246:.\Generated_Source\PSoC5/ADC_DelSig_1.c ****     if (config == 1u)
 1737              		.loc 1 1246 0
 1738 0018 FB79     		ldrb	r3, [r7, #7]	@ zero_extendqisi2
 1739 001a 012B     		cmp	r3, #1
 1740 001c 40F0E080 		bne	.L61
1247:.\Generated_Source\PSoC5/ADC_DelSig_1.c ****     {
1248:.\Generated_Source\PSoC5/ADC_DelSig_1.c ****         /* Default Config */
1249:.\Generated_Source\PSoC5/ADC_DelSig_1.c ****         ADC_DelSig_1_DEC_CR_REG      = ADC_DelSig_1_CFG1_DEC_CR;
 1741              		.loc 1 1249 0
 1742 0020 4FF49C43 		mov	r3, #19968
 1743 0024 C4F20003 		movt	r3, 16384
 1744 0028 4FF03402 		mov	r2, #52
 1745 002c 1A70     		strb	r2, [r3, #0]
1250:.\Generated_Source\PSoC5/ADC_DelSig_1.c ****         ADC_DelSig_1_DEC_SHIFT1_REG  = ADC_DelSig_1_CFG1_DEC_SHIFT1;
 1746              		.loc 1 1250 0
 1747 002e 44F60263 		movw	r3, #19970
 1748 0032 C4F20003 		movt	r3, 16384
 1749 0036 4FF00402 		mov	r2, #4
 1750 003a 1A70     		strb	r2, [r3, #0]
1251:.\Generated_Source\PSoC5/ADC_DelSig_1.c ****         ADC_DelSig_1_DEC_SHIFT2_REG  = ADC_DelSig_1_CFG1_DEC_SHIFT2;
 1751              		.loc 1 1251 0
 1752 003c 44F60363 		movw	r3, #19971
 1753 0040 C4F20003 		movt	r3, 16384
 1754 0044 4FF00602 		mov	r2, #6
 1755 0048 1A70     		strb	r2, [r3, #0]
1252:.\Generated_Source\PSoC5/ADC_DelSig_1.c ****         ADC_DelSig_1_DEC_DR2_REG     = ADC_DelSig_1_CFG1_DEC_DR2;
 1756              		.loc 1 1252 0
 1757 004a 44F60463 		movw	r3, #19972
 1758 004e C4F20003 		movt	r3, 16384
 1759 0052 4FF00002 		mov	r2, #0
 1760 0056 1A70     		strb	r2, [r3, #0]
1253:.\Generated_Source\PSoC5/ADC_DelSig_1.c ****         ADC_DelSig_1_DEC_DR2H_REG    = ADC_DelSig_1_CFG1_DEC_DR2H;
 1761              		.loc 1 1253 0
 1762 0058 44F60563 		movw	r3, #19973
 1763 005c C4F20003 		movt	r3, 16384
 1764 0060 4FF00002 		mov	r2, #0
 1765 0064 1A70     		strb	r2, [r3, #0]
1254:.\Generated_Source\PSoC5/ADC_DelSig_1.c ****         ADC_DelSig_1_DEC_DR1_REG     = ADC_DelSig_1_CFG1_DEC_DR1;
 1766              		.loc 1 1254 0
 1767 0066 44F60663 		movw	r3, #19974
ARM GAS  C:\Users\Brian\AppData\Local\Temp\cclOhuzj.s 			page 54


 1768 006a C4F20003 		movt	r3, 16384
 1769 006e 4FF03F02 		mov	r2, #63
 1770 0072 1A70     		strb	r2, [r3, #0]
1255:.\Generated_Source\PSoC5/ADC_DelSig_1.c ****         ADC_DelSig_1_DEC_OCOR_REG    = ADC_DelSig_1_CFG1_DEC_OCOR;
 1771              		.loc 1 1255 0
 1772 0074 44F60863 		movw	r3, #19976
 1773 0078 C4F20003 		movt	r3, 16384
 1774 007c 4FF00002 		mov	r2, #0
 1775 0080 1A70     		strb	r2, [r3, #0]
1256:.\Generated_Source\PSoC5/ADC_DelSig_1.c ****         ADC_DelSig_1_DEC_OCORM_REG   = ADC_DelSig_1_CFG1_DEC_OCORM;
 1776              		.loc 1 1256 0
 1777 0082 44F60963 		movw	r3, #19977
 1778 0086 C4F20003 		movt	r3, 16384
 1779 008a 4FF00002 		mov	r2, #0
 1780 008e 1A70     		strb	r2, [r3, #0]
1257:.\Generated_Source\PSoC5/ADC_DelSig_1.c ****         ADC_DelSig_1_DEC_OCORH_REG   = ADC_DelSig_1_CFG1_DEC_OCORH;
 1781              		.loc 1 1257 0
 1782 0090 44F60A63 		movw	r3, #19978
 1783 0094 C4F20003 		movt	r3, 16384
 1784 0098 4FF00002 		mov	r2, #0
 1785 009c 1A70     		strb	r2, [r3, #0]
1258:.\Generated_Source\PSoC5/ADC_DelSig_1.c ****         ADC_DelSig_1_DEC_COHER_REG   = ADC_DelSig_1_CFG1_DEC_COHER;
 1786              		.loc 1 1258 0
 1787 009e 44F61463 		movw	r3, #19988
 1788 00a2 C4F20003 		movt	r3, 16384
 1789 00a6 4FF00102 		mov	r2, #1
 1790 00aa 1A70     		strb	r2, [r3, #0]
1259:.\Generated_Source\PSoC5/ADC_DelSig_1.c **** 
1260:.\Generated_Source\PSoC5/ADC_DelSig_1.c ****         ADC_DelSig_1_DSM_CR4_REG     = ADC_DelSig_1_CFG1_DSM_CR4;
 1791              		.loc 1 1260 0
 1792 00ac 45F68403 		movw	r3, #22660
 1793 00b0 C4F20003 		movt	r3, 16384
 1794 00b4 4FF05002 		mov	r2, #80
 1795 00b8 1A70     		strb	r2, [r3, #0]
1261:.\Generated_Source\PSoC5/ADC_DelSig_1.c ****         ADC_DelSig_1_DSM_CR5_REG     = ADC_DelSig_1_CFG1_DSM_CR5;
 1796              		.loc 1 1261 0
 1797 00ba 45F68503 		movw	r3, #22661
 1798 00be C4F20003 		movt	r3, 16384
 1799 00c2 4FF00702 		mov	r2, #7
 1800 00c6 1A70     		strb	r2, [r3, #0]
1262:.\Generated_Source\PSoC5/ADC_DelSig_1.c ****         ADC_DelSig_1_DSM_CR6_REG     = ADC_DelSig_1_CFG1_DSM_CR6;
 1801              		.loc 1 1262 0
 1802 00c8 45F68603 		movw	r3, #22662
 1803 00cc C4F20003 		movt	r3, 16384
 1804 00d0 4FF02902 		mov	r2, #41
 1805 00d4 1A70     		strb	r2, [r3, #0]
1263:.\Generated_Source\PSoC5/ADC_DelSig_1.c ****         ADC_DelSig_1_DSM_CR7_REG     = ADC_DelSig_1_CFG1_DSM_CR7;
 1806              		.loc 1 1263 0
 1807 00d6 45F68703 		movw	r3, #22663
 1808 00da C4F20003 		movt	r3, 16384
 1809 00de 4FF00002 		mov	r2, #0
 1810 00e2 1A70     		strb	r2, [r3, #0]
1264:.\Generated_Source\PSoC5/ADC_DelSig_1.c ****         ADC_DelSig_1_DSM_CR10_REG    = ADC_DelSig_1_CFG1_DSM_CR10;
 1811              		.loc 1 1264 0
 1812 00e4 45F68A03 		movw	r3, #22666
 1813 00e8 C4F20003 		movt	r3, 16384
 1814 00ec 4FF05502 		mov	r2, #85
ARM GAS  C:\Users\Brian\AppData\Local\Temp\cclOhuzj.s 			page 55


 1815 00f0 1A70     		strb	r2, [r3, #0]
1265:.\Generated_Source\PSoC5/ADC_DelSig_1.c ****         ADC_DelSig_1_DSM_CR11_REG    = ADC_DelSig_1_CFG1_DSM_CR11;
 1816              		.loc 1 1265 0
 1817 00f2 45F68B03 		movw	r3, #22667
 1818 00f6 C4F20003 		movt	r3, 16384
 1819 00fa 4FF05A02 		mov	r2, #90
 1820 00fe 1A70     		strb	r2, [r3, #0]
1266:.\Generated_Source\PSoC5/ADC_DelSig_1.c ****         ADC_DelSig_1_DSM_CR12_REG    = ADC_DelSig_1_CFG1_DSM_CR12;
 1821              		.loc 1 1266 0
 1822 0100 45F68C03 		movw	r3, #22668
 1823 0104 C4F20003 		movt	r3, 16384
 1824 0108 4FF00002 		mov	r2, #0
 1825 010c 1A70     		strb	r2, [r3, #0]
1267:.\Generated_Source\PSoC5/ADC_DelSig_1.c ****         ADC_DelSig_1_DSM_CR14_REG    = ADC_DelSig_1_CFG1_DSM_CR14;
 1826              		.loc 1 1267 0
 1827 010e 45F68E03 		movw	r3, #22670
 1828 0112 C4F20003 		movt	r3, 16384
 1829 0116 4FF00202 		mov	r2, #2
 1830 011a 1A70     		strb	r2, [r3, #0]
1268:.\Generated_Source\PSoC5/ADC_DelSig_1.c ****         ADC_DelSig_1_DSM_CR15_REG    = ADC_DelSig_1_CFG1_DSM_CR15;
 1831              		.loc 1 1268 0
 1832 011c 45F68F03 		movw	r3, #22671
 1833 0120 C4F20003 		movt	r3, 16384
 1834 0124 4FF01202 		mov	r2, #18
 1835 0128 1A70     		strb	r2, [r3, #0]
1269:.\Generated_Source\PSoC5/ADC_DelSig_1.c ****         ADC_DelSig_1_DSM_CR16_REG    = ADC_DelSig_1_CFG1_DSM_CR16;
 1836              		.loc 1 1269 0
 1837 012a 45F69003 		movw	r3, #22672
 1838 012e C4F20003 		movt	r3, 16384
 1839 0132 4FF02802 		mov	r2, #40
 1840 0136 1A70     		strb	r2, [r3, #0]
1270:.\Generated_Source\PSoC5/ADC_DelSig_1.c ****         ADC_DelSig_1_DSM_CR17_REG    = ADC_DelSig_1_CFG1_DSM_CR17;
 1841              		.loc 1 1270 0
 1842 0138 45F69103 		movw	r3, #22673
 1843 013c C4F20003 		movt	r3, 16384
 1844 0140 4FF0EB02 		mov	r2, #235
 1845 0144 1A70     		strb	r2, [r3, #0]
1271:.\Generated_Source\PSoC5/ADC_DelSig_1.c ****         /* Set DSM_REF0_REG by disabling and enabling the PRESS circuit */
1272:.\Generated_Source\PSoC5/ADC_DelSig_1.c ****         ADC_DelSig_1_SetDSMRef0Reg(ADC_DelSig_1_CFG1_DSM_REF0);
 1846              		.loc 1 1272 0
 1847 0146 4FF04400 		mov	r0, #68
 1848 014a FFF7FEFF 		bl	ADC_DelSig_1_SetDSMRef0Reg
1273:.\Generated_Source\PSoC5/ADC_DelSig_1.c ****         ADC_DelSig_1_DSM_REF2_REG    = ADC_DelSig_1_CFG1_DSM_REF2;
 1849              		.loc 1 1273 0
 1850 014e 45F69403 		movw	r3, #22676
 1851 0152 C4F20003 		movt	r3, 16384
 1852 0156 4FF05802 		mov	r2, #88
 1853 015a 1A70     		strb	r2, [r3, #0]
1274:.\Generated_Source\PSoC5/ADC_DelSig_1.c ****         ADC_DelSig_1_DSM_REF3_REG    = ADC_DelSig_1_CFG1_DSM_REF3;
 1854              		.loc 1 1274 0
 1855 015c 45F69503 		movw	r3, #22677
 1856 0160 C4F20003 		movt	r3, 16384
 1857 0164 4FF00002 		mov	r2, #0
 1858 0168 1A70     		strb	r2, [r3, #0]
1275:.\Generated_Source\PSoC5/ADC_DelSig_1.c **** 
1276:.\Generated_Source\PSoC5/ADC_DelSig_1.c ****         ADC_DelSig_1_DSM_BUF0_REG    = ADC_DelSig_1_CFG1_DSM_BUF0;
 1859              		.loc 1 1276 0
ARM GAS  C:\Users\Brian\AppData\Local\Temp\cclOhuzj.s 			page 56


 1860 016a 45F69A03 		movw	r3, #22682
 1861 016e C4F20003 		movt	r3, 16384
 1862 0172 4FF00502 		mov	r2, #5
 1863 0176 1A70     		strb	r2, [r3, #0]
1277:.\Generated_Source\PSoC5/ADC_DelSig_1.c ****         ADC_DelSig_1_DSM_BUF1_REG    = ADC_DelSig_1_CFG1_DSM_BUF1;
 1864              		.loc 1 1277 0
 1865 0178 45F69B03 		movw	r3, #22683
 1866 017c C4F20003 		movt	r3, 16384
 1867 0180 4FF00202 		mov	r2, #2
 1868 0184 1A70     		strb	r2, [r3, #0]
1278:.\Generated_Source\PSoC5/ADC_DelSig_1.c ****         ADC_DelSig_1_DSM_BUF2_REG    = ADC_DelSig_1_CFG1_DSM_BUF2;
 1869              		.loc 1 1278 0
 1870 0186 45F69C03 		movw	r3, #22684
 1871 018a C4F20003 		movt	r3, 16384
 1872 018e 4FF00002 		mov	r2, #0
 1873 0192 1A70     		strb	r2, [r3, #0]
1279:.\Generated_Source\PSoC5/ADC_DelSig_1.c ****         ADC_DelSig_1_DSM_BUF3_REG    = ADC_DelSig_1_CFG1_DSM_BUF3;
 1874              		.loc 1 1279 0
 1875 0194 45F69D03 		movw	r3, #22685
 1876 0198 C4F20003 		movt	r3, 16384
 1877 019c 4FF00002 		mov	r2, #0
 1878 01a0 1A70     		strb	r2, [r3, #0]
1280:.\Generated_Source\PSoC5/ADC_DelSig_1.c **** 
1281:.\Generated_Source\PSoC5/ADC_DelSig_1.c ****         /* To select either Vssa or Vref to -ve input of DSM depending on
1282:.\Generated_Source\PSoC5/ADC_DelSig_1.c ****         *  the input  range selected.
1283:.\Generated_Source\PSoC5/ADC_DelSig_1.c ****         */
1284:.\Generated_Source\PSoC5/ADC_DelSig_1.c ****         #if(ADC_DelSig_1_DEFAULT_INPUT_MODE)
1285:.\Generated_Source\PSoC5/ADC_DelSig_1.c ****             #if (ADC_DelSig_1_CFG1_INPUT_RANGE == ADC_DelSig_1_IR_VSSA_TO_2VREF)
1286:.\Generated_Source\PSoC5/ADC_DelSig_1.c ****                 ADC_DelSig_1_AMux_Select(1u);
1287:.\Generated_Source\PSoC5/ADC_DelSig_1.c ****             #else
1288:.\Generated_Source\PSoC5/ADC_DelSig_1.c ****                 ADC_DelSig_1_AMux_Select(0u);
 1879              		.loc 1 1288 0
 1880 01a2 4FF00000 		mov	r0, #0
 1881 01a6 FFF7FEFF 		bl	ADC_DelSig_1_AMux_Select
1289:.\Generated_Source\PSoC5/ADC_DelSig_1.c ****             #endif /* ADC_DelSig_1_IR_VSSA_TO_2VREF) */
1290:.\Generated_Source\PSoC5/ADC_DelSig_1.c ****         #endif /* ADC_DelSig_1_DEFAULT_INPUT_MODE */
1291:.\Generated_Source\PSoC5/ADC_DelSig_1.c **** 
1292:.\Generated_Source\PSoC5/ADC_DelSig_1.c ****         /* Set the Conversion stop if resolution is above 16 bit and conversion
1293:.\Generated_Source\PSoC5/ADC_DelSig_1.c ****         *   mode is Single sample
1294:.\Generated_Source\PSoC5/ADC_DelSig_1.c ****         */
1295:.\Generated_Source\PSoC5/ADC_DelSig_1.c ****         #if(ADC_DelSig_1_CFG1_RESOLUTION > 16 && \
1296:.\Generated_Source\PSoC5/ADC_DelSig_1.c ****             ADC_DelSig_1_CFG1_CONV_MODE == ADC_DelSig_1_MODE_SINGLE_SAMPLE)
1297:.\Generated_Source\PSoC5/ADC_DelSig_1.c ****             ADC_DelSig_1_stopConversion = 1u;
1298:.\Generated_Source\PSoC5/ADC_DelSig_1.c ****         #endif /* Single sample with resolution above 16 bits. */
1299:.\Generated_Source\PSoC5/ADC_DelSig_1.c **** 
1300:.\Generated_Source\PSoC5/ADC_DelSig_1.c ****         ADC_DelSig_1_CountsPerVolt = (int32)ADC_DelSig_1_CFG1_COUNTS_PER_VOLT;
 1882              		.loc 1 1300 0
 1883 01aa 40F20003 		movw	r3, #:lower16:ADC_DelSig_1_CountsPerVolt
 1884 01ae C0F20003 		movt	r3, #:upper16:ADC_DelSig_1_CountsPerVolt
 1885 01b2 42F6AB12 		movw	r2, #10667
 1886 01b6 1A60     		str	r2, [r3, #0]
1301:.\Generated_Source\PSoC5/ADC_DelSig_1.c **** 
1302:.\Generated_Source\PSoC5/ADC_DelSig_1.c ****         ADC_DelSig_1_Ext_CP_Clk_SetDividerRegister(ADC_DelSig_1_CFG1_CP_CLK_DIVIDER, 1u);
 1887              		.loc 1 1302 0
 1888 01b8 4FF00100 		mov	r0, #1
 1889 01bc 4FF00101 		mov	r1, #1
 1890 01c0 FFF7FEFF 		bl	ADC_DelSig_1_Ext_CP_Clk_SetDividerRegister
ARM GAS  C:\Users\Brian\AppData\Local\Temp\cclOhuzj.s 			page 57


1303:.\Generated_Source\PSoC5/ADC_DelSig_1.c **** 
1304:.\Generated_Source\PSoC5/ADC_DelSig_1.c ****         /* This is only valid if there is an internal clock */
1305:.\Generated_Source\PSoC5/ADC_DelSig_1.c ****         #if(ADC_DelSig_1_DEFAULT_INTERNAL_CLK)
1306:.\Generated_Source\PSoC5/ADC_DelSig_1.c ****             ADC_DelSig_1_theACLK_SetDividerRegister(ADC_DelSig_1_CFG1_ADC_CLK_DIVIDER, 1u);
 1891              		.loc 1 1306 0
 1892 01c4 4FF00800 		mov	r0, #8
 1893 01c8 4FF00101 		mov	r1, #1
 1894 01cc FFF7FEFF 		bl	ADC_DelSig_1_theACLK_SetDividerRegister
1307:.\Generated_Source\PSoC5/ADC_DelSig_1.c ****         #endif /* ADC_DelSig_1_DEFAULT_INTERNAL_CLK */
1308:.\Generated_Source\PSoC5/ADC_DelSig_1.c **** 
1309:.\Generated_Source\PSoC5/ADC_DelSig_1.c ****         #if(ADC_DelSig_1_IRQ_REMOVE == 0u)
1310:.\Generated_Source\PSoC5/ADC_DelSig_1.c ****             /* Set interrupt vector */
1311:.\Generated_Source\PSoC5/ADC_DelSig_1.c ****             (void)CyIntSetVector(ADC_DelSig_1_INTC_NUMBER, &ADC_DelSig_1_ISR1);
 1895              		.loc 1 1311 0
 1896 01d0 4FF01D00 		mov	r0, #29
 1897 01d4 40F20001 		movw	r1, #:lower16:ADC_DelSig_1_ISR1
 1898 01d8 C0F20001 		movt	r1, #:upper16:ADC_DelSig_1_ISR1
 1899 01dc FFF7FEFF 		bl	CyIntSetVector
 1900              	.L61:
1312:.\Generated_Source\PSoC5/ADC_DelSig_1.c ****         #endif   /* End ADC_DelSig_1_IRQ_REMOVE */
1313:.\Generated_Source\PSoC5/ADC_DelSig_1.c ****     }
1314:.\Generated_Source\PSoC5/ADC_DelSig_1.c **** 
1315:.\Generated_Source\PSoC5/ADC_DelSig_1.c ****     #if(ADC_DelSig_1_DEFAULT_NUM_CONFIGS > 1)
1316:.\Generated_Source\PSoC5/ADC_DelSig_1.c ****         if(config == 2u)
1317:.\Generated_Source\PSoC5/ADC_DelSig_1.c ****         {
1318:.\Generated_Source\PSoC5/ADC_DelSig_1.c ****             /* Second Config */
1319:.\Generated_Source\PSoC5/ADC_DelSig_1.c ****             ADC_DelSig_1_DEC_CR_REG      = ADC_DelSig_1_CFG2_DEC_CR;
1320:.\Generated_Source\PSoC5/ADC_DelSig_1.c ****             ADC_DelSig_1_DEC_SHIFT1_REG  = ADC_DelSig_1_CFG2_DEC_SHIFT1;
1321:.\Generated_Source\PSoC5/ADC_DelSig_1.c ****             ADC_DelSig_1_DEC_SHIFT2_REG  = ADC_DelSig_1_CFG2_DEC_SHIFT2;
1322:.\Generated_Source\PSoC5/ADC_DelSig_1.c ****             ADC_DelSig_1_DEC_DR2_REG     = ADC_DelSig_1_CFG2_DEC_DR2;
1323:.\Generated_Source\PSoC5/ADC_DelSig_1.c ****             ADC_DelSig_1_DEC_DR2H_REG    = ADC_DelSig_1_CFG2_DEC_DR2H;
1324:.\Generated_Source\PSoC5/ADC_DelSig_1.c ****             ADC_DelSig_1_DEC_DR1_REG     = ADC_DelSig_1_CFG2_DEC_DR1;
1325:.\Generated_Source\PSoC5/ADC_DelSig_1.c ****             ADC_DelSig_1_DEC_OCOR_REG    = ADC_DelSig_1_CFG2_DEC_OCOR;
1326:.\Generated_Source\PSoC5/ADC_DelSig_1.c ****             ADC_DelSig_1_DEC_OCORM_REG   = ADC_DelSig_1_CFG2_DEC_OCORM;
1327:.\Generated_Source\PSoC5/ADC_DelSig_1.c ****             ADC_DelSig_1_DEC_OCORH_REG   = ADC_DelSig_1_CFG2_DEC_OCORH;
1328:.\Generated_Source\PSoC5/ADC_DelSig_1.c ****             ADC_DelSig_1_DEC_COHER_REG   = ADC_DelSig_1_CFG2_DEC_COHER;
1329:.\Generated_Source\PSoC5/ADC_DelSig_1.c **** 
1330:.\Generated_Source\PSoC5/ADC_DelSig_1.c ****             ADC_DelSig_1_DSM_CR4_REG     = ADC_DelSig_1_CFG2_DSM_CR4;
1331:.\Generated_Source\PSoC5/ADC_DelSig_1.c ****             ADC_DelSig_1_DSM_CR5_REG     = ADC_DelSig_1_CFG2_DSM_CR5;
1332:.\Generated_Source\PSoC5/ADC_DelSig_1.c ****             ADC_DelSig_1_DSM_CR6_REG     = ADC_DelSig_1_CFG2_DSM_CR6;
1333:.\Generated_Source\PSoC5/ADC_DelSig_1.c ****             ADC_DelSig_1_DSM_CR7_REG     = ADC_DelSig_1_CFG2_DSM_CR7;
1334:.\Generated_Source\PSoC5/ADC_DelSig_1.c ****             ADC_DelSig_1_DSM_CR10_REG    = ADC_DelSig_1_CFG2_DSM_CR10;
1335:.\Generated_Source\PSoC5/ADC_DelSig_1.c ****             ADC_DelSig_1_DSM_CR11_REG    = ADC_DelSig_1_CFG2_DSM_CR11;
1336:.\Generated_Source\PSoC5/ADC_DelSig_1.c ****             ADC_DelSig_1_DSM_CR12_REG    = ADC_DelSig_1_CFG2_DSM_CR12;
1337:.\Generated_Source\PSoC5/ADC_DelSig_1.c ****             ADC_DelSig_1_DSM_CR14_REG    = ADC_DelSig_1_CFG2_DSM_CR14;
1338:.\Generated_Source\PSoC5/ADC_DelSig_1.c ****             ADC_DelSig_1_DSM_CR15_REG    = ADC_DelSig_1_CFG2_DSM_CR15;
1339:.\Generated_Source\PSoC5/ADC_DelSig_1.c ****             ADC_DelSig_1_DSM_CR16_REG    = ADC_DelSig_1_CFG2_DSM_CR16;
1340:.\Generated_Source\PSoC5/ADC_DelSig_1.c ****             ADC_DelSig_1_DSM_CR17_REG    = ADC_DelSig_1_CFG2_DSM_CR17;
1341:.\Generated_Source\PSoC5/ADC_DelSig_1.c ****             /* Set DSM_REF0_REG by disabling and enabling the PRESS cirucit */
1342:.\Generated_Source\PSoC5/ADC_DelSig_1.c ****             ADC_DelSig_1_SetDSMRef0Reg(ADC_DelSig_1_CFG2_DSM_REF0);
1343:.\Generated_Source\PSoC5/ADC_DelSig_1.c ****             ADC_DelSig_1_DSM_REF2_REG    = ADC_DelSig_1_CFG2_DSM_REF2;
1344:.\Generated_Source\PSoC5/ADC_DelSig_1.c ****             ADC_DelSig_1_DSM_REF3_REG    = ADC_DelSig_1_CFG2_DSM_REF3;
1345:.\Generated_Source\PSoC5/ADC_DelSig_1.c **** 
1346:.\Generated_Source\PSoC5/ADC_DelSig_1.c ****             ADC_DelSig_1_DSM_BUF0_REG    = ADC_DelSig_1_CFG2_DSM_BUF0;
1347:.\Generated_Source\PSoC5/ADC_DelSig_1.c ****             ADC_DelSig_1_DSM_BUF1_REG    = ADC_DelSig_1_CFG2_DSM_BUF1;
1348:.\Generated_Source\PSoC5/ADC_DelSig_1.c ****             ADC_DelSig_1_DSM_BUF2_REG    = ADC_DelSig_1_CFG2_DSM_BUF2;
1349:.\Generated_Source\PSoC5/ADC_DelSig_1.c ****             ADC_DelSig_1_DSM_BUF3_REG    = ADC_DelSig_1_CFG2_DSM_BUF3;
ARM GAS  C:\Users\Brian\AppData\Local\Temp\cclOhuzj.s 			page 58


1350:.\Generated_Source\PSoC5/ADC_DelSig_1.c **** 
1351:.\Generated_Source\PSoC5/ADC_DelSig_1.c ****             /* To select either Vssa or Vref to -ve input of DSM depending on
1352:.\Generated_Source\PSoC5/ADC_DelSig_1.c ****             *  the input range selected.
1353:.\Generated_Source\PSoC5/ADC_DelSig_1.c ****             */
1354:.\Generated_Source\PSoC5/ADC_DelSig_1.c **** 
1355:.\Generated_Source\PSoC5/ADC_DelSig_1.c ****             #if(ADC_DelSig_1_DEFAULT_INPUT_MODE)
1356:.\Generated_Source\PSoC5/ADC_DelSig_1.c ****                 #if (ADC_DelSig_1_CFG2_INPUT_RANGE == ADC_DelSig_1_IR_VSSA_TO_2VREF)
1357:.\Generated_Source\PSoC5/ADC_DelSig_1.c ****                     ADC_DelSig_1_AMux_Select(1u);
1358:.\Generated_Source\PSoC5/ADC_DelSig_1.c ****                 #else
1359:.\Generated_Source\PSoC5/ADC_DelSig_1.c ****                     ADC_DelSig_1_AMux_Select(0u);
1360:.\Generated_Source\PSoC5/ADC_DelSig_1.c ****                 #endif /* ADC_DelSig_1_IR_VSSA_TO_2VREF) */
1361:.\Generated_Source\PSoC5/ADC_DelSig_1.c ****             #endif /* ADC_DelSig_1_DEFAULT_INPUT_MODE */
1362:.\Generated_Source\PSoC5/ADC_DelSig_1.c **** 
1363:.\Generated_Source\PSoC5/ADC_DelSig_1.c ****             /* Set the Conversion stop if resolution is above 16 bit and
1364:.\Generated_Source\PSoC5/ADC_DelSig_1.c ****             *   conversion mode is Single sample
1365:.\Generated_Source\PSoC5/ADC_DelSig_1.c ****             */
1366:.\Generated_Source\PSoC5/ADC_DelSig_1.c ****             #if(ADC_DelSig_1_CFG2_RESOLUTION > 16 && \
1367:.\Generated_Source\PSoC5/ADC_DelSig_1.c ****                 ADC_DelSig_1_CFG2_CONV_MODE == ADC_DelSig_1_MODE_SINGLE_SAMPLE)
1368:.\Generated_Source\PSoC5/ADC_DelSig_1.c ****                 ADC_DelSig_1_stopConversion = 1u;
1369:.\Generated_Source\PSoC5/ADC_DelSig_1.c ****             #endif /* Single sample with resolution above 16 bits. */
1370:.\Generated_Source\PSoC5/ADC_DelSig_1.c **** 
1371:.\Generated_Source\PSoC5/ADC_DelSig_1.c ****             ADC_DelSig_1_CountsPerVolt = (int32)ADC_DelSig_1_CFG2_COUNTS_PER_VOLT;
1372:.\Generated_Source\PSoC5/ADC_DelSig_1.c **** 
1373:.\Generated_Source\PSoC5/ADC_DelSig_1.c ****             ADC_DelSig_1_Ext_CP_Clk_SetDividerRegister(ADC_DelSig_1_CFG2_CP_CLK_DIVIDER, 1u);
1374:.\Generated_Source\PSoC5/ADC_DelSig_1.c **** 
1375:.\Generated_Source\PSoC5/ADC_DelSig_1.c ****             /* This is only valid if there is an internal clock */
1376:.\Generated_Source\PSoC5/ADC_DelSig_1.c ****             #if(ADC_DelSig_1_DEFAULT_INTERNAL_CLK)
1377:.\Generated_Source\PSoC5/ADC_DelSig_1.c ****                 ADC_DelSig_1_theACLK_SetDividerRegister(ADC_DelSig_1_CFG2_ADC_CLK_DIVIDER, 1u);
1378:.\Generated_Source\PSoC5/ADC_DelSig_1.c ****             #endif /* ADC_DelSig_1_DEFAULT_INTERNAL_CLK */
1379:.\Generated_Source\PSoC5/ADC_DelSig_1.c **** 
1380:.\Generated_Source\PSoC5/ADC_DelSig_1.c ****             #if(ADC_DelSig_1_IRQ_REMOVE == 0u)
1381:.\Generated_Source\PSoC5/ADC_DelSig_1.c ****                 /* Set interrupt vector */
1382:.\Generated_Source\PSoC5/ADC_DelSig_1.c ****                 (void)CyIntSetVector(ADC_DelSig_1_INTC_NUMBER, &ADC_DelSig_1_ISR2);
1383:.\Generated_Source\PSoC5/ADC_DelSig_1.c ****             #endif   /* End ADC_DelSig_1_IRQ_REMOVE */
1384:.\Generated_Source\PSoC5/ADC_DelSig_1.c ****         }
1385:.\Generated_Source\PSoC5/ADC_DelSig_1.c ****     #endif /* ADC_DelSig_1_DEFAULT_NUM_CONFIGS > 1 */
1386:.\Generated_Source\PSoC5/ADC_DelSig_1.c **** 
1387:.\Generated_Source\PSoC5/ADC_DelSig_1.c ****     #if(ADC_DelSig_1_DEFAULT_NUM_CONFIGS > 2)
1388:.\Generated_Source\PSoC5/ADC_DelSig_1.c ****         if(config == 3u)
1389:.\Generated_Source\PSoC5/ADC_DelSig_1.c ****         {
1390:.\Generated_Source\PSoC5/ADC_DelSig_1.c ****             /* Third Config */
1391:.\Generated_Source\PSoC5/ADC_DelSig_1.c ****             ADC_DelSig_1_DEC_CR_REG      = ADC_DelSig_1_CFG3_DEC_CR;
1392:.\Generated_Source\PSoC5/ADC_DelSig_1.c ****             ADC_DelSig_1_DEC_SHIFT1_REG  = ADC_DelSig_1_CFG3_DEC_SHIFT1;
1393:.\Generated_Source\PSoC5/ADC_DelSig_1.c ****             ADC_DelSig_1_DEC_SHIFT2_REG  = ADC_DelSig_1_CFG3_DEC_SHIFT2;
1394:.\Generated_Source\PSoC5/ADC_DelSig_1.c ****             ADC_DelSig_1_DEC_DR2_REG     = ADC_DelSig_1_CFG3_DEC_DR2;
1395:.\Generated_Source\PSoC5/ADC_DelSig_1.c ****             ADC_DelSig_1_DEC_DR2H_REG    = ADC_DelSig_1_CFG3_DEC_DR2H;
1396:.\Generated_Source\PSoC5/ADC_DelSig_1.c ****             ADC_DelSig_1_DEC_DR1_REG     = ADC_DelSig_1_CFG3_DEC_DR1;
1397:.\Generated_Source\PSoC5/ADC_DelSig_1.c ****             ADC_DelSig_1_DEC_OCOR_REG    = ADC_DelSig_1_CFG3_DEC_OCOR;
1398:.\Generated_Source\PSoC5/ADC_DelSig_1.c ****             ADC_DelSig_1_DEC_OCORM_REG   = ADC_DelSig_1_CFG3_DEC_OCORM;
1399:.\Generated_Source\PSoC5/ADC_DelSig_1.c ****             ADC_DelSig_1_DEC_OCORH_REG   = ADC_DelSig_1_CFG3_DEC_OCORH;
1400:.\Generated_Source\PSoC5/ADC_DelSig_1.c ****             ADC_DelSig_1_DEC_COHER_REG   = ADC_DelSig_1_CFG3_DEC_COHER;
1401:.\Generated_Source\PSoC5/ADC_DelSig_1.c **** 
1402:.\Generated_Source\PSoC5/ADC_DelSig_1.c ****             ADC_DelSig_1_DSM_CR4_REG     = ADC_DelSig_1_CFG3_DSM_CR4;
1403:.\Generated_Source\PSoC5/ADC_DelSig_1.c ****             ADC_DelSig_1_DSM_CR5_REG     = ADC_DelSig_1_CFG3_DSM_CR5;
1404:.\Generated_Source\PSoC5/ADC_DelSig_1.c ****             ADC_DelSig_1_DSM_CR6_REG     = ADC_DelSig_1_CFG3_DSM_CR6;
1405:.\Generated_Source\PSoC5/ADC_DelSig_1.c ****             ADC_DelSig_1_DSM_CR7_REG     = ADC_DelSig_1_CFG3_DSM_CR7;
1406:.\Generated_Source\PSoC5/ADC_DelSig_1.c ****             ADC_DelSig_1_DSM_CR10_REG    = ADC_DelSig_1_CFG3_DSM_CR10;
ARM GAS  C:\Users\Brian\AppData\Local\Temp\cclOhuzj.s 			page 59


1407:.\Generated_Source\PSoC5/ADC_DelSig_1.c ****             ADC_DelSig_1_DSM_CR11_REG    = ADC_DelSig_1_CFG3_DSM_CR11;
1408:.\Generated_Source\PSoC5/ADC_DelSig_1.c ****             ADC_DelSig_1_DSM_CR12_REG    = ADC_DelSig_1_CFG3_DSM_CR12;
1409:.\Generated_Source\PSoC5/ADC_DelSig_1.c ****             ADC_DelSig_1_DSM_CR14_REG    = ADC_DelSig_1_CFG3_DSM_CR14;
1410:.\Generated_Source\PSoC5/ADC_DelSig_1.c ****             ADC_DelSig_1_DSM_CR15_REG    = ADC_DelSig_1_CFG3_DSM_CR15;
1411:.\Generated_Source\PSoC5/ADC_DelSig_1.c ****             ADC_DelSig_1_DSM_CR16_REG    = ADC_DelSig_1_CFG3_DSM_CR16;
1412:.\Generated_Source\PSoC5/ADC_DelSig_1.c ****             ADC_DelSig_1_DSM_CR17_REG    = ADC_DelSig_1_CFG3_DSM_CR17;
1413:.\Generated_Source\PSoC5/ADC_DelSig_1.c ****             /* Set DSM_REF0_REG by disabling and enabling the PRESS circuit */
1414:.\Generated_Source\PSoC5/ADC_DelSig_1.c ****             ADC_DelSig_1_SetDSMRef0Reg(ADC_DelSig_1_CFG3_DSM_REF0);
1415:.\Generated_Source\PSoC5/ADC_DelSig_1.c ****             ADC_DelSig_1_DSM_REF2_REG    = ADC_DelSig_1_CFG3_DSM_REF2;
1416:.\Generated_Source\PSoC5/ADC_DelSig_1.c ****             ADC_DelSig_1_DSM_REF3_REG    = ADC_DelSig_1_CFG3_DSM_REF3;
1417:.\Generated_Source\PSoC5/ADC_DelSig_1.c **** 
1418:.\Generated_Source\PSoC5/ADC_DelSig_1.c ****             ADC_DelSig_1_DSM_BUF0_REG    = ADC_DelSig_1_CFG3_DSM_BUF0;
1419:.\Generated_Source\PSoC5/ADC_DelSig_1.c ****             ADC_DelSig_1_DSM_BUF1_REG    = ADC_DelSig_1_CFG3_DSM_BUF1;
1420:.\Generated_Source\PSoC5/ADC_DelSig_1.c ****             ADC_DelSig_1_DSM_BUF2_REG    = ADC_DelSig_1_CFG3_DSM_BUF2;
1421:.\Generated_Source\PSoC5/ADC_DelSig_1.c ****             ADC_DelSig_1_DSM_BUF3_REG    = ADC_DelSig_1_CFG3_DSM_BUF3;
1422:.\Generated_Source\PSoC5/ADC_DelSig_1.c **** 
1423:.\Generated_Source\PSoC5/ADC_DelSig_1.c ****             /* To select either Vssa or Vref to -ve input of DSM depending on
1424:.\Generated_Source\PSoC5/ADC_DelSig_1.c ****             *  the input range selected.
1425:.\Generated_Source\PSoC5/ADC_DelSig_1.c ****             */
1426:.\Generated_Source\PSoC5/ADC_DelSig_1.c ****             #if(ADC_DelSig_1_DEFAULT_INPUT_MODE)
1427:.\Generated_Source\PSoC5/ADC_DelSig_1.c ****                 #if (ADC_DelSig_1_CFG3_INPUT_RANGE == ADC_DelSig_1_IR_VSSA_TO_2VREF)
1428:.\Generated_Source\PSoC5/ADC_DelSig_1.c ****                     ADC_DelSig_1_AMux_Select(1u);
1429:.\Generated_Source\PSoC5/ADC_DelSig_1.c ****                 #else
1430:.\Generated_Source\PSoC5/ADC_DelSig_1.c ****                     ADC_DelSig_1_AMux_Select(0u);
1431:.\Generated_Source\PSoC5/ADC_DelSig_1.c ****                 #endif /* ADC_DelSig_1_IR_VSSA_TO_2VREF) */
1432:.\Generated_Source\PSoC5/ADC_DelSig_1.c ****             #endif /* ADC_DelSig_1_DEFAULT_INPUT_MODE */
1433:.\Generated_Source\PSoC5/ADC_DelSig_1.c **** 
1434:.\Generated_Source\PSoC5/ADC_DelSig_1.c ****             /* Set the Conversion stop if resolution is above 16 bit and
1435:.\Generated_Source\PSoC5/ADC_DelSig_1.c ****                conversion  mode is Single sample */
1436:.\Generated_Source\PSoC5/ADC_DelSig_1.c ****             #if(ADC_DelSig_1_CFG3_RESOLUTION > 16 && \
1437:.\Generated_Source\PSoC5/ADC_DelSig_1.c ****                 ADC_DelSig_1_CFG3_CONV_MODE == ADC_DelSig_1_MODE_SINGLE_SAMPLE)
1438:.\Generated_Source\PSoC5/ADC_DelSig_1.c ****                 ADC_DelSig_1_stopConversion = 1u;
1439:.\Generated_Source\PSoC5/ADC_DelSig_1.c ****             #endif /* Single sample with resolution above 16 bits */
1440:.\Generated_Source\PSoC5/ADC_DelSig_1.c **** 
1441:.\Generated_Source\PSoC5/ADC_DelSig_1.c ****             ADC_DelSig_1_CountsPerVolt = (int32)ADC_DelSig_1_CFG3_COUNTS_PER_VOLT;
1442:.\Generated_Source\PSoC5/ADC_DelSig_1.c **** 
1443:.\Generated_Source\PSoC5/ADC_DelSig_1.c ****             ADC_DelSig_1_Ext_CP_Clk_SetDividerRegister(ADC_DelSig_1_CFG3_CP_CLK_DIVIDER, 1u);
1444:.\Generated_Source\PSoC5/ADC_DelSig_1.c **** 
1445:.\Generated_Source\PSoC5/ADC_DelSig_1.c ****             /* This is only valid if there is an internal clock */
1446:.\Generated_Source\PSoC5/ADC_DelSig_1.c ****             #if(ADC_DelSig_1_DEFAULT_INTERNAL_CLK)
1447:.\Generated_Source\PSoC5/ADC_DelSig_1.c ****                 ADC_DelSig_1_theACLK_SetDividerRegister(ADC_DelSig_1_CFG3_ADC_CLK_DIVIDER, 1u);
1448:.\Generated_Source\PSoC5/ADC_DelSig_1.c ****             #endif /* ADC_DelSig_1_DEFAULT_INTERNAL_CLK */
1449:.\Generated_Source\PSoC5/ADC_DelSig_1.c **** 
1450:.\Generated_Source\PSoC5/ADC_DelSig_1.c ****             #if(ADC_DelSig_1_IRQ_REMOVE == 0u)
1451:.\Generated_Source\PSoC5/ADC_DelSig_1.c ****                 /* Set interrupt vector */
1452:.\Generated_Source\PSoC5/ADC_DelSig_1.c ****                 (void)CyIntSetVector(ADC_DelSig_1_INTC_NUMBER, &ADC_DelSig_1_ISR3);
1453:.\Generated_Source\PSoC5/ADC_DelSig_1.c ****             #endif   /* End ADC_DelSig_1_IRQ_REMOVE */
1454:.\Generated_Source\PSoC5/ADC_DelSig_1.c ****         }
1455:.\Generated_Source\PSoC5/ADC_DelSig_1.c ****     #endif /* ADC_DelSig_1_DEFAULT_NUM_CONFIGS > 2 */
1456:.\Generated_Source\PSoC5/ADC_DelSig_1.c **** 
1457:.\Generated_Source\PSoC5/ADC_DelSig_1.c ****     #if(ADC_DelSig_1_DEFAULT_NUM_CONFIGS > 3)
1458:.\Generated_Source\PSoC5/ADC_DelSig_1.c ****         if (config == 4u)
1459:.\Generated_Source\PSoC5/ADC_DelSig_1.c ****         {
1460:.\Generated_Source\PSoC5/ADC_DelSig_1.c ****             /* Fourth Config */
1461:.\Generated_Source\PSoC5/ADC_DelSig_1.c ****             ADC_DelSig_1_DEC_CR_REG      = ADC_DelSig_1_CFG4_DEC_CR;
1462:.\Generated_Source\PSoC5/ADC_DelSig_1.c ****             ADC_DelSig_1_DEC_SHIFT1_REG  = ADC_DelSig_1_CFG4_DEC_SHIFT1;
1463:.\Generated_Source\PSoC5/ADC_DelSig_1.c ****             ADC_DelSig_1_DEC_SHIFT2_REG  = ADC_DelSig_1_CFG4_DEC_SHIFT2;
ARM GAS  C:\Users\Brian\AppData\Local\Temp\cclOhuzj.s 			page 60


1464:.\Generated_Source\PSoC5/ADC_DelSig_1.c ****             ADC_DelSig_1_DEC_DR2_REG     = ADC_DelSig_1_CFG4_DEC_DR2;
1465:.\Generated_Source\PSoC5/ADC_DelSig_1.c ****             ADC_DelSig_1_DEC_DR2H_REG    = ADC_DelSig_1_CFG4_DEC_DR2H;
1466:.\Generated_Source\PSoC5/ADC_DelSig_1.c ****             ADC_DelSig_1_DEC_DR1_REG     = ADC_DelSig_1_CFG4_DEC_DR1;
1467:.\Generated_Source\PSoC5/ADC_DelSig_1.c ****             ADC_DelSig_1_DEC_OCOR_REG    = ADC_DelSig_1_CFG4_DEC_OCOR;
1468:.\Generated_Source\PSoC5/ADC_DelSig_1.c ****             ADC_DelSig_1_DEC_OCORM_REG   = ADC_DelSig_1_CFG4_DEC_OCORM;
1469:.\Generated_Source\PSoC5/ADC_DelSig_1.c ****             ADC_DelSig_1_DEC_OCORH_REG   = ADC_DelSig_1_CFG4_DEC_OCORH;
1470:.\Generated_Source\PSoC5/ADC_DelSig_1.c ****             ADC_DelSig_1_DEC_COHER_REG   = ADC_DelSig_1_CFG4_DEC_COHER;
1471:.\Generated_Source\PSoC5/ADC_DelSig_1.c **** 
1472:.\Generated_Source\PSoC5/ADC_DelSig_1.c ****             ADC_DelSig_1_DSM_CR4_REG     = ADC_DelSig_1_CFG4_DSM_CR4;
1473:.\Generated_Source\PSoC5/ADC_DelSig_1.c ****             ADC_DelSig_1_DSM_CR5_REG     = ADC_DelSig_1_CFG4_DSM_CR5;
1474:.\Generated_Source\PSoC5/ADC_DelSig_1.c ****             ADC_DelSig_1_DSM_CR6_REG     = ADC_DelSig_1_CFG4_DSM_CR6;
1475:.\Generated_Source\PSoC5/ADC_DelSig_1.c ****             ADC_DelSig_1_DSM_CR7_REG     = ADC_DelSig_1_CFG4_DSM_CR7;
1476:.\Generated_Source\PSoC5/ADC_DelSig_1.c ****             ADC_DelSig_1_DSM_CR10_REG    = ADC_DelSig_1_CFG4_DSM_CR10;
1477:.\Generated_Source\PSoC5/ADC_DelSig_1.c ****             ADC_DelSig_1_DSM_CR11_REG    = ADC_DelSig_1_CFG4_DSM_CR11;
1478:.\Generated_Source\PSoC5/ADC_DelSig_1.c ****             ADC_DelSig_1_DSM_CR12_REG    = ADC_DelSig_1_CFG4_DSM_CR12;
1479:.\Generated_Source\PSoC5/ADC_DelSig_1.c ****             ADC_DelSig_1_DSM_CR14_REG    = ADC_DelSig_1_CFG4_DSM_CR14;
1480:.\Generated_Source\PSoC5/ADC_DelSig_1.c ****             ADC_DelSig_1_DSM_CR15_REG    = ADC_DelSig_1_CFG4_DSM_CR15;
1481:.\Generated_Source\PSoC5/ADC_DelSig_1.c ****             ADC_DelSig_1_DSM_CR16_REG    = ADC_DelSig_1_CFG4_DSM_CR16;
1482:.\Generated_Source\PSoC5/ADC_DelSig_1.c ****             ADC_DelSig_1_DSM_CR17_REG    = ADC_DelSig_1_CFG4_DSM_CR17;
1483:.\Generated_Source\PSoC5/ADC_DelSig_1.c ****             /* Set DSM_REF0_REG by disabling and enabling the PRESS circuit */
1484:.\Generated_Source\PSoC5/ADC_DelSig_1.c ****             ADC_DelSig_1_SetDSMRef0Reg(ADC_DelSig_1_CFG4_DSM_REF0);
1485:.\Generated_Source\PSoC5/ADC_DelSig_1.c ****             ADC_DelSig_1_DSM_REF2_REG    = ADC_DelSig_1_CFG4_DSM_REF2;
1486:.\Generated_Source\PSoC5/ADC_DelSig_1.c ****             ADC_DelSig_1_DSM_REF3_REG    = ADC_DelSig_1_CFG4_DSM_REF3;
1487:.\Generated_Source\PSoC5/ADC_DelSig_1.c **** 
1488:.\Generated_Source\PSoC5/ADC_DelSig_1.c ****             ADC_DelSig_1_DSM_BUF0_REG    = ADC_DelSig_1_CFG4_DSM_BUF0;
1489:.\Generated_Source\PSoC5/ADC_DelSig_1.c ****             ADC_DelSig_1_DSM_BUF1_REG    = ADC_DelSig_1_CFG4_DSM_BUF1;
1490:.\Generated_Source\PSoC5/ADC_DelSig_1.c ****             ADC_DelSig_1_DSM_BUF2_REG    = ADC_DelSig_1_CFG4_DSM_BUF2;
1491:.\Generated_Source\PSoC5/ADC_DelSig_1.c ****             ADC_DelSig_1_DSM_BUF3_REG    = ADC_DelSig_1_CFG4_DSM_BUF3;
1492:.\Generated_Source\PSoC5/ADC_DelSig_1.c **** 
1493:.\Generated_Source\PSoC5/ADC_DelSig_1.c ****             /* To select either Vssa or Vref to -ve input of DSM depending on
1494:.\Generated_Source\PSoC5/ADC_DelSig_1.c ****             *  the input range selected.
1495:.\Generated_Source\PSoC5/ADC_DelSig_1.c ****             */
1496:.\Generated_Source\PSoC5/ADC_DelSig_1.c ****             #if(ADC_DelSig_1_DEFAULT_INPUT_MODE)
1497:.\Generated_Source\PSoC5/ADC_DelSig_1.c ****                 #if (ADC_DelSig_1_CFG4_INPUT_RANGE == ADC_DelSig_1_IR_VSSA_TO_2VREF)
1498:.\Generated_Source\PSoC5/ADC_DelSig_1.c ****                     ADC_DelSig_1_AMux_Select(1u);
1499:.\Generated_Source\PSoC5/ADC_DelSig_1.c ****                 #else
1500:.\Generated_Source\PSoC5/ADC_DelSig_1.c ****                     ADC_DelSig_1_AMux_Select(0u);
1501:.\Generated_Source\PSoC5/ADC_DelSig_1.c ****                 #endif /* ADC_DelSig_1_IR_VSSA_TO_2VREF) */
1502:.\Generated_Source\PSoC5/ADC_DelSig_1.c ****             #endif /* ADC_DelSig_1_DEFAULT_INPUT_MODE */
1503:.\Generated_Source\PSoC5/ADC_DelSig_1.c **** 
1504:.\Generated_Source\PSoC5/ADC_DelSig_1.c ****             /* Set the Conversion stop if resolution is above 16 bit and
1505:.\Generated_Source\PSoC5/ADC_DelSig_1.c ****                conversion mode is Single sample */
1506:.\Generated_Source\PSoC5/ADC_DelSig_1.c ****             #if(ADC_DelSig_1_CFG4_RESOLUTION > 16 && \
1507:.\Generated_Source\PSoC5/ADC_DelSig_1.c ****                 ADC_DelSig_1_CFG4_CONV_MODE == ADC_DelSig_1_MODE_SINGLE_SAMPLE)
1508:.\Generated_Source\PSoC5/ADC_DelSig_1.c ****                 ADC_DelSig_1_stopConversion = 1u;
1509:.\Generated_Source\PSoC5/ADC_DelSig_1.c ****             #endif /* Single sample with resolution above 16 bits */
1510:.\Generated_Source\PSoC5/ADC_DelSig_1.c **** 
1511:.\Generated_Source\PSoC5/ADC_DelSig_1.c ****             ADC_DelSig_1_CountsPerVolt = (int32)ADC_DelSig_1_CFG4_COUNTS_PER_VOLT;
1512:.\Generated_Source\PSoC5/ADC_DelSig_1.c **** 
1513:.\Generated_Source\PSoC5/ADC_DelSig_1.c ****             ADC_DelSig_1_Ext_CP_Clk_SetDividerRegister(ADC_DelSig_1_CFG4_CP_CLK_DIVIDER, 1u);
1514:.\Generated_Source\PSoC5/ADC_DelSig_1.c **** 
1515:.\Generated_Source\PSoC5/ADC_DelSig_1.c ****             /* This is only valid if there is an internal clock */
1516:.\Generated_Source\PSoC5/ADC_DelSig_1.c ****             #if(ADC_DelSig_1_DEFAULT_INTERNAL_CLK)
1517:.\Generated_Source\PSoC5/ADC_DelSig_1.c ****                 ADC_DelSig_1_theACLK_SetDividerRegister(ADC_DelSig_1_CFG4_ADC_CLK_DIVIDER, 1u);
1518:.\Generated_Source\PSoC5/ADC_DelSig_1.c ****             #endif /* ADC_DelSig_1_DEFAULT_INTERNAL_CLK */
1519:.\Generated_Source\PSoC5/ADC_DelSig_1.c **** 
1520:.\Generated_Source\PSoC5/ADC_DelSig_1.c ****             #if(ADC_DelSig_1_IRQ_REMOVE == 0u)
ARM GAS  C:\Users\Brian\AppData\Local\Temp\cclOhuzj.s 			page 61


1521:.\Generated_Source\PSoC5/ADC_DelSig_1.c ****                 /* Set interrupt vector */
1522:.\Generated_Source\PSoC5/ADC_DelSig_1.c ****                 (void)CyIntSetVector(ADC_DelSig_1_INTC_NUMBER, &ADC_DelSig_1_ISR4);
1523:.\Generated_Source\PSoC5/ADC_DelSig_1.c ****             #endif   /* End ADC_DelSig_1_IRQ_REMOVE */
1524:.\Generated_Source\PSoC5/ADC_DelSig_1.c ****         }
1525:.\Generated_Source\PSoC5/ADC_DelSig_1.c ****     #endif /* ADC_DelSig_1_DEFAULT_NUM_CONFIGS > 3 */
1526:.\Generated_Source\PSoC5/ADC_DelSig_1.c **** }
 1901              		.loc 1 1526 0
 1902 01e0 07F10807 		add	r7, r7, #8
 1903 01e4 BD46     		mov	sp, r7
 1904 01e6 80BD     		pop	{r7, pc}
 1905              		.cfi_endproc
 1906              	.LFE19:
 1907              		.size	ADC_DelSig_1_InitConfig, .-ADC_DelSig_1_InitConfig
 1908              		.section	.text.ADC_DelSig_1_SelectConfiguration,"ax",%progbits
 1909              		.align	2
 1910              		.global	ADC_DelSig_1_SelectConfiguration
 1911              		.thumb
 1912              		.thumb_func
 1913              		.type	ADC_DelSig_1_SelectConfiguration, %function
 1914              	ADC_DelSig_1_SelectConfiguration:
 1915              	.LFB20:
1527:.\Generated_Source\PSoC5/ADC_DelSig_1.c **** 
1528:.\Generated_Source\PSoC5/ADC_DelSig_1.c **** 
1529:.\Generated_Source\PSoC5/ADC_DelSig_1.c **** /*******************************************************************************
1530:.\Generated_Source\PSoC5/ADC_DelSig_1.c **** * Function Name: ADC_DelSig_1_SelectCofiguration
1531:.\Generated_Source\PSoC5/ADC_DelSig_1.c **** ********************************************************************************
1532:.\Generated_Source\PSoC5/ADC_DelSig_1.c **** *
1533:.\Generated_Source\PSoC5/ADC_DelSig_1.c **** * Summary:
1534:.\Generated_Source\PSoC5/ADC_DelSig_1.c **** *  Sets one of up to four ADC configurations. Before setting the new
1535:.\Generated_Source\PSoC5/ADC_DelSig_1.c **** *  configuration, the ADC is stopped and powered down. After setting
1536:.\Generated_Source\PSoC5/ADC_DelSig_1.c **** *  the new configuration, the ADC can be powered and conversion
1537:.\Generated_Source\PSoC5/ADC_DelSig_1.c **** *  can be restarted depending up on the value of second parameter
1538:.\Generated_Source\PSoC5/ADC_DelSig_1.c **** *  restart. If the value of this parameter is 1, then ADC will be
1539:.\Generated_Source\PSoC5/ADC_DelSig_1.c **** *  restarted. If this value is zero, then user must call ADC_DelSig_1_Start
1540:.\Generated_Source\PSoC5/ADC_DelSig_1.c **** *  and ADC_DelSig_1_StartConvert() to restart the conversion.
1541:.\Generated_Source\PSoC5/ADC_DelSig_1.c **** *
1542:.\Generated_Source\PSoC5/ADC_DelSig_1.c **** * Parameters:
1543:.\Generated_Source\PSoC5/ADC_DelSig_1.c **** *  config:  configuration user wants to select.
1544:.\Generated_Source\PSoC5/ADC_DelSig_1.c **** *           Valid range: 1..4
1545:.\Generated_Source\PSoC5/ADC_DelSig_1.c **** *  restart:  Restart option. 1 means start the ADC and restart the conversion.
1546:.\Generated_Source\PSoC5/ADC_DelSig_1.c **** *                            0 means do not start the ADC and conversion.
1547:.\Generated_Source\PSoC5/ADC_DelSig_1.c **** *
1548:.\Generated_Source\PSoC5/ADC_DelSig_1.c **** * Return:
1549:.\Generated_Source\PSoC5/ADC_DelSig_1.c **** *  None
1550:.\Generated_Source\PSoC5/ADC_DelSig_1.c **** *
1551:.\Generated_Source\PSoC5/ADC_DelSig_1.c **** *******************************************************************************/
1552:.\Generated_Source\PSoC5/ADC_DelSig_1.c **** void ADC_DelSig_1_SelectConfiguration(uint8 config, uint8 restart)
1553:.\Generated_Source\PSoC5/ADC_DelSig_1.c ****                                               
1554:.\Generated_Source\PSoC5/ADC_DelSig_1.c **** {
 1916              		.loc 1 1554 0
 1917              		.cfi_startproc
 1918              		@ args = 0, pretend = 0, frame = 8
 1919              		@ frame_needed = 1, uses_anonymous_args = 0
 1920 0000 80B5     		push	{r7, lr}
 1921              	.LCFI57:
 1922              		.cfi_def_cfa_offset 8
 1923              		.cfi_offset 7, -8
ARM GAS  C:\Users\Brian\AppData\Local\Temp\cclOhuzj.s 			page 62


 1924              		.cfi_offset 14, -4
 1925 0002 82B0     		sub	sp, sp, #8
 1926              	.LCFI58:
 1927              		.cfi_def_cfa_offset 16
 1928 0004 00AF     		add	r7, sp, #0
 1929              	.LCFI59:
 1930              		.cfi_def_cfa_register 7
 1931 0006 0246     		mov	r2, r0
 1932 0008 0B46     		mov	r3, r1
 1933 000a FA71     		strb	r2, [r7, #7]
 1934 000c BB71     		strb	r3, [r7, #6]
1555:.\Generated_Source\PSoC5/ADC_DelSig_1.c ****     /* Check whether the configuration number is valid or not */
1556:.\Generated_Source\PSoC5/ADC_DelSig_1.c ****     if((config > 0u) && (config <= ADC_DelSig_1_DEFAULT_NUM_CONFIGS))
 1935              		.loc 1 1556 0
 1936 000e FB79     		ldrb	r3, [r7, #7]	@ zero_extendqisi2
 1937 0010 002B     		cmp	r3, #0
 1938 0012 42D0     		beq	.L64
 1939              		.loc 1 1556 0 is_stmt 0 discriminator 1
 1940 0014 FB79     		ldrb	r3, [r7, #7]	@ zero_extendqisi2
 1941 0016 012B     		cmp	r3, #1
 1942 0018 3FD8     		bhi	.L64
1557:.\Generated_Source\PSoC5/ADC_DelSig_1.c ****     {
1558:.\Generated_Source\PSoC5/ADC_DelSig_1.c ****         /* Set the flag to ensure Start() API doesn't override the 
1559:.\Generated_Source\PSoC5/ADC_DelSig_1.c **** 		*  selected configuration
1560:.\Generated_Source\PSoC5/ADC_DelSig_1.c **** 		*/
1561:.\Generated_Source\PSoC5/ADC_DelSig_1.c ****         if(ADC_DelSig_1_initVar == 0u)
 1943              		.loc 1 1561 0 is_stmt 1
 1944 001a 40F20003 		movw	r3, #:lower16:ADC_DelSig_1_initVar
 1945 001e C0F20003 		movt	r3, #:upper16:ADC_DelSig_1_initVar
 1946 0022 1B78     		ldrb	r3, [r3, #0]	@ zero_extendqisi2
 1947 0024 002B     		cmp	r3, #0
 1948 0026 06D1     		bne	.L65
1562:.\Generated_Source\PSoC5/ADC_DelSig_1.c ****         {
1563:.\Generated_Source\PSoC5/ADC_DelSig_1.c ****             ADC_DelSig_1_started = 1u;
 1949              		.loc 1 1563 0
 1950 0028 40F20003 		movw	r3, #:lower16:ADC_DelSig_1_started
 1951 002c C0F20003 		movt	r3, #:upper16:ADC_DelSig_1_started
 1952 0030 4FF00102 		mov	r2, #1
 1953 0034 1A70     		strb	r2, [r3, #0]
 1954              	.L65:
1564:.\Generated_Source\PSoC5/ADC_DelSig_1.c ****         }
1565:.\Generated_Source\PSoC5/ADC_DelSig_1.c **** 
1566:.\Generated_Source\PSoC5/ADC_DelSig_1.c ****         /* Update the config flag */
1567:.\Generated_Source\PSoC5/ADC_DelSig_1.c ****         ADC_DelSig_1_Config = config;
 1955              		.loc 1 1567 0
 1956 0036 40F20003 		movw	r3, #:lower16:ADC_DelSig_1_Config
 1957 003a C0F20003 		movt	r3, #:upper16:ADC_DelSig_1_Config
 1958 003e FA79     		ldrb	r2, [r7, #7]
 1959 0040 1A70     		strb	r2, [r3, #0]
1568:.\Generated_Source\PSoC5/ADC_DelSig_1.c **** 
1569:.\Generated_Source\PSoC5/ADC_DelSig_1.c ****         /* Stop the ADC  */
1570:.\Generated_Source\PSoC5/ADC_DelSig_1.c ****         ADC_DelSig_1_Stop();
 1960              		.loc 1 1570 0
 1961 0042 FFF7FEFF 		bl	ADC_DelSig_1_Stop
1571:.\Generated_Source\PSoC5/ADC_DelSig_1.c **** 
1572:.\Generated_Source\PSoC5/ADC_DelSig_1.c ****         /* Set the  ADC registers based on the configuration */
1573:.\Generated_Source\PSoC5/ADC_DelSig_1.c ****         ADC_DelSig_1_InitConfig(config);
ARM GAS  C:\Users\Brian\AppData\Local\Temp\cclOhuzj.s 			page 63


 1962              		.loc 1 1573 0
 1963 0046 FB79     		ldrb	r3, [r7, #7]	@ zero_extendqisi2
 1964 0048 1846     		mov	r0, r3
 1965 004a FFF7FEFF 		bl	ADC_DelSig_1_InitConfig
1574:.\Generated_Source\PSoC5/ADC_DelSig_1.c **** 
1575:.\Generated_Source\PSoC5/ADC_DelSig_1.c ****         /* Compensate the gain */
1576:.\Generated_Source\PSoC5/ADC_DelSig_1.c ****         ADC_DelSig_1_DEC_GVAL_REG = ADC_DelSig_1_gcor[config - 1u].gval;
 1966              		.loc 1 1576 0
 1967 004e 44F60E63 		movw	r3, #19982
 1968 0052 C4F20003 		movt	r3, 16384
 1969 0056 FA79     		ldrb	r2, [r7, #7]	@ zero_extendqisi2
 1970 0058 02F1FF32 		add	r2, r2, #-1
 1971 005c 40F20001 		movw	r1, #:lower16:ADC_DelSig_1_gcor
 1972 0060 C0F20001 		movt	r1, #:upper16:ADC_DelSig_1_gcor
 1973 0064 4FEA8202 		lsl	r2, r2, #2
 1974 0068 8A18     		adds	r2, r1, r2
 1975 006a 9278     		ldrb	r2, [r2, #2]	@ zero_extendqisi2
 1976 006c 1A70     		strb	r2, [r3, #0]
1577:.\Generated_Source\PSoC5/ADC_DelSig_1.c ****         CY_SET_REG16(ADC_DelSig_1_DEC_GCOR_16B_PTR, ADC_DelSig_1_gcor[config - 1u].gcor);
 1977              		.loc 1 1577 0
 1978 006e 44F60C63 		movw	r3, #19980
 1979 0072 C4F20003 		movt	r3, 16384
 1980 0076 FA79     		ldrb	r2, [r7, #7]	@ zero_extendqisi2
 1981 0078 02F1FF31 		add	r1, r2, #-1
 1982 007c 40F20002 		movw	r2, #:lower16:ADC_DelSig_1_gcor
 1983 0080 C0F20002 		movt	r2, #:upper16:ADC_DelSig_1_gcor
 1984 0084 32F82120 		ldrh	r2, [r2, r1, lsl #2]
 1985 0088 1A80     		strh	r2, [r3, #0]	@ movhi
1578:.\Generated_Source\PSoC5/ADC_DelSig_1.c **** 
1579:.\Generated_Source\PSoC5/ADC_DelSig_1.c ****         if(restart == 1u)
 1986              		.loc 1 1579 0
 1987 008a BB79     		ldrb	r3, [r7, #6]	@ zero_extendqisi2
 1988 008c 012B     		cmp	r3, #1
 1989 008e 08D1     		bne	.L63
1580:.\Generated_Source\PSoC5/ADC_DelSig_1.c ****         {
1581:.\Generated_Source\PSoC5/ADC_DelSig_1.c ****             /* Restart the ADC */
1582:.\Generated_Source\PSoC5/ADC_DelSig_1.c ****             ADC_DelSig_1_Start();
 1990              		.loc 1 1582 0
 1991 0090 FFF7FEFF 		bl	ADC_DelSig_1_Start
1583:.\Generated_Source\PSoC5/ADC_DelSig_1.c **** 
1584:.\Generated_Source\PSoC5/ADC_DelSig_1.c ****             /* Restart the ADC conversion */
1585:.\Generated_Source\PSoC5/ADC_DelSig_1.c ****             ADC_DelSig_1_StartConvert();
 1992              		.loc 1 1585 0
 1993 0094 FFF7FEFF 		bl	ADC_DelSig_1_StartConvert
1579:.\Generated_Source\PSoC5/ADC_DelSig_1.c ****         if(restart == 1u)
 1994              		.loc 1 1579 0
 1995 0098 03E0     		b	.L63
 1996              	.L64:
1586:.\Generated_Source\PSoC5/ADC_DelSig_1.c ****         }
1587:.\Generated_Source\PSoC5/ADC_DelSig_1.c ****     }
1588:.\Generated_Source\PSoC5/ADC_DelSig_1.c ****     else
1589:.\Generated_Source\PSoC5/ADC_DelSig_1.c ****     {
1590:.\Generated_Source\PSoC5/ADC_DelSig_1.c ****         /* Halt CPU in debug mode if config is out of valid range */
1591:.\Generated_Source\PSoC5/ADC_DelSig_1.c ****         CYASSERT(0u != 0u);
 1997              		.loc 1 1591 0 discriminator 1
 1998 009a 4FF00000 		mov	r0, #0
 1999 009e FFF7FEFF 		bl	CyHalt
ARM GAS  C:\Users\Brian\AppData\Local\Temp\cclOhuzj.s 			page 64


 2000              	.L63:
1592:.\Generated_Source\PSoC5/ADC_DelSig_1.c ****     }
1593:.\Generated_Source\PSoC5/ADC_DelSig_1.c **** }
 2001              		.loc 1 1593 0
 2002 00a2 07F10807 		add	r7, r7, #8
 2003 00a6 BD46     		mov	sp, r7
 2004 00a8 80BD     		pop	{r7, pc}
 2005              		.cfi_endproc
 2006              	.LFE20:
 2007              		.size	ADC_DelSig_1_SelectConfiguration, .-ADC_DelSig_1_SelectConfiguration
 2008 00aa 00BF     		.section	.text.ADC_DelSig_1_GainCompensation,"ax",%progbits
 2009              		.align	2
 2010              		.thumb
 2011              		.thumb_func
 2012              		.type	ADC_DelSig_1_GainCompensation, %function
 2013              	ADC_DelSig_1_GainCompensation:
 2014              	.LFB21:
1594:.\Generated_Source\PSoC5/ADC_DelSig_1.c **** 
1595:.\Generated_Source\PSoC5/ADC_DelSig_1.c **** 
1596:.\Generated_Source\PSoC5/ADC_DelSig_1.c **** /*******************************************************************************
1597:.\Generated_Source\PSoC5/ADC_DelSig_1.c **** * Function Name: ADC_DelSig_1_GainCompensation
1598:.\Generated_Source\PSoC5/ADC_DelSig_1.c **** ********************************************************************************
1599:.\Generated_Source\PSoC5/ADC_DelSig_1.c **** *
1600:.\Generated_Source\PSoC5/ADC_DelSig_1.c **** * Summary:
1601:.\Generated_Source\PSoC5/ADC_DelSig_1.c **** *  This API calculates the trim value and then store this to gcor structure.
1602:.\Generated_Source\PSoC5/ADC_DelSig_1.c **** *
1603:.\Generated_Source\PSoC5/ADC_DelSig_1.c **** * Parameters:
1604:.\Generated_Source\PSoC5/ADC_DelSig_1.c **** *  inputRange:  input range for which trim value is to be calculated.
1605:.\Generated_Source\PSoC5/ADC_DelSig_1.c **** *  IdealDecGain:  Ideal Decimator gain for the selected resolution and
1606:.\Generated_Source\PSoC5/ADC_DelSig_1.c **** *                 conversion  mode.
1607:.\Generated_Source\PSoC5/ADC_DelSig_1.c **** *  IdealOddDecGain:  Ideal odd decimation gain for the selected resolution and
1608:.\Generated_Source\PSoC5/ADC_DelSig_1.c ****                      conversion mode.
1609:.\Generated_Source\PSoC5/ADC_DelSig_1.c **** *  resolution:  Resolution to select the proper flash location for trim value.
1610:.\Generated_Source\PSoC5/ADC_DelSig_1.c **** *  config:      Specifies the configuration number
1611:.\Generated_Source\PSoC5/ADC_DelSig_1.c **** *               Valid range: 1..4
1612:.\Generated_Source\PSoC5/ADC_DelSig_1.c **** *
1613:.\Generated_Source\PSoC5/ADC_DelSig_1.c **** * Return:
1614:.\Generated_Source\PSoC5/ADC_DelSig_1.c **** *  None
1615:.\Generated_Source\PSoC5/ADC_DelSig_1.c **** *
1616:.\Generated_Source\PSoC5/ADC_DelSig_1.c **** *******************************************************************************/
1617:.\Generated_Source\PSoC5/ADC_DelSig_1.c **** static void ADC_DelSig_1_GainCompensation(uint8 inputRange, uint16 idealDecGain, uint16 idealOddDec
1618:.\Generated_Source\PSoC5/ADC_DelSig_1.c ****                               uint8 resolution, uint8 config) 
1619:.\Generated_Source\PSoC5/ADC_DelSig_1.c **** {
 2015              		.loc 1 1619 0
 2016              		.cfi_startproc
 2017              		@ args = 4, pretend = 0, frame = 24
 2018              		@ frame_needed = 1, uses_anonymous_args = 0
 2019 0000 80B5     		push	{r7, lr}
 2020              	.LCFI60:
 2021              		.cfi_def_cfa_offset 8
 2022              		.cfi_offset 7, -8
 2023              		.cfi_offset 14, -4
 2024 0002 86B0     		sub	sp, sp, #24
 2025              	.LCFI61:
 2026              		.cfi_def_cfa_offset 32
 2027 0004 00AF     		add	r7, sp, #0
 2028              	.LCFI62:
ARM GAS  C:\Users\Brian\AppData\Local\Temp\cclOhuzj.s 			page 65


 2029              		.cfi_def_cfa_register 7
 2030 0006 F871     		strb	r0, [r7, #7]
 2031 0008 B980     		strh	r1, [r7, #4]	@ movhi
 2032 000a 7A80     		strh	r2, [r7, #2]	@ movhi
 2033 000c BB71     		strb	r3, [r7, #6]
1620:.\Generated_Source\PSoC5/ADC_DelSig_1.c ****     int8 flash;
1621:.\Generated_Source\PSoC5/ADC_DelSig_1.c **** 	int32 normalised;
1622:.\Generated_Source\PSoC5/ADC_DelSig_1.c **** 	uint16 gcorValue;
1623:.\Generated_Source\PSoC5/ADC_DelSig_1.c ****     uint32 gcorTmp;
1624:.\Generated_Source\PSoC5/ADC_DelSig_1.c **** 
1625:.\Generated_Source\PSoC5/ADC_DelSig_1.c ****     if((config > 0u) && (config <= ADC_DelSig_1_DEFAULT_NUM_CONFIGS))
 2034              		.loc 1 1625 0
 2035 000e 97F82030 		ldrb	r3, [r7, #32]	@ zero_extendqisi2
 2036 0012 002B     		cmp	r3, #0
 2037 0014 00F0BA80 		beq	.L69
 2038              		.loc 1 1625 0 is_stmt 0 discriminator 1
 2039 0018 97F82030 		ldrb	r3, [r7, #32]	@ zero_extendqisi2
 2040 001c 012B     		cmp	r3, #1
 2041 001e 00F2B580 		bhi	.L69
1626:.\Generated_Source\PSoC5/ADC_DelSig_1.c ****     {
1627:.\Generated_Source\PSoC5/ADC_DelSig_1.c ****         switch(inputRange)
 2042              		.loc 1 1627 0 is_stmt 1
 2043 0022 FB79     		ldrb	r3, [r7, #7]	@ zero_extendqisi2
 2044 0024 03F1FF33 		add	r3, r3, #-1
 2045 0028 092B     		cmp	r3, #9
 2046 002a 63D8     		bhi	.L70
 2047 002c 01A2     		adr	r2, .L75
 2048 002e 52F823F0 		ldr	pc, [r2, r3, lsl #2]
 2049 0032 00BF     		.align	2
 2050              	.L75:
 2051 0034 5D000000 		.word	.L71+1
 2052 0038 F5000000 		.word	.L70+1
 2053 003c F5000000 		.word	.L70+1
 2054 0040 5D000000 		.word	.L71+1
 2055 0044 F5000000 		.word	.L70+1
 2056 0048 F5000000 		.word	.L70+1
 2057 004c 83000000 		.word	.L72+1
 2058 0050 A9000000 		.word	.L73+1
 2059 0054 F5000000 		.word	.L70+1
 2060 0058 CF000000 		.word	.L74+1
 2061              	.L71:
1628:.\Generated_Source\PSoC5/ADC_DelSig_1.c ****         {
1629:.\Generated_Source\PSoC5/ADC_DelSig_1.c ****             case ADC_DelSig_1_IR_VNEG_VREF_DIFF:
1630:.\Generated_Source\PSoC5/ADC_DelSig_1.c ****             case ADC_DelSig_1_IR_VSSA_TO_2VREF:
1631:.\Generated_Source\PSoC5/ADC_DelSig_1.c ****                 /* Normalize the flash Value */
1632:.\Generated_Source\PSoC5/ADC_DelSig_1.c ****                 if(resolution > 15u)
 2062              		.loc 1 1632 0
 2063 005c BB79     		ldrb	r3, [r7, #6]	@ zero_extendqisi2
 2064 005e 0F2B     		cmp	r3, #15
 2065 0060 07D9     		bls	.L76
1633:.\Generated_Source\PSoC5/ADC_DelSig_1.c ****                 {
1634:.\Generated_Source\PSoC5/ADC_DelSig_1.c ****                     flash = ADC_DelSig_1_DEC_TRIM_VREF_DIFF_16_20;
 2066              		.loc 1 1634 0
 2067 0062 4FF48C73 		mov	r3, #280
 2068 0066 C4F60013 		movt	r3, 18688
 2069 006a 1B78     		ldrb	r3, [r3, #0]
 2070 006c DBB2     		uxtb	r3, r3
ARM GAS  C:\Users\Brian\AppData\Local\Temp\cclOhuzj.s 			page 66


 2071 006e FB75     		strb	r3, [r7, #23]
1635:.\Generated_Source\PSoC5/ADC_DelSig_1.c ****                 }
1636:.\Generated_Source\PSoC5/ADC_DelSig_1.c ****                 else
1637:.\Generated_Source\PSoC5/ADC_DelSig_1.c ****                 {
1638:.\Generated_Source\PSoC5/ADC_DelSig_1.c ****                     flash = ADC_DelSig_1_DEC_TRIM_VREF_DIFF_8_15;
1639:.\Generated_Source\PSoC5/ADC_DelSig_1.c ****                 }
1640:.\Generated_Source\PSoC5/ADC_DelSig_1.c ****                 break;
 2072              		.loc 1 1640 0
 2073 0070 44E0     		b	.L78
 2074              	.L76:
1638:.\Generated_Source\PSoC5/ADC_DelSig_1.c ****                     flash = ADC_DelSig_1_DEC_TRIM_VREF_DIFF_8_15;
 2075              		.loc 1 1638 0
 2076 0072 4FF48E73 		mov	r3, #284
 2077 0076 C4F60013 		movt	r3, 18688
 2078 007a 1B78     		ldrb	r3, [r3, #0]
 2079 007c DBB2     		uxtb	r3, r3
 2080 007e FB75     		strb	r3, [r7, #23]
 2081              		.loc 1 1640 0
 2082 0080 3CE0     		b	.L78
 2083              	.L72:
1641:.\Generated_Source\PSoC5/ADC_DelSig_1.c **** 
1642:.\Generated_Source\PSoC5/ADC_DelSig_1.c ****             case ADC_DelSig_1_IR_VNEG_VREF_2_DIFF:
1643:.\Generated_Source\PSoC5/ADC_DelSig_1.c ****                 /* Normalize the flash Value */
1644:.\Generated_Source\PSoC5/ADC_DelSig_1.c ****                 if(resolution > 15u)
 2084              		.loc 1 1644 0
 2085 0082 BB79     		ldrb	r3, [r7, #6]	@ zero_extendqisi2
 2086 0084 0F2B     		cmp	r3, #15
 2087 0086 07D9     		bls	.L79
1645:.\Generated_Source\PSoC5/ADC_DelSig_1.c ****                 {
1646:.\Generated_Source\PSoC5/ADC_DelSig_1.c ****                     flash = ADC_DelSig_1_DEC_TRIM_VREF_2_DIFF_16_20;
 2088              		.loc 1 1646 0
 2089 0088 40F21913 		movw	r3, #281
 2090 008c C4F60013 		movt	r3, 18688
 2091 0090 1B78     		ldrb	r3, [r3, #0]
 2092 0092 DBB2     		uxtb	r3, r3
 2093 0094 FB75     		strb	r3, [r7, #23]
1647:.\Generated_Source\PSoC5/ADC_DelSig_1.c ****                 }
1648:.\Generated_Source\PSoC5/ADC_DelSig_1.c ****                 else
1649:.\Generated_Source\PSoC5/ADC_DelSig_1.c ****                 {
1650:.\Generated_Source\PSoC5/ADC_DelSig_1.c ****                     flash = ADC_DelSig_1_DEC_TRIM_VREF_2_DIFF_8_15;
1651:.\Generated_Source\PSoC5/ADC_DelSig_1.c ****                 }
1652:.\Generated_Source\PSoC5/ADC_DelSig_1.c ****                 break;
 2094              		.loc 1 1652 0
 2095 0096 31E0     		b	.L78
 2096              	.L79:
1650:.\Generated_Source\PSoC5/ADC_DelSig_1.c ****                     flash = ADC_DelSig_1_DEC_TRIM_VREF_2_DIFF_8_15;
 2097              		.loc 1 1650 0
 2098 0098 40F21D13 		movw	r3, #285
 2099 009c C4F60013 		movt	r3, 18688
 2100 00a0 1B78     		ldrb	r3, [r3, #0]
 2101 00a2 DBB2     		uxtb	r3, r3
 2102 00a4 FB75     		strb	r3, [r7, #23]
 2103              		.loc 1 1652 0
 2104 00a6 29E0     		b	.L78
 2105              	.L73:
1653:.\Generated_Source\PSoC5/ADC_DelSig_1.c **** 
1654:.\Generated_Source\PSoC5/ADC_DelSig_1.c ****             case ADC_DelSig_1_IR_VNEG_VREF_4_DIFF:
ARM GAS  C:\Users\Brian\AppData\Local\Temp\cclOhuzj.s 			page 67


1655:.\Generated_Source\PSoC5/ADC_DelSig_1.c ****                 /* Normalize the flash Value */
1656:.\Generated_Source\PSoC5/ADC_DelSig_1.c ****                 if(resolution > 15u)
 2106              		.loc 1 1656 0
 2107 00a8 BB79     		ldrb	r3, [r7, #6]	@ zero_extendqisi2
 2108 00aa 0F2B     		cmp	r3, #15
 2109 00ac 07D9     		bls	.L81
1657:.\Generated_Source\PSoC5/ADC_DelSig_1.c ****                 {
1658:.\Generated_Source\PSoC5/ADC_DelSig_1.c ****                     flash = ADC_DelSig_1_DEC_TRIM_VREF_4_DIFF_16_20;
 2110              		.loc 1 1658 0
 2111 00ae 4FF48D73 		mov	r3, #282
 2112 00b2 C4F60013 		movt	r3, 18688
 2113 00b6 1B78     		ldrb	r3, [r3, #0]
 2114 00b8 DBB2     		uxtb	r3, r3
 2115 00ba FB75     		strb	r3, [r7, #23]
1659:.\Generated_Source\PSoC5/ADC_DelSig_1.c ****                 }
1660:.\Generated_Source\PSoC5/ADC_DelSig_1.c ****                 else
1661:.\Generated_Source\PSoC5/ADC_DelSig_1.c ****                 {
1662:.\Generated_Source\PSoC5/ADC_DelSig_1.c ****                     flash = ADC_DelSig_1_DEC_TRIM_VREF_4_DIFF_8_15;
1663:.\Generated_Source\PSoC5/ADC_DelSig_1.c ****                 }
1664:.\Generated_Source\PSoC5/ADC_DelSig_1.c ****                 break;
 2116              		.loc 1 1664 0
 2117 00bc 1EE0     		b	.L78
 2118              	.L81:
1662:.\Generated_Source\PSoC5/ADC_DelSig_1.c ****                     flash = ADC_DelSig_1_DEC_TRIM_VREF_4_DIFF_8_15;
 2119              		.loc 1 1662 0
 2120 00be 4FF48F73 		mov	r3, #286
 2121 00c2 C4F60013 		movt	r3, 18688
 2122 00c6 1B78     		ldrb	r3, [r3, #0]
 2123 00c8 DBB2     		uxtb	r3, r3
 2124 00ca FB75     		strb	r3, [r7, #23]
 2125              		.loc 1 1664 0
 2126 00cc 16E0     		b	.L78
 2127              	.L74:
1665:.\Generated_Source\PSoC5/ADC_DelSig_1.c **** 
1666:.\Generated_Source\PSoC5/ADC_DelSig_1.c ****             case ADC_DelSig_1_IR_VNEG_VREF_16_DIFF:
1667:.\Generated_Source\PSoC5/ADC_DelSig_1.c ****                 /* Normalize the flash Value */
1668:.\Generated_Source\PSoC5/ADC_DelSig_1.c ****                 if(resolution > 15u)
 2128              		.loc 1 1668 0
 2129 00ce BB79     		ldrb	r3, [r7, #6]	@ zero_extendqisi2
 2130 00d0 0F2B     		cmp	r3, #15
 2131 00d2 07D9     		bls	.L83
1669:.\Generated_Source\PSoC5/ADC_DelSig_1.c ****                 {
1670:.\Generated_Source\PSoC5/ADC_DelSig_1.c ****                     flash = ADC_DelSig_1_DEC_TRIM_VREF_16_DIFF_16_20;
 2132              		.loc 1 1670 0
 2133 00d4 40F21B13 		movw	r3, #283
 2134 00d8 C4F60013 		movt	r3, 18688
 2135 00dc 1B78     		ldrb	r3, [r3, #0]
 2136 00de DBB2     		uxtb	r3, r3
 2137 00e0 FB75     		strb	r3, [r7, #23]
1671:.\Generated_Source\PSoC5/ADC_DelSig_1.c ****                 }
1672:.\Generated_Source\PSoC5/ADC_DelSig_1.c ****                 else
1673:.\Generated_Source\PSoC5/ADC_DelSig_1.c ****                 {
1674:.\Generated_Source\PSoC5/ADC_DelSig_1.c ****                     flash = ADC_DelSig_1_DEC_TRIM_VREF_16_DIFF_8_15;
1675:.\Generated_Source\PSoC5/ADC_DelSig_1.c ****                 }
1676:.\Generated_Source\PSoC5/ADC_DelSig_1.c ****                 break;
 2138              		.loc 1 1676 0
 2139 00e2 0BE0     		b	.L78
ARM GAS  C:\Users\Brian\AppData\Local\Temp\cclOhuzj.s 			page 68


 2140              	.L83:
1674:.\Generated_Source\PSoC5/ADC_DelSig_1.c ****                     flash = ADC_DelSig_1_DEC_TRIM_VREF_16_DIFF_8_15;
 2141              		.loc 1 1674 0
 2142 00e4 40F21F13 		movw	r3, #287
 2143 00e8 C4F60013 		movt	r3, 18688
 2144 00ec 1B78     		ldrb	r3, [r3, #0]
 2145 00ee DBB2     		uxtb	r3, r3
 2146 00f0 FB75     		strb	r3, [r7, #23]
 2147              		.loc 1 1676 0
 2148 00f2 03E0     		b	.L78
 2149              	.L70:
1677:.\Generated_Source\PSoC5/ADC_DelSig_1.c **** 
1678:.\Generated_Source\PSoC5/ADC_DelSig_1.c ****             default:
1679:.\Generated_Source\PSoC5/ADC_DelSig_1.c ****                 flash = 0;
 2150              		.loc 1 1679 0
 2151 00f4 4FF00003 		mov	r3, #0
 2152 00f8 FB75     		strb	r3, [r7, #23]
1680:.\Generated_Source\PSoC5/ADC_DelSig_1.c ****                 break;
 2153              		.loc 1 1680 0
 2154 00fa 00BF     		nop
 2155              	.L78:
1681:.\Generated_Source\PSoC5/ADC_DelSig_1.c ****         }
1682:.\Generated_Source\PSoC5/ADC_DelSig_1.c **** 
1683:.\Generated_Source\PSoC5/ADC_DelSig_1.c ****         /* Add two values */
1684:.\Generated_Source\PSoC5/ADC_DelSig_1.c **** 		normalised = (int32)idealDecGain + ((int32)flash * 32);
 2156              		.loc 1 1684 0
 2157 00fc BA88     		ldrh	r2, [r7, #4]
 2158 00fe 97F91730 		ldrsb	r3, [r7, #23]
 2159 0102 4FEA4313 		lsl	r3, r3, #5
 2160 0106 D318     		adds	r3, r2, r3
 2161 0108 3B61     		str	r3, [r7, #16]
1685:.\Generated_Source\PSoC5/ADC_DelSig_1.c ****         gcorTmp = (uint32)normalised * (uint32)idealOddDecGain;
 2162              		.loc 1 1685 0
 2163 010a 7B88     		ldrh	r3, [r7, #2]
 2164 010c 3A69     		ldr	r2, [r7, #16]
 2165 010e 02FB03F3 		mul	r3, r2, r3
 2166 0112 FB60     		str	r3, [r7, #12]
1686:.\Generated_Source\PSoC5/ADC_DelSig_1.c ****         gcorValue = (uint16)(gcorTmp / ADC_DelSig_1_IDEAL_GAIN_CONST);
 2167              		.loc 1 1686 0
 2168 0114 FB68     		ldr	r3, [r7, #12]
 2169 0116 4FEAD333 		lsr	r3, r3, #15
 2170 011a BB82     		strh	r3, [r7, #20]	@ movhi
1687:.\Generated_Source\PSoC5/ADC_DelSig_1.c **** 
1688:.\Generated_Source\PSoC5/ADC_DelSig_1.c ****         if (resolution < (ADC_DelSig_1_MAX_GVAL - 1u))
 2171              		.loc 1 1688 0
 2172 011c BB79     		ldrb	r3, [r7, #6]	@ zero_extendqisi2
 2173 011e 0D2B     		cmp	r3, #13
 2174 0120 1AD8     		bhi	.L85
1689:.\Generated_Source\PSoC5/ADC_DelSig_1.c ****         {
1690:.\Generated_Source\PSoC5/ADC_DelSig_1.c ****             gcorValue = (gcorValue >> (ADC_DelSig_1_MAX_GVAL - (resolution + 1u)));
 2175              		.loc 1 1690 0
 2176 0122 BA8A     		ldrh	r2, [r7, #20]
 2177 0124 BB79     		ldrb	r3, [r7, #6]	@ zero_extendqisi2
 2178 0126 6FEA0303 		mvn	r3, r3
 2179 012a 03F10F03 		add	r3, r3, #15
 2180 012e 42FA03F3 		asr	r3, r2, r3
 2181 0132 BB82     		strh	r3, [r7, #20]	@ movhi
ARM GAS  C:\Users\Brian\AppData\Local\Temp\cclOhuzj.s 			page 69


1691:.\Generated_Source\PSoC5/ADC_DelSig_1.c ****             ADC_DelSig_1_gcor[config - 1u].gval = (resolution + 1u);
 2182              		.loc 1 1691 0
 2183 0134 97F82030 		ldrb	r3, [r7, #32]	@ zero_extendqisi2
 2184 0138 03F1FF33 		add	r3, r3, #-1
 2185 013c BA79     		ldrb	r2, [r7, #6]
 2186 013e 02F10102 		add	r2, r2, #1
 2187 0142 D1B2     		uxtb	r1, r2
 2188 0144 40F20002 		movw	r2, #:lower16:ADC_DelSig_1_gcor
 2189 0148 C0F20002 		movt	r2, #:upper16:ADC_DelSig_1_gcor
 2190 014c 4FEA8303 		lsl	r3, r3, #2
 2191 0150 D318     		adds	r3, r2, r3
 2192 0152 0A46     		mov	r2, r1
 2193 0154 9A70     		strb	r2, [r3, #2]
 2194 0156 0DE0     		b	.L86
 2195              	.L85:
1692:.\Generated_Source\PSoC5/ADC_DelSig_1.c ****         }
1693:.\Generated_Source\PSoC5/ADC_DelSig_1.c ****         else
1694:.\Generated_Source\PSoC5/ADC_DelSig_1.c ****         {
1695:.\Generated_Source\PSoC5/ADC_DelSig_1.c ****             /* Use all 16 bits */
1696:.\Generated_Source\PSoC5/ADC_DelSig_1.c ****             ADC_DelSig_1_gcor[config - 1u].gval = ADC_DelSig_1_MAX_GVAL;
 2196              		.loc 1 1696 0
 2197 0158 97F82030 		ldrb	r3, [r7, #32]	@ zero_extendqisi2
 2198 015c 03F1FF33 		add	r3, r3, #-1
 2199 0160 40F20002 		movw	r2, #:lower16:ADC_DelSig_1_gcor
 2200 0164 C0F20002 		movt	r2, #:upper16:ADC_DelSig_1_gcor
 2201 0168 4FEA8303 		lsl	r3, r3, #2
 2202 016c D318     		adds	r3, r2, r3
 2203 016e 4FF00F02 		mov	r2, #15
 2204 0172 9A70     		strb	r2, [r3, #2]
 2205              	.L86:
1697:.\Generated_Source\PSoC5/ADC_DelSig_1.c ****         }
1698:.\Generated_Source\PSoC5/ADC_DelSig_1.c **** 
1699:.\Generated_Source\PSoC5/ADC_DelSig_1.c ****         /* Save the gain correction register value */
1700:.\Generated_Source\PSoC5/ADC_DelSig_1.c ****         ADC_DelSig_1_gcor[config - 1u].gcor = gcorValue;
 2206              		.loc 1 1700 0
 2207 0174 97F82030 		ldrb	r3, [r7, #32]	@ zero_extendqisi2
 2208 0178 03F1FF32 		add	r2, r3, #-1
 2209 017c 40F20003 		movw	r3, #:lower16:ADC_DelSig_1_gcor
 2210 0180 C0F20003 		movt	r3, #:upper16:ADC_DelSig_1_gcor
 2211 0184 B98A     		ldrh	r1, [r7, #20]	@ movhi
 2212 0186 23F82210 		strh	r1, [r3, r2, lsl #2]	@ movhi
 2213 018a 03E0     		b	.L68
 2214              	.L69:
1701:.\Generated_Source\PSoC5/ADC_DelSig_1.c ****     }
1702:.\Generated_Source\PSoC5/ADC_DelSig_1.c ****     else
1703:.\Generated_Source\PSoC5/ADC_DelSig_1.c ****     {
1704:.\Generated_Source\PSoC5/ADC_DelSig_1.c ****         /* Halt CPU in debug mode if config is out of valid range */
1705:.\Generated_Source\PSoC5/ADC_DelSig_1.c ****         CYASSERT(0u != 0u);
 2215              		.loc 1 1705 0 discriminator 1
 2216 018c 4FF00000 		mov	r0, #0
 2217 0190 FFF7FEFF 		bl	CyHalt
 2218              	.L68:
1706:.\Generated_Source\PSoC5/ADC_DelSig_1.c ****     }
1707:.\Generated_Source\PSoC5/ADC_DelSig_1.c **** }
 2219              		.loc 1 1707 0
 2220 0194 07F11807 		add	r7, r7, #24
 2221 0198 BD46     		mov	sp, r7
ARM GAS  C:\Users\Brian\AppData\Local\Temp\cclOhuzj.s 			page 70


 2222 019a 80BD     		pop	{r7, pc}
 2223              		.cfi_endproc
 2224              	.LFE21:
 2225              		.size	ADC_DelSig_1_GainCompensation, .-ADC_DelSig_1_GainCompensation
 2226              		.section	.text.ADC_DelSig_1_SetDSMRef0Reg,"ax",%progbits
 2227              		.align	2
 2228              		.thumb
 2229              		.thumb_func
 2230              		.type	ADC_DelSig_1_SetDSMRef0Reg, %function
 2231              	ADC_DelSig_1_SetDSMRef0Reg:
 2232              	.LFB22:
1708:.\Generated_Source\PSoC5/ADC_DelSig_1.c **** 
1709:.\Generated_Source\PSoC5/ADC_DelSig_1.c **** 
1710:.\Generated_Source\PSoC5/ADC_DelSig_1.c **** /******************************************************************************
1711:.\Generated_Source\PSoC5/ADC_DelSig_1.c **** * Function Name: ADC_DelSig_1_SetDSMRef0Reg(uint8)
1712:.\Generated_Source\PSoC5/ADC_DelSig_1.c **** ******************************************************************************
1713:.\Generated_Source\PSoC5/ADC_DelSig_1.c **** *
1714:.\Generated_Source\PSoC5/ADC_DelSig_1.c **** * Summary:
1715:.\Generated_Source\PSoC5/ADC_DelSig_1.c **** *  This API sets the DSM_REF0 register. This is written for internal use.
1716:.\Generated_Source\PSoC5/ADC_DelSig_1.c **** *
1717:.\Generated_Source\PSoC5/ADC_DelSig_1.c **** * Parameters:
1718:.\Generated_Source\PSoC5/ADC_DelSig_1.c **** *  value:  Value to be written to DSM_REF0 register.
1719:.\Generated_Source\PSoC5/ADC_DelSig_1.c **** *
1720:.\Generated_Source\PSoC5/ADC_DelSig_1.c **** * Return:
1721:.\Generated_Source\PSoC5/ADC_DelSig_1.c **** *  None
1722:.\Generated_Source\PSoC5/ADC_DelSig_1.c **** *
1723:.\Generated_Source\PSoC5/ADC_DelSig_1.c **** ******************************************************************************/
1724:.\Generated_Source\PSoC5/ADC_DelSig_1.c **** static void ADC_DelSig_1_SetDSMRef0Reg(uint8 value) 
1725:.\Generated_Source\PSoC5/ADC_DelSig_1.c **** {
 2233              		.loc 1 1725 0
 2234              		.cfi_startproc
 2235              		@ args = 0, pretend = 0, frame = 16
 2236              		@ frame_needed = 1, uses_anonymous_args = 0
 2237 0000 80B5     		push	{r7, lr}
 2238              	.LCFI63:
 2239              		.cfi_def_cfa_offset 8
 2240              		.cfi_offset 7, -8
 2241              		.cfi_offset 14, -4
 2242 0002 84B0     		sub	sp, sp, #16
 2243              	.LCFI64:
 2244              		.cfi_def_cfa_offset 24
 2245 0004 00AF     		add	r7, sp, #0
 2246              	.LCFI65:
 2247              		.cfi_def_cfa_register 7
 2248 0006 0346     		mov	r3, r0
 2249 0008 FB71     		strb	r3, [r7, #7]
1726:.\Generated_Source\PSoC5/ADC_DelSig_1.c ****     uint8 enableInterrupts;
1727:.\Generated_Source\PSoC5/ADC_DelSig_1.c ****     enableInterrupts = CyEnterCriticalSection();
 2250              		.loc 1 1727 0
 2251 000a FFF7FEFF 		bl	CyEnterCriticalSection
 2252 000e 0346     		mov	r3, r0
 2253 0010 FB73     		strb	r3, [r7, #15]
1728:.\Generated_Source\PSoC5/ADC_DelSig_1.c **** 
1729:.\Generated_Source\PSoC5/ADC_DelSig_1.c ****     /* Disable PRES, Enable power to VCMBUF0, REFBUF0 and REFBUF1, enable PRES */
1730:.\Generated_Source\PSoC5/ADC_DelSig_1.c ****     ADC_DelSig_1_RESET_CR4_REG |= (ADC_DelSig_1_IGNORE_PRESA1 | ADC_DelSig_1_IGNORE_PRESD1);
 2254              		.loc 1 1730 0
 2255 0012 44F2F863 		movw	r3, #18168
ARM GAS  C:\Users\Brian\AppData\Local\Temp\cclOhuzj.s 			page 71


 2256 0016 C4F20003 		movt	r3, 16384
 2257 001a 44F2F862 		movw	r2, #18168
 2258 001e C4F20002 		movt	r2, 16384
 2259 0022 1278     		ldrb	r2, [r2, #0]
 2260 0024 D2B2     		uxtb	r2, r2
 2261 0026 42F00302 		orr	r2, r2, #3
 2262 002a D2B2     		uxtb	r2, r2
 2263 002c 1A70     		strb	r2, [r3, #0]
1731:.\Generated_Source\PSoC5/ADC_DelSig_1.c ****     ADC_DelSig_1_RESET_CR5_REG |= (ADC_DelSig_1_IGNORE_PRESA2 | ADC_DelSig_1_IGNORE_PRESD2);
 2264              		.loc 1 1731 0
 2265 002e 44F2F963 		movw	r3, #18169
 2266 0032 C4F20003 		movt	r3, 16384
 2267 0036 44F2F962 		movw	r2, #18169
 2268 003a C4F20002 		movt	r2, 16384
 2269 003e 1278     		ldrb	r2, [r2, #0]
 2270 0040 D2B2     		uxtb	r2, r2
 2271 0042 42F00302 		orr	r2, r2, #3
 2272 0046 D2B2     		uxtb	r2, r2
 2273 0048 1A70     		strb	r2, [r3, #0]
1732:.\Generated_Source\PSoC5/ADC_DelSig_1.c ****     ADC_DelSig_1_DSM_REF0_REG = value;
 2274              		.loc 1 1732 0
 2275 004a 45F69203 		movw	r3, #22674
 2276 004e C4F20003 		movt	r3, 16384
