ARM GAS  C:\Users\Robert\AppData\Local\Temp\cczxa6fy.s 			page 1


   1              		.syntax unified
   2              		.cpu cortex-m3
   3              		.fpu softvfp
   4              		.eabi_attribute 20, 1
   5              		.eabi_attribute 21, 1
   6              		.eabi_attribute 23, 3
   7              		.eabi_attribute 24, 1
   8              		.eabi_attribute 25, 1
   9              		.eabi_attribute 26, 1
  10              		.eabi_attribute 30, 6
  11              		.eabi_attribute 34, 1
  12              		.eabi_attribute 18, 4
  13              		.thumb
  14              		.file	"ADC_SAR_2.c"
  15              		.text
  16              	.Ltext0:
  17              		.cfi_sections	.debug_frame
  18              		.global	ADC_SAR_2_initVar
  19              		.bss
  20              		.type	ADC_SAR_2_initVar, %object
  21              		.size	ADC_SAR_2_initVar, 1
  22              	ADC_SAR_2_initVar:
  23 0000 00       		.space	1
  24              		.comm	ADC_SAR_2_offset,2,2
  25              		.comm	ADC_SAR_2_countsPerVolt,2,2
  26              		.comm	ADC_SAR_2_countsPer10Volt,4,4
  27              		.comm	ADC_SAR_2_shift,2,2
  28              		.section	.text.ADC_SAR_2_Start,"ax",%progbits
  29              		.align	2
  30              		.global	ADC_SAR_2_Start
  31              		.thumb
  32              		.thumb_func
  33              		.type	ADC_SAR_2_Start, %function
  34              	ADC_SAR_2_Start:
  35              	.LFB0:
  36              		.file 1 ".\\Generated_Source\\PSoC5\\ADC_SAR_2.c"
   1:.\Generated_Source\PSoC5/ADC_SAR_2.c **** /*******************************************************************************
   2:.\Generated_Source\PSoC5/ADC_SAR_2.c **** * File Name: ADC_SAR_2.c
   3:.\Generated_Source\PSoC5/ADC_SAR_2.c **** * Version 2.10
   4:.\Generated_Source\PSoC5/ADC_SAR_2.c **** *
   5:.\Generated_Source\PSoC5/ADC_SAR_2.c **** * Description:
   6:.\Generated_Source\PSoC5/ADC_SAR_2.c **** *  This file provides the source code to the API for the Successive
   7:.\Generated_Source\PSoC5/ADC_SAR_2.c **** *  approximation ADC Component.
   8:.\Generated_Source\PSoC5/ADC_SAR_2.c **** *
   9:.\Generated_Source\PSoC5/ADC_SAR_2.c **** * Note:
  10:.\Generated_Source\PSoC5/ADC_SAR_2.c **** *
  11:.\Generated_Source\PSoC5/ADC_SAR_2.c **** ********************************************************************************
  12:.\Generated_Source\PSoC5/ADC_SAR_2.c **** * Copyright 2008-2013, Cypress Semiconductor Corporation.  All rights reserved.
  13:.\Generated_Source\PSoC5/ADC_SAR_2.c **** * You may use this file only in accordance with the license, terms, conditions,
  14:.\Generated_Source\PSoC5/ADC_SAR_2.c **** * disclaimers, and limitations in the end user license agreement accompanying
  15:.\Generated_Source\PSoC5/ADC_SAR_2.c **** * the software package with which this file was provided.
  16:.\Generated_Source\PSoC5/ADC_SAR_2.c **** *******************************************************************************/
  17:.\Generated_Source\PSoC5/ADC_SAR_2.c **** 
  18:.\Generated_Source\PSoC5/ADC_SAR_2.c **** #include "CyLib.h"
  19:.\Generated_Source\PSoC5/ADC_SAR_2.c **** #include "ADC_SAR_2.h"
  20:.\Generated_Source\PSoC5/ADC_SAR_2.c **** 
  21:.\Generated_Source\PSoC5/ADC_SAR_2.c **** #if(ADC_SAR_2_DEFAULT_INTERNAL_CLK)
ARM GAS  C:\Users\Robert\AppData\Local\Temp\cczxa6fy.s 			page 2


  22:.\Generated_Source\PSoC5/ADC_SAR_2.c ****     #include "ADC_SAR_2_theACLK.h"
  23:.\Generated_Source\PSoC5/ADC_SAR_2.c **** #endif /* End ADC_SAR_2_DEFAULT_INTERNAL_CLK */
  24:.\Generated_Source\PSoC5/ADC_SAR_2.c **** 
  25:.\Generated_Source\PSoC5/ADC_SAR_2.c **** 
  26:.\Generated_Source\PSoC5/ADC_SAR_2.c **** /***************************************
  27:.\Generated_Source\PSoC5/ADC_SAR_2.c **** * Forward function references
  28:.\Generated_Source\PSoC5/ADC_SAR_2.c **** ***************************************/
  29:.\Generated_Source\PSoC5/ADC_SAR_2.c **** static void ADC_SAR_2_CalcGain(uint8 resolution);
  30:.\Generated_Source\PSoC5/ADC_SAR_2.c **** 
  31:.\Generated_Source\PSoC5/ADC_SAR_2.c **** 
  32:.\Generated_Source\PSoC5/ADC_SAR_2.c **** /***************************************
  33:.\Generated_Source\PSoC5/ADC_SAR_2.c **** * Global data allocation
  34:.\Generated_Source\PSoC5/ADC_SAR_2.c **** ***************************************/
  35:.\Generated_Source\PSoC5/ADC_SAR_2.c **** uint8 ADC_SAR_2_initVar = 0u;
  36:.\Generated_Source\PSoC5/ADC_SAR_2.c **** volatile int16 ADC_SAR_2_offset;
  37:.\Generated_Source\PSoC5/ADC_SAR_2.c **** volatile int16 ADC_SAR_2_countsPerVolt;     /* Obsolete Gain compensation */
  38:.\Generated_Source\PSoC5/ADC_SAR_2.c **** volatile int32 ADC_SAR_2_countsPer10Volt;   /* Gain compensation */
  39:.\Generated_Source\PSoC5/ADC_SAR_2.c **** volatile int16 ADC_SAR_2_shift;
  40:.\Generated_Source\PSoC5/ADC_SAR_2.c **** 
  41:.\Generated_Source\PSoC5/ADC_SAR_2.c **** 
  42:.\Generated_Source\PSoC5/ADC_SAR_2.c **** /*******************************************************************************
  43:.\Generated_Source\PSoC5/ADC_SAR_2.c **** * Function Name: ADC_SAR_2_Start
  44:.\Generated_Source\PSoC5/ADC_SAR_2.c **** ********************************************************************************
  45:.\Generated_Source\PSoC5/ADC_SAR_2.c **** *
  46:.\Generated_Source\PSoC5/ADC_SAR_2.c **** * Summary:
  47:.\Generated_Source\PSoC5/ADC_SAR_2.c **** *  This is the preferred method to begin component operation.
  48:.\Generated_Source\PSoC5/ADC_SAR_2.c **** *  ADC_SAR_2_Start() sets the initVar variable, calls the
  49:.\Generated_Source\PSoC5/ADC_SAR_2.c **** *  ADC_SAR_2_Init() function, and then calls the
  50:.\Generated_Source\PSoC5/ADC_SAR_2.c **** *  ADC_SAR_2_Enable() function.
  51:.\Generated_Source\PSoC5/ADC_SAR_2.c **** *
  52:.\Generated_Source\PSoC5/ADC_SAR_2.c **** * Parameters:
  53:.\Generated_Source\PSoC5/ADC_SAR_2.c **** *  None.
  54:.\Generated_Source\PSoC5/ADC_SAR_2.c **** *
  55:.\Generated_Source\PSoC5/ADC_SAR_2.c **** * Return:
  56:.\Generated_Source\PSoC5/ADC_SAR_2.c **** *  None.
  57:.\Generated_Source\PSoC5/ADC_SAR_2.c **** *
  58:.\Generated_Source\PSoC5/ADC_SAR_2.c **** * Global variables:
  59:.\Generated_Source\PSoC5/ADC_SAR_2.c **** *  The ADC_SAR_2_initVar variable is used to indicate when/if initial
  60:.\Generated_Source\PSoC5/ADC_SAR_2.c **** *  configuration of this component has happened. The variable is initialized to
  61:.\Generated_Source\PSoC5/ADC_SAR_2.c **** *  zero and set to 1 the first time ADC_Start() is called. This allows for
  62:.\Generated_Source\PSoC5/ADC_SAR_2.c **** *  component Re-Start without re-initialization in all subsequent calls to the
  63:.\Generated_Source\PSoC5/ADC_SAR_2.c **** *  ADC_SAR_2_Start() routine.
  64:.\Generated_Source\PSoC5/ADC_SAR_2.c **** *  If re-initialization of the component is required the variable should be set
  65:.\Generated_Source\PSoC5/ADC_SAR_2.c **** *  to zero before call of ADC_SAR_2_Start() routine, or the user may call
  66:.\Generated_Source\PSoC5/ADC_SAR_2.c **** *  ADC_SAR_2_Init() and ADC_SAR_2_Enable() as done in the
  67:.\Generated_Source\PSoC5/ADC_SAR_2.c **** *  ADC_SAR_2_Start() routine.
  68:.\Generated_Source\PSoC5/ADC_SAR_2.c **** *
  69:.\Generated_Source\PSoC5/ADC_SAR_2.c **** * Side Effect:
  70:.\Generated_Source\PSoC5/ADC_SAR_2.c **** *  If the initVar variable is already set, this function only calls the
  71:.\Generated_Source\PSoC5/ADC_SAR_2.c **** *  ADC_SAR_2_Enable() function.
  72:.\Generated_Source\PSoC5/ADC_SAR_2.c **** *
  73:.\Generated_Source\PSoC5/ADC_SAR_2.c **** *******************************************************************************/
  74:.\Generated_Source\PSoC5/ADC_SAR_2.c **** void ADC_SAR_2_Start(void)
  75:.\Generated_Source\PSoC5/ADC_SAR_2.c **** {
  37              		.loc 1 75 0
  38              		.cfi_startproc
  39              		@ args = 0, pretend = 0, frame = 0
ARM GAS  C:\Users\Robert\AppData\Local\Temp\cczxa6fy.s 			page 3


  40              		@ frame_needed = 1, uses_anonymous_args = 0
  41 0000 80B5     		push	{r7, lr}
  42              	.LCFI0:
  43              		.cfi_def_cfa_offset 8
  44              		.cfi_offset 7, -8
  45              		.cfi_offset 14, -4
  46 0002 00AF     		add	r7, sp, #0
  47              	.LCFI1:
  48              		.cfi_def_cfa_register 7
  76:.\Generated_Source\PSoC5/ADC_SAR_2.c **** 
  77:.\Generated_Source\PSoC5/ADC_SAR_2.c ****     /* If not Initialized then initialize all required hardware and software */
  78:.\Generated_Source\PSoC5/ADC_SAR_2.c ****     if(ADC_SAR_2_initVar == 0u)
  49              		.loc 1 78 0
  50 0004 40F20003 		movw	r3, #:lower16:ADC_SAR_2_initVar
  51 0008 C0F20003 		movt	r3, #:upper16:ADC_SAR_2_initVar
  52 000c 1B78     		ldrb	r3, [r3, #0]	@ zero_extendqisi2
  53 000e 002B     		cmp	r3, #0
  54 0010 08D1     		bne	.L2
  79:.\Generated_Source\PSoC5/ADC_SAR_2.c ****     {
  80:.\Generated_Source\PSoC5/ADC_SAR_2.c ****         ADC_SAR_2_Init();
  55              		.loc 1 80 0
  56 0012 FFF7FEFF 		bl	ADC_SAR_2_Init
  81:.\Generated_Source\PSoC5/ADC_SAR_2.c ****         ADC_SAR_2_initVar = 1u;
  57              		.loc 1 81 0
  58 0016 40F20003 		movw	r3, #:lower16:ADC_SAR_2_initVar
  59 001a C0F20003 		movt	r3, #:upper16:ADC_SAR_2_initVar
  60 001e 4FF00102 		mov	r2, #1
  61 0022 1A70     		strb	r2, [r3, #0]
  62              	.L2:
  82:.\Generated_Source\PSoC5/ADC_SAR_2.c ****     }
  83:.\Generated_Source\PSoC5/ADC_SAR_2.c ****     ADC_SAR_2_Enable();
  63              		.loc 1 83 0
  64 0024 FFF7FEFF 		bl	ADC_SAR_2_Enable
  84:.\Generated_Source\PSoC5/ADC_SAR_2.c **** }
  65              		.loc 1 84 0
  66 0028 80BD     		pop	{r7, pc}
  67              		.cfi_endproc
  68              	.LFE0:
  69              		.size	ADC_SAR_2_Start, .-ADC_SAR_2_Start
  70 002a 00BF     		.section	.text.ADC_SAR_2_Init,"ax",%progbits
  71              		.align	2
  72              		.global	ADC_SAR_2_Init
  73              		.thumb
  74              		.thumb_func
  75              		.type	ADC_SAR_2_Init, %function
  76              	ADC_SAR_2_Init:
  77              	.LFB1:
  85:.\Generated_Source\PSoC5/ADC_SAR_2.c **** 
  86:.\Generated_Source\PSoC5/ADC_SAR_2.c **** 
  87:.\Generated_Source\PSoC5/ADC_SAR_2.c **** /*******************************************************************************
  88:.\Generated_Source\PSoC5/ADC_SAR_2.c **** * Function Name: ADC_SAR_2_Init
  89:.\Generated_Source\PSoC5/ADC_SAR_2.c **** ********************************************************************************
  90:.\Generated_Source\PSoC5/ADC_SAR_2.c **** *
  91:.\Generated_Source\PSoC5/ADC_SAR_2.c **** * Summary:
  92:.\Generated_Source\PSoC5/ADC_SAR_2.c **** *  Initialize component's parameters to the parameters set by user in the
  93:.\Generated_Source\PSoC5/ADC_SAR_2.c **** *  customizer of the component placed onto schematic. Usually called in
  94:.\Generated_Source\PSoC5/ADC_SAR_2.c **** *  ADC_SAR_2_Start().
ARM GAS  C:\Users\Robert\AppData\Local\Temp\cczxa6fy.s 			page 4


  95:.\Generated_Source\PSoC5/ADC_SAR_2.c **** *
  96:.\Generated_Source\PSoC5/ADC_SAR_2.c **** * Parameters:
  97:.\Generated_Source\PSoC5/ADC_SAR_2.c **** *  None.
  98:.\Generated_Source\PSoC5/ADC_SAR_2.c **** *
  99:.\Generated_Source\PSoC5/ADC_SAR_2.c **** * Return:
 100:.\Generated_Source\PSoC5/ADC_SAR_2.c **** *  None.
 101:.\Generated_Source\PSoC5/ADC_SAR_2.c **** *
 102:.\Generated_Source\PSoC5/ADC_SAR_2.c **** * Global variables:
 103:.\Generated_Source\PSoC5/ADC_SAR_2.c **** *  The ADC_SAR_2_offset variable is initialized to 0.
 104:.\Generated_Source\PSoC5/ADC_SAR_2.c **** *
 105:.\Generated_Source\PSoC5/ADC_SAR_2.c **** *******************************************************************************/
 106:.\Generated_Source\PSoC5/ADC_SAR_2.c **** void ADC_SAR_2_Init(void)
 107:.\Generated_Source\PSoC5/ADC_SAR_2.c **** {
  78              		.loc 1 107 0
  79              		.cfi_startproc
  80              		@ args = 0, pretend = 0, frame = 0
  81              		@ frame_needed = 1, uses_anonymous_args = 0
  82 0000 80B5     		push	{r7, lr}
  83              	.LCFI2:
  84              		.cfi_def_cfa_offset 8
  85              		.cfi_offset 7, -8
  86              		.cfi_offset 14, -4
  87 0002 00AF     		add	r7, sp, #0
  88              	.LCFI3:
  89              		.cfi_def_cfa_register 7
 108:.\Generated_Source\PSoC5/ADC_SAR_2.c **** 
 109:.\Generated_Source\PSoC5/ADC_SAR_2.c ****     /* This is only valid if there is an internal clock */
 110:.\Generated_Source\PSoC5/ADC_SAR_2.c ****     #if(ADC_SAR_2_DEFAULT_INTERNAL_CLK)
 111:.\Generated_Source\PSoC5/ADC_SAR_2.c ****         ADC_SAR_2_theACLK_SetMode(CYCLK_DUTY);
  90              		.loc 1 111 0
  91 0004 4FF01000 		mov	r0, #16
  92 0008 FFF7FEFF 		bl	ADC_SAR_2_theACLK_SetModeRegister
 112:.\Generated_Source\PSoC5/ADC_SAR_2.c ****     #endif /* End ADC_SAR_2_DEFAULT_INTERNAL_CLK */
 113:.\Generated_Source\PSoC5/ADC_SAR_2.c **** 
 114:.\Generated_Source\PSoC5/ADC_SAR_2.c ****     #if(ADC_SAR_2_IRQ_REMOVE == 0u)
 115:.\Generated_Source\PSoC5/ADC_SAR_2.c ****         /* Start and set interrupt vector */
 116:.\Generated_Source\PSoC5/ADC_SAR_2.c ****         CyIntSetPriority(ADC_SAR_2_INTC_NUMBER, ADC_SAR_2_INTC_PRIOR_NUMBER);
  93              		.loc 1 116 0
  94 000c 4FF00100 		mov	r0, #1
  95 0010 4FF00701 		mov	r1, #7
  96 0014 FFF7FEFF 		bl	CyIntSetPriority
 117:.\Generated_Source\PSoC5/ADC_SAR_2.c ****         (void)CyIntSetVector(ADC_SAR_2_INTC_NUMBER, &ADC_SAR_2_ISR);
  97              		.loc 1 117 0
  98 0018 4FF00100 		mov	r0, #1
  99 001c 40F20001 		movw	r1, #:lower16:ADC_SAR_2_ISR
 100 0020 C0F20001 		movt	r1, #:upper16:ADC_SAR_2_ISR
 101 0024 FFF7FEFF 		bl	CyIntSetVector
 118:.\Generated_Source\PSoC5/ADC_SAR_2.c ****     #endif   /* End ADC_SAR_2_IRQ_REMOVE */
 119:.\Generated_Source\PSoC5/ADC_SAR_2.c **** 
 120:.\Generated_Source\PSoC5/ADC_SAR_2.c ****     /* Enable IRQ mode*/
 121:.\Generated_Source\PSoC5/ADC_SAR_2.c ****     ADC_SAR_2_SAR_CSR1_REG |= ADC_SAR_2_SAR_IRQ_MASK_EN | ADC_SAR_2_SAR_IRQ_MODE_EDGE;
 102              		.loc 1 121 0
 103 0028 45F60113 		movw	r3, #22785
 104 002c C4F20003 		movt	r3, 16384
 105 0030 45F60112 		movw	r2, #22785
 106 0034 C4F20002 		movt	r2, 16384
 107 0038 1278     		ldrb	r2, [r2, #0]
ARM GAS  C:\Users\Robert\AppData\Local\Temp\cczxa6fy.s 			page 5


 108 003a D2B2     		uxtb	r2, r2
 109 003c 42F00602 		orr	r2, r2, #6
 110 0040 D2B2     		uxtb	r2, r2
 111 0042 1A70     		strb	r2, [r3, #0]
 122:.\Generated_Source\PSoC5/ADC_SAR_2.c **** 
 123:.\Generated_Source\PSoC5/ADC_SAR_2.c ****     /*Set SAR ADC resolution ADC */
 124:.\Generated_Source\PSoC5/ADC_SAR_2.c ****     ADC_SAR_2_SetResolution(ADC_SAR_2_DEFAULT_RESOLUTION);
 112              		.loc 1 124 0
 113 0044 4FF00C00 		mov	r0, #12
 114 0048 FFF7FEFF 		bl	ADC_SAR_2_SetResolution
 125:.\Generated_Source\PSoC5/ADC_SAR_2.c ****     ADC_SAR_2_offset = 0;
 115              		.loc 1 125 0
 116 004c 40F20003 		movw	r3, #:lower16:ADC_SAR_2_offset
 117 0050 C0F20003 		movt	r3, #:upper16:ADC_SAR_2_offset
 118 0054 4FF00002 		mov	r2, #0
 119 0058 1A80     		strh	r2, [r3, #0]	@ movhi
 126:.\Generated_Source\PSoC5/ADC_SAR_2.c **** }
 120              		.loc 1 126 0
 121 005a 80BD     		pop	{r7, pc}
 122              		.cfi_endproc
 123              	.LFE1:
 124              		.size	ADC_SAR_2_Init, .-ADC_SAR_2_Init
 125              		.section	.text.ADC_SAR_2_Enable,"ax",%progbits
 126              		.align	2
 127              		.global	ADC_SAR_2_Enable
 128              		.thumb
 129              		.thumb_func
 130              		.type	ADC_SAR_2_Enable, %function
 131              	ADC_SAR_2_Enable:
 132              	.LFB2:
 127:.\Generated_Source\PSoC5/ADC_SAR_2.c **** 
 128:.\Generated_Source\PSoC5/ADC_SAR_2.c **** 
 129:.\Generated_Source\PSoC5/ADC_SAR_2.c **** /*******************************************************************************
 130:.\Generated_Source\PSoC5/ADC_SAR_2.c **** * Function Name: ADC_SAR_2_Enable
 131:.\Generated_Source\PSoC5/ADC_SAR_2.c **** ********************************************************************************
 132:.\Generated_Source\PSoC5/ADC_SAR_2.c **** *
 133:.\Generated_Source\PSoC5/ADC_SAR_2.c **** * Summary:
 134:.\Generated_Source\PSoC5/ADC_SAR_2.c **** *  Enables the reference, clock and power for SAR ADC.
 135:.\Generated_Source\PSoC5/ADC_SAR_2.c **** *
 136:.\Generated_Source\PSoC5/ADC_SAR_2.c **** * Parameters:
 137:.\Generated_Source\PSoC5/ADC_SAR_2.c **** *  None.
 138:.\Generated_Source\PSoC5/ADC_SAR_2.c **** *
 139:.\Generated_Source\PSoC5/ADC_SAR_2.c **** * Return:
 140:.\Generated_Source\PSoC5/ADC_SAR_2.c **** *  None.
 141:.\Generated_Source\PSoC5/ADC_SAR_2.c **** *
 142:.\Generated_Source\PSoC5/ADC_SAR_2.c **** *******************************************************************************/
 143:.\Generated_Source\PSoC5/ADC_SAR_2.c **** void ADC_SAR_2_Enable(void)
 144:.\Generated_Source\PSoC5/ADC_SAR_2.c **** {
 133              		.loc 1 144 0
 134              		.cfi_startproc
 135              		@ args = 0, pretend = 0, frame = 8
 136              		@ frame_needed = 1, uses_anonymous_args = 0
 137 0000 80B5     		push	{r7, lr}
 138              	.LCFI4:
 139              		.cfi_def_cfa_offset 8
 140              		.cfi_offset 7, -8
 141              		.cfi_offset 14, -4
ARM GAS  C:\Users\Robert\AppData\Local\Temp\cczxa6fy.s 			page 6


 142 0002 82B0     		sub	sp, sp, #8
 143              	.LCFI5:
 144              		.cfi_def_cfa_offset 16
 145 0004 00AF     		add	r7, sp, #0
 146              	.LCFI6:
 147              		.cfi_def_cfa_register 7
 145:.\Generated_Source\PSoC5/ADC_SAR_2.c ****     uint8 tmpReg;
 146:.\Generated_Source\PSoC5/ADC_SAR_2.c ****     uint8 enableInterrupts;
 147:.\Generated_Source\PSoC5/ADC_SAR_2.c ****     enableInterrupts = CyEnterCriticalSection();
 148              		.loc 1 147 0
 149 0006 FFF7FEFF 		bl	CyEnterCriticalSection
 150 000a 0346     		mov	r3, r0
 151 000c FB71     		strb	r3, [r7, #7]
 148:.\Generated_Source\PSoC5/ADC_SAR_2.c **** 
 149:.\Generated_Source\PSoC5/ADC_SAR_2.c ****     /* Enable the SAR ADC block in Active Power Mode */
 150:.\Generated_Source\PSoC5/ADC_SAR_2.c ****     ADC_SAR_2_PWRMGR_SAR_REG |= ADC_SAR_2_ACT_PWR_SAR_EN;
 152              		.loc 1 150 0
 153 000e 44F2AB33 		movw	r3, #17323
 154 0012 C4F20003 		movt	r3, 16384
 155 0016 44F2AB32 		movw	r2, #17323
 156 001a C4F20002 		movt	r2, 16384
 157 001e 1278     		ldrb	r2, [r2, #0]
 158 0020 D2B2     		uxtb	r2, r2
 159 0022 42F00102 		orr	r2, r2, #1
 160 0026 D2B2     		uxtb	r2, r2
 161 0028 1A70     		strb	r2, [r3, #0]
 151:.\Generated_Source\PSoC5/ADC_SAR_2.c **** 
 152:.\Generated_Source\PSoC5/ADC_SAR_2.c ****      /* Enable the SAR ADC in Standby Power Mode*/
 153:.\Generated_Source\PSoC5/ADC_SAR_2.c ****     ADC_SAR_2_STBY_PWRMGR_SAR_REG |= ADC_SAR_2_STBY_PWR_SAR_EN;
 162              		.loc 1 153 0
 163 002a 44F2BB33 		movw	r3, #17339
 164 002e C4F20003 		movt	r3, 16384
 165 0032 44F2BB32 		movw	r2, #17339
 166 0036 C4F20002 		movt	r2, 16384
 167 003a 1278     		ldrb	r2, [r2, #0]
 168 003c D2B2     		uxtb	r2, r2
 169 003e 42F00102 		orr	r2, r2, #1
 170 0042 D2B2     		uxtb	r2, r2
 171 0044 1A70     		strb	r2, [r3, #0]
 154:.\Generated_Source\PSoC5/ADC_SAR_2.c **** 
 155:.\Generated_Source\PSoC5/ADC_SAR_2.c ****     /* This is only valid if there is an internal clock */
 156:.\Generated_Source\PSoC5/ADC_SAR_2.c ****     #if(ADC_SAR_2_DEFAULT_INTERNAL_CLK)
 157:.\Generated_Source\PSoC5/ADC_SAR_2.c ****         ADC_SAR_2_PWRMGR_CLK_REG |= ADC_SAR_2_ACT_PWR_CLK_EN;
 172              		.loc 1 157 0
 173 0046 44F2A133 		movw	r3, #17313
 174 004a C4F20003 		movt	r3, 16384
 175 004e 44F2A132 		movw	r2, #17313
 176 0052 C4F20002 		movt	r2, 16384
 177 0056 1278     		ldrb	r2, [r2, #0]
 178 0058 D2B2     		uxtb	r2, r2
 179 005a 42F00102 		orr	r2, r2, #1
 180 005e D2B2     		uxtb	r2, r2
 181 0060 1A70     		strb	r2, [r3, #0]
 158:.\Generated_Source\PSoC5/ADC_SAR_2.c ****         ADC_SAR_2_STBY_PWRMGR_CLK_REG |= ADC_SAR_2_STBY_PWR_CLK_EN;
 182              		.loc 1 158 0
 183 0062 44F2B133 		movw	r3, #17329
 184 0066 C4F20003 		movt	r3, 16384
ARM GAS  C:\Users\Robert\AppData\Local\Temp\cczxa6fy.s 			page 7


 185 006a 44F2B132 		movw	r2, #17329
 186 006e C4F20002 		movt	r2, 16384
 187 0072 1278     		ldrb	r2, [r2, #0]
 188 0074 D2B2     		uxtb	r2, r2
 189 0076 42F00102 		orr	r2, r2, #1
 190 007a D2B2     		uxtb	r2, r2
 191 007c 1A70     		strb	r2, [r3, #0]
 159:.\Generated_Source\PSoC5/ADC_SAR_2.c ****     #endif /* End ADC_SAR_2_DEFAULT_INTERNAL_CLK */
 160:.\Generated_Source\PSoC5/ADC_SAR_2.c **** 
 161:.\Generated_Source\PSoC5/ADC_SAR_2.c ****     /* Enable VCM buffer and Enable Int Ref Amp */
 162:.\Generated_Source\PSoC5/ADC_SAR_2.c ****     tmpReg = ADC_SAR_2_SAR_CSR3_REG;
 192              		.loc 1 162 0
 193 007e 45F60313 		movw	r3, #22787
 194 0082 C4F20003 		movt	r3, 16384
 195 0086 1B78     		ldrb	r3, [r3, #0]
 196 0088 BB71     		strb	r3, [r7, #6]
 163:.\Generated_Source\PSoC5/ADC_SAR_2.c ****     tmpReg |= ADC_SAR_2_SAR_EN_BUF_VCM_EN;
 197              		.loc 1 163 0
 198 008a BB79     		ldrb	r3, [r7, #6]
 199 008c 43F00203 		orr	r3, r3, #2
 200 0090 BB71     		strb	r3, [r7, #6]
 164:.\Generated_Source\PSoC5/ADC_SAR_2.c ****     /* PD_BUF_VREF is OFF in External reference or Vdda reference mode */
 165:.\Generated_Source\PSoC5/ADC_SAR_2.c ****     #if((ADC_SAR_2_DEFAULT_REFERENCE == ADC_SAR_2__EXT_REF) || \
 166:.\Generated_Source\PSoC5/ADC_SAR_2.c ****         (ADC_SAR_2_DEFAULT_RANGE == ADC_SAR_2__VNEG_VDDA_DIFF))
 167:.\Generated_Source\PSoC5/ADC_SAR_2.c ****         tmpReg &= (uint8)~ADC_SAR_2_SAR_EN_BUF_VREF_EN;
 168:.\Generated_Source\PSoC5/ADC_SAR_2.c ****     #else /* In INTREF or INTREF Bypassed this buffer is ON */
 169:.\Generated_Source\PSoC5/ADC_SAR_2.c ****         tmpReg |= ADC_SAR_2_SAR_EN_BUF_VREF_EN;
 201              		.loc 1 169 0
 202 0092 BB79     		ldrb	r3, [r7, #6]
 203 0094 43F00103 		orr	r3, r3, #1
 204 0098 BB71     		strb	r3, [r7, #6]
 170:.\Generated_Source\PSoC5/ADC_SAR_2.c ****     #endif /* ADC_SAR_2_DEFAULT_REFERENCE == ADC_SAR_2__EXT_REF */
 171:.\Generated_Source\PSoC5/ADC_SAR_2.c ****     ADC_SAR_2_SAR_CSR3_REG = tmpReg;
 205              		.loc 1 171 0
 206 009a 45F60313 		movw	r3, #22787
 207 009e C4F20003 		movt	r3, 16384
 208 00a2 BA79     		ldrb	r2, [r7, #6]
 209 00a4 1A70     		strb	r2, [r3, #0]
 172:.\Generated_Source\PSoC5/ADC_SAR_2.c **** 
 173:.\Generated_Source\PSoC5/ADC_SAR_2.c ****     /* Set reference for ADC */
 174:.\Generated_Source\PSoC5/ADC_SAR_2.c ****     #if(ADC_SAR_2_DEFAULT_RANGE == ADC_SAR_2__VNEG_VDDA_DIFF)
 175:.\Generated_Source\PSoC5/ADC_SAR_2.c ****         #if(ADC_SAR_2_DEFAULT_REFERENCE == ADC_SAR_2__EXT_REF)
 176:.\Generated_Source\PSoC5/ADC_SAR_2.c ****             ADC_SAR_2_SAR_CSR6_REG = ADC_SAR_2_INT_BYPASS_EXT_VREF; /* S2 */
 177:.\Generated_Source\PSoC5/ADC_SAR_2.c ****         #else /* Internal Vdda reference or obsolete bypass mode */
 178:.\Generated_Source\PSoC5/ADC_SAR_2.c ****             ADC_SAR_2_SAR_CSR6_REG = ADC_SAR_2_VDDA_VREF;           /* S7 */
 179:.\Generated_Source\PSoC5/ADC_SAR_2.c ****         #endif /* ADC_SAR_2_DEFAULT_REFERENCE == ADC_SAR_2__EXT_REF */
 180:.\Generated_Source\PSoC5/ADC_SAR_2.c ****     #else  /* Reference goes through internal buffer */
 181:.\Generated_Source\PSoC5/ADC_SAR_2.c ****         #if(ADC_SAR_2_DEFAULT_REFERENCE == ADC_SAR_2__INT_REF_NOT_BYPASSED)
 182:.\Generated_Source\PSoC5/ADC_SAR_2.c ****             ADC_SAR_2_SAR_CSR6_REG = ADC_SAR_2_INT_VREF;            /* S3 + S4 */
 183:.\Generated_Source\PSoC5/ADC_SAR_2.c ****         #else /* INTREF Bypassed of External */
 184:.\Generated_Source\PSoC5/ADC_SAR_2.c ****             ADC_SAR_2_SAR_CSR6_REG = ADC_SAR_2_INT_BYPASS_EXT_VREF; /* S2 */
 210              		.loc 1 184 0
 211 00a6 45F60613 		movw	r3, #22790
 212 00aa C4F20003 		movt	r3, 16384
 213 00ae 4FF00402 		mov	r2, #4
 214 00b2 1A70     		strb	r2, [r3, #0]
 185:.\Generated_Source\PSoC5/ADC_SAR_2.c ****         #endif /* ADC_SAR_2_DEFAULT_REFERENCE == ADC_SAR_2__INT_REF_NOT_BYPASSED */
ARM GAS  C:\Users\Robert\AppData\Local\Temp\cczxa6fy.s 			page 8


 186:.\Generated_Source\PSoC5/ADC_SAR_2.c ****     #endif /* VNEG_VDDA_DIFF */
 187:.\Generated_Source\PSoC5/ADC_SAR_2.c **** 
 188:.\Generated_Source\PSoC5/ADC_SAR_2.c ****     /* Low non-overlap delay for sampling clock signals (for 1MSPS) */
 189:.\Generated_Source\PSoC5/ADC_SAR_2.c ****     #if(ADC_SAR_2_HIGH_POWER_PULSE == 0u) /* MinPulseWidth <= 50 ns */
 190:.\Generated_Source\PSoC5/ADC_SAR_2.c ****         ADC_SAR_2_SAR_CSR5_REG &= (uint8)~ADC_SAR_2_SAR_DLY_INC;
 215              		.loc 1 190 0
 216 00b4 45F60513 		movw	r3, #22789
 217 00b8 C4F20003 		movt	r3, 16384
 218 00bc 45F60512 		movw	r2, #22789
 219 00c0 C4F20002 		movt	r2, 16384
 220 00c4 1278     		ldrb	r2, [r2, #0]
 221 00c6 D2B2     		uxtb	r2, r2
 222 00c8 22F04002 		bic	r2, r2, #64
 223 00cc D2B2     		uxtb	r2, r2
 224 00ce 1A70     		strb	r2, [r3, #0]
 191:.\Generated_Source\PSoC5/ADC_SAR_2.c ****     #else /* Set High non-overlap delay for sampling clock signals (for <500KSPS)*/
 192:.\Generated_Source\PSoC5/ADC_SAR_2.c ****         ADC_SAR_2_SAR_CSR5_REG |= ADC_SAR_2_SAR_DLY_INC;
 193:.\Generated_Source\PSoC5/ADC_SAR_2.c ****     #endif /* ADC_SAR_2_CLOCK_FREQUENCY > (ADC_SAR_2_MAX_FREQUENCY / 2) */
 194:.\Generated_Source\PSoC5/ADC_SAR_2.c **** 
 195:.\Generated_Source\PSoC5/ADC_SAR_2.c ****      /* Delay control for comparator latch enable, low delay, (Default for 1MSPS) */
 196:.\Generated_Source\PSoC5/ADC_SAR_2.c ****     #if(ADC_SAR_2_HIGH_POWER_PULSE == 0u) /* MinPulseWidth <= 50 ns */
 197:.\Generated_Source\PSoC5/ADC_SAR_2.c ****         ADC_SAR_2_SAR_CSR5_REG |= ADC_SAR_2_SAR_DCEN;
 225              		.loc 1 197 0
 226 00d0 45F60513 		movw	r3, #22789
 227 00d4 C4F20003 		movt	r3, 16384
 228 00d8 45F60512 		movw	r2, #22789
 229 00dc C4F20002 		movt	r2, 16384
 230 00e0 1278     		ldrb	r2, [r2, #0]
 231 00e2 D2B2     		uxtb	r2, r2
 232 00e4 42F02002 		orr	r2, r2, #32
 233 00e8 D2B2     		uxtb	r2, r2
 234 00ea 1A70     		strb	r2, [r3, #0]
 198:.\Generated_Source\PSoC5/ADC_SAR_2.c ****     #else /* Delay control for comparator latch enable, high delay (for <500ksps)*/
 199:.\Generated_Source\PSoC5/ADC_SAR_2.c ****         ADC_SAR_2_SAR_CSR5_REG &= (uint8)~ADC_SAR_2_SAR_DCEN;
 200:.\Generated_Source\PSoC5/ADC_SAR_2.c ****     #endif /* ADC_SAR_2_CLOCK_FREQUENCY > (ADC_SAR_2_MAX_FREQUENCY / 2) */
 201:.\Generated_Source\PSoC5/ADC_SAR_2.c **** 
 202:.\Generated_Source\PSoC5/ADC_SAR_2.c ****     /* Set default power and other configurations for control register 0 in multiple lines */
 203:.\Generated_Source\PSoC5/ADC_SAR_2.c ****     ADC_SAR_2_SAR_CSR0_REG = (uint8)((uint8)ADC_SAR_2_DEFAULT_POWER << ADC_SAR_2_SAR_POWER_SHIFT)
 235              		.loc 1 203 0
 236 00ec 4FF4B243 		mov	r3, #22784
 237 00f0 C4F20003 		movt	r3, 16384
 238 00f4 4FF00802 		mov	r2, #8
 239 00f8 1A70     		strb	r2, [r3, #0]
 204:.\Generated_Source\PSoC5/ADC_SAR_2.c ****     /* SAR_HIZ_CLEAR:   Should not be used for LP */
 205:.\Generated_Source\PSoC5/ADC_SAR_2.c ****     #if ((CY_PSOC5LP) || (ADC_SAR_2_DEFAULT_REFERENCE != ADC_SAR_2__EXT_REF))
 206:.\Generated_Source\PSoC5/ADC_SAR_2.c ****         | ADC_SAR_2_SAR_HIZ_CLEAR
 207:.\Generated_Source\PSoC5/ADC_SAR_2.c ****     #endif /* SAR_HIZ_CLEAR */
 208:.\Generated_Source\PSoC5/ADC_SAR_2.c ****     /*Set Convertion mode */
 209:.\Generated_Source\PSoC5/ADC_SAR_2.c ****     #if(ADC_SAR_2_DEFAULT_CONV_MODE != ADC_SAR_2__FREE_RUNNING)      /* If triggered mode */
 210:.\Generated_Source\PSoC5/ADC_SAR_2.c ****         | ADC_SAR_2_SAR_MX_SOF_UDB           /* source: UDB */
 211:.\Generated_Source\PSoC5/ADC_SAR_2.c ****         | ADC_SAR_2_SAR_SOF_MODE_EDGE        /* Set edge-sensitive sof source */
 212:.\Generated_Source\PSoC5/ADC_SAR_2.c ****     #endif /* ADC_SAR_2_DEFAULT_CONV_MODE */
 213:.\Generated_Source\PSoC5/ADC_SAR_2.c ****     ; /* end of multiple line initialization */
 214:.\Generated_Source\PSoC5/ADC_SAR_2.c **** 
 215:.\Generated_Source\PSoC5/ADC_SAR_2.c ****     ADC_SAR_2_SAR_TR0_REG = ADC_SAR_2_SAR_CAP_TRIM_2;
 240              		.loc 1 215 0
 241 00fa 44F21463 		movw	r3, #17940
ARM GAS  C:\Users\Robert\AppData\Local\Temp\cczxa6fy.s 			page 9


 242 00fe C4F20003 		movt	r3, 16384
 243 0102 4FF00202 		mov	r2, #2
 244 0106 1A70     		strb	r2, [r3, #0]
 216:.\Generated_Source\PSoC5/ADC_SAR_2.c **** 
 217:.\Generated_Source\PSoC5/ADC_SAR_2.c ****     /* Enable clock for SAR ADC*/
 218:.\Generated_Source\PSoC5/ADC_SAR_2.c ****     ADC_SAR_2_SAR_CLK_REG |= ADC_SAR_2_SAR_MX_CLK_EN;
 245              		.loc 1 218 0
 246 0108 45F62733 		movw	r3, #23335
 247 010c C4F20003 		movt	r3, 16384
 248 0110 45F62732 		movw	r2, #23335
 249 0114 C4F20002 		movt	r2, 16384
 250 0118 1278     		ldrb	r2, [r2, #0]
 251 011a D2B2     		uxtb	r2, r2
 252 011c 42F00802 		orr	r2, r2, #8
 253 0120 D2B2     		uxtb	r2, r2
 254 0122 1A70     		strb	r2, [r3, #0]
 219:.\Generated_Source\PSoC5/ADC_SAR_2.c **** 
 220:.\Generated_Source\PSoC5/ADC_SAR_2.c ****     CyDelayUs(10u); /* The block is ready to use 10 us after the enable signal is set high. */
 255              		.loc 1 220 0
 256 0124 4FF00A00 		mov	r0, #10
 257 0128 FFF7FEFF 		bl	CyDelayUs
 221:.\Generated_Source\PSoC5/ADC_SAR_2.c **** 
 222:.\Generated_Source\PSoC5/ADC_SAR_2.c ****     #if(ADC_SAR_2_IRQ_REMOVE == 0u)
 223:.\Generated_Source\PSoC5/ADC_SAR_2.c ****         /* Clear a pending interrupt */
 224:.\Generated_Source\PSoC5/ADC_SAR_2.c ****         CyIntClearPending(ADC_SAR_2_INTC_NUMBER);
 258              		.loc 1 224 0
 259 012c 4EF28023 		movw	r3, #57984
 260 0130 CEF20003 		movt	r3, 57344
 261 0134 4FF00202 		mov	r2, #2
 262 0138 1A60     		str	r2, [r3, #0]
 225:.\Generated_Source\PSoC5/ADC_SAR_2.c ****     #endif   /* End ADC_SAR_2_IRQ_REMOVE */
 226:.\Generated_Source\PSoC5/ADC_SAR_2.c **** 
 227:.\Generated_Source\PSoC5/ADC_SAR_2.c ****     CyExitCriticalSection(enableInterrupts);
 263              		.loc 1 227 0
 264 013a FB79     		ldrb	r3, [r7, #7]	@ zero_extendqisi2
 265 013c 1846     		mov	r0, r3
 266 013e FFF7FEFF 		bl	CyExitCriticalSection
 228:.\Generated_Source\PSoC5/ADC_SAR_2.c **** }
 267              		.loc 1 228 0
 268 0142 07F10807 		add	r7, r7, #8
 269 0146 BD46     		mov	sp, r7
 270 0148 80BD     		pop	{r7, pc}
 271              		.cfi_endproc
 272              	.LFE2:
 273              		.size	ADC_SAR_2_Enable, .-ADC_SAR_2_Enable
 274 014a 00BF     		.section	.text.ADC_SAR_2_Stop,"ax",%progbits
 275              		.align	2
 276              		.global	ADC_SAR_2_Stop
 277              		.thumb
 278              		.thumb_func
 279              		.type	ADC_SAR_2_Stop, %function
 280              	ADC_SAR_2_Stop:
 281              	.LFB3:
 229:.\Generated_Source\PSoC5/ADC_SAR_2.c **** 
 230:.\Generated_Source\PSoC5/ADC_SAR_2.c **** 
 231:.\Generated_Source\PSoC5/ADC_SAR_2.c **** /*******************************************************************************
 232:.\Generated_Source\PSoC5/ADC_SAR_2.c **** * Function Name: ADC_SAR_2_Stop
ARM GAS  C:\Users\Robert\AppData\Local\Temp\cczxa6fy.s 			page 10


 233:.\Generated_Source\PSoC5/ADC_SAR_2.c **** ********************************************************************************
 234:.\Generated_Source\PSoC5/ADC_SAR_2.c **** *
 235:.\Generated_Source\PSoC5/ADC_SAR_2.c **** * Summary:
 236:.\Generated_Source\PSoC5/ADC_SAR_2.c **** *  Stops ADC conversions and puts the ADC into its lowest power mode.
 237:.\Generated_Source\PSoC5/ADC_SAR_2.c **** *
 238:.\Generated_Source\PSoC5/ADC_SAR_2.c **** * Parameters:
 239:.\Generated_Source\PSoC5/ADC_SAR_2.c **** *  None.
 240:.\Generated_Source\PSoC5/ADC_SAR_2.c **** *
 241:.\Generated_Source\PSoC5/ADC_SAR_2.c **** * Return:
 242:.\Generated_Source\PSoC5/ADC_SAR_2.c **** *  None.
 243:.\Generated_Source\PSoC5/ADC_SAR_2.c **** *
 244:.\Generated_Source\PSoC5/ADC_SAR_2.c **** *******************************************************************************/
 245:.\Generated_Source\PSoC5/ADC_SAR_2.c **** void ADC_SAR_2_Stop(void)
 246:.\Generated_Source\PSoC5/ADC_SAR_2.c **** {
 282              		.loc 1 246 0
 283              		.cfi_startproc
 284              		@ args = 0, pretend = 0, frame = 8
 285              		@ frame_needed = 1, uses_anonymous_args = 0
 286 0000 80B5     		push	{r7, lr}
 287              	.LCFI7:
 288              		.cfi_def_cfa_offset 8
 289              		.cfi_offset 7, -8
 290              		.cfi_offset 14, -4
 291 0002 82B0     		sub	sp, sp, #8
 292              	.LCFI8:
 293              		.cfi_def_cfa_offset 16
 294 0004 00AF     		add	r7, sp, #0
 295              	.LCFI9:
 296              		.cfi_def_cfa_register 7
 247:.\Generated_Source\PSoC5/ADC_SAR_2.c ****     uint8 enableInterrupts;
 248:.\Generated_Source\PSoC5/ADC_SAR_2.c ****     enableInterrupts = CyEnterCriticalSection();
 297              		.loc 1 248 0
 298 0006 FFF7FEFF 		bl	CyEnterCriticalSection
 299 000a 0346     		mov	r3, r0
 300 000c FB71     		strb	r3, [r7, #7]
 249:.\Generated_Source\PSoC5/ADC_SAR_2.c **** 
 250:.\Generated_Source\PSoC5/ADC_SAR_2.c ****     /* Stop all conversions */
 251:.\Generated_Source\PSoC5/ADC_SAR_2.c ****     ADC_SAR_2_SAR_CSR0_REG &= (uint8)~ADC_SAR_2_SAR_SOF_START_CONV;
 301              		.loc 1 251 0
 302 000e 4FF4B243 		mov	r3, #22784
 303 0012 C4F20003 		movt	r3, 16384
 304 0016 4FF4B242 		mov	r2, #22784
 305 001a C4F20002 		movt	r2, 16384
 306 001e 1278     		ldrb	r2, [r2, #0]
 307 0020 D2B2     		uxtb	r2, r2
 308 0022 22F00102 		bic	r2, r2, #1
 309 0026 D2B2     		uxtb	r2, r2
 310 0028 1A70     		strb	r2, [r3, #0]
 252:.\Generated_Source\PSoC5/ADC_SAR_2.c ****     /* Disable the SAR ADC block in Active Power Mode */
 253:.\Generated_Source\PSoC5/ADC_SAR_2.c ****     ADC_SAR_2_PWRMGR_SAR_REG &= (uint8)~ADC_SAR_2_ACT_PWR_SAR_EN;
 311              		.loc 1 253 0
 312 002a 44F2AB33 		movw	r3, #17323
 313 002e C4F20003 		movt	r3, 16384
 314 0032 44F2AB32 		movw	r2, #17323
 315 0036 C4F20002 		movt	r2, 16384
 316 003a 1278     		ldrb	r2, [r2, #0]
 317 003c D2B2     		uxtb	r2, r2
ARM GAS  C:\Users\Robert\AppData\Local\Temp\cczxa6fy.s 			page 11


 318 003e 22F00102 		bic	r2, r2, #1
 319 0042 D2B2     		uxtb	r2, r2
 320 0044 1A70     		strb	r2, [r3, #0]
 254:.\Generated_Source\PSoC5/ADC_SAR_2.c ****     /* Disable the SAR ADC in Standby Power Mode */
 255:.\Generated_Source\PSoC5/ADC_SAR_2.c ****     ADC_SAR_2_STBY_PWRMGR_SAR_REG &= (uint8)~ADC_SAR_2_STBY_PWR_SAR_EN;
 321              		.loc 1 255 0
 322 0046 44F2BB33 		movw	r3, #17339
 323 004a C4F20003 		movt	r3, 16384
 324 004e 44F2BB32 		movw	r2, #17339
 325 0052 C4F20002 		movt	r2, 16384
 326 0056 1278     		ldrb	r2, [r2, #0]
 327 0058 D2B2     		uxtb	r2, r2
 328 005a 22F00102 		bic	r2, r2, #1
 329 005e D2B2     		uxtb	r2, r2
 330 0060 1A70     		strb	r2, [r3, #0]
 256:.\Generated_Source\PSoC5/ADC_SAR_2.c **** 
 257:.\Generated_Source\PSoC5/ADC_SAR_2.c ****     /* This is only valid if there is an internal clock */
 258:.\Generated_Source\PSoC5/ADC_SAR_2.c ****     #if(ADC_SAR_2_DEFAULT_INTERNAL_CLK)
 259:.\Generated_Source\PSoC5/ADC_SAR_2.c ****         ADC_SAR_2_PWRMGR_CLK_REG &= (uint8)~ADC_SAR_2_ACT_PWR_CLK_EN;
 331              		.loc 1 259 0
 332 0062 44F2A133 		movw	r3, #17313
 333 0066 C4F20003 		movt	r3, 16384
 334 006a 44F2A132 		movw	r2, #17313
 335 006e C4F20002 		movt	r2, 16384
 336 0072 1278     		ldrb	r2, [r2, #0]
 337 0074 D2B2     		uxtb	r2, r2
 338 0076 22F00102 		bic	r2, r2, #1
 339 007a D2B2     		uxtb	r2, r2
 340 007c 1A70     		strb	r2, [r3, #0]
 260:.\Generated_Source\PSoC5/ADC_SAR_2.c ****         ADC_SAR_2_STBY_PWRMGR_CLK_REG &= (uint8)~ADC_SAR_2_STBY_PWR_CLK_EN;
 341              		.loc 1 260 0
 342 007e 44F2B133 		movw	r3, #17329
 343 0082 C4F20003 		movt	r3, 16384
 344 0086 44F2B132 		movw	r2, #17329
 345 008a C4F20002 		movt	r2, 16384
 346 008e 1278     		ldrb	r2, [r2, #0]
 347 0090 D2B2     		uxtb	r2, r2
 348 0092 22F00102 		bic	r2, r2, #1
 349 0096 D2B2     		uxtb	r2, r2
 350 0098 1A70     		strb	r2, [r3, #0]
 261:.\Generated_Source\PSoC5/ADC_SAR_2.c ****     #endif /* End ADC_SAR_2_DEFAULT_INTERNAL_CLK */
 262:.\Generated_Source\PSoC5/ADC_SAR_2.c **** 
 263:.\Generated_Source\PSoC5/ADC_SAR_2.c ****     CyExitCriticalSection(enableInterrupts);
 351              		.loc 1 263 0
 352 009a FB79     		ldrb	r3, [r7, #7]	@ zero_extendqisi2
 353 009c 1846     		mov	r0, r3
 354 009e FFF7FEFF 		bl	CyExitCriticalSection
 264:.\Generated_Source\PSoC5/ADC_SAR_2.c **** 
 265:.\Generated_Source\PSoC5/ADC_SAR_2.c **** }
 355              		.loc 1 265 0
 356 00a2 07F10807 		add	r7, r7, #8
 357 00a6 BD46     		mov	sp, r7
 358 00a8 80BD     		pop	{r7, pc}
 359              		.cfi_endproc
 360              	.LFE3:
 361              		.size	ADC_SAR_2_Stop, .-ADC_SAR_2_Stop
 362 00aa 00BF     		.section	.text.ADC_SAR_2_SetPower,"ax",%progbits
ARM GAS  C:\Users\Robert\AppData\Local\Temp\cczxa6fy.s 			page 12


 363              		.align	2
 364              		.global	ADC_SAR_2_SetPower
 365              		.thumb
 366              		.thumb_func
 367              		.type	ADC_SAR_2_SetPower, %function
 368              	ADC_SAR_2_SetPower:
 369              	.LFB4:
 266:.\Generated_Source\PSoC5/ADC_SAR_2.c **** 
 267:.\Generated_Source\PSoC5/ADC_SAR_2.c **** 
 268:.\Generated_Source\PSoC5/ADC_SAR_2.c **** /*******************************************************************************
 269:.\Generated_Source\PSoC5/ADC_SAR_2.c **** * Function Name: ADC_SAR_2_SetPower
 270:.\Generated_Source\PSoC5/ADC_SAR_2.c **** ********************************************************************************
 271:.\Generated_Source\PSoC5/ADC_SAR_2.c **** *
 272:.\Generated_Source\PSoC5/ADC_SAR_2.c **** * Summary:
 273:.\Generated_Source\PSoC5/ADC_SAR_2.c **** *  Sets the operational power of the ADC. You should use the higher power
 274:.\Generated_Source\PSoC5/ADC_SAR_2.c **** *  settings with faster clock speeds.
 275:.\Generated_Source\PSoC5/ADC_SAR_2.c **** *
 276:.\Generated_Source\PSoC5/ADC_SAR_2.c **** * Parameters:
 277:.\Generated_Source\PSoC5/ADC_SAR_2.c **** *  power:  Power setting for ADC
 278:.\Generated_Source\PSoC5/ADC_SAR_2.c **** *  0 ->    Normal
 279:.\Generated_Source\PSoC5/ADC_SAR_2.c **** *  1 ->    Medium power
 280:.\Generated_Source\PSoC5/ADC_SAR_2.c **** *  2 ->    1.25 power
 281:.\Generated_Source\PSoC5/ADC_SAR_2.c **** *  3 ->    Minimum power.
 282:.\Generated_Source\PSoC5/ADC_SAR_2.c **** *
 283:.\Generated_Source\PSoC5/ADC_SAR_2.c **** * Return:
 284:.\Generated_Source\PSoC5/ADC_SAR_2.c **** *  None.
 285:.\Generated_Source\PSoC5/ADC_SAR_2.c **** *
 286:.\Generated_Source\PSoC5/ADC_SAR_2.c **** *******************************************************************************/
 287:.\Generated_Source\PSoC5/ADC_SAR_2.c **** void ADC_SAR_2_SetPower(uint8 power)
 288:.\Generated_Source\PSoC5/ADC_SAR_2.c **** {
 370              		.loc 1 288 0
 371              		.cfi_startproc
 372              		@ args = 0, pretend = 0, frame = 16
 373              		@ frame_needed = 1, uses_anonymous_args = 0
 374              		@ link register save eliminated.
 375 0000 80B4     		push	{r7}
 376              	.LCFI10:
 377              		.cfi_def_cfa_offset 4
 378              		.cfi_offset 7, -4
 379 0002 85B0     		sub	sp, sp, #20
 380              	.LCFI11:
 381              		.cfi_def_cfa_offset 24
 382 0004 00AF     		add	r7, sp, #0
 383              	.LCFI12:
 384              		.cfi_def_cfa_register 7
 385 0006 0346     		mov	r3, r0
 386 0008 FB71     		strb	r3, [r7, #7]
 289:.\Generated_Source\PSoC5/ADC_SAR_2.c ****     uint8 tmpReg;
 290:.\Generated_Source\PSoC5/ADC_SAR_2.c **** 
 291:.\Generated_Source\PSoC5/ADC_SAR_2.c ****     /* mask off invalid power settings */
 292:.\Generated_Source\PSoC5/ADC_SAR_2.c ****     power &= ADC_SAR_2_SAR_API_POWER_MASK;
 387              		.loc 1 292 0
 388 000a FB79     		ldrb	r3, [r7, #7]
 389 000c 03F00303 		and	r3, r3, #3
 390 0010 FB71     		strb	r3, [r7, #7]
 293:.\Generated_Source\PSoC5/ADC_SAR_2.c **** 
 294:.\Generated_Source\PSoC5/ADC_SAR_2.c ****     /* Set Power parameter  */
ARM GAS  C:\Users\Robert\AppData\Local\Temp\cczxa6fy.s 			page 13


 295:.\Generated_Source\PSoC5/ADC_SAR_2.c ****     tmpReg = ADC_SAR_2_SAR_CSR0_REG & (uint8)~ADC_SAR_2_SAR_POWER_MASK;
 391              		.loc 1 295 0
 392 0012 4FF4B243 		mov	r3, #22784
 393 0016 C4F20003 		movt	r3, 16384
 394 001a 1B78     		ldrb	r3, [r3, #0]
 395 001c DBB2     		uxtb	r3, r3
 396 001e 03F03F03 		and	r3, r3, #63
 397 0022 FB73     		strb	r3, [r7, #15]
 296:.\Generated_Source\PSoC5/ADC_SAR_2.c ****     tmpReg |= (uint8)(power << ADC_SAR_2_SAR_POWER_SHIFT);
 398              		.loc 1 296 0
 399 0024 FB79     		ldrb	r3, [r7, #7]
 400 0026 4FEA8313 		lsl	r3, r3, #6
 401 002a DAB2     		uxtb	r2, r3
 402 002c FB7B     		ldrb	r3, [r7, #15]
 403 002e 1343     		orrs	r3, r3, r2
 404 0030 FB73     		strb	r3, [r7, #15]
 297:.\Generated_Source\PSoC5/ADC_SAR_2.c ****     ADC_SAR_2_SAR_CSR0_REG = tmpReg;
 405              		.loc 1 297 0
 406 0032 4FF4B243 		mov	r3, #22784
 407 0036 C4F20003 		movt	r3, 16384
 408 003a FA7B     		ldrb	r2, [r7, #15]
 409 003c 1A70     		strb	r2, [r3, #0]
 298:.\Generated_Source\PSoC5/ADC_SAR_2.c **** }
 410              		.loc 1 298 0
 411 003e 07F11407 		add	r7, r7, #20
 412 0042 BD46     		mov	sp, r7
 413 0044 80BC     		pop	{r7}
 414 0046 7047     		bx	lr
 415              		.cfi_endproc
 416              	.LFE4:
 417              		.size	ADC_SAR_2_SetPower, .-ADC_SAR_2_SetPower
 418              		.section	.text.ADC_SAR_2_SetResolution,"ax",%progbits
 419              		.align	2
 420              		.global	ADC_SAR_2_SetResolution
 421              		.thumb
 422              		.thumb_func
 423              		.type	ADC_SAR_2_SetResolution, %function
 424              	ADC_SAR_2_SetResolution:
 425              	.LFB5:
 299:.\Generated_Source\PSoC5/ADC_SAR_2.c **** 
 300:.\Generated_Source\PSoC5/ADC_SAR_2.c **** 
 301:.\Generated_Source\PSoC5/ADC_SAR_2.c **** /*******************************************************************************
 302:.\Generated_Source\PSoC5/ADC_SAR_2.c **** * Function Name: ADC_SAR_2_SetResolution
 303:.\Generated_Source\PSoC5/ADC_SAR_2.c **** ********************************************************************************
 304:.\Generated_Source\PSoC5/ADC_SAR_2.c **** *
 305:.\Generated_Source\PSoC5/ADC_SAR_2.c **** * Summary:
 306:.\Generated_Source\PSoC5/ADC_SAR_2.c **** *  Sets the Relution of the SAR.
 307:.\Generated_Source\PSoC5/ADC_SAR_2.c **** *
 308:.\Generated_Source\PSoC5/ADC_SAR_2.c **** * Parameters:
 309:.\Generated_Source\PSoC5/ADC_SAR_2.c **** *  resolution:
 310:.\Generated_Source\PSoC5/ADC_SAR_2.c **** *  12 ->    RES12
 311:.\Generated_Source\PSoC5/ADC_SAR_2.c **** *  10 ->    RES10
 312:.\Generated_Source\PSoC5/ADC_SAR_2.c **** *  8  ->    RES8
 313:.\Generated_Source\PSoC5/ADC_SAR_2.c **** *
 314:.\Generated_Source\PSoC5/ADC_SAR_2.c **** * Return:
 315:.\Generated_Source\PSoC5/ADC_SAR_2.c **** *  None.
 316:.\Generated_Source\PSoC5/ADC_SAR_2.c **** *
ARM GAS  C:\Users\Robert\AppData\Local\Temp\cczxa6fy.s 			page 14


 317:.\Generated_Source\PSoC5/ADC_SAR_2.c **** * Side Effects:
 318:.\Generated_Source\PSoC5/ADC_SAR_2.c **** *  The ADC resolution cannot be changed during a conversion cycle. The
 319:.\Generated_Source\PSoC5/ADC_SAR_2.c **** *  recommended best practice is to stop conversions with
 320:.\Generated_Source\PSoC5/ADC_SAR_2.c **** *  ADC_StopConvert(), change the resolution, then restart the
 321:.\Generated_Source\PSoC5/ADC_SAR_2.c **** *  conversions with ADC_StartConvert().
 322:.\Generated_Source\PSoC5/ADC_SAR_2.c **** *  If you decide not to stop conversions before calling this API, you
 323:.\Generated_Source\PSoC5/ADC_SAR_2.c **** *  should use ADC_IsEndConversion() to wait until conversion is complete
 324:.\Generated_Source\PSoC5/ADC_SAR_2.c **** *  before changing the resolution.
 325:.\Generated_Source\PSoC5/ADC_SAR_2.c **** *  If you call ADC_SetResolution() during a conversion, the resolution will
 326:.\Generated_Source\PSoC5/ADC_SAR_2.c **** *  not be changed until the current conversion is complete. Data will not be
 327:.\Generated_Source\PSoC5/ADC_SAR_2.c **** *  available in the new resolution for another 6 + "New Resolution(in bits)"
 328:.\Generated_Source\PSoC5/ADC_SAR_2.c **** *  clock cycles.
 329:.\Generated_Source\PSoC5/ADC_SAR_2.c **** *  You may need add a delay of this number of clock cycles after
 330:.\Generated_Source\PSoC5/ADC_SAR_2.c **** *  ADC_SetResolution() is called before data is valid again.
 331:.\Generated_Source\PSoC5/ADC_SAR_2.c **** *  Affects ADC_CountsTo_Volts(), ADC_CountsTo_mVolts(), and
 332:.\Generated_Source\PSoC5/ADC_SAR_2.c **** *  ADC_CountsTo_uVolts() by calculating the correct conversion between ADC
 333:.\Generated_Source\PSoC5/ADC_SAR_2.c **** *  counts and the applied input voltage. Calculation depends on resolution,
 334:.\Generated_Source\PSoC5/ADC_SAR_2.c **** *  input range, and voltage reference.
 335:.\Generated_Source\PSoC5/ADC_SAR_2.c **** *
 336:.\Generated_Source\PSoC5/ADC_SAR_2.c **** *******************************************************************************/
 337:.\Generated_Source\PSoC5/ADC_SAR_2.c **** void ADC_SAR_2_SetResolution(uint8 resolution)
 338:.\Generated_Source\PSoC5/ADC_SAR_2.c **** {
 426              		.loc 1 338 0
 427              		.cfi_startproc
 428              		@ args = 0, pretend = 0, frame = 16
 429              		@ frame_needed = 1, uses_anonymous_args = 0
 430 0000 80B5     		push	{r7, lr}
 431              	.LCFI13:
 432              		.cfi_def_cfa_offset 8
 433              		.cfi_offset 7, -8
 434              		.cfi_offset 14, -4
 435 0002 84B0     		sub	sp, sp, #16
 436              	.LCFI14:
 437              		.cfi_def_cfa_offset 24
 438 0004 00AF     		add	r7, sp, #0
 439              	.LCFI15:
 440              		.cfi_def_cfa_register 7
 441 0006 0346     		mov	r3, r0
 442 0008 FB71     		strb	r3, [r7, #7]
 339:.\Generated_Source\PSoC5/ADC_SAR_2.c ****     uint8 tmpReg;
 340:.\Generated_Source\PSoC5/ADC_SAR_2.c **** 
 341:.\Generated_Source\PSoC5/ADC_SAR_2.c ****     /* Set SAR ADC resolution and sample width: 18 conversion cycles at 12bits + 1 gap */
 342:.\Generated_Source\PSoC5/ADC_SAR_2.c ****     switch (resolution)
 443              		.loc 1 342 0
 444 000a FB79     		ldrb	r3, [r7, #7]	@ zero_extendqisi2
 445 000c 0A2B     		cmp	r3, #10
 446 000e 08D0     		beq	.L10
 447 0010 0C2B     		cmp	r3, #12
 448 0012 02D0     		beq	.L11
 449 0014 082B     		cmp	r3, #8
 450 0016 08D0     		beq	.L9
 451 0018 0BE0     		b	.L13
 452              	.L11:
 343:.\Generated_Source\PSoC5/ADC_SAR_2.c ****     {
 344:.\Generated_Source\PSoC5/ADC_SAR_2.c ****         case (uint8)ADC_SAR_2__BITS_12:
 345:.\Generated_Source\PSoC5/ADC_SAR_2.c ****             tmpReg = ADC_SAR_2_SAR_RESOLUTION_12BIT | ADC_SAR_2_SAR_SAMPLE_WIDTH;
 453              		.loc 1 345 0
ARM GAS  C:\Users\Robert\AppData\Local\Temp\cczxa6fy.s 			page 15


 454 001a 4FF0C403 		mov	r3, #196
 455 001e FB73     		strb	r3, [r7, #15]
 346:.\Generated_Source\PSoC5/ADC_SAR_2.c ****             break;
 456              		.loc 1 346 0
 457 0020 0FE0     		b	.L12
 458              	.L10:
 347:.\Generated_Source\PSoC5/ADC_SAR_2.c ****         case (uint8)ADC_SAR_2__BITS_10:
 348:.\Generated_Source\PSoC5/ADC_SAR_2.c ****             tmpReg = ADC_SAR_2_SAR_RESOLUTION_10BIT | ADC_SAR_2_SAR_SAMPLE_WIDTH;
 459              		.loc 1 348 0
 460 0022 4FF08403 		mov	r3, #132
 461 0026 FB73     		strb	r3, [r7, #15]
 349:.\Generated_Source\PSoC5/ADC_SAR_2.c ****             break;
 462              		.loc 1 349 0
 463 0028 0BE0     		b	.L12
 464              	.L9:
 350:.\Generated_Source\PSoC5/ADC_SAR_2.c ****         case (uint8)ADC_SAR_2__BITS_8:
 351:.\Generated_Source\PSoC5/ADC_SAR_2.c ****             tmpReg = ADC_SAR_2_SAR_RESOLUTION_8BIT | ADC_SAR_2_SAR_SAMPLE_WIDTH;
 465              		.loc 1 351 0
 466 002a 4FF04403 		mov	r3, #68
 467 002e FB73     		strb	r3, [r7, #15]
 352:.\Generated_Source\PSoC5/ADC_SAR_2.c ****             break;
 468              		.loc 1 352 0
 469 0030 07E0     		b	.L12
 470              	.L13:
 353:.\Generated_Source\PSoC5/ADC_SAR_2.c ****         default:
 354:.\Generated_Source\PSoC5/ADC_SAR_2.c ****             tmpReg = ADC_SAR_2_SAR_RESOLUTION_12BIT | ADC_SAR_2_SAR_SAMPLE_WIDTH;
 471              		.loc 1 354 0
 472 0032 4FF0C403 		mov	r3, #196
 473 0036 FB73     		strb	r3, [r7, #15]
 355:.\Generated_Source\PSoC5/ADC_SAR_2.c ****             /* Halt CPU in debug mode if resolution is out of valid range */
 356:.\Generated_Source\PSoC5/ADC_SAR_2.c ****             CYASSERT(0u != 0u);
 474              		.loc 1 356 0
 475 0038 4FF00000 		mov	r0, #0
 476 003c FFF7FEFF 		bl	CyHalt
 357:.\Generated_Source\PSoC5/ADC_SAR_2.c ****             break;
 477              		.loc 1 357 0
 478 0040 00BF     		nop
 479              	.L12:
 358:.\Generated_Source\PSoC5/ADC_SAR_2.c ****     }
 359:.\Generated_Source\PSoC5/ADC_SAR_2.c ****     ADC_SAR_2_SAR_CSR2_REG = tmpReg;
 480              		.loc 1 359 0
 481 0042 45F60213 		movw	r3, #22786
 482 0046 C4F20003 		movt	r3, 16384
 483 004a FA7B     		ldrb	r2, [r7, #15]
 484 004c 1A70     		strb	r2, [r3, #0]
 360:.\Generated_Source\PSoC5/ADC_SAR_2.c **** 
 361:.\Generated_Source\PSoC5/ADC_SAR_2.c ****      /* Calculate gain for convert counts to volts */
 362:.\Generated_Source\PSoC5/ADC_SAR_2.c ****     ADC_SAR_2_CalcGain(resolution);
 485              		.loc 1 362 0
 486 004e FB79     		ldrb	r3, [r7, #7]	@ zero_extendqisi2
 487 0050 1846     		mov	r0, r3
 488 0052 FFF7FEFF 		bl	ADC_SAR_2_CalcGain
 363:.\Generated_Source\PSoC5/ADC_SAR_2.c **** }
 489              		.loc 1 363 0
 490 0056 07F11007 		add	r7, r7, #16
 491 005a BD46     		mov	sp, r7
 492 005c 80BD     		pop	{r7, pc}
ARM GAS  C:\Users\Robert\AppData\Local\Temp\cczxa6fy.s 			page 16


 493              		.cfi_endproc
 494              	.LFE5:
 495              		.size	ADC_SAR_2_SetResolution, .-ADC_SAR_2_SetResolution
 496 005e 00BF     		.section	.text.ADC_SAR_2_StartConvert,"ax",%progbits
 497              		.align	2
 498              		.global	ADC_SAR_2_StartConvert
 499              		.thumb
 500              		.thumb_func
 501              		.type	ADC_SAR_2_StartConvert, %function
 502              	ADC_SAR_2_StartConvert:
 503              	.LFB6:
 364:.\Generated_Source\PSoC5/ADC_SAR_2.c **** 
 365:.\Generated_Source\PSoC5/ADC_SAR_2.c **** 
 366:.\Generated_Source\PSoC5/ADC_SAR_2.c **** #if(ADC_SAR_2_DEFAULT_CONV_MODE != ADC_SAR_2__HARDWARE_TRIGGER)
 367:.\Generated_Source\PSoC5/ADC_SAR_2.c **** 
 368:.\Generated_Source\PSoC5/ADC_SAR_2.c **** 
 369:.\Generated_Source\PSoC5/ADC_SAR_2.c ****     /*******************************************************************************
 370:.\Generated_Source\PSoC5/ADC_SAR_2.c ****     * Function Name: ADC_SAR_2_StartConvert
 371:.\Generated_Source\PSoC5/ADC_SAR_2.c ****     ********************************************************************************
 372:.\Generated_Source\PSoC5/ADC_SAR_2.c ****     *
 373:.\Generated_Source\PSoC5/ADC_SAR_2.c ****     * Summary:
 374:.\Generated_Source\PSoC5/ADC_SAR_2.c ****     *  Forces the ADC to initiate a conversion. In free-running mode, the ADC runs
 375:.\Generated_Source\PSoC5/ADC_SAR_2.c ****     *  continuously. In software trigger mode, the function also acts as a software
 376:.\Generated_Source\PSoC5/ADC_SAR_2.c ****     *  version of the SOC and every conversion must be triggered by
 377:.\Generated_Source\PSoC5/ADC_SAR_2.c ****     *  ADC_SAR_2_StartConvert(). This function is not available when the
 378:.\Generated_Source\PSoC5/ADC_SAR_2.c ****     *  Hardware Trigger sample mode is selected.
 379:.\Generated_Source\PSoC5/ADC_SAR_2.c ****     *
 380:.\Generated_Source\PSoC5/ADC_SAR_2.c ****     * Parameters:
 381:.\Generated_Source\PSoC5/ADC_SAR_2.c ****     *  None.
 382:.\Generated_Source\PSoC5/ADC_SAR_2.c ****     *
 383:.\Generated_Source\PSoC5/ADC_SAR_2.c ****     * Return:
 384:.\Generated_Source\PSoC5/ADC_SAR_2.c ****     *  None.
 385:.\Generated_Source\PSoC5/ADC_SAR_2.c ****     *
 386:.\Generated_Source\PSoC5/ADC_SAR_2.c ****     * Theory:
 387:.\Generated_Source\PSoC5/ADC_SAR_2.c ****     *  Forces the ADC to initiate a conversion. In Free Running mode, the ADC will
 388:.\Generated_Source\PSoC5/ADC_SAR_2.c ****     *  run continuously. In a software trigger mode the function also acts as a
 389:.\Generated_Source\PSoC5/ADC_SAR_2.c ****     *  software version of the SOC. Here every conversion has to be triggered by
 390:.\Generated_Source\PSoC5/ADC_SAR_2.c ****     *  the routine. This writes into the SOC bit in SAR_CTRL reg.
 391:.\Generated_Source\PSoC5/ADC_SAR_2.c ****     *
 392:.\Generated_Source\PSoC5/ADC_SAR_2.c ****     * Side Effects:
 393:.\Generated_Source\PSoC5/ADC_SAR_2.c ****     *  In a software trigger mode the function switches source for SOF from the
 394:.\Generated_Source\PSoC5/ADC_SAR_2.c ****     *  external pin to the internal SOF generation. Application should not call
 395:.\Generated_Source\PSoC5/ADC_SAR_2.c ****     *  StartConvert if external source used for SOF.
 396:.\Generated_Source\PSoC5/ADC_SAR_2.c ****     *
 397:.\Generated_Source\PSoC5/ADC_SAR_2.c ****     *******************************************************************************/
 398:.\Generated_Source\PSoC5/ADC_SAR_2.c ****     void ADC_SAR_2_StartConvert(void)
 399:.\Generated_Source\PSoC5/ADC_SAR_2.c ****     {
 504              		.loc 1 399 0
 505              		.cfi_startproc
 506              		@ args = 0, pretend = 0, frame = 0
 507              		@ frame_needed = 1, uses_anonymous_args = 0
 508              		@ link register save eliminated.
 509 0000 80B4     		push	{r7}
 510              	.LCFI16:
 511              		.cfi_def_cfa_offset 4
 512              		.cfi_offset 7, -4
 513 0002 00AF     		add	r7, sp, #0
ARM GAS  C:\Users\Robert\AppData\Local\Temp\cczxa6fy.s 			page 17


 514              	.LCFI17:
 515              		.cfi_def_cfa_register 7
 400:.\Generated_Source\PSoC5/ADC_SAR_2.c ****         #if(ADC_SAR_2_DEFAULT_CONV_MODE != ADC_SAR_2__FREE_RUNNING)  /* If software triggered mode 
 401:.\Generated_Source\PSoC5/ADC_SAR_2.c ****             ADC_SAR_2_SAR_CSR0_REG &= (uint8)~ADC_SAR_2_SAR_MX_SOF_UDB;   /* source: SOF bit */
 402:.\Generated_Source\PSoC5/ADC_SAR_2.c ****         #endif /* End ADC_SAR_2_DEFAULT_CONV_MODE */
 403:.\Generated_Source\PSoC5/ADC_SAR_2.c **** 
 404:.\Generated_Source\PSoC5/ADC_SAR_2.c ****         /* Start the conversion */
 405:.\Generated_Source\PSoC5/ADC_SAR_2.c ****         ADC_SAR_2_SAR_CSR0_REG |= ADC_SAR_2_SAR_SOF_START_CONV;
 516              		.loc 1 405 0
 517 0004 4FF4B243 		mov	r3, #22784
 518 0008 C4F20003 		movt	r3, 16384
 519 000c 4FF4B242 		mov	r2, #22784
 520 0010 C4F20002 		movt	r2, 16384
 521 0014 1278     		ldrb	r2, [r2, #0]
 522 0016 D2B2     		uxtb	r2, r2
 523 0018 42F00102 		orr	r2, r2, #1
 524 001c D2B2     		uxtb	r2, r2
 525 001e 1A70     		strb	r2, [r3, #0]
 406:.\Generated_Source\PSoC5/ADC_SAR_2.c ****     }
 526              		.loc 1 406 0
 527 0020 BD46     		mov	sp, r7
 528 0022 80BC     		pop	{r7}
 529 0024 7047     		bx	lr
 530              		.cfi_endproc
 531              	.LFE6:
 532              		.size	ADC_SAR_2_StartConvert, .-ADC_SAR_2_StartConvert
 533 0026 00BF     		.section	.text.ADC_SAR_2_StopConvert,"ax",%progbits
 534              		.align	2
 535              		.global	ADC_SAR_2_StopConvert
 536              		.thumb
 537              		.thumb_func
 538              		.type	ADC_SAR_2_StopConvert, %function
 539              	ADC_SAR_2_StopConvert:
 540              	.LFB7:
 407:.\Generated_Source\PSoC5/ADC_SAR_2.c **** 
 408:.\Generated_Source\PSoC5/ADC_SAR_2.c **** 
 409:.\Generated_Source\PSoC5/ADC_SAR_2.c ****     /*******************************************************************************
 410:.\Generated_Source\PSoC5/ADC_SAR_2.c ****     * Function Name: ADC_SAR_2_StopConvert
 411:.\Generated_Source\PSoC5/ADC_SAR_2.c ****     ********************************************************************************
 412:.\Generated_Source\PSoC5/ADC_SAR_2.c ****     *
 413:.\Generated_Source\PSoC5/ADC_SAR_2.c ****     * Summary:
 414:.\Generated_Source\PSoC5/ADC_SAR_2.c ****     *  Forces the ADC to stop conversions. If a conversion is currently executing,
 415:.\Generated_Source\PSoC5/ADC_SAR_2.c ****     *  that conversion will complete, but no further conversions will occur. This
 416:.\Generated_Source\PSoC5/ADC_SAR_2.c ****     *  function is not available when the Hardware Trigger sample mode is selected.
 417:.\Generated_Source\PSoC5/ADC_SAR_2.c ****     *
 418:.\Generated_Source\PSoC5/ADC_SAR_2.c ****     * Parameters:
 419:.\Generated_Source\PSoC5/ADC_SAR_2.c ****     *  None.
 420:.\Generated_Source\PSoC5/ADC_SAR_2.c ****     *
 421:.\Generated_Source\PSoC5/ADC_SAR_2.c ****     * Return:
 422:.\Generated_Source\PSoC5/ADC_SAR_2.c ****     *  None.
 423:.\Generated_Source\PSoC5/ADC_SAR_2.c ****     *
 424:.\Generated_Source\PSoC5/ADC_SAR_2.c ****     * Theory:
 425:.\Generated_Source\PSoC5/ADC_SAR_2.c ****     *  Stops ADC conversion in Free Running mode.
 426:.\Generated_Source\PSoC5/ADC_SAR_2.c ****     *
 427:.\Generated_Source\PSoC5/ADC_SAR_2.c ****     * Side Effects:
 428:.\Generated_Source\PSoC5/ADC_SAR_2.c ****     *  In Software Trigger sample mode, this function sets a software version of the
 429:.\Generated_Source\PSoC5/ADC_SAR_2.c ****     *  SOC to low level and switches the SOC source to hardware SOC input.
ARM GAS  C:\Users\Robert\AppData\Local\Temp\cczxa6fy.s 			page 18


 430:.\Generated_Source\PSoC5/ADC_SAR_2.c ****     *
 431:.\Generated_Source\PSoC5/ADC_SAR_2.c ****     *******************************************************************************/
 432:.\Generated_Source\PSoC5/ADC_SAR_2.c ****     void ADC_SAR_2_StopConvert(void)
 433:.\Generated_Source\PSoC5/ADC_SAR_2.c ****     {
 541              		.loc 1 433 0
 542              		.cfi_startproc
 543              		@ args = 0, pretend = 0, frame = 0
 544              		@ frame_needed = 1, uses_anonymous_args = 0
 545              		@ link register save eliminated.
 546 0000 80B4     		push	{r7}
 547              	.LCFI18:
 548              		.cfi_def_cfa_offset 4
 549              		.cfi_offset 7, -4
 550 0002 00AF     		add	r7, sp, #0
 551              	.LCFI19:
 552              		.cfi_def_cfa_register 7
 434:.\Generated_Source\PSoC5/ADC_SAR_2.c ****         /* Stop all conversions */
 435:.\Generated_Source\PSoC5/ADC_SAR_2.c ****         ADC_SAR_2_SAR_CSR0_REG &= (uint8)~ADC_SAR_2_SAR_SOF_START_CONV;
 553              		.loc 1 435 0
 554 0004 4FF4B243 		mov	r3, #22784
 555 0008 C4F20003 		movt	r3, 16384
 556 000c 4FF4B242 		mov	r2, #22784
 557 0010 C4F20002 		movt	r2, 16384
 558 0014 1278     		ldrb	r2, [r2, #0]
 559 0016 D2B2     		uxtb	r2, r2
 560 0018 22F00102 		bic	r2, r2, #1
 561 001c D2B2     		uxtb	r2, r2
 562 001e 1A70     		strb	r2, [r3, #0]
 436:.\Generated_Source\PSoC5/ADC_SAR_2.c **** 
 437:.\Generated_Source\PSoC5/ADC_SAR_2.c ****         #if(ADC_SAR_2_DEFAULT_CONV_MODE != ADC_SAR_2__FREE_RUNNING)  /* If software triggered mode 
 438:.\Generated_Source\PSoC5/ADC_SAR_2.c ****             /* Return source to UDB for hardware SOF signal */
 439:.\Generated_Source\PSoC5/ADC_SAR_2.c ****             ADC_SAR_2_SAR_CSR0_REG |= ADC_SAR_2_SAR_MX_SOF_UDB;    /* source: UDB */
 440:.\Generated_Source\PSoC5/ADC_SAR_2.c ****         #endif /* End ADC_SAR_2_DEFAULT_CONV_MODE */
 441:.\Generated_Source\PSoC5/ADC_SAR_2.c **** 
 442:.\Generated_Source\PSoC5/ADC_SAR_2.c ****     }
 563              		.loc 1 442 0
 564 0020 BD46     		mov	sp, r7
 565 0022 80BC     		pop	{r7}
 566 0024 7047     		bx	lr
 567              		.cfi_endproc
 568              	.LFE7:
 569              		.size	ADC_SAR_2_StopConvert, .-ADC_SAR_2_StopConvert
 570 0026 00BF     		.section	.text.ADC_SAR_2_IsEndConversion,"ax",%progbits
 571              		.align	2
 572              		.global	ADC_SAR_2_IsEndConversion
 573              		.thumb
 574              		.thumb_func
 575              		.type	ADC_SAR_2_IsEndConversion, %function
 576              	ADC_SAR_2_IsEndConversion:
 577              	.LFB8:
 443:.\Generated_Source\PSoC5/ADC_SAR_2.c **** 
 444:.\Generated_Source\PSoC5/ADC_SAR_2.c **** #endif /* End ADC_SAR_2_DEFAULT_CONV_MODE != ADC_SAR_2__HARDWARE_TRIGGER */
 445:.\Generated_Source\PSoC5/ADC_SAR_2.c **** 
 446:.\Generated_Source\PSoC5/ADC_SAR_2.c **** 
 447:.\Generated_Source\PSoC5/ADC_SAR_2.c **** /*******************************************************************************
 448:.\Generated_Source\PSoC5/ADC_SAR_2.c **** * Function Name: ADC_SAR_2_IsEndConversion
 449:.\Generated_Source\PSoC5/ADC_SAR_2.c **** ********************************************************************************
ARM GAS  C:\Users\Robert\AppData\Local\Temp\cczxa6fy.s 			page 19


 450:.\Generated_Source\PSoC5/ADC_SAR_2.c **** *
 451:.\Generated_Source\PSoC5/ADC_SAR_2.c **** * Summary:
 452:.\Generated_Source\PSoC5/ADC_SAR_2.c **** *  Immediately returns the status of the conversion or does not return
 453:.\Generated_Source\PSoC5/ADC_SAR_2.c **** *  (blocking) until the conversion completes, depending on the retMode
 454:.\Generated_Source\PSoC5/ADC_SAR_2.c **** *  parameter.
 455:.\Generated_Source\PSoC5/ADC_SAR_2.c **** *
 456:.\Generated_Source\PSoC5/ADC_SAR_2.c **** * Parameters:
 457:.\Generated_Source\PSoC5/ADC_SAR_2.c **** *  retMode:  Check conversion return mode.
 458:.\Generated_Source\PSoC5/ADC_SAR_2.c **** *   ADC_SAR_2_RETURN_STATUS: Immediately returns the status. If the
 459:.\Generated_Source\PSoC5/ADC_SAR_2.c **** *     value returned is zero, the conversion is not complete, and this function
 460:.\Generated_Source\PSoC5/ADC_SAR_2.c **** *     should be retried until a nonzero result is returned.
 461:.\Generated_Source\PSoC5/ADC_SAR_2.c **** *   ADC_SAR_2_WAIT_FOR_RESULT: Does not return a result until the ADC
 462:.\Generated_Source\PSoC5/ADC_SAR_2.c **** *     conversion is complete.
 463:.\Generated_Source\PSoC5/ADC_SAR_2.c **** *
 464:.\Generated_Source\PSoC5/ADC_SAR_2.c **** * Return:
 465:.\Generated_Source\PSoC5/ADC_SAR_2.c **** *  (uint8)  0 =>  The ADC is still calculating the last result.
 466:.\Generated_Source\PSoC5/ADC_SAR_2.c **** *           1 =>  The last conversion is complete.
 467:.\Generated_Source\PSoC5/ADC_SAR_2.c **** *
 468:.\Generated_Source\PSoC5/ADC_SAR_2.c **** * Side Effects:
 469:.\Generated_Source\PSoC5/ADC_SAR_2.c **** *  This function reads the end of conversion status, which is cleared on read.
 470:.\Generated_Source\PSoC5/ADC_SAR_2.c **** *
 471:.\Generated_Source\PSoC5/ADC_SAR_2.c **** *******************************************************************************/
 472:.\Generated_Source\PSoC5/ADC_SAR_2.c **** uint8 ADC_SAR_2_IsEndConversion(uint8 retMode)
 473:.\Generated_Source\PSoC5/ADC_SAR_2.c **** {
 578              		.loc 1 473 0
 579              		.cfi_startproc
 580              		@ args = 0, pretend = 0, frame = 16
 581              		@ frame_needed = 1, uses_anonymous_args = 0
 582 0000 80B5     		push	{r7, lr}
 583              	.LCFI20:
 584              		.cfi_def_cfa_offset 8
 585              		.cfi_offset 7, -8
 586              		.cfi_offset 14, -4
 587 0002 84B0     		sub	sp, sp, #16
 588              	.LCFI21:
 589              		.cfi_def_cfa_offset 24
 590 0004 00AF     		add	r7, sp, #0
 591              	.LCFI22:
 592              		.cfi_def_cfa_register 7
 593 0006 0346     		mov	r3, r0
 594 0008 FB71     		strb	r3, [r7, #7]
 595              	.L18:
 474:.\Generated_Source\PSoC5/ADC_SAR_2.c ****     uint8 status;
 475:.\Generated_Source\PSoC5/ADC_SAR_2.c **** 
 476:.\Generated_Source\PSoC5/ADC_SAR_2.c ****     do
 477:.\Generated_Source\PSoC5/ADC_SAR_2.c ****     {
 478:.\Generated_Source\PSoC5/ADC_SAR_2.c ****         status = ADC_SAR_2_SAR_CSR1_REG & ADC_SAR_2_SAR_EOF_1;
 596              		.loc 1 478 0 discriminator 1
 597 000a 45F60113 		movw	r3, #22785
 598 000e C4F20003 		movt	r3, 16384
 599 0012 1B78     		ldrb	r3, [r3, #0]
 600 0014 DBB2     		uxtb	r3, r3
 601 0016 03F00103 		and	r3, r3, #1
 602 001a FB73     		strb	r3, [r7, #15]
 479:.\Generated_Source\PSoC5/ADC_SAR_2.c ****     } while ((status != ADC_SAR_2_SAR_EOF_1) && (retMode == ADC_SAR_2_WAIT_FOR_RESULT));
 603              		.loc 1 479 0 discriminator 1
 604 001c FB7B     		ldrb	r3, [r7, #15]	@ zero_extendqisi2
ARM GAS  C:\Users\Robert\AppData\Local\Temp\cczxa6fy.s 			page 20


 605 001e 012B     		cmp	r3, #1
 606 0020 02D0     		beq	.L17
 607 0022 FB79     		ldrb	r3, [r7, #7]	@ zero_extendqisi2
 608 0024 002B     		cmp	r3, #0
 609 0026 F0D0     		beq	.L18
 610              	.L17:
 480:.\Generated_Source\PSoC5/ADC_SAR_2.c ****     /* If convertion complete, wait until EOF bit released */
 481:.\Generated_Source\PSoC5/ADC_SAR_2.c ****     if(status == ADC_SAR_2_SAR_EOF_1)
 611              		.loc 1 481 0
 612 0028 FB7B     		ldrb	r3, [r7, #15]	@ zero_extendqisi2
 613 002a 012B     		cmp	r3, #1
 614 002c 08D1     		bne	.L19
 482:.\Generated_Source\PSoC5/ADC_SAR_2.c ****     {
 483:.\Generated_Source\PSoC5/ADC_SAR_2.c ****         /* wait one ADC clock to let the EOC status bit release */
 484:.\Generated_Source\PSoC5/ADC_SAR_2.c ****         CyDelayUs(1u);
 615              		.loc 1 484 0
 616 002e 4FF00100 		mov	r0, #1
 617 0032 FFF7FEFF 		bl	CyDelayUs
 485:.\Generated_Source\PSoC5/ADC_SAR_2.c ****         /* Do the unconditional read operation of the CSR1 register to make sure the EOC bit has be
 486:.\Generated_Source\PSoC5/ADC_SAR_2.c ****         CY_GET_REG8(ADC_SAR_2_SAR_CSR1_PTR);
 618              		.loc 1 486 0
 619 0036 45F60113 		movw	r3, #22785
 620 003a C4F20003 		movt	r3, 16384
 621 003e 1B78     		ldrb	r3, [r3, #0]
 622              	.L19:
 487:.\Generated_Source\PSoC5/ADC_SAR_2.c ****     }
 488:.\Generated_Source\PSoC5/ADC_SAR_2.c **** 
 489:.\Generated_Source\PSoC5/ADC_SAR_2.c ****     return(status);
 623              		.loc 1 489 0
 624 0040 FB7B     		ldrb	r3, [r7, #15]	@ zero_extendqisi2
 490:.\Generated_Source\PSoC5/ADC_SAR_2.c **** }
 625              		.loc 1 490 0
 626 0042 1846     		mov	r0, r3
 627 0044 07F11007 		add	r7, r7, #16
 628 0048 BD46     		mov	sp, r7
 629 004a 80BD     		pop	{r7, pc}
 630              		.cfi_endproc
 631              	.LFE8:
 632              		.size	ADC_SAR_2_IsEndConversion, .-ADC_SAR_2_IsEndConversion
 633              		.section	.text.ADC_SAR_2_GetResult8,"ax",%progbits
 634              		.align	2
 635              		.global	ADC_SAR_2_GetResult8
 636              		.thumb
 637              		.thumb_func
 638              		.type	ADC_SAR_2_GetResult8, %function
 639              	ADC_SAR_2_GetResult8:
 640              	.LFB9:
 491:.\Generated_Source\PSoC5/ADC_SAR_2.c **** 
 492:.\Generated_Source\PSoC5/ADC_SAR_2.c **** 
 493:.\Generated_Source\PSoC5/ADC_SAR_2.c **** /*******************************************************************************
 494:.\Generated_Source\PSoC5/ADC_SAR_2.c **** * Function Name: ADC_SAR_2_GetResult8
 495:.\Generated_Source\PSoC5/ADC_SAR_2.c **** ********************************************************************************
 496:.\Generated_Source\PSoC5/ADC_SAR_2.c **** *
 497:.\Generated_Source\PSoC5/ADC_SAR_2.c **** * Summary:
 498:.\Generated_Source\PSoC5/ADC_SAR_2.c **** *  Returns the result of an 8-bit conversion. If the resolution is set greater
 499:.\Generated_Source\PSoC5/ADC_SAR_2.c **** *  than 8 bits, the function returns the LSB of the result.
 500:.\Generated_Source\PSoC5/ADC_SAR_2.c **** *  ADC_SAR_2_IsEndConversion() should be called to verify that the data
ARM GAS  C:\Users\Robert\AppData\Local\Temp\cczxa6fy.s 			page 21


 501:.\Generated_Source\PSoC5/ADC_SAR_2.c **** *   sample is ready.
 502:.\Generated_Source\PSoC5/ADC_SAR_2.c **** *
 503:.\Generated_Source\PSoC5/ADC_SAR_2.c **** * Parameters:
 504:.\Generated_Source\PSoC5/ADC_SAR_2.c **** *  None.
 505:.\Generated_Source\PSoC5/ADC_SAR_2.c **** *
 506:.\Generated_Source\PSoC5/ADC_SAR_2.c **** * Return:
 507:.\Generated_Source\PSoC5/ADC_SAR_2.c **** *  The LSB of the last ADC conversion.
 508:.\Generated_Source\PSoC5/ADC_SAR_2.c **** *
 509:.\Generated_Source\PSoC5/ADC_SAR_2.c **** * Global Variables:
 510:.\Generated_Source\PSoC5/ADC_SAR_2.c **** *  ADC_SAR_2_shift - used to convert the ADC counts to the 2s
 511:.\Generated_Source\PSoC5/ADC_SAR_2.c **** *  compliment form.
 512:.\Generated_Source\PSoC5/ADC_SAR_2.c **** *
 513:.\Generated_Source\PSoC5/ADC_SAR_2.c **** * Side Effects:
 514:.\Generated_Source\PSoC5/ADC_SAR_2.c **** *  Converts the ADC counts to the 2s complement form.
 515:.\Generated_Source\PSoC5/ADC_SAR_2.c **** *
 516:.\Generated_Source\PSoC5/ADC_SAR_2.c **** *******************************************************************************/
 517:.\Generated_Source\PSoC5/ADC_SAR_2.c **** int8 ADC_SAR_2_GetResult8( void )
 518:.\Generated_Source\PSoC5/ADC_SAR_2.c **** {
 641              		.loc 1 518 0
 642              		.cfi_startproc
 643              		@ args = 0, pretend = 0, frame = 0
 644              		@ frame_needed = 1, uses_anonymous_args = 0
 645              		@ link register save eliminated.
 646 0000 80B4     		push	{r7}
 647              	.LCFI23:
 648              		.cfi_def_cfa_offset 4
 649              		.cfi_offset 7, -4
 650 0002 00AF     		add	r7, sp, #0
 651              	.LCFI24:
 652              		.cfi_def_cfa_register 7
 519:.\Generated_Source\PSoC5/ADC_SAR_2.c ****     return( (int8)ADC_SAR_2_SAR_WRK0_REG - (int8)ADC_SAR_2_shift);
 653              		.loc 1 519 0
 654 0004 45F6A033 		movw	r3, #23456
 655 0008 C4F20003 		movt	r3, 16384
 656 000c 1B78     		ldrb	r3, [r3, #0]
 657 000e DAB2     		uxtb	r2, r3
 658 0010 40F20003 		movw	r3, #:lower16:ADC_SAR_2_shift
 659 0014 C0F20003 		movt	r3, #:upper16:ADC_SAR_2_shift
 660 0018 1B88     		ldrh	r3, [r3, #0]	@ movhi
 661 001a 9BB2     		uxth	r3, r3
 662 001c DBB2     		uxtb	r3, r3
 663 001e D31A     		subs	r3, r2, r3
 664 0020 DBB2     		uxtb	r3, r3
 665 0022 DBB2     		uxtb	r3, r3
 666 0024 5BB2     		sxtb	r3, r3
 520:.\Generated_Source\PSoC5/ADC_SAR_2.c **** }
 667              		.loc 1 520 0
 668 0026 1846     		mov	r0, r3
 669 0028 BD46     		mov	sp, r7
 670 002a 80BC     		pop	{r7}
 671 002c 7047     		bx	lr
 672              		.cfi_endproc
 673              	.LFE9:
 674              		.size	ADC_SAR_2_GetResult8, .-ADC_SAR_2_GetResult8
 675 002e 00BF     		.section	.text.ADC_SAR_2_GetResult16,"ax",%progbits
 676              		.align	2
 677              		.global	ADC_SAR_2_GetResult16
ARM GAS  C:\Users\Robert\AppData\Local\Temp\cczxa6fy.s 			page 22


 678              		.thumb
 679              		.thumb_func
 680              		.type	ADC_SAR_2_GetResult16, %function
 681              	ADC_SAR_2_GetResult16:
 682              	.LFB10:
 521:.\Generated_Source\PSoC5/ADC_SAR_2.c **** 
 522:.\Generated_Source\PSoC5/ADC_SAR_2.c **** 
 523:.\Generated_Source\PSoC5/ADC_SAR_2.c **** /*******************************************************************************
 524:.\Generated_Source\PSoC5/ADC_SAR_2.c **** * Function Name: ADC_SAR_2_GetResult16
 525:.\Generated_Source\PSoC5/ADC_SAR_2.c **** ********************************************************************************
 526:.\Generated_Source\PSoC5/ADC_SAR_2.c **** *
 527:.\Generated_Source\PSoC5/ADC_SAR_2.c **** * Summary:
 528:.\Generated_Source\PSoC5/ADC_SAR_2.c **** *  Returns a 16-bit result for a conversion with a result that has a resolution
 529:.\Generated_Source\PSoC5/ADC_SAR_2.c **** *  of 8 to 12 bits.
 530:.\Generated_Source\PSoC5/ADC_SAR_2.c **** *  ADC_SAR_2_IsEndConversion() should be called to verify that the data
 531:.\Generated_Source\PSoC5/ADC_SAR_2.c **** *   sample is ready
 532:.\Generated_Source\PSoC5/ADC_SAR_2.c **** *
 533:.\Generated_Source\PSoC5/ADC_SAR_2.c **** * Parameters:
 534:.\Generated_Source\PSoC5/ADC_SAR_2.c **** *  None.
 535:.\Generated_Source\PSoC5/ADC_SAR_2.c **** *
 536:.\Generated_Source\PSoC5/ADC_SAR_2.c **** * Return:
 537:.\Generated_Source\PSoC5/ADC_SAR_2.c **** *  The 16-bit result of the last ADC conversion
 538:.\Generated_Source\PSoC5/ADC_SAR_2.c **** *
 539:.\Generated_Source\PSoC5/ADC_SAR_2.c **** * Global Variables:
 540:.\Generated_Source\PSoC5/ADC_SAR_2.c **** *  ADC_SAR_2_shift - used to convert the ADC counts to the 2s
 541:.\Generated_Source\PSoC5/ADC_SAR_2.c **** *  compliment form.
 542:.\Generated_Source\PSoC5/ADC_SAR_2.c **** *
 543:.\Generated_Source\PSoC5/ADC_SAR_2.c **** * Side Effects:
 544:.\Generated_Source\PSoC5/ADC_SAR_2.c **** *  Converts the ADC counts to the 2s complement form.
 545:.\Generated_Source\PSoC5/ADC_SAR_2.c **** *
 546:.\Generated_Source\PSoC5/ADC_SAR_2.c **** *******************************************************************************/
 547:.\Generated_Source\PSoC5/ADC_SAR_2.c **** int16 ADC_SAR_2_GetResult16( void )
 548:.\Generated_Source\PSoC5/ADC_SAR_2.c **** {
 683              		.loc 1 548 0
 684              		.cfi_startproc
 685              		@ args = 0, pretend = 0, frame = 8
 686              		@ frame_needed = 1, uses_anonymous_args = 0
 687              		@ link register save eliminated.
 688 0000 80B4     		push	{r7}
 689              	.LCFI25:
 690              		.cfi_def_cfa_offset 4
 691              		.cfi_offset 7, -4
 692 0002 83B0     		sub	sp, sp, #12
 693              	.LCFI26:
 694              		.cfi_def_cfa_offset 16
 695 0004 00AF     		add	r7, sp, #0
 696              	.LCFI27:
 697              		.cfi_def_cfa_register 7
 549:.\Generated_Source\PSoC5/ADC_SAR_2.c ****     uint16 res;
 550:.\Generated_Source\PSoC5/ADC_SAR_2.c **** 
 551:.\Generated_Source\PSoC5/ADC_SAR_2.c ****     res = CY_GET_REG16(ADC_SAR_2_SAR_WRK_PTR);
 698              		.loc 1 551 0
 699 0006 45F6A033 		movw	r3, #23456
 700 000a C4F20003 		movt	r3, 16384
 701 000e 1B88     		ldrh	r3, [r3, #0]	@ movhi
 702 0010 FB80     		strh	r3, [r7, #6]	@ movhi
 552:.\Generated_Source\PSoC5/ADC_SAR_2.c **** 
ARM GAS  C:\Users\Robert\AppData\Local\Temp\cczxa6fy.s 			page 23


 553:.\Generated_Source\PSoC5/ADC_SAR_2.c ****     return( (int16)res - ADC_SAR_2_shift );
 703              		.loc 1 553 0
 704 0012 40F20003 		movw	r3, #:lower16:ADC_SAR_2_shift
 705 0016 C0F20003 		movt	r3, #:upper16:ADC_SAR_2_shift
 706 001a 1B88     		ldrh	r3, [r3, #0]	@ movhi
 707 001c 9BB2     		uxth	r3, r3
 708 001e 9BB2     		uxth	r3, r3
 709 0020 FA88     		ldrh	r2, [r7, #6]	@ movhi
 710 0022 D31A     		subs	r3, r2, r3
 711 0024 9BB2     		uxth	r3, r3
 712 0026 9BB2     		uxth	r3, r3
 713 0028 1BB2     		sxth	r3, r3
 554:.\Generated_Source\PSoC5/ADC_SAR_2.c **** }
 714              		.loc 1 554 0
 715 002a 1846     		mov	r0, r3
 716 002c 07F10C07 		add	r7, r7, #12
 717 0030 BD46     		mov	sp, r7
 718 0032 80BC     		pop	{r7}
 719 0034 7047     		bx	lr
 720              		.cfi_endproc
 721              	.LFE10:
 722              		.size	ADC_SAR_2_GetResult16, .-ADC_SAR_2_GetResult16
 723 0036 00BF     		.section	.text.ADC_SAR_2_SetOffset,"ax",%progbits
 724              		.align	2
 725              		.global	ADC_SAR_2_SetOffset
 726              		.thumb
 727              		.thumb_func
 728              		.type	ADC_SAR_2_SetOffset, %function
 729              	ADC_SAR_2_SetOffset:
 730              	.LFB11:
 555:.\Generated_Source\PSoC5/ADC_SAR_2.c **** 
 556:.\Generated_Source\PSoC5/ADC_SAR_2.c **** 
 557:.\Generated_Source\PSoC5/ADC_SAR_2.c **** /*******************************************************************************
 558:.\Generated_Source\PSoC5/ADC_SAR_2.c **** * Function Name: ADC_SAR_2_SetOffset
 559:.\Generated_Source\PSoC5/ADC_SAR_2.c **** ********************************************************************************
 560:.\Generated_Source\PSoC5/ADC_SAR_2.c **** *
 561:.\Generated_Source\PSoC5/ADC_SAR_2.c **** * Summary:
 562:.\Generated_Source\PSoC5/ADC_SAR_2.c **** *  Sets the ADC offset, which is used by ADC_SAR_2_CountsTo_Volts(),
 563:.\Generated_Source\PSoC5/ADC_SAR_2.c **** *  ADC_SAR_2_CountsTo_mVolts(), and ADC_SAR_2_CountsTo_uVolts()
 564:.\Generated_Source\PSoC5/ADC_SAR_2.c **** *  to subtract the offset from the given reading before calculating the voltage
 565:.\Generated_Source\PSoC5/ADC_SAR_2.c **** *  conversion.
 566:.\Generated_Source\PSoC5/ADC_SAR_2.c **** *
 567:.\Generated_Source\PSoC5/ADC_SAR_2.c **** * Parameters:
 568:.\Generated_Source\PSoC5/ADC_SAR_2.c **** *  int16: This value is measured when the inputs are shorted or connected to
 569:.\Generated_Source\PSoC5/ADC_SAR_2.c ****    the same input voltage.
 570:.\Generated_Source\PSoC5/ADC_SAR_2.c **** *
 571:.\Generated_Source\PSoC5/ADC_SAR_2.c **** * Return:
 572:.\Generated_Source\PSoC5/ADC_SAR_2.c **** *  None.
 573:.\Generated_Source\PSoC5/ADC_SAR_2.c **** *
 574:.\Generated_Source\PSoC5/ADC_SAR_2.c **** * Global Variables:
 575:.\Generated_Source\PSoC5/ADC_SAR_2.c **** *  The ADC_SAR_2_offset variable modified. This variable is used for
 576:.\Generated_Source\PSoC5/ADC_SAR_2.c **** *  offset calibration purpose.
 577:.\Generated_Source\PSoC5/ADC_SAR_2.c **** *  Affects the ADC_SAR_2_CountsTo_Volts,
 578:.\Generated_Source\PSoC5/ADC_SAR_2.c **** *  ADC_SAR_2_CountsTo_mVolts, ADC_SAR_2_CountsTo_uVolts functions
 579:.\Generated_Source\PSoC5/ADC_SAR_2.c **** *  by subtracting the given offset.
 580:.\Generated_Source\PSoC5/ADC_SAR_2.c **** *
 581:.\Generated_Source\PSoC5/ADC_SAR_2.c **** *******************************************************************************/
ARM GAS  C:\Users\Robert\AppData\Local\Temp\cczxa6fy.s 			page 24


 582:.\Generated_Source\PSoC5/ADC_SAR_2.c **** void ADC_SAR_2_SetOffset(int16 offset)
 583:.\Generated_Source\PSoC5/ADC_SAR_2.c **** {
 731              		.loc 1 583 0
 732              		.cfi_startproc
 733              		@ args = 0, pretend = 0, frame = 8
 734              		@ frame_needed = 1, uses_anonymous_args = 0
 735              		@ link register save eliminated.
 736 0000 80B4     		push	{r7}
 737              	.LCFI28:
 738              		.cfi_def_cfa_offset 4
 739              		.cfi_offset 7, -4
 740 0002 83B0     		sub	sp, sp, #12
 741              	.LCFI29:
 742              		.cfi_def_cfa_offset 16
 743 0004 00AF     		add	r7, sp, #0
 744              	.LCFI30:
 745              		.cfi_def_cfa_register 7
 746 0006 0346     		mov	r3, r0
 747 0008 FB80     		strh	r3, [r7, #6]	@ movhi
 584:.\Generated_Source\PSoC5/ADC_SAR_2.c ****     ADC_SAR_2_offset = offset;
 748              		.loc 1 584 0
 749 000a 40F20003 		movw	r3, #:lower16:ADC_SAR_2_offset
 750 000e C0F20003 		movt	r3, #:upper16:ADC_SAR_2_offset
 751 0012 FA88     		ldrh	r2, [r7, #6]	@ movhi
 752 0014 1A80     		strh	r2, [r3, #0]	@ movhi
 585:.\Generated_Source\PSoC5/ADC_SAR_2.c **** }
 753              		.loc 1 585 0
 754 0016 07F10C07 		add	r7, r7, #12
 755 001a BD46     		mov	sp, r7
 756 001c 80BC     		pop	{r7}
 757 001e 7047     		bx	lr
 758              		.cfi_endproc
 759              	.LFE11:
 760              		.size	ADC_SAR_2_SetOffset, .-ADC_SAR_2_SetOffset
 761              		.section	.text.ADC_SAR_2_CalcGain,"ax",%progbits
 762              		.align	2
 763              		.thumb
 764              		.thumb_func
 765              		.type	ADC_SAR_2_CalcGain, %function
 766              	ADC_SAR_2_CalcGain:
 767              	.LFB12:
 586:.\Generated_Source\PSoC5/ADC_SAR_2.c **** 
 587:.\Generated_Source\PSoC5/ADC_SAR_2.c **** 
 588:.\Generated_Source\PSoC5/ADC_SAR_2.c **** /*******************************************************************************
 589:.\Generated_Source\PSoC5/ADC_SAR_2.c **** * Function Name: ADC_SAR_2_CalcGain
 590:.\Generated_Source\PSoC5/ADC_SAR_2.c **** ********************************************************************************
 591:.\Generated_Source\PSoC5/ADC_SAR_2.c **** *
 592:.\Generated_Source\PSoC5/ADC_SAR_2.c **** * Summary:
 593:.\Generated_Source\PSoC5/ADC_SAR_2.c **** *  This function calculates the ADC gain in counts per 10 volt.
 594:.\Generated_Source\PSoC5/ADC_SAR_2.c **** *
 595:.\Generated_Source\PSoC5/ADC_SAR_2.c **** * Parameters:
 596:.\Generated_Source\PSoC5/ADC_SAR_2.c **** *  uint8: resolution
 597:.\Generated_Source\PSoC5/ADC_SAR_2.c **** *
 598:.\Generated_Source\PSoC5/ADC_SAR_2.c **** * Return:
 599:.\Generated_Source\PSoC5/ADC_SAR_2.c **** *  None.
 600:.\Generated_Source\PSoC5/ADC_SAR_2.c **** *
 601:.\Generated_Source\PSoC5/ADC_SAR_2.c **** * Global Variables:
ARM GAS  C:\Users\Robert\AppData\Local\Temp\cczxa6fy.s 			page 25


 602:.\Generated_Source\PSoC5/ADC_SAR_2.c **** *  ADC_SAR_2_shift variable initialized. This variable is used to
 603:.\Generated_Source\PSoC5/ADC_SAR_2.c **** *  convert the ADC counts to the 2s compliment form.
 604:.\Generated_Source\PSoC5/ADC_SAR_2.c **** *  ADC_SAR_2_countsPer10Volt variable initialized. This variable is used
 605:.\Generated_Source\PSoC5/ADC_SAR_2.c **** *  for gain calibration purpose.
 606:.\Generated_Source\PSoC5/ADC_SAR_2.c **** *
 607:.\Generated_Source\PSoC5/ADC_SAR_2.c **** *******************************************************************************/
 608:.\Generated_Source\PSoC5/ADC_SAR_2.c **** static void ADC_SAR_2_CalcGain( uint8 resolution )
 609:.\Generated_Source\PSoC5/ADC_SAR_2.c **** {
 768              		.loc 1 609 0
 769              		.cfi_startproc
 770              		@ args = 0, pretend = 0, frame = 16
 771              		@ frame_needed = 1, uses_anonymous_args = 0
 772 0000 80B5     		push	{r7, lr}
 773              	.LCFI31:
 774              		.cfi_def_cfa_offset 8
 775              		.cfi_offset 7, -8
 776              		.cfi_offset 14, -4
 777 0002 84B0     		sub	sp, sp, #16
 778              	.LCFI32:
 779              		.cfi_def_cfa_offset 24
 780 0004 00AF     		add	r7, sp, #0
 781              	.LCFI33:
 782              		.cfi_def_cfa_register 7
 783 0006 0346     		mov	r3, r0
 784 0008 FB71     		strb	r3, [r7, #7]
 610:.\Generated_Source\PSoC5/ADC_SAR_2.c ****     int32 counts;
 611:.\Generated_Source\PSoC5/ADC_SAR_2.c ****     #if(!((ADC_SAR_2_DEFAULT_RANGE == ADC_SAR_2__VSS_TO_VREF) || \
 612:.\Generated_Source\PSoC5/ADC_SAR_2.c ****          (ADC_SAR_2_DEFAULT_RANGE == ADC_SAR_2__VSSA_TO_VDDA) || \
 613:.\Generated_Source\PSoC5/ADC_SAR_2.c ****          (ADC_SAR_2_DEFAULT_RANGE == ADC_SAR_2__VSSA_TO_VDAC)) )
 614:.\Generated_Source\PSoC5/ADC_SAR_2.c ****         uint16 diff_zero;
 615:.\Generated_Source\PSoC5/ADC_SAR_2.c ****     #endif /* End ADC_SAR_2_DEFAULT_RANGE */
 616:.\Generated_Source\PSoC5/ADC_SAR_2.c **** 
 617:.\Generated_Source\PSoC5/ADC_SAR_2.c ****     switch (resolution)
 785              		.loc 1 617 0
 786 000a FB79     		ldrb	r3, [r7, #7]	@ zero_extendqisi2
 787 000c 0A2B     		cmp	r3, #10
 788 000e 08D0     		beq	.L29
 789 0010 0C2B     		cmp	r3, #12
 790 0012 02D0     		beq	.L30
 791 0014 082B     		cmp	r3, #8
 792 0016 08D0     		beq	.L28
 793 0018 0BE0     		b	.L32
 794              	.L30:
 618:.\Generated_Source\PSoC5/ADC_SAR_2.c ****     {
 619:.\Generated_Source\PSoC5/ADC_SAR_2.c ****         case (uint8)ADC_SAR_2__BITS_12:
 620:.\Generated_Source\PSoC5/ADC_SAR_2.c ****             counts = (int32)ADC_SAR_2_SAR_WRK_MAX_12BIT;
 795              		.loc 1 620 0
 796 001a 4FF48053 		mov	r3, #4096
 797 001e FB60     		str	r3, [r7, #12]
 621:.\Generated_Source\PSoC5/ADC_SAR_2.c ****             #if(!((ADC_SAR_2_DEFAULT_RANGE == ADC_SAR_2__VSS_TO_VREF) || \
 622:.\Generated_Source\PSoC5/ADC_SAR_2.c ****                  (ADC_SAR_2_DEFAULT_RANGE == ADC_SAR_2__VSSA_TO_VDDA) || \
 623:.\Generated_Source\PSoC5/ADC_SAR_2.c ****                  (ADC_SAR_2_DEFAULT_RANGE == ADC_SAR_2__VSSA_TO_VDAC)) )
 624:.\Generated_Source\PSoC5/ADC_SAR_2.c ****                 diff_zero = ADC_SAR_2_SAR_DIFF_SHIFT;
 625:.\Generated_Source\PSoC5/ADC_SAR_2.c ****             #endif /* End ADC_SAR_2_DEFAULT_RANGE */
 626:.\Generated_Source\PSoC5/ADC_SAR_2.c ****             break;
 798              		.loc 1 626 0
 799 0020 0FE0     		b	.L31
ARM GAS  C:\Users\Robert\AppData\Local\Temp\cczxa6fy.s 			page 26


 800              	.L29:
 627:.\Generated_Source\PSoC5/ADC_SAR_2.c ****         case (uint8)ADC_SAR_2__BITS_10:
 628:.\Generated_Source\PSoC5/ADC_SAR_2.c ****             counts = (int32)ADC_SAR_2_SAR_WRK_MAX_10BIT;
 801              		.loc 1 628 0
 802 0022 4FF48063 		mov	r3, #1024
 803 0026 FB60     		str	r3, [r7, #12]
 629:.\Generated_Source\PSoC5/ADC_SAR_2.c ****             #if(!((ADC_SAR_2_DEFAULT_RANGE == ADC_SAR_2__VSS_TO_VREF) || \
 630:.\Generated_Source\PSoC5/ADC_SAR_2.c ****                  (ADC_SAR_2_DEFAULT_RANGE == ADC_SAR_2__VSSA_TO_VDDA) || \
 631:.\Generated_Source\PSoC5/ADC_SAR_2.c ****                  (ADC_SAR_2_DEFAULT_RANGE == ADC_SAR_2__VSSA_TO_VDAC)) )
 632:.\Generated_Source\PSoC5/ADC_SAR_2.c ****                 diff_zero = ADC_SAR_2_SAR_DIFF_SHIFT >> 2u;
 633:.\Generated_Source\PSoC5/ADC_SAR_2.c ****             #endif /* End ADC_SAR_2_DEFAULT_RANGE */
 634:.\Generated_Source\PSoC5/ADC_SAR_2.c ****             break;
 804              		.loc 1 634 0
 805 0028 0BE0     		b	.L31
 806              	.L28:
 635:.\Generated_Source\PSoC5/ADC_SAR_2.c ****         case (uint8)ADC_SAR_2__BITS_8:
 636:.\Generated_Source\PSoC5/ADC_SAR_2.c ****             counts = (int32)ADC_SAR_2_SAR_WRK_MAX_8BIT;
 807              		.loc 1 636 0
 808 002a 4FF48073 		mov	r3, #256
 809 002e FB60     		str	r3, [r7, #12]
 637:.\Generated_Source\PSoC5/ADC_SAR_2.c ****             #if(!((ADC_SAR_2_DEFAULT_RANGE == ADC_SAR_2__VSS_TO_VREF) || \
 638:.\Generated_Source\PSoC5/ADC_SAR_2.c ****                  (ADC_SAR_2_DEFAULT_RANGE == ADC_SAR_2__VSSA_TO_VDDA) || \
 639:.\Generated_Source\PSoC5/ADC_SAR_2.c ****                  (ADC_SAR_2_DEFAULT_RANGE == ADC_SAR_2__VSSA_TO_VDAC)) )
 640:.\Generated_Source\PSoC5/ADC_SAR_2.c ****                 diff_zero = ADC_SAR_2_SAR_DIFF_SHIFT >> 4u;
 641:.\Generated_Source\PSoC5/ADC_SAR_2.c ****             #endif /* End ADC_SAR_2_DEFAULT_RANGE */
 642:.\Generated_Source\PSoC5/ADC_SAR_2.c ****             break;
 810              		.loc 1 642 0
 811 0030 07E0     		b	.L31
 812              	.L32:
 643:.\Generated_Source\PSoC5/ADC_SAR_2.c ****         default: /* Halt CPU in debug mode if resolution is out of valid range */
 644:.\Generated_Source\PSoC5/ADC_SAR_2.c ****             counts = 0;
 813              		.loc 1 644 0
 814 0032 4FF00003 		mov	r3, #0
 815 0036 FB60     		str	r3, [r7, #12]
 645:.\Generated_Source\PSoC5/ADC_SAR_2.c ****             #if(!((ADC_SAR_2_DEFAULT_RANGE == ADC_SAR_2__VSS_TO_VREF) || \
 646:.\Generated_Source\PSoC5/ADC_SAR_2.c ****                  (ADC_SAR_2_DEFAULT_RANGE == ADC_SAR_2__VSSA_TO_VDDA) || \
 647:.\Generated_Source\PSoC5/ADC_SAR_2.c ****                  (ADC_SAR_2_DEFAULT_RANGE == ADC_SAR_2__VSSA_TO_VDAC)) )
 648:.\Generated_Source\PSoC5/ADC_SAR_2.c ****                 diff_zero = 0u;
 649:.\Generated_Source\PSoC5/ADC_SAR_2.c ****             #endif /* End ADC_SAR_2_DEFAULT_RANGE */
 650:.\Generated_Source\PSoC5/ADC_SAR_2.c ****             CYASSERT(0u != 0u);
 816              		.loc 1 650 0
 817 0038 4FF00000 		mov	r0, #0
 818 003c FFF7FEFF 		bl	CyHalt
 651:.\Generated_Source\PSoC5/ADC_SAR_2.c ****             break;
 819              		.loc 1 651 0
 820 0040 00BF     		nop
 821              	.L31:
 652:.\Generated_Source\PSoC5/ADC_SAR_2.c ****     }
 653:.\Generated_Source\PSoC5/ADC_SAR_2.c ****     ADC_SAR_2_countsPerVolt = 0; /* Clear obsolete variable */
 822              		.loc 1 653 0
 823 0042 40F20003 		movw	r3, #:lower16:ADC_SAR_2_countsPerVolt
 824 0046 C0F20003 		movt	r3, #:upper16:ADC_SAR_2_countsPerVolt
 825 004a 4FF00002 		mov	r2, #0
 826 004e 1A80     		strh	r2, [r3, #0]	@ movhi
 654:.\Generated_Source\PSoC5/ADC_SAR_2.c ****     /* Calculate gain in counts per 10 volts with rounding */
 655:.\Generated_Source\PSoC5/ADC_SAR_2.c ****     ADC_SAR_2_countsPer10Volt = (((counts * ADC_SAR_2_10MV_COUNTS) +
 827              		.loc 1 655 0
ARM GAS  C:\Users\Robert\AppData\Local\Temp\cczxa6fy.s 			page 27


 828 0050 FB68     		ldr	r3, [r7, #12]
 829 0052 42F21072 		movw	r2, #10000
 830 0056 02FB03F3 		mul	r3, r2, r3
 831 005a 03F6C412 		addw	r2, r3, #2500
 656:.\Generated_Source\PSoC5/ADC_SAR_2.c ****                         ADC_SAR_2_DEFAULT_REF_VOLTAGE_MV) / (ADC_SAR_2_DEFAULT_REF_VOLTAGE_MV * 2))
 832              		.loc 1 656 0
 833 005e 48F6AD33 		movw	r3, #35757
 834 0062 C6F6DB03 		movt	r3, 26843
 835 0066 83FB0213 		smull	r1, r3, r3, r2
 836 006a 4FEAE321 		asr	r1, r3, #11
 837 006e 4FEAE273 		asr	r3, r2, #31
 838 0072 CA1A     		subs	r2, r1, r3
 655:.\Generated_Source\PSoC5/ADC_SAR_2.c ****     ADC_SAR_2_countsPer10Volt = (((counts * ADC_SAR_2_10MV_COUNTS) +
 839              		.loc 1 655 0
 840 0074 40F20003 		movw	r3, #:lower16:ADC_SAR_2_countsPer10Volt
 841 0078 C0F20003 		movt	r3, #:upper16:ADC_SAR_2_countsPer10Volt
 842 007c 1A60     		str	r2, [r3, #0]
 657:.\Generated_Source\PSoC5/ADC_SAR_2.c **** 
 658:.\Generated_Source\PSoC5/ADC_SAR_2.c ****     #if( (ADC_SAR_2_DEFAULT_RANGE == ADC_SAR_2__VSS_TO_VREF) || \
 659:.\Generated_Source\PSoC5/ADC_SAR_2.c ****          (ADC_SAR_2_DEFAULT_RANGE == ADC_SAR_2__VSSA_TO_VDDA) || \
 660:.\Generated_Source\PSoC5/ADC_SAR_2.c ****          (ADC_SAR_2_DEFAULT_RANGE == ADC_SAR_2__VSSA_TO_VDAC) )
 661:.\Generated_Source\PSoC5/ADC_SAR_2.c ****         ADC_SAR_2_shift = 0;
 843              		.loc 1 661 0
 844 007e 40F20003 		movw	r3, #:lower16:ADC_SAR_2_shift
 845 0082 C0F20003 		movt	r3, #:upper16:ADC_SAR_2_shift
 846 0086 4FF00002 		mov	r2, #0
 847 008a 1A80     		strh	r2, [r3, #0]	@ movhi
 662:.\Generated_Source\PSoC5/ADC_SAR_2.c ****     #else
 663:.\Generated_Source\PSoC5/ADC_SAR_2.c ****         ADC_SAR_2_shift = diff_zero;
 664:.\Generated_Source\PSoC5/ADC_SAR_2.c ****     #endif /* End ADC_SAR_2_DEFAULT_RANGE */
 665:.\Generated_Source\PSoC5/ADC_SAR_2.c **** }
 848              		.loc 1 665 0
 849 008c 07F11007 		add	r7, r7, #16
 850 0090 BD46     		mov	sp, r7
 851 0092 80BD     		pop	{r7, pc}
 852              		.cfi_endproc
 853              	.LFE12:
 854              		.size	ADC_SAR_2_CalcGain, .-ADC_SAR_2_CalcGain
 855              		.section	.text.ADC_SAR_2_SetGain,"ax",%progbits
 856              		.align	2
 857              		.global	ADC_SAR_2_SetGain
 858              		.thumb
 859              		.thumb_func
 860              		.type	ADC_SAR_2_SetGain, %function
 861              	ADC_SAR_2_SetGain:
 862              	.LFB13:
 666:.\Generated_Source\PSoC5/ADC_SAR_2.c **** 
 667:.\Generated_Source\PSoC5/ADC_SAR_2.c **** 
 668:.\Generated_Source\PSoC5/ADC_SAR_2.c **** /*******************************************************************************
 669:.\Generated_Source\PSoC5/ADC_SAR_2.c **** * Function Name: ADC_SAR_2_SetGain
 670:.\Generated_Source\PSoC5/ADC_SAR_2.c **** ********************************************************************************
 671:.\Generated_Source\PSoC5/ADC_SAR_2.c **** *
 672:.\Generated_Source\PSoC5/ADC_SAR_2.c **** * Summary:
 673:.\Generated_Source\PSoC5/ADC_SAR_2.c **** *  Sets the ADC gain in counts per volt for the voltage conversion functions
 674:.\Generated_Source\PSoC5/ADC_SAR_2.c **** *  that follow. This value is set by default by the reference and input range
 675:.\Generated_Source\PSoC5/ADC_SAR_2.c **** *  settings. It should only be used to further calibrate the ADC with a known
 676:.\Generated_Source\PSoC5/ADC_SAR_2.c **** *  input or if the ADC is using an external reference.
ARM GAS  C:\Users\Robert\AppData\Local\Temp\cczxa6fy.s 			page 28


 677:.\Generated_Source\PSoC5/ADC_SAR_2.c **** *
 678:.\Generated_Source\PSoC5/ADC_SAR_2.c **** * Parameters:
 679:.\Generated_Source\PSoC5/ADC_SAR_2.c **** *  int16  adcGain  counts per volt
 680:.\Generated_Source\PSoC5/ADC_SAR_2.c **** *
 681:.\Generated_Source\PSoC5/ADC_SAR_2.c **** * Return:
 682:.\Generated_Source\PSoC5/ADC_SAR_2.c **** *  None.
 683:.\Generated_Source\PSoC5/ADC_SAR_2.c **** *
 684:.\Generated_Source\PSoC5/ADC_SAR_2.c **** * Global Variables:
 685:.\Generated_Source\PSoC5/ADC_SAR_2.c **** *  ADC_SAR_2_countsPer10Volt variable modified. This variable is used
 686:.\Generated_Source\PSoC5/ADC_SAR_2.c **** *  for gain calibration purpose.
 687:.\Generated_Source\PSoC5/ADC_SAR_2.c **** *
 688:.\Generated_Source\PSoC5/ADC_SAR_2.c **** *******************************************************************************/
 689:.\Generated_Source\PSoC5/ADC_SAR_2.c **** void ADC_SAR_2_SetGain(int16 adcGain)
 690:.\Generated_Source\PSoC5/ADC_SAR_2.c **** {
 863              		.loc 1 690 0
 864              		.cfi_startproc
 865              		@ args = 0, pretend = 0, frame = 8
 866              		@ frame_needed = 1, uses_anonymous_args = 0
 867              		@ link register save eliminated.
 868 0000 80B4     		push	{r7}
 869              	.LCFI34:
 870              		.cfi_def_cfa_offset 4
 871              		.cfi_offset 7, -4
 872 0002 83B0     		sub	sp, sp, #12
 873              	.LCFI35:
 874              		.cfi_def_cfa_offset 16
 875 0004 00AF     		add	r7, sp, #0
 876              	.LCFI36:
 877              		.cfi_def_cfa_register 7
 878 0006 0346     		mov	r3, r0
 879 0008 FB80     		strh	r3, [r7, #6]	@ movhi
 691:.\Generated_Source\PSoC5/ADC_SAR_2.c ****     ADC_SAR_2_countsPer10Volt = (int32)adcGain * 10;
 880              		.loc 1 691 0
 881 000a B7F90620 		ldrsh	r2, [r7, #6]
 882 000e 1346     		mov	r3, r2
 883 0010 4FEA8303 		lsl	r3, r3, #2
 884 0014 9B18     		adds	r3, r3, r2
 885 0016 4FEA4303 		lsl	r3, r3, #1
 886 001a 1A46     		mov	r2, r3
 887 001c 40F20003 		movw	r3, #:lower16:ADC_SAR_2_countsPer10Volt
 888 0020 C0F20003 		movt	r3, #:upper16:ADC_SAR_2_countsPer10Volt
 889 0024 1A60     		str	r2, [r3, #0]
 692:.\Generated_Source\PSoC5/ADC_SAR_2.c **** }
 890              		.loc 1 692 0
 891 0026 07F10C07 		add	r7, r7, #12
 892 002a BD46     		mov	sp, r7
 893 002c 80BC     		pop	{r7}
 894 002e 7047     		bx	lr
 895              		.cfi_endproc
 896              	.LFE13:
 897              		.size	ADC_SAR_2_SetGain, .-ADC_SAR_2_SetGain
 898              		.section	.text.ADC_SAR_2_SetScaledGain,"ax",%progbits
 899              		.align	2
 900              		.global	ADC_SAR_2_SetScaledGain
 901              		.thumb
 902              		.thumb_func
 903              		.type	ADC_SAR_2_SetScaledGain, %function
ARM GAS  C:\Users\Robert\AppData\Local\Temp\cczxa6fy.s 			page 29


 904              	ADC_SAR_2_SetScaledGain:
 905              	.LFB14:
 693:.\Generated_Source\PSoC5/ADC_SAR_2.c **** 
 694:.\Generated_Source\PSoC5/ADC_SAR_2.c **** 
 695:.\Generated_Source\PSoC5/ADC_SAR_2.c **** /*******************************************************************************
 696:.\Generated_Source\PSoC5/ADC_SAR_2.c **** * Function Name: ADC_SAR_2_SetGainPer10Volt
 697:.\Generated_Source\PSoC5/ADC_SAR_2.c **** ********************************************************************************
 698:.\Generated_Source\PSoC5/ADC_SAR_2.c **** *
 699:.\Generated_Source\PSoC5/ADC_SAR_2.c **** * Summary:
 700:.\Generated_Source\PSoC5/ADC_SAR_2.c **** *  Sets the ADC gain in counts per 10 volt for the voltage conversion functions
 701:.\Generated_Source\PSoC5/ADC_SAR_2.c **** *  that follow. This value is set by default by the reference and input range
 702:.\Generated_Source\PSoC5/ADC_SAR_2.c **** *  settings. It should only be used to further calibrate the ADC with a known
 703:.\Generated_Source\PSoC5/ADC_SAR_2.c **** *  input or if the ADC is using an external reference.
 704:.\Generated_Source\PSoC5/ADC_SAR_2.c **** *
 705:.\Generated_Source\PSoC5/ADC_SAR_2.c **** * Parameters:
 706:.\Generated_Source\PSoC5/ADC_SAR_2.c **** *  int16  adcGain  counts per 10 volt
 707:.\Generated_Source\PSoC5/ADC_SAR_2.c **** *
 708:.\Generated_Source\PSoC5/ADC_SAR_2.c **** * Return:
 709:.\Generated_Source\PSoC5/ADC_SAR_2.c **** *  None.
 710:.\Generated_Source\PSoC5/ADC_SAR_2.c **** *
 711:.\Generated_Source\PSoC5/ADC_SAR_2.c **** * Global Variables:
 712:.\Generated_Source\PSoC5/ADC_SAR_2.c **** *  ADC_SAR_2_countsPer10Volt variable modified. This variable is used
 713:.\Generated_Source\PSoC5/ADC_SAR_2.c **** *  for gain calibration purpose.
 714:.\Generated_Source\PSoC5/ADC_SAR_2.c **** *
 715:.\Generated_Source\PSoC5/ADC_SAR_2.c **** *******************************************************************************/
 716:.\Generated_Source\PSoC5/ADC_SAR_2.c **** void ADC_SAR_2_SetScaledGain(int32 adcGain)
 717:.\Generated_Source\PSoC5/ADC_SAR_2.c **** {
 906              		.loc 1 717 0
 907              		.cfi_startproc
 908              		@ args = 0, pretend = 0, frame = 8
 909              		@ frame_needed = 1, uses_anonymous_args = 0
 910              		@ link register save eliminated.
 911 0000 80B4     		push	{r7}
 912              	.LCFI37:
 913              		.cfi_def_cfa_offset 4
 914              		.cfi_offset 7, -4
 915 0002 83B0     		sub	sp, sp, #12
 916              	.LCFI38:
 917              		.cfi_def_cfa_offset 16
 918 0004 00AF     		add	r7, sp, #0
 919              	.LCFI39:
 920              		.cfi_def_cfa_register 7
 921 0006 7860     		str	r0, [r7, #4]
 718:.\Generated_Source\PSoC5/ADC_SAR_2.c ****     ADC_SAR_2_countsPer10Volt = adcGain;
 922              		.loc 1 718 0
 923 0008 40F20003 		movw	r3, #:lower16:ADC_SAR_2_countsPer10Volt
 924 000c C0F20003 		movt	r3, #:upper16:ADC_SAR_2_countsPer10Volt
 925 0010 7A68     		ldr	r2, [r7, #4]
 926 0012 1A60     		str	r2, [r3, #0]
 719:.\Generated_Source\PSoC5/ADC_SAR_2.c **** }
 927              		.loc 1 719 0
 928 0014 07F10C07 		add	r7, r7, #12
 929 0018 BD46     		mov	sp, r7
 930 001a 80BC     		pop	{r7}
 931 001c 7047     		bx	lr
 932              		.cfi_endproc
 933              	.LFE14:
ARM GAS  C:\Users\Robert\AppData\Local\Temp\cczxa6fy.s 			page 30


 934              		.size	ADC_SAR_2_SetScaledGain, .-ADC_SAR_2_SetScaledGain
 935 001e 00BF     		.section	.text.ADC_SAR_2_CountsTo_mVolts,"ax",%progbits
 936              		.align	2
 937              		.global	ADC_SAR_2_CountsTo_mVolts
 938              		.thumb
 939              		.thumb_func
 940              		.type	ADC_SAR_2_CountsTo_mVolts, %function
 941              	ADC_SAR_2_CountsTo_mVolts:
 942              	.LFB15:
 720:.\Generated_Source\PSoC5/ADC_SAR_2.c **** 
 721:.\Generated_Source\PSoC5/ADC_SAR_2.c **** 
 722:.\Generated_Source\PSoC5/ADC_SAR_2.c **** /*******************************************************************************
 723:.\Generated_Source\PSoC5/ADC_SAR_2.c **** * Function Name: ADC_SAR_2_CountsTo_mVolts
 724:.\Generated_Source\PSoC5/ADC_SAR_2.c **** ********************************************************************************
 725:.\Generated_Source\PSoC5/ADC_SAR_2.c **** *
 726:.\Generated_Source\PSoC5/ADC_SAR_2.c **** * Summary:
 727:.\Generated_Source\PSoC5/ADC_SAR_2.c **** *  Converts the ADC output to millivolts as a 16-bit integer.
 728:.\Generated_Source\PSoC5/ADC_SAR_2.c **** *
 729:.\Generated_Source\PSoC5/ADC_SAR_2.c **** * Parameters:
 730:.\Generated_Source\PSoC5/ADC_SAR_2.c **** *  int16 adcCounts:  Result from the ADC conversion
 731:.\Generated_Source\PSoC5/ADC_SAR_2.c **** *
 732:.\Generated_Source\PSoC5/ADC_SAR_2.c **** * Return:
 733:.\Generated_Source\PSoC5/ADC_SAR_2.c **** *  int16 Result in mVolts
 734:.\Generated_Source\PSoC5/ADC_SAR_2.c **** *
 735:.\Generated_Source\PSoC5/ADC_SAR_2.c **** * Global Variables:
 736:.\Generated_Source\PSoC5/ADC_SAR_2.c **** *  ADC_SAR_2_offset variable used.
 737:.\Generated_Source\PSoC5/ADC_SAR_2.c **** *  ADC_SAR_2_countsPer10Volt variable used.
 738:.\Generated_Source\PSoC5/ADC_SAR_2.c **** *
 739:.\Generated_Source\PSoC5/ADC_SAR_2.c **** *******************************************************************************/
 740:.\Generated_Source\PSoC5/ADC_SAR_2.c **** int16 ADC_SAR_2_CountsTo_mVolts(int16 adcCounts)
 741:.\Generated_Source\PSoC5/ADC_SAR_2.c **** {
 943              		.loc 1 741 0
 944              		.cfi_startproc
 945              		@ args = 0, pretend = 0, frame = 16
 946              		@ frame_needed = 1, uses_anonymous_args = 0
 947              		@ link register save eliminated.
 948 0000 80B4     		push	{r7}
 949              	.LCFI40:
 950              		.cfi_def_cfa_offset 4
 951              		.cfi_offset 7, -4
 952 0002 85B0     		sub	sp, sp, #20
 953              	.LCFI41:
 954              		.cfi_def_cfa_offset 24
 955 0004 00AF     		add	r7, sp, #0
 956              	.LCFI42:
 957              		.cfi_def_cfa_register 7
 958 0006 0346     		mov	r3, r0
 959 0008 FB80     		strh	r3, [r7, #6]	@ movhi
 742:.\Generated_Source\PSoC5/ADC_SAR_2.c ****     int16 mVolts;
 743:.\Generated_Source\PSoC5/ADC_SAR_2.c ****     int32 countsPer10Volt;
 744:.\Generated_Source\PSoC5/ADC_SAR_2.c **** 
 745:.\Generated_Source\PSoC5/ADC_SAR_2.c ****     if(ADC_SAR_2_countsPerVolt != 0)
 960              		.loc 1 745 0
 961 000a 40F20003 		movw	r3, #:lower16:ADC_SAR_2_countsPerVolt
 962 000e C0F20003 		movt	r3, #:upper16:ADC_SAR_2_countsPerVolt
 963 0012 1B88     		ldrh	r3, [r3, #0]	@ movhi
 964 0014 9BB2     		uxth	r3, r3
ARM GAS  C:\Users\Robert\AppData\Local\Temp\cczxa6fy.s 			page 31


 965 0016 002B     		cmp	r3, #0
 966 0018 0ED0     		beq	.L36
 746:.\Generated_Source\PSoC5/ADC_SAR_2.c ****     {   /* Support obsolete method */
 747:.\Generated_Source\PSoC5/ADC_SAR_2.c ****         countsPer10Volt = (int32)ADC_SAR_2_countsPerVolt * 10;
 967              		.loc 1 747 0
 968 001a 40F20003 		movw	r3, #:lower16:ADC_SAR_2_countsPerVolt
 969 001e C0F20003 		movt	r3, #:upper16:ADC_SAR_2_countsPerVolt
 970 0022 1B88     		ldrh	r3, [r3, #0]	@ movhi
 971 0024 9BB2     		uxth	r3, r3
 972 0026 1AB2     		sxth	r2, r3
 973 0028 1346     		mov	r3, r2
 974 002a 4FEA8303 		lsl	r3, r3, #2
 975 002e 9B18     		adds	r3, r3, r2
 976 0030 4FEA4303 		lsl	r3, r3, #1
 977 0034 FB60     		str	r3, [r7, #12]
 978 0036 05E0     		b	.L37
 979              	.L36:
 748:.\Generated_Source\PSoC5/ADC_SAR_2.c ****     }
 749:.\Generated_Source\PSoC5/ADC_SAR_2.c ****     else
 750:.\Generated_Source\PSoC5/ADC_SAR_2.c ****     {
 751:.\Generated_Source\PSoC5/ADC_SAR_2.c ****         countsPer10Volt = ADC_SAR_2_countsPer10Volt;
 980              		.loc 1 751 0
 981 0038 40F20003 		movw	r3, #:lower16:ADC_SAR_2_countsPer10Volt
 982 003c C0F20003 		movt	r3, #:upper16:ADC_SAR_2_countsPer10Volt
 983 0040 1B68     		ldr	r3, [r3, #0]
 984 0042 FB60     		str	r3, [r7, #12]
 985              	.L37:
 752:.\Generated_Source\PSoC5/ADC_SAR_2.c ****     }
 753:.\Generated_Source\PSoC5/ADC_SAR_2.c **** 
 754:.\Generated_Source\PSoC5/ADC_SAR_2.c ****     /* Subtract ADC offset */
 755:.\Generated_Source\PSoC5/ADC_SAR_2.c ****     adcCounts -= ADC_SAR_2_offset;
 986              		.loc 1 755 0
 987 0044 FA88     		ldrh	r2, [r7, #6]
 988 0046 40F20003 		movw	r3, #:lower16:ADC_SAR_2_offset
 989 004a C0F20003 		movt	r3, #:upper16:ADC_SAR_2_offset
 990 004e 1B88     		ldrh	r3, [r3, #0]	@ movhi
 991 0050 9BB2     		uxth	r3, r3
 992 0052 9BB2     		uxth	r3, r3
 993 0054 D31A     		subs	r3, r2, r3
 994 0056 9BB2     		uxth	r3, r3
 995 0058 FB80     		strh	r3, [r7, #6]	@ movhi
 756:.\Generated_Source\PSoC5/ADC_SAR_2.c ****     /* Convert to millivolts with rounding */
 757:.\Generated_Source\PSoC5/ADC_SAR_2.c ****     mVolts = (int16)( (( (int32)adcCounts * ADC_SAR_2_10MV_COUNTS ) + ( (adcCounts > 0) ?
 996              		.loc 1 757 0
 997 005a B7F90630 		ldrsh	r3, [r7, #6]
 998 005e 42F21072 		movw	r2, #10000
 999 0062 02FB03F2 		mul	r2, r2, r3
 758:.\Generated_Source\PSoC5/ADC_SAR_2.c ****                        (countsPer10Volt / 2) : (-(countsPer10Volt / 2)) )) / countsPer10Volt);
 1000              		.loc 1 758 0
 1001 0066 B7F90630 		ldrsh	r3, [r7, #6]
 1002 006a 002B     		cmp	r3, #0
 1003 006c 06DD     		ble	.L38
 1004              		.loc 1 758 0 is_stmt 0 discriminator 1
 1005 006e FB68     		ldr	r3, [r7, #12]
 1006 0070 4FEAD371 		lsr	r1, r3, #31
 1007 0074 CB18     		adds	r3, r1, r3
 1008 0076 4FEA6303 		asr	r3, r3, #1
ARM GAS  C:\Users\Robert\AppData\Local\Temp\cczxa6fy.s 			page 32


 1009 007a 07E0     		b	.L39
 1010              	.L38:
 1011              		.loc 1 758 0 discriminator 2
 1012 007c FB68     		ldr	r3, [r7, #12]
 1013 007e 4FEAD371 		lsr	r1, r3, #31
 1014 0082 CB18     		adds	r3, r1, r3
 1015 0084 4FEA6303 		asr	r3, r3, #1
 1016 0088 C3F10003 		rsb	r3, r3, #0
 1017              	.L39:
 757:.\Generated_Source\PSoC5/ADC_SAR_2.c ****     mVolts = (int16)( (( (int32)adcCounts * ADC_SAR_2_10MV_COUNTS ) + ( (adcCounts > 0) ?
 1018              		.loc 1 757 0 is_stmt 1
 1019 008c D218     		adds	r2, r2, r3
 1020              		.loc 1 758 0
 1021 008e FB68     		ldr	r3, [r7, #12]
 1022 0090 92FBF3F3 		sdiv	r3, r2, r3
 757:.\Generated_Source\PSoC5/ADC_SAR_2.c ****     mVolts = (int16)( (( (int32)adcCounts * ADC_SAR_2_10MV_COUNTS ) + ( (adcCounts > 0) ?
 1023              		.loc 1 757 0
 1024 0094 7B81     		strh	r3, [r7, #10]	@ movhi
 759:.\Generated_Source\PSoC5/ADC_SAR_2.c **** 
 760:.\Generated_Source\PSoC5/ADC_SAR_2.c ****     return( mVolts );
 1025              		.loc 1 760 0
 1026 0096 7B89     		ldrh	r3, [r7, #10]
 1027 0098 1BB2     		sxth	r3, r3
 761:.\Generated_Source\PSoC5/ADC_SAR_2.c **** }
 1028              		.loc 1 761 0
 1029 009a 1846     		mov	r0, r3
 1030 009c 07F11407 		add	r7, r7, #20
 1031 00a0 BD46     		mov	sp, r7
 1032 00a2 80BC     		pop	{r7}
 1033 00a4 7047     		bx	lr
 1034              		.cfi_endproc
 1035              	.LFE15:
 1036              		.size	ADC_SAR_2_CountsTo_mVolts, .-ADC_SAR_2_CountsTo_mVolts
 1037              		.global	__aeabi_ldivmod
 1038 00a6 00BF     		.section	.text.ADC_SAR_2_CountsTo_uVolts,"ax",%progbits
 1039              		.align	2
 1040              		.global	ADC_SAR_2_CountsTo_uVolts
 1041              		.thumb
 1042              		.thumb_func
 1043              		.type	ADC_SAR_2_CountsTo_uVolts, %function
 1044              	ADC_SAR_2_CountsTo_uVolts:
 1045              	.LFB16:
 762:.\Generated_Source\PSoC5/ADC_SAR_2.c **** 
 763:.\Generated_Source\PSoC5/ADC_SAR_2.c **** 
 764:.\Generated_Source\PSoC5/ADC_SAR_2.c **** /*******************************************************************************
 765:.\Generated_Source\PSoC5/ADC_SAR_2.c **** * Function Name: ADC_SAR_2_CountsTo_uVolts
 766:.\Generated_Source\PSoC5/ADC_SAR_2.c **** ********************************************************************************
 767:.\Generated_Source\PSoC5/ADC_SAR_2.c **** *
 768:.\Generated_Source\PSoC5/ADC_SAR_2.c **** * Summary:
 769:.\Generated_Source\PSoC5/ADC_SAR_2.c **** *  Converts the ADC output to microvolts as a 32-bit integer.
 770:.\Generated_Source\PSoC5/ADC_SAR_2.c **** *
 771:.\Generated_Source\PSoC5/ADC_SAR_2.c **** * Parameters:
 772:.\Generated_Source\PSoC5/ADC_SAR_2.c **** *  int16 adcCounts: Result from the ADC conversion
 773:.\Generated_Source\PSoC5/ADC_SAR_2.c **** *
 774:.\Generated_Source\PSoC5/ADC_SAR_2.c **** * Return:
 775:.\Generated_Source\PSoC5/ADC_SAR_2.c **** *  int32 Result in micro Volts
 776:.\Generated_Source\PSoC5/ADC_SAR_2.c **** *
ARM GAS  C:\Users\Robert\AppData\Local\Temp\cczxa6fy.s 			page 33


 777:.\Generated_Source\PSoC5/ADC_SAR_2.c **** * Global Variables:
 778:.\Generated_Source\PSoC5/ADC_SAR_2.c **** *  ADC_SAR_2_offset variable used.
 779:.\Generated_Source\PSoC5/ADC_SAR_2.c **** *  ADC_SAR_2_countsPer10Volt used to convert ADC counts to uVolts.
 780:.\Generated_Source\PSoC5/ADC_SAR_2.c **** *
 781:.\Generated_Source\PSoC5/ADC_SAR_2.c **** *******************************************************************************/
 782:.\Generated_Source\PSoC5/ADC_SAR_2.c **** int32 ADC_SAR_2_CountsTo_uVolts(int16 adcCounts)
 783:.\Generated_Source\PSoC5/ADC_SAR_2.c **** {
 1046              		.loc 1 783 0
 1047              		.cfi_startproc
 1048              		@ args = 0, pretend = 0, frame = 24
 1049              		@ frame_needed = 1, uses_anonymous_args = 0
 1050 0000 90B5     		push	{r4, r7, lr}
 1051              	.LCFI43:
 1052              		.cfi_def_cfa_offset 12
 1053              		.cfi_offset 4, -12
 1054              		.cfi_offset 7, -8
 1055              		.cfi_offset 14, -4
 1056 0002 87B0     		sub	sp, sp, #28
 1057              	.LCFI44:
 1058              		.cfi_def_cfa_offset 40
 1059 0004 00AF     		add	r7, sp, #0
 1060              	.LCFI45:
 1061              		.cfi_def_cfa_register 7
 1062 0006 0346     		mov	r3, r0
 1063 0008 FB80     		strh	r3, [r7, #6]	@ movhi
 784:.\Generated_Source\PSoC5/ADC_SAR_2.c **** 
 785:.\Generated_Source\PSoC5/ADC_SAR_2.c ****     int64 uVolts;
 786:.\Generated_Source\PSoC5/ADC_SAR_2.c ****     int32 countsPer10Volt;
 787:.\Generated_Source\PSoC5/ADC_SAR_2.c **** 
 788:.\Generated_Source\PSoC5/ADC_SAR_2.c ****     if(ADC_SAR_2_countsPerVolt != 0)
 1064              		.loc 1 788 0
 1065 000a 40F20003 		movw	r3, #:lower16:ADC_SAR_2_countsPerVolt
 1066 000e C0F20003 		movt	r3, #:upper16:ADC_SAR_2_countsPerVolt
 1067 0012 1B88     		ldrh	r3, [r3, #0]	@ movhi
 1068 0014 9BB2     		uxth	r3, r3
 1069 0016 002B     		cmp	r3, #0
 1070 0018 0ED0     		beq	.L42
 789:.\Generated_Source\PSoC5/ADC_SAR_2.c ****     {   /* Support obsolete method */
 790:.\Generated_Source\PSoC5/ADC_SAR_2.c ****         countsPer10Volt = (int32)ADC_SAR_2_countsPerVolt * 10;
 1071              		.loc 1 790 0
 1072 001a 40F20003 		movw	r3, #:lower16:ADC_SAR_2_countsPerVolt
 1073 001e C0F20003 		movt	r3, #:upper16:ADC_SAR_2_countsPerVolt
 1074 0022 1B88     		ldrh	r3, [r3, #0]	@ movhi
 1075 0024 9BB2     		uxth	r3, r3
 1076 0026 1AB2     		sxth	r2, r3
 1077 0028 1346     		mov	r3, r2
 1078 002a 4FEA8303 		lsl	r3, r3, #2
 1079 002e 9B18     		adds	r3, r3, r2
 1080 0030 4FEA4303 		lsl	r3, r3, #1
 1081 0034 7B61     		str	r3, [r7, #20]
 1082 0036 05E0     		b	.L43
 1083              	.L42:
 791:.\Generated_Source\PSoC5/ADC_SAR_2.c ****     }
 792:.\Generated_Source\PSoC5/ADC_SAR_2.c ****     else
 793:.\Generated_Source\PSoC5/ADC_SAR_2.c ****     {
 794:.\Generated_Source\PSoC5/ADC_SAR_2.c ****         countsPer10Volt = ADC_SAR_2_countsPer10Volt;
 1084              		.loc 1 794 0
ARM GAS  C:\Users\Robert\AppData\Local\Temp\cczxa6fy.s 			page 34


 1085 0038 40F20003 		movw	r3, #:lower16:ADC_SAR_2_countsPer10Volt
 1086 003c C0F20003 		movt	r3, #:upper16:ADC_SAR_2_countsPer10Volt
 1087 0040 1B68     		ldr	r3, [r3, #0]
 1088 0042 7B61     		str	r3, [r7, #20]
 1089              	.L43:
 795:.\Generated_Source\PSoC5/ADC_SAR_2.c ****     }
 796:.\Generated_Source\PSoC5/ADC_SAR_2.c **** 
 797:.\Generated_Source\PSoC5/ADC_SAR_2.c ****     /* Subtract ADC offset */
 798:.\Generated_Source\PSoC5/ADC_SAR_2.c ****     adcCounts -= ADC_SAR_2_offset;
 1090              		.loc 1 798 0
 1091 0044 FA88     		ldrh	r2, [r7, #6]
 1092 0046 40F20003 		movw	r3, #:lower16:ADC_SAR_2_offset
 1093 004a C0F20003 		movt	r3, #:upper16:ADC_SAR_2_offset
 1094 004e 1B88     		ldrh	r3, [r3, #0]	@ movhi
 1095 0050 9BB2     		uxth	r3, r3
 1096 0052 9BB2     		uxth	r3, r3
 1097 0054 D31A     		subs	r3, r2, r3
 1098 0056 9BB2     		uxth	r3, r3
 1099 0058 FB80     		strh	r3, [r7, #6]	@ movhi
 799:.\Generated_Source\PSoC5/ADC_SAR_2.c ****     /* To convert adcCounts to microVolts it is required to be multiplied
 800:.\Generated_Source\PSoC5/ADC_SAR_2.c ****     *  on 10 million and later divide on gain in counts per 10V.
 801:.\Generated_Source\PSoC5/ADC_SAR_2.c ****     */
 802:.\Generated_Source\PSoC5/ADC_SAR_2.c ****     uVolts = (( (int64)adcCounts * ADC_SAR_2_10UV_COUNTS ) / countsPer10Volt);
 1100              		.loc 1 802 0
 1101 005a B7F90620 		ldrsh	r2, [r7, #6]
 1102 005e 4FEAE273 		asr	r3, r2, #31
 1103 0062 49F28061 		movw	r1, #38528
 1104 0066 C0F29801 		movt	r1, 152
 1105 006a 01FB03F0 		mul	r0, r1, r3
 1106 006e 4FF00001 		mov	r1, #0
 1107 0072 01FB02F1 		mul	r1, r1, r2
 1108 0076 4418     		adds	r4, r0, r1
 1109 0078 49F28061 		movw	r1, #38528
 1110 007c C0F29801 		movt	r1, 152
 1111 0080 A2FB0101 		umull	r0, r1, r2, r1
 1112 0084 6318     		adds	r3, r4, r1
 1113 0086 1946     		mov	r1, r3
 1114 0088 7C69     		ldr	r4, [r7, #20]
 1115 008a 2246     		mov	r2, r4
 1116 008c 4FEAE273 		asr	r3, r2, #31
 1117 0090 FFF7FEFF 		bl	__aeabi_ldivmod
 1118 0094 0246     		mov	r2, r0
 1119 0096 0B46     		mov	r3, r1
 1120 0098 C7E90223 		strd	r2, [r7, #8]
 803:.\Generated_Source\PSoC5/ADC_SAR_2.c **** 
 804:.\Generated_Source\PSoC5/ADC_SAR_2.c ****     return( uVolts );
 1121              		.loc 1 804 0
 1122 009c BB68     		ldr	r3, [r7, #8]
 805:.\Generated_Source\PSoC5/ADC_SAR_2.c **** }
 1123              		.loc 1 805 0
 1124 009e 1846     		mov	r0, r3
 1125 00a0 07F11C07 		add	r7, r7, #28
 1126 00a4 BD46     		mov	sp, r7
 1127 00a6 90BD     		pop	{r4, r7, pc}
 1128              		.cfi_endproc
 1129              	.LFE16:
 1130              		.size	ADC_SAR_2_CountsTo_uVolts, .-ADC_SAR_2_CountsTo_uVolts
ARM GAS  C:\Users\Robert\AppData\Local\Temp\cczxa6fy.s 			page 35


 1131              		.global	__aeabi_i2f
 1132              		.global	__aeabi_fmul
 1133              		.global	__aeabi_fdiv
 1134              		.section	.text.ADC_SAR_2_CountsTo_Volts,"ax",%progbits
 1135              		.align	2
 1136              		.global	ADC_SAR_2_CountsTo_Volts
 1137              		.thumb
 1138              		.thumb_func
 1139              		.type	ADC_SAR_2_CountsTo_Volts, %function
 1140              	ADC_SAR_2_CountsTo_Volts:
 1141              	.LFB17:
 806:.\Generated_Source\PSoC5/ADC_SAR_2.c **** 
 807:.\Generated_Source\PSoC5/ADC_SAR_2.c **** 
 808:.\Generated_Source\PSoC5/ADC_SAR_2.c **** /*******************************************************************************
 809:.\Generated_Source\PSoC5/ADC_SAR_2.c **** * Function Name: ADC_SAR_2_CountsTo_Volts
 810:.\Generated_Source\PSoC5/ADC_SAR_2.c **** ********************************************************************************
 811:.\Generated_Source\PSoC5/ADC_SAR_2.c **** *
 812:.\Generated_Source\PSoC5/ADC_SAR_2.c **** * Summary:
 813:.\Generated_Source\PSoC5/ADC_SAR_2.c **** *  Converts the ADC output to volts as a floating-point number.
 814:.\Generated_Source\PSoC5/ADC_SAR_2.c **** *
 815:.\Generated_Source\PSoC5/ADC_SAR_2.c **** * Parameters:
 816:.\Generated_Source\PSoC5/ADC_SAR_2.c **** *  int16 adcCounts: Result from the ADC conversion
 817:.\Generated_Source\PSoC5/ADC_SAR_2.c **** *
 818:.\Generated_Source\PSoC5/ADC_SAR_2.c **** * Return:
 819:.\Generated_Source\PSoC5/ADC_SAR_2.c **** *  float Result in Volts
 820:.\Generated_Source\PSoC5/ADC_SAR_2.c **** *
 821:.\Generated_Source\PSoC5/ADC_SAR_2.c **** * Global Variables:
 822:.\Generated_Source\PSoC5/ADC_SAR_2.c **** *  ADC_SAR_2_offset variable used.
 823:.\Generated_Source\PSoC5/ADC_SAR_2.c **** *  ADC_SAR_2_countsPer10Volt used to convert ADC counts to Volts.
 824:.\Generated_Source\PSoC5/ADC_SAR_2.c **** *
 825:.\Generated_Source\PSoC5/ADC_SAR_2.c **** *******************************************************************************/
 826:.\Generated_Source\PSoC5/ADC_SAR_2.c **** float32 ADC_SAR_2_CountsTo_Volts(int16 adcCounts)
 827:.\Generated_Source\PSoC5/ADC_SAR_2.c **** {
 1142              		.loc 1 827 0
 1143              		.cfi_startproc
 1144              		@ args = 0, pretend = 0, frame = 16
 1145              		@ frame_needed = 1, uses_anonymous_args = 0
 1146 0000 90B5     		push	{r4, r7, lr}
 1147              	.LCFI46:
 1148              		.cfi_def_cfa_offset 12
 1149              		.cfi_offset 4, -12
 1150              		.cfi_offset 7, -8
 1151              		.cfi_offset 14, -4
 1152 0002 85B0     		sub	sp, sp, #20
 1153              	.LCFI47:
 1154              		.cfi_def_cfa_offset 32
 1155 0004 00AF     		add	r7, sp, #0
 1156              	.LCFI48:
 1157              		.cfi_def_cfa_register 7
 1158 0006 0346     		mov	r3, r0
 1159 0008 FB80     		strh	r3, [r7, #6]	@ movhi
 828:.\Generated_Source\PSoC5/ADC_SAR_2.c ****     float32 volts;
 829:.\Generated_Source\PSoC5/ADC_SAR_2.c ****     int32 countsPer10Volt;
 830:.\Generated_Source\PSoC5/ADC_SAR_2.c **** 
 831:.\Generated_Source\PSoC5/ADC_SAR_2.c ****     if(ADC_SAR_2_countsPerVolt != 0)
 1160              		.loc 1 831 0
 1161 000a 40F20003 		movw	r3, #:lower16:ADC_SAR_2_countsPerVolt
ARM GAS  C:\Users\Robert\AppData\Local\Temp\cczxa6fy.s 			page 36


 1162 000e C0F20003 		movt	r3, #:upper16:ADC_SAR_2_countsPerVolt
 1163 0012 1B88     		ldrh	r3, [r3, #0]	@ movhi
 1164 0014 9BB2     		uxth	r3, r3
 1165 0016 002B     		cmp	r3, #0
 1166 0018 0ED0     		beq	.L46
 832:.\Generated_Source\PSoC5/ADC_SAR_2.c ****     {   /* Support obsolete method */
 833:.\Generated_Source\PSoC5/ADC_SAR_2.c ****         countsPer10Volt = (int32)ADC_SAR_2_countsPerVolt * 10;
 1167              		.loc 1 833 0
 1168 001a 40F20003 		movw	r3, #:lower16:ADC_SAR_2_countsPerVolt
 1169 001e C0F20003 		movt	r3, #:upper16:ADC_SAR_2_countsPerVolt
 1170 0022 1B88     		ldrh	r3, [r3, #0]	@ movhi
 1171 0024 9BB2     		uxth	r3, r3
 1172 0026 1AB2     		sxth	r2, r3
 1173 0028 1346     		mov	r3, r2
 1174 002a 4FEA8303 		lsl	r3, r3, #2
 1175 002e 9B18     		adds	r3, r3, r2
 1176 0030 4FEA4303 		lsl	r3, r3, #1
 1177 0034 FB60     		str	r3, [r7, #12]
 1178 0036 05E0     		b	.L47
 1179              	.L46:
 834:.\Generated_Source\PSoC5/ADC_SAR_2.c ****     }
 835:.\Generated_Source\PSoC5/ADC_SAR_2.c ****     else
 836:.\Generated_Source\PSoC5/ADC_SAR_2.c ****     {
 837:.\Generated_Source\PSoC5/ADC_SAR_2.c ****         countsPer10Volt = ADC_SAR_2_countsPer10Volt;
 1180              		.loc 1 837 0
 1181 0038 40F20003 		movw	r3, #:lower16:ADC_SAR_2_countsPer10Volt
 1182 003c C0F20003 		movt	r3, #:upper16:ADC_SAR_2_countsPer10Volt
 1183 0040 1B68     		ldr	r3, [r3, #0]
 1184 0042 FB60     		str	r3, [r7, #12]
 1185              	.L47:
 838:.\Generated_Source\PSoC5/ADC_SAR_2.c ****     }
 839:.\Generated_Source\PSoC5/ADC_SAR_2.c **** 
 840:.\Generated_Source\PSoC5/ADC_SAR_2.c ****     /* Subtract ADC offset */
 841:.\Generated_Source\PSoC5/ADC_SAR_2.c ****     adcCounts -= ADC_SAR_2_offset;
 1186              		.loc 1 841 0
 1187 0044 FA88     		ldrh	r2, [r7, #6]
 1188 0046 40F20003 		movw	r3, #:lower16:ADC_SAR_2_offset
 1189 004a C0F20003 		movt	r3, #:upper16:ADC_SAR_2_offset
 1190 004e 1B88     		ldrh	r3, [r3, #0]	@ movhi
 1191 0050 9BB2     		uxth	r3, r3
 1192 0052 9BB2     		uxth	r3, r3
 1193 0054 D31A     		subs	r3, r2, r3
 1194 0056 9BB2     		uxth	r3, r3
 1195 0058 FB80     		strh	r3, [r7, #6]	@ movhi
 842:.\Generated_Source\PSoC5/ADC_SAR_2.c **** 
 843:.\Generated_Source\PSoC5/ADC_SAR_2.c ****     volts = ((float32)adcCounts * ADC_SAR_2_10V_COUNTS) / (float32)countsPer10Volt;
 1196              		.loc 1 843 0
 1197 005a B7F90630 		ldrsh	r3, [r7, #6]
 1198 005e 1846     		mov	r0, r3
 1199 0060 FFF7FEFF 		bl	__aeabi_i2f
 1200 0064 0346     		mov	r3, r0
 1201 0066 1846     		mov	r0, r3
 1202 0068 4FF00001 		mov	r1, #0
 1203 006c C4F22011 		movt	r1, 16672
 1204 0070 FFF7FEFF 		bl	__aeabi_fmul
 1205 0074 0346     		mov	r3, r0
 1206 0076 1C46     		mov	r4, r3
ARM GAS  C:\Users\Robert\AppData\Local\Temp\cczxa6fy.s 			page 37


 1207 0078 F868     		ldr	r0, [r7, #12]
 1208 007a FFF7FEFF 		bl	__aeabi_i2f
 1209 007e 0346     		mov	r3, r0
 1210 0080 2046     		mov	r0, r4
 1211 0082 1946     		mov	r1, r3
 1212 0084 FFF7FEFF 		bl	__aeabi_fdiv
 1213 0088 0346     		mov	r3, r0
 1214 008a BB60     		str	r3, [r7, #8]	@ float
 844:.\Generated_Source\PSoC5/ADC_SAR_2.c **** 
 845:.\Generated_Source\PSoC5/ADC_SAR_2.c ****     return( volts );
 1215              		.loc 1 845 0
 1216 008c BB68     		ldr	r3, [r7, #8]	@ float
 846:.\Generated_Source\PSoC5/ADC_SAR_2.c **** }
 1217              		.loc 1 846 0
 1218 008e 1846     		mov	r0, r3
 1219 0090 07F11407 		add	r7, r7, #20
 1220 0094 BD46     		mov	sp, r7
 1221 0096 90BD     		pop	{r4, r7, pc}
 1222              		.cfi_endproc
 1223              	.LFE17:
 1224              		.size	ADC_SAR_2_CountsTo_Volts, .-ADC_SAR_2_CountsTo_Volts
 1225              		.text
 1226              	.Letext0:
 1227              		.file 2 ".\\Generated_Source\\PSoC5\\cytypes.h"
 1228              		.section	.debug_info,"",%progbits
 1229              	.Ldebug_info0:
 1230 0000 CB040000 		.4byte	0x4cb
 1231 0004 0200     		.2byte	0x2
 1232 0006 00000000 		.4byte	.Ldebug_abbrev0
 1233 000a 04       		.byte	0x4
 1234 000b 01       		.uleb128 0x1
 1235 000c 8B020000 		.4byte	.LASF59
 1236 0010 01       		.byte	0x1
 1237 0011 6C030000 		.4byte	.LASF60
 1238 0015 BD010000 		.4byte	.LASF61
 1239 0019 00000000 		.4byte	.Ldebug_ranges0+0
 1240 001d 00000000 		.4byte	0
 1241 0021 00000000 		.4byte	0
 1242 0025 00000000 		.4byte	.Ldebug_line0
 1243 0029 02       		.uleb128 0x2
 1244 002a 01       		.byte	0x1
 1245 002b 06       		.byte	0x6
 1246 002c A5000000 		.4byte	.LASF0
 1247 0030 02       		.uleb128 0x2
 1248 0031 01       		.byte	0x1
 1249 0032 08       		.byte	0x8
 1250 0033 D9020000 		.4byte	.LASF1
 1251 0037 02       		.uleb128 0x2
 1252 0038 02       		.byte	0x2
 1253 0039 05       		.byte	0x5
 1254 003a E7020000 		.4byte	.LASF2
 1255 003e 02       		.uleb128 0x2
 1256 003f 02       		.byte	0x2
 1257 0040 07       		.byte	0x7
 1258 0041 A5010000 		.4byte	.LASF3
 1259 0045 03       		.uleb128 0x3
 1260 0046 04       		.byte	0x4
ARM GAS  C:\Users\Robert\AppData\Local\Temp\cczxa6fy.s 			page 38


 1261 0047 05       		.byte	0x5
 1262 0048 696E7400 		.ascii	"int\000"
 1263 004c 02       		.uleb128 0x2
 1264 004d 04       		.byte	0x4
 1265 004e 07       		.byte	0x7
 1266 004f 36010000 		.4byte	.LASF4
 1267 0053 02       		.uleb128 0x2
 1268 0054 08       		.byte	0x8
 1269 0055 05       		.byte	0x5
 1270 0056 97000000 		.4byte	.LASF5
 1271 005a 02       		.uleb128 0x2
 1272 005b 08       		.byte	0x8
 1273 005c 07       		.byte	0x7
 1274 005d 5F000000 		.4byte	.LASF6
 1275 0061 02       		.uleb128 0x2
 1276 0062 04       		.byte	0x4
 1277 0063 05       		.byte	0x5
 1278 0064 B7000000 		.4byte	.LASF7
 1279 0068 02       		.uleb128 0x2
 1280 0069 04       		.byte	0x4
 1281 006a 07       		.byte	0x7
 1282 006b 2F020000 		.4byte	.LASF8
 1283 006f 02       		.uleb128 0x2
 1284 0070 04       		.byte	0x4
 1285 0071 07       		.byte	0x7
 1286 0072 62010000 		.4byte	.LASF9
 1287 0076 02       		.uleb128 0x2
 1288 0077 01       		.byte	0x1
 1289 0078 08       		.byte	0x8
 1290 0079 16030000 		.4byte	.LASF10
 1291 007d 04       		.uleb128 0x4
 1292 007e F1000000 		.4byte	.LASF11
 1293 0082 02       		.byte	0x2
 1294 0083 5B       		.byte	0x5b
 1295 0084 30000000 		.4byte	0x30
 1296 0088 04       		.uleb128 0x4
 1297 0089 00000000 		.4byte	.LASF12
 1298 008d 02       		.byte	0x2
 1299 008e 5C       		.byte	0x5c
 1300 008f 3E000000 		.4byte	0x3e
 1301 0093 04       		.uleb128 0x4
 1302 0094 FE000000 		.4byte	.LASF13
 1303 0098 02       		.byte	0x2
 1304 0099 5D       		.byte	0x5d
 1305 009a 6F000000 		.4byte	0x6f
 1306 009e 04       		.uleb128 0x4
 1307 009f B8010000 		.4byte	.LASF14
 1308 00a3 02       		.byte	0x2
 1309 00a4 5E       		.byte	0x5e
 1310 00a5 29000000 		.4byte	0x29
 1311 00a9 04       		.uleb128 0x4
 1312 00aa BE030000 		.4byte	.LASF15
 1313 00ae 02       		.byte	0x2
 1314 00af 5F       		.byte	0x5f
 1315 00b0 37000000 		.4byte	0x37
 1316 00b4 04       		.uleb128 0x4
 1317 00b5 B1000000 		.4byte	.LASF16
ARM GAS  C:\Users\Robert\AppData\Local\Temp\cczxa6fy.s 			page 39


 1318 00b9 02       		.byte	0x2
 1319 00ba 60       		.byte	0x60
 1320 00bb 61000000 		.4byte	0x61
 1321 00bf 04       		.uleb128 0x4
 1322 00c0 27020000 		.4byte	.LASF17
 1323 00c4 02       		.byte	0x2
 1324 00c5 61       		.byte	0x61
 1325 00c6 CA000000 		.4byte	0xca
 1326 00ca 02       		.uleb128 0x2
 1327 00cb 04       		.byte	0x4
 1328 00cc 04       		.byte	0x4
 1329 00cd 7F020000 		.4byte	.LASF18
 1330 00d1 02       		.uleb128 0x2
 1331 00d2 08       		.byte	0x8
 1332 00d3 04       		.byte	0x4
 1333 00d4 F7000000 		.4byte	.LASF19
 1334 00d8 04       		.uleb128 0x4
 1335 00d9 61020000 		.4byte	.LASF20
 1336 00dd 02       		.byte	0x2
 1337 00de 66       		.byte	0x66
 1338 00df 53000000 		.4byte	0x53
 1339 00e3 04       		.uleb128 0x4
 1340 00e4 D4020000 		.4byte	.LASF21
 1341 00e8 02       		.byte	0x2
 1342 00e9 F0       		.byte	0xf0
 1343 00ea EE000000 		.4byte	0xee
 1344 00ee 05       		.uleb128 0x5
 1345 00ef 7D000000 		.4byte	0x7d
 1346 00f3 04       		.uleb128 0x4
 1347 00f4 EB000000 		.4byte	.LASF22
 1348 00f8 02       		.byte	0x2
 1349 00f9 F1       		.byte	0xf1
 1350 00fa FE000000 		.4byte	0xfe
 1351 00fe 05       		.uleb128 0x5
 1352 00ff 88000000 		.4byte	0x88
 1353 0103 04       		.uleb128 0x4
 1354 0104 11020000 		.4byte	.LASF23
 1355 0108 02       		.byte	0x2
 1356 0109 F2       		.byte	0xf2
 1357 010a 0E010000 		.4byte	0x10e
 1358 010e 05       		.uleb128 0x5
 1359 010f 93000000 		.4byte	0x93
 1360 0113 06       		.uleb128 0x6
 1361 0114 01       		.byte	0x1
 1362 0115 4F000000 		.4byte	.LASF24
 1363 0119 01       		.byte	0x1
 1364 011a 4A       		.byte	0x4a
 1365 011b 01       		.byte	0x1
 1366 011c 00000000 		.4byte	.LFB0
 1367 0120 2A000000 		.4byte	.LFE0
 1368 0124 00000000 		.4byte	.LLST0
 1369 0128 01       		.byte	0x1
 1370 0129 06       		.uleb128 0x6
 1371 012a 01       		.byte	0x1
 1372 012b 38020000 		.4byte	.LASF25
 1373 012f 01       		.byte	0x1
 1374 0130 6A       		.byte	0x6a
ARM GAS  C:\Users\Robert\AppData\Local\Temp\cczxa6fy.s 			page 40


 1375 0131 01       		.byte	0x1
 1376 0132 00000000 		.4byte	.LFB1
 1377 0136 5C000000 		.4byte	.LFE1
 1378 013a 2C000000 		.4byte	.LLST1
 1379 013e 01       		.byte	0x1
 1380 013f 07       		.uleb128 0x7
 1381 0140 01       		.byte	0x1
 1382 0141 32030000 		.4byte	.LASF28
 1383 0145 01       		.byte	0x1
 1384 0146 8F       		.byte	0x8f
 1385 0147 01       		.byte	0x1
 1386 0148 00000000 		.4byte	.LFB2
 1387 014c 4A010000 		.4byte	.LFE2
 1388 0150 58000000 		.4byte	.LLST2
 1389 0154 01       		.byte	0x1
 1390 0155 76010000 		.4byte	0x176
 1391 0159 08       		.uleb128 0x8
 1392 015a DA030000 		.4byte	.LASF26
 1393 015e 01       		.byte	0x1
 1394 015f 91       		.byte	0x91
 1395 0160 7D000000 		.4byte	0x7d
 1396 0164 02       		.byte	0x2
 1397 0165 91       		.byte	0x91
 1398 0166 76       		.sleb128 -10
 1399 0167 08       		.uleb128 0x8
 1400 0168 54030000 		.4byte	.LASF27
 1401 016c 01       		.byte	0x1
 1402 016d 92       		.byte	0x92
 1403 016e 7D000000 		.4byte	0x7d
 1404 0172 02       		.byte	0x2
 1405 0173 91       		.byte	0x91
 1406 0174 77       		.sleb128 -9
 1407 0175 00       		.byte	0
 1408 0176 07       		.uleb128 0x7
 1409 0177 01       		.byte	0x1
 1410 0178 88000000 		.4byte	.LASF29
 1411 017c 01       		.byte	0x1
 1412 017d F5       		.byte	0xf5
 1413 017e 01       		.byte	0x1
 1414 017f 00000000 		.4byte	.LFB3
 1415 0183 AA000000 		.4byte	.LFE3
 1416 0187 90000000 		.4byte	.LLST3
 1417 018b 01       		.byte	0x1
 1418 018c 9F010000 		.4byte	0x19f
 1419 0190 08       		.uleb128 0x8
 1420 0191 54030000 		.4byte	.LASF27
 1421 0195 01       		.byte	0x1
 1422 0196 F7       		.byte	0xf7
 1423 0197 7D000000 		.4byte	0x7d
 1424 019b 02       		.byte	0x2
 1425 019c 91       		.byte	0x91
 1426 019d 77       		.sleb128 -9
 1427 019e 00       		.byte	0
 1428 019f 09       		.uleb128 0x9
 1429 01a0 01       		.byte	0x1
 1430 01a1 AB030000 		.4byte	.LASF30
 1431 01a5 01       		.byte	0x1
ARM GAS  C:\Users\Robert\AppData\Local\Temp\cczxa6fy.s 			page 41


 1432 01a6 1F01     		.2byte	0x11f
 1433 01a8 01       		.byte	0x1
 1434 01a9 00000000 		.4byte	.LFB4
 1435 01ad 48000000 		.4byte	.LFE4
 1436 01b1 C8000000 		.4byte	.LLST4
 1437 01b5 01       		.byte	0x1
 1438 01b6 D9010000 		.4byte	0x1d9
 1439 01ba 0A       		.uleb128 0xa
 1440 01bb 85020000 		.4byte	.LASF32
 1441 01bf 01       		.byte	0x1
 1442 01c0 1F01     		.2byte	0x11f
 1443 01c2 7D000000 		.4byte	0x7d
 1444 01c6 02       		.byte	0x2
 1445 01c7 91       		.byte	0x91
 1446 01c8 6F       		.sleb128 -17
 1447 01c9 0B       		.uleb128 0xb
 1448 01ca DA030000 		.4byte	.LASF26
 1449 01ce 01       		.byte	0x1
 1450 01cf 2101     		.2byte	0x121
 1451 01d1 7D000000 		.4byte	0x7d
 1452 01d5 02       		.byte	0x2
 1453 01d6 91       		.byte	0x91
 1454 01d7 77       		.sleb128 -9
 1455 01d8 00       		.byte	0
 1456 01d9 0C       		.uleb128 0xc
 1457 01da 01       		.byte	0x1
 1458 01db 43010000 		.4byte	.LASF31
 1459 01df 01       		.byte	0x1
 1460 01e0 5101     		.2byte	0x151
 1461 01e2 01       		.byte	0x1
 1462 01e3 00000000 		.4byte	.LFB5
 1463 01e7 5E000000 		.4byte	.LFE5
 1464 01eb 00010000 		.4byte	.LLST5
 1465 01ef 01       		.byte	0x1
 1466 01f0 13020000 		.4byte	0x213
 1467 01f4 0A       		.uleb128 0xa
 1468 01f5 0B030000 		.4byte	.LASF33
 1469 01f9 01       		.byte	0x1
 1470 01fa 5101     		.2byte	0x151
 1471 01fc 7D000000 		.4byte	0x7d
 1472 0200 02       		.byte	0x2
 1473 0201 91       		.byte	0x91
 1474 0202 6F       		.sleb128 -17
 1475 0203 0B       		.uleb128 0xb
 1476 0204 DA030000 		.4byte	.LASF26
 1477 0208 01       		.byte	0x1
 1478 0209 5301     		.2byte	0x153
 1479 020b 7D000000 		.4byte	0x7d
 1480 020f 02       		.byte	0x2
 1481 0210 91       		.byte	0x91
 1482 0211 77       		.sleb128 -9
 1483 0212 00       		.byte	0
 1484 0213 0D       		.uleb128 0xd
 1485 0214 01       		.byte	0x1
 1486 0215 1B030000 		.4byte	.LASF34
 1487 0219 01       		.byte	0x1
 1488 021a 8E01     		.2byte	0x18e
ARM GAS  C:\Users\Robert\AppData\Local\Temp\cczxa6fy.s 			page 42


 1489 021c 01       		.byte	0x1
 1490 021d 00000000 		.4byte	.LFB6
 1491 0221 26000000 		.4byte	.LFE6
 1492 0225 38010000 		.4byte	.LLST6
 1493 0229 01       		.byte	0x1
 1494 022a 0D       		.uleb128 0xd
 1495 022b 01       		.byte	0x1
 1496 022c 7A010000 		.4byte	.LASF35
 1497 0230 01       		.byte	0x1
 1498 0231 B001     		.2byte	0x1b0
 1499 0233 01       		.byte	0x1
 1500 0234 00000000 		.4byte	.LFB7
 1501 0238 26000000 		.4byte	.LFE7
 1502 023c 64010000 		.4byte	.LLST7
 1503 0240 01       		.byte	0x1
 1504 0241 0E       		.uleb128 0xe
 1505 0242 01       		.byte	0x1
 1506 0243 47020000 		.4byte	.LASF38
 1507 0247 01       		.byte	0x1
 1508 0248 D801     		.2byte	0x1d8
 1509 024a 01       		.byte	0x1
 1510 024b 7D000000 		.4byte	0x7d
 1511 024f 00000000 		.4byte	.LFB8
 1512 0253 4C000000 		.4byte	.LFE8
 1513 0257 90010000 		.4byte	.LLST8
 1514 025b 01       		.byte	0x1
 1515 025c 7F020000 		.4byte	0x27f
 1516 0260 0A       		.uleb128 0xa
 1517 0261 2E010000 		.4byte	.LASF36
 1518 0265 01       		.byte	0x1
 1519 0266 D801     		.2byte	0x1d8
 1520 0268 7D000000 		.4byte	0x7d
 1521 026c 02       		.byte	0x2
 1522 026d 91       		.byte	0x91
 1523 026e 6F       		.sleb128 -17
 1524 026f 0B       		.uleb128 0xb
 1525 0270 65030000 		.4byte	.LASF37
 1526 0274 01       		.byte	0x1
 1527 0275 DA01     		.2byte	0x1da
 1528 0277 7D000000 		.4byte	0x7d
 1529 027b 02       		.byte	0x2
 1530 027c 91       		.byte	0x91
 1531 027d 77       		.sleb128 -9
 1532 027e 00       		.byte	0
 1533 027f 0F       		.uleb128 0xf
 1534 0280 01       		.byte	0x1
 1535 0281 90010000 		.4byte	.LASF62
 1536 0285 01       		.byte	0x1
 1537 0286 0502     		.2byte	0x205
 1538 0288 01       		.byte	0x1
 1539 0289 9E000000 		.4byte	0x9e
 1540 028d 00000000 		.4byte	.LFB9
 1541 0291 2E000000 		.4byte	.LFE9
 1542 0295 C8010000 		.4byte	.LLST9
 1543 0299 01       		.byte	0x1
 1544 029a 10       		.uleb128 0x10
 1545 029b 01       		.byte	0x1
ARM GAS  C:\Users\Robert\AppData\Local\Temp\cczxa6fy.s 			page 43


 1546 029c C4030000 		.4byte	.LASF39
 1547 02a0 01       		.byte	0x1
 1548 02a1 2302     		.2byte	0x223
 1549 02a3 01       		.byte	0x1
 1550 02a4 A9000000 		.4byte	0xa9
 1551 02a8 00000000 		.4byte	.LFB10
 1552 02ac 36000000 		.4byte	.LFE10
 1553 02b0 F4010000 		.4byte	.LLST10
 1554 02b4 01       		.byte	0x1
 1555 02b5 C9020000 		.4byte	0x2c9
 1556 02b9 11       		.uleb128 0x11
 1557 02ba 72657300 		.ascii	"res\000"
 1558 02be 01       		.byte	0x1
 1559 02bf 2502     		.2byte	0x225
 1560 02c1 88000000 		.4byte	0x88
 1561 02c5 02       		.byte	0x2
 1562 02c6 91       		.byte	0x91
 1563 02c7 76       		.sleb128 -10
 1564 02c8 00       		.byte	0
 1565 02c9 09       		.uleb128 0x9
 1566 02ca 01       		.byte	0x1
 1567 02cb 0F000000 		.4byte	.LASF40
 1568 02cf 01       		.byte	0x1
 1569 02d0 4602     		.2byte	0x246
 1570 02d2 01       		.byte	0x1
 1571 02d3 00000000 		.4byte	.LFB11
 1572 02d7 20000000 		.4byte	.LFE11
 1573 02db 2C020000 		.4byte	.LLST11
 1574 02df 01       		.byte	0x1
 1575 02e0 F4020000 		.4byte	0x2f4
 1576 02e4 0A       		.uleb128 0xa
 1577 02e5 43030000 		.4byte	.LASF41
 1578 02e9 01       		.byte	0x1
 1579 02ea 4602     		.2byte	0x246
 1580 02ec A9000000 		.4byte	0xa9
 1581 02f0 02       		.byte	0x2
 1582 02f1 91       		.byte	0x91
 1583 02f2 76       		.sleb128 -10
 1584 02f3 00       		.byte	0
 1585 02f4 12       		.uleb128 0x12
 1586 02f5 2A000000 		.4byte	.LASF63
 1587 02f9 01       		.byte	0x1
 1588 02fa 6002     		.2byte	0x260
 1589 02fc 01       		.byte	0x1
 1590 02fd 00000000 		.4byte	.LFB12
 1591 0301 94000000 		.4byte	.LFE12
 1592 0305 64020000 		.4byte	.LLST12
 1593 0309 01       		.byte	0x1
 1594 030a 2D030000 		.4byte	0x32d
 1595 030e 0A       		.uleb128 0xa
 1596 030f 0B030000 		.4byte	.LASF33
 1597 0313 01       		.byte	0x1
 1598 0314 6002     		.2byte	0x260
 1599 0316 7D000000 		.4byte	0x7d
 1600 031a 02       		.byte	0x2
 1601 031b 91       		.byte	0x91
 1602 031c 6F       		.sleb128 -17
ARM GAS  C:\Users\Robert\AppData\Local\Temp\cczxa6fy.s 			page 44


 1603 031d 0B       		.uleb128 0xb
 1604 031e 23000000 		.4byte	.LASF42
 1605 0322 01       		.byte	0x1
 1606 0323 6202     		.2byte	0x262
 1607 0325 B4000000 		.4byte	0xb4
 1608 0329 02       		.byte	0x2
 1609 032a 91       		.byte	0x91
 1610 032b 74       		.sleb128 -12
 1611 032c 00       		.byte	0
 1612 032d 09       		.uleb128 0x9
 1613 032e 01       		.byte	0x1
 1614 032f 3D000000 		.4byte	.LASF43
 1615 0333 01       		.byte	0x1
 1616 0334 B102     		.2byte	0x2b1
 1617 0336 01       		.byte	0x1
 1618 0337 00000000 		.4byte	.LFB13
 1619 033b 30000000 		.4byte	.LFE13
 1620 033f 9C020000 		.4byte	.LLST13
 1621 0343 01       		.byte	0x1
 1622 0344 58030000 		.4byte	0x358
 1623 0348 0A       		.uleb128 0xa
 1624 0349 07000000 		.4byte	.LASF44
 1625 034d 01       		.byte	0x1
 1626 034e B102     		.2byte	0x2b1
 1627 0350 A9000000 		.4byte	0xa9
 1628 0354 02       		.byte	0x2
 1629 0355 91       		.byte	0x91
 1630 0356 76       		.sleb128 -10
 1631 0357 00       		.byte	0
 1632 0358 09       		.uleb128 0x9
 1633 0359 01       		.byte	0x1
 1634 035a 67020000 		.4byte	.LASF45
 1635 035e 01       		.byte	0x1
 1636 035f CC02     		.2byte	0x2cc
 1637 0361 01       		.byte	0x1
 1638 0362 00000000 		.4byte	.LFB14
 1639 0366 1E000000 		.4byte	.LFE14
 1640 036a D4020000 		.4byte	.LLST14
 1641 036e 01       		.byte	0x1
 1642 036f 83030000 		.4byte	0x383
 1643 0373 0A       		.uleb128 0xa
 1644 0374 07000000 		.4byte	.LASF44
 1645 0378 01       		.byte	0x1
 1646 0379 CC02     		.2byte	0x2cc
 1647 037b B4000000 		.4byte	0xb4
 1648 037f 02       		.byte	0x2
 1649 0380 91       		.byte	0x91
 1650 0381 74       		.sleb128 -12
 1651 0382 00       		.byte	0
 1652 0383 10       		.uleb128 0x10
 1653 0384 01       		.byte	0x1
 1654 0385 F1020000 		.4byte	.LASF46
 1655 0389 01       		.byte	0x1
 1656 038a E402     		.2byte	0x2e4
 1657 038c 01       		.byte	0x1
 1658 038d A9000000 		.4byte	0xa9
 1659 0391 00000000 		.4byte	.LFB15
ARM GAS  C:\Users\Robert\AppData\Local\Temp\cczxa6fy.s 			page 45


 1660 0395 A6000000 		.4byte	.LFE15
 1661 0399 0C030000 		.4byte	.LLST15
 1662 039d 01       		.byte	0x1
 1663 039e D0030000 		.4byte	0x3d0
 1664 03a2 0A       		.uleb128 0xa
 1665 03a3 4A030000 		.4byte	.LASF47
 1666 03a7 01       		.byte	0x1
 1667 03a8 E402     		.2byte	0x2e4
 1668 03aa A9000000 		.4byte	0xa9
 1669 03ae 02       		.byte	0x2
 1670 03af 91       		.byte	0x91
 1671 03b0 6E       		.sleb128 -18
 1672 03b1 0B       		.uleb128 0xb
 1673 03b2 0A020000 		.4byte	.LASF48
 1674 03b6 01       		.byte	0x1
 1675 03b7 E602     		.2byte	0x2e6
 1676 03b9 A9000000 		.4byte	0xa9
 1677 03bd 02       		.byte	0x2
 1678 03be 91       		.byte	0x91
 1679 03bf 72       		.sleb128 -14
 1680 03c0 0B       		.uleb128 0xb
 1681 03c1 05010000 		.4byte	.LASF49
 1682 03c5 01       		.byte	0x1
 1683 03c6 E702     		.2byte	0x2e7
 1684 03c8 B4000000 		.4byte	0xb4
 1685 03cc 02       		.byte	0x2
 1686 03cd 91       		.byte	0x91
 1687 03ce 74       		.sleb128 -12
 1688 03cf 00       		.byte	0
 1689 03d0 0E       		.uleb128 0xe
 1690 03d1 01       		.byte	0x1
 1691 03d2 D1000000 		.4byte	.LASF50
 1692 03d6 01       		.byte	0x1
 1693 03d7 0E03     		.2byte	0x30e
 1694 03d9 01       		.byte	0x1
 1695 03da B4000000 		.4byte	0xb4
 1696 03de 00000000 		.4byte	.LFB16
 1697 03e2 A8000000 		.4byte	.LFE16
 1698 03e6 44030000 		.4byte	.LLST16
 1699 03ea 01       		.byte	0x1
 1700 03eb 1D040000 		.4byte	0x41d
 1701 03ef 0A       		.uleb128 0xa
 1702 03f0 4A030000 		.4byte	.LASF47
 1703 03f4 01       		.byte	0x1
 1704 03f5 0E03     		.2byte	0x30e
 1705 03f7 A9000000 		.4byte	0xa9
 1706 03fb 02       		.byte	0x2
 1707 03fc 91       		.byte	0x91
 1708 03fd 5E       		.sleb128 -34
 1709 03fe 0B       		.uleb128 0xb
 1710 03ff 5B010000 		.4byte	.LASF51
 1711 0403 01       		.byte	0x1
 1712 0404 1103     		.2byte	0x311
 1713 0406 D8000000 		.4byte	0xd8
 1714 040a 02       		.byte	0x2
 1715 040b 91       		.byte	0x91
 1716 040c 60       		.sleb128 -32
ARM GAS  C:\Users\Robert\AppData\Local\Temp\cczxa6fy.s 			page 46


 1717 040d 0B       		.uleb128 0xb
 1718 040e 05010000 		.4byte	.LASF49
 1719 0412 01       		.byte	0x1
 1720 0413 1203     		.2byte	0x312
 1721 0415 B4000000 		.4byte	0xb4
 1722 0419 02       		.byte	0x2
 1723 041a 91       		.byte	0x91
 1724 041b 6C       		.sleb128 -20
 1725 041c 00       		.byte	0
 1726 041d 0E       		.uleb128 0xe
 1727 041e 01       		.byte	0x1
 1728 041f 15010000 		.4byte	.LASF52
 1729 0423 01       		.byte	0x1
 1730 0424 3A03     		.2byte	0x33a
 1731 0426 01       		.byte	0x1
 1732 0427 BF000000 		.4byte	0xbf
 1733 042b 00000000 		.4byte	.LFB17
 1734 042f 98000000 		.4byte	.LFE17
 1735 0433 7C030000 		.4byte	.LLST17
 1736 0437 01       		.byte	0x1
 1737 0438 6A040000 		.4byte	0x46a
 1738 043c 0A       		.uleb128 0xa
 1739 043d 4A030000 		.4byte	.LASF47
 1740 0441 01       		.byte	0x1
 1741 0442 3A03     		.2byte	0x33a
 1742 0444 A9000000 		.4byte	0xa9
 1743 0448 02       		.byte	0x2
 1744 0449 91       		.byte	0x91
 1745 044a 66       		.sleb128 -26
 1746 044b 0B       		.uleb128 0xb
 1747 044c 74010000 		.4byte	.LASF53
 1748 0450 01       		.byte	0x1
 1749 0451 3C03     		.2byte	0x33c
 1750 0453 BF000000 		.4byte	0xbf
 1751 0457 02       		.byte	0x2
 1752 0458 91       		.byte	0x91
 1753 0459 68       		.sleb128 -24
 1754 045a 0B       		.uleb128 0xb
 1755 045b 05010000 		.4byte	.LASF49
 1756 045f 01       		.byte	0x1
 1757 0460 3D03     		.2byte	0x33d
 1758 0462 B4000000 		.4byte	0xb4
 1759 0466 02       		.byte	0x2
 1760 0467 91       		.byte	0x91
 1761 0468 6C       		.sleb128 -20
 1762 0469 00       		.byte	0
 1763 046a 13       		.uleb128 0x13
 1764 046b 76000000 		.4byte	.LASF54
 1765 046f 01       		.byte	0x1
 1766 0470 23       		.byte	0x23
 1767 0471 7D000000 		.4byte	0x7d
 1768 0475 01       		.byte	0x1
 1769 0476 05       		.byte	0x5
 1770 0477 03       		.byte	0x3
 1771 0478 00000000 		.4byte	ADC_SAR_2_initVar
 1772 047c 13       		.uleb128 0x13
 1773 047d C0000000 		.4byte	.LASF55
ARM GAS  C:\Users\Robert\AppData\Local\Temp\cczxa6fy.s 			page 47


 1774 0481 01       		.byte	0x1
 1775 0482 24       		.byte	0x24
 1776 0483 8E040000 		.4byte	0x48e
 1777 0487 01       		.byte	0x1
 1778 0488 05       		.byte	0x5
 1779 0489 03       		.byte	0x3
 1780 048a 00000000 		.4byte	ADC_SAR_2_offset
 1781 048e 05       		.uleb128 0x5
 1782 048f A9000000 		.4byte	0xa9
 1783 0493 13       		.uleb128 0x13
 1784 0494 E1030000 		.4byte	.LASF56
 1785 0498 01       		.byte	0x1
 1786 0499 25       		.byte	0x25
 1787 049a 8E040000 		.4byte	0x48e
 1788 049e 01       		.byte	0x1
 1789 049f 05       		.byte	0x5
 1790 04a0 03       		.byte	0x3
 1791 04a1 00000000 		.4byte	ADC_SAR_2_countsPerVolt
 1792 04a5 13       		.uleb128 0x13
 1793 04a6 91030000 		.4byte	.LASF57
 1794 04aa 01       		.byte	0x1
 1795 04ab 26       		.byte	0x26
 1796 04ac B7040000 		.4byte	0x4b7
 1797 04b0 01       		.byte	0x1
 1798 04b1 05       		.byte	0x5
 1799 04b2 03       		.byte	0x3
 1800 04b3 00000000 		.4byte	ADC_SAR_2_countsPer10Volt
 1801 04b7 05       		.uleb128 0x5
 1802 04b8 B4000000 		.4byte	0xb4
 1803 04bc 13       		.uleb128 0x13
 1804 04bd 17020000 		.4byte	.LASF58
 1805 04c1 01       		.byte	0x1
 1806 04c2 27       		.byte	0x27
 1807 04c3 8E040000 		.4byte	0x48e
 1808 04c7 01       		.byte	0x1
 1809 04c8 05       		.byte	0x5
 1810 04c9 03       		.byte	0x3
 1811 04ca 00000000 		.4byte	ADC_SAR_2_shift
 1812 04ce 00       		.byte	0
 1813              		.section	.debug_abbrev,"",%progbits
 1814              	.Ldebug_abbrev0:
 1815 0000 01       		.uleb128 0x1
 1816 0001 11       		.uleb128 0x11
 1817 0002 01       		.byte	0x1
 1818 0003 25       		.uleb128 0x25
 1819 0004 0E       		.uleb128 0xe
 1820 0005 13       		.uleb128 0x13
 1821 0006 0B       		.uleb128 0xb
 1822 0007 03       		.uleb128 0x3
 1823 0008 0E       		.uleb128 0xe
 1824 0009 1B       		.uleb128 0x1b
 1825 000a 0E       		.uleb128 0xe
 1826 000b 55       		.uleb128 0x55
 1827 000c 06       		.uleb128 0x6
 1828 000d 11       		.uleb128 0x11
 1829 000e 01       		.uleb128 0x1
 1830 000f 52       		.uleb128 0x52
ARM GAS  C:\Users\Robert\AppData\Local\Temp\cczxa6fy.s 			page 48


 1831 0010 01       		.uleb128 0x1
 1832 0011 10       		.uleb128 0x10
 1833 0012 06       		.uleb128 0x6
 1834 0013 00       		.byte	0
 1835 0014 00       		.byte	0
 1836 0015 02       		.uleb128 0x2
 1837 0016 24       		.uleb128 0x24
 1838 0017 00       		.byte	0
 1839 0018 0B       		.uleb128 0xb
 1840 0019 0B       		.uleb128 0xb
 1841 001a 3E       		.uleb128 0x3e
 1842 001b 0B       		.uleb128 0xb
 1843 001c 03       		.uleb128 0x3
 1844 001d 0E       		.uleb128 0xe
 1845 001e 00       		.byte	0
 1846 001f 00       		.byte	0
 1847 0020 03       		.uleb128 0x3
 1848 0021 24       		.uleb128 0x24
 1849 0022 00       		.byte	0
 1850 0023 0B       		.uleb128 0xb
 1851 0024 0B       		.uleb128 0xb
 1852 0025 3E       		.uleb128 0x3e
 1853 0026 0B       		.uleb128 0xb
 1854 0027 03       		.uleb128 0x3
 1855 0028 08       		.uleb128 0x8
 1856 0029 00       		.byte	0
 1857 002a 00       		.byte	0
 1858 002b 04       		.uleb128 0x4
 1859 002c 16       		.uleb128 0x16
 1860 002d 00       		.byte	0
 1861 002e 03       		.uleb128 0x3
 1862 002f 0E       		.uleb128 0xe
 1863 0030 3A       		.uleb128 0x3a
 1864 0031 0B       		.uleb128 0xb
 1865 0032 3B       		.uleb128 0x3b
 1866 0033 0B       		.uleb128 0xb
 1867 0034 49       		.uleb128 0x49
 1868 0035 13       		.uleb128 0x13
 1869 0036 00       		.byte	0
 1870 0037 00       		.byte	0
 1871 0038 05       		.uleb128 0x5
 1872 0039 35       		.uleb128 0x35
 1873 003a 00       		.byte	0
 1874 003b 49       		.uleb128 0x49
 1875 003c 13       		.uleb128 0x13
 1876 003d 00       		.byte	0
 1877 003e 00       		.byte	0
 1878 003f 06       		.uleb128 0x6
 1879 0040 2E       		.uleb128 0x2e
 1880 0041 00       		.byte	0
 1881 0042 3F       		.uleb128 0x3f
 1882 0043 0C       		.uleb128 0xc
 1883 0044 03       		.uleb128 0x3
 1884 0045 0E       		.uleb128 0xe
 1885 0046 3A       		.uleb128 0x3a
 1886 0047 0B       		.uleb128 0xb
 1887 0048 3B       		.uleb128 0x3b
ARM GAS  C:\Users\Robert\AppData\Local\Temp\cczxa6fy.s 			page 49


 1888 0049 0B       		.uleb128 0xb
 1889 004a 27       		.uleb128 0x27
 1890 004b 0C       		.uleb128 0xc
 1891 004c 11       		.uleb128 0x11
 1892 004d 01       		.uleb128 0x1
 1893 004e 12       		.uleb128 0x12
 1894 004f 01       		.uleb128 0x1
 1895 0050 40       		.uleb128 0x40
 1896 0051 06       		.uleb128 0x6
 1897 0052 9642     		.uleb128 0x2116
 1898 0054 0C       		.uleb128 0xc
 1899 0055 00       		.byte	0
 1900 0056 00       		.byte	0
 1901 0057 07       		.uleb128 0x7
 1902 0058 2E       		.uleb128 0x2e
 1903 0059 01       		.byte	0x1
 1904 005a 3F       		.uleb128 0x3f
 1905 005b 0C       		.uleb128 0xc
 1906 005c 03       		.uleb128 0x3
 1907 005d 0E       		.uleb128 0xe
 1908 005e 3A       		.uleb128 0x3a
 1909 005f 0B       		.uleb128 0xb
 1910 0060 3B       		.uleb128 0x3b
 1911 0061 0B       		.uleb128 0xb
 1912 0062 27       		.uleb128 0x27
 1913 0063 0C       		.uleb128 0xc
 1914 0064 11       		.uleb128 0x11
 1915 0065 01       		.uleb128 0x1
 1916 0066 12       		.uleb128 0x12
 1917 0067 01       		.uleb128 0x1
 1918 0068 40       		.uleb128 0x40
 1919 0069 06       		.uleb128 0x6
 1920 006a 9642     		.uleb128 0x2116
 1921 006c 0C       		.uleb128 0xc
 1922 006d 01       		.uleb128 0x1
 1923 006e 13       		.uleb128 0x13
 1924 006f 00       		.byte	0
 1925 0070 00       		.byte	0
 1926 0071 08       		.uleb128 0x8
 1927 0072 34       		.uleb128 0x34
 1928 0073 00       		.byte	0
 1929 0074 03       		.uleb128 0x3
 1930 0075 0E       		.uleb128 0xe
 1931 0076 3A       		.uleb128 0x3a
 1932 0077 0B       		.uleb128 0xb
 1933 0078 3B       		.uleb128 0x3b
 1934 0079 0B       		.uleb128 0xb
 1935 007a 49       		.uleb128 0x49
 1936 007b 13       		.uleb128 0x13
 1937 007c 02       		.uleb128 0x2
 1938 007d 0A       		.uleb128 0xa
 1939 007e 00       		.byte	0
 1940 007f 00       		.byte	0
 1941 0080 09       		.uleb128 0x9
 1942 0081 2E       		.uleb128 0x2e
 1943 0082 01       		.byte	0x1
 1944 0083 3F       		.uleb128 0x3f
ARM GAS  C:\Users\Robert\AppData\Local\Temp\cczxa6fy.s 			page 50


 1945 0084 0C       		.uleb128 0xc
 1946 0085 03       		.uleb128 0x3
 1947 0086 0E       		.uleb128 0xe
 1948 0087 3A       		.uleb128 0x3a
 1949 0088 0B       		.uleb128 0xb
 1950 0089 3B       		.uleb128 0x3b
 1951 008a 05       		.uleb128 0x5
 1952 008b 27       		.uleb128 0x27
 1953 008c 0C       		.uleb128 0xc
 1954 008d 11       		.uleb128 0x11
 1955 008e 01       		.uleb128 0x1
 1956 008f 12       		.uleb128 0x12
 1957 0090 01       		.uleb128 0x1
 1958 0091 40       		.uleb128 0x40
 1959 0092 06       		.uleb128 0x6
 1960 0093 9742     		.uleb128 0x2117
 1961 0095 0C       		.uleb128 0xc
 1962 0096 01       		.uleb128 0x1
 1963 0097 13       		.uleb128 0x13
 1964 0098 00       		.byte	0
 1965 0099 00       		.byte	0
 1966 009a 0A       		.uleb128 0xa
 1967 009b 05       		.uleb128 0x5
 1968 009c 00       		.byte	0
 1969 009d 03       		.uleb128 0x3
 1970 009e 0E       		.uleb128 0xe
 1971 009f 3A       		.uleb128 0x3a
 1972 00a0 0B       		.uleb128 0xb
 1973 00a1 3B       		.uleb128 0x3b
 1974 00a2 05       		.uleb128 0x5
 1975 00a3 49       		.uleb128 0x49
 1976 00a4 13       		.uleb128 0x13
 1977 00a5 02       		.uleb128 0x2
 1978 00a6 0A       		.uleb128 0xa
 1979 00a7 00       		.byte	0
 1980 00a8 00       		.byte	0
 1981 00a9 0B       		.uleb128 0xb
 1982 00aa 34       		.uleb128 0x34
 1983 00ab 00       		.byte	0
 1984 00ac 03       		.uleb128 0x3
 1985 00ad 0E       		.uleb128 0xe
 1986 00ae 3A       		.uleb128 0x3a
 1987 00af 0B       		.uleb128 0xb
 1988 00b0 3B       		.uleb128 0x3b
 1989 00b1 05       		.uleb128 0x5
 1990 00b2 49       		.uleb128 0x49
 1991 00b3 13       		.uleb128 0x13
 1992 00b4 02       		.uleb128 0x2
 1993 00b5 0A       		.uleb128 0xa
 1994 00b6 00       		.byte	0
 1995 00b7 00       		.byte	0
 1996 00b8 0C       		.uleb128 0xc
 1997 00b9 2E       		.uleb128 0x2e
 1998 00ba 01       		.byte	0x1
 1999 00bb 3F       		.uleb128 0x3f
 2000 00bc 0C       		.uleb128 0xc
 2001 00bd 03       		.uleb128 0x3
ARM GAS  C:\Users\Robert\AppData\Local\Temp\cczxa6fy.s 			page 51


 2002 00be 0E       		.uleb128 0xe
 2003 00bf 3A       		.uleb128 0x3a
 2004 00c0 0B       		.uleb128 0xb
 2005 00c1 3B       		.uleb128 0x3b
 2006 00c2 05       		.uleb128 0x5
 2007 00c3 27       		.uleb128 0x27
 2008 00c4 0C       		.uleb128 0xc
 2009 00c5 11       		.uleb128 0x11
 2010 00c6 01       		.uleb128 0x1
 2011 00c7 12       		.uleb128 0x12
 2012 00c8 01       		.uleb128 0x1
 2013 00c9 40       		.uleb128 0x40
 2014 00ca 06       		.uleb128 0x6
 2015 00cb 9642     		.uleb128 0x2116
 2016 00cd 0C       		.uleb128 0xc
 2017 00ce 01       		.uleb128 0x1
 2018 00cf 13       		.uleb128 0x13
 2019 00d0 00       		.byte	0
 2020 00d1 00       		.byte	0
 2021 00d2 0D       		.uleb128 0xd
 2022 00d3 2E       		.uleb128 0x2e
 2023 00d4 00       		.byte	0
 2024 00d5 3F       		.uleb128 0x3f
 2025 00d6 0C       		.uleb128 0xc
 2026 00d7 03       		.uleb128 0x3
 2027 00d8 0E       		.uleb128 0xe
 2028 00d9 3A       		.uleb128 0x3a
 2029 00da 0B       		.uleb128 0xb
 2030 00db 3B       		.uleb128 0x3b
 2031 00dc 05       		.uleb128 0x5
 2032 00dd 27       		.uleb128 0x27
 2033 00de 0C       		.uleb128 0xc
 2034 00df 11       		.uleb128 0x11
 2035 00e0 01       		.uleb128 0x1
 2036 00e1 12       		.uleb128 0x12
 2037 00e2 01       		.uleb128 0x1
 2038 00e3 40       		.uleb128 0x40
 2039 00e4 06       		.uleb128 0x6
 2040 00e5 9742     		.uleb128 0x2117
 2041 00e7 0C       		.uleb128 0xc
 2042 00e8 00       		.byte	0
 2043 00e9 00       		.byte	0
 2044 00ea 0E       		.uleb128 0xe
 2045 00eb 2E       		.uleb128 0x2e
 2046 00ec 01       		.byte	0x1
 2047 00ed 3F       		.uleb128 0x3f
 2048 00ee 0C       		.uleb128 0xc
 2049 00ef 03       		.uleb128 0x3
 2050 00f0 0E       		.uleb128 0xe
 2051 00f1 3A       		.uleb128 0x3a
 2052 00f2 0B       		.uleb128 0xb
 2053 00f3 3B       		.uleb128 0x3b
 2054 00f4 05       		.uleb128 0x5
 2055 00f5 27       		.uleb128 0x27
 2056 00f6 0C       		.uleb128 0xc
 2057 00f7 49       		.uleb128 0x49
 2058 00f8 13       		.uleb128 0x13
ARM GAS  C:\Users\Robert\AppData\Local\Temp\cczxa6fy.s 			page 52


 2059 00f9 11       		.uleb128 0x11
 2060 00fa 01       		.uleb128 0x1
 2061 00fb 12       		.uleb128 0x12
 2062 00fc 01       		.uleb128 0x1
 2063 00fd 40       		.uleb128 0x40
 2064 00fe 06       		.uleb128 0x6
 2065 00ff 9642     		.uleb128 0x2116
 2066 0101 0C       		.uleb128 0xc
 2067 0102 01       		.uleb128 0x1
 2068 0103 13       		.uleb128 0x13
 2069 0104 00       		.byte	0
 2070 0105 00       		.byte	0
 2071 0106 0F       		.uleb128 0xf
 2072 0107 2E       		.uleb128 0x2e
 2073 0108 00       		.byte	0
 2074 0109 3F       		.uleb128 0x3f
 2075 010a 0C       		.uleb128 0xc
 2076 010b 03       		.uleb128 0x3
 2077 010c 0E       		.uleb128 0xe
 2078 010d 3A       		.uleb128 0x3a
 2079 010e 0B       		.uleb128 0xb
 2080 010f 3B       		.uleb128 0x3b
 2081 0110 05       		.uleb128 0x5
 2082 0111 27       		.uleb128 0x27
 2083 0112 0C       		.uleb128 0xc
 2084 0113 49       		.uleb128 0x49
 2085 0114 13       		.uleb128 0x13
 2086 0115 11       		.uleb128 0x11
 2087 0116 01       		.uleb128 0x1
 2088 0117 12       		.uleb128 0x12
 2089 0118 01       		.uleb128 0x1
 2090 0119 40       		.uleb128 0x40
 2091 011a 06       		.uleb128 0x6
 2092 011b 9742     		.uleb128 0x2117
 2093 011d 0C       		.uleb128 0xc
 2094 011e 00       		.byte	0
 2095 011f 00       		.byte	0
 2096 0120 10       		.uleb128 0x10
 2097 0121 2E       		.uleb128 0x2e
 2098 0122 01       		.byte	0x1
 2099 0123 3F       		.uleb128 0x3f
 2100 0124 0C       		.uleb128 0xc
 2101 0125 03       		.uleb128 0x3
 2102 0126 0E       		.uleb128 0xe
 2103 0127 3A       		.uleb128 0x3a
 2104 0128 0B       		.uleb128 0xb
 2105 0129 3B       		.uleb128 0x3b
 2106 012a 05       		.uleb128 0x5
 2107 012b 27       		.uleb128 0x27
 2108 012c 0C       		.uleb128 0xc
 2109 012d 49       		.uleb128 0x49
 2110 012e 13       		.uleb128 0x13
 2111 012f 11       		.uleb128 0x11
 2112 0130 01       		.uleb128 0x1
 2113 0131 12       		.uleb128 0x12
 2114 0132 01       		.uleb128 0x1
 2115 0133 40       		.uleb128 0x40
ARM GAS  C:\Users\Robert\AppData\Local\Temp\cczxa6fy.s 			page 53


 2116 0134 06       		.uleb128 0x6
 2117 0135 9742     		.uleb128 0x2117
 2118 0137 0C       		.uleb128 0xc
 2119 0138 01       		.uleb128 0x1
 2120 0139 13       		.uleb128 0x13
 2121 013a 00       		.byte	0
 2122 013b 00       		.byte	0
 2123 013c 11       		.uleb128 0x11
 2124 013d 34       		.uleb128 0x34
 2125 013e 00       		.byte	0
 2126 013f 03       		.uleb128 0x3
 2127 0140 08       		.uleb128 0x8
 2128 0141 3A       		.uleb128 0x3a
 2129 0142 0B       		.uleb128 0xb
 2130 0143 3B       		.uleb128 0x3b
 2131 0144 05       		.uleb128 0x5
 2132 0145 49       		.uleb128 0x49
 2133 0146 13       		.uleb128 0x13
 2134 0147 02       		.uleb128 0x2
 2135 0148 0A       		.uleb128 0xa
 2136 0149 00       		.byte	0
 2137 014a 00       		.byte	0
 2138 014b 12       		.uleb128 0x12
 2139 014c 2E       		.uleb128 0x2e
 2140 014d 01       		.byte	0x1
 2141 014e 03       		.uleb128 0x3
 2142 014f 0E       		.uleb128 0xe
 2143 0150 3A       		.uleb128 0x3a
 2144 0151 0B       		.uleb128 0xb
 2145 0152 3B       		.uleb128 0x3b
 2146 0153 05       		.uleb128 0x5
 2147 0154 27       		.uleb128 0x27
 2148 0155 0C       		.uleb128 0xc
 2149 0156 11       		.uleb128 0x11
 2150 0157 01       		.uleb128 0x1
 2151 0158 12       		.uleb128 0x12
 2152 0159 01       		.uleb128 0x1
 2153 015a 40       		.uleb128 0x40
 2154 015b 06       		.uleb128 0x6
 2155 015c 9642     		.uleb128 0x2116
 2156 015e 0C       		.uleb128 0xc
 2157 015f 01       		.uleb128 0x1
 2158 0160 13       		.uleb128 0x13
 2159 0161 00       		.byte	0
 2160 0162 00       		.byte	0
 2161 0163 13       		.uleb128 0x13
 2162 0164 34       		.uleb128 0x34
 2163 0165 00       		.byte	0
 2164 0166 03       		.uleb128 0x3
 2165 0167 0E       		.uleb128 0xe
 2166 0168 3A       		.uleb128 0x3a
 2167 0169 0B       		.uleb128 0xb
 2168 016a 3B       		.uleb128 0x3b
 2169 016b 0B       		.uleb128 0xb
 2170 016c 49       		.uleb128 0x49
 2171 016d 13       		.uleb128 0x13
 2172 016e 3F       		.uleb128 0x3f
ARM GAS  C:\Users\Robert\AppData\Local\Temp\cczxa6fy.s 			page 54


 2173 016f 0C       		.uleb128 0xc
 2174 0170 02       		.uleb128 0x2
 2175 0171 0A       		.uleb128 0xa
 2176 0172 00       		.byte	0
 2177 0173 00       		.byte	0
 2178 0174 00       		.byte	0
 2179              		.section	.debug_loc,"",%progbits
 2180              	.Ldebug_loc0:
 2181              	.LLST0:
 2182 0000 00000000 		.4byte	.LFB0
 2183 0004 02000000 		.4byte	.LCFI0
 2184 0008 0200     		.2byte	0x2
 2185 000a 7D       		.byte	0x7d
 2186 000b 00       		.sleb128 0
 2187 000c 02000000 		.4byte	.LCFI0
 2188 0010 04000000 		.4byte	.LCFI1
 2189 0014 0200     		.2byte	0x2
 2190 0016 7D       		.byte	0x7d
 2191 0017 08       		.sleb128 8
 2192 0018 04000000 		.4byte	.LCFI1
 2193 001c 2A000000 		.4byte	.LFE0
 2194 0020 0200     		.2byte	0x2
 2195 0022 77       		.byte	0x77
 2196 0023 08       		.sleb128 8
 2197 0024 00000000 		.4byte	0
 2198 0028 00000000 		.4byte	0
 2199              	.LLST1:
 2200 002c 00000000 		.4byte	.LFB1
 2201 0030 02000000 		.4byte	.LCFI2
 2202 0034 0200     		.2byte	0x2
 2203 0036 7D       		.byte	0x7d
 2204 0037 00       		.sleb128 0
 2205 0038 02000000 		.4byte	.LCFI2
 2206 003c 04000000 		.4byte	.LCFI3
 2207 0040 0200     		.2byte	0x2
 2208 0042 7D       		.byte	0x7d
 2209 0043 08       		.sleb128 8
 2210 0044 04000000 		.4byte	.LCFI3
 2211 0048 5C000000 		.4byte	.LFE1
 2212 004c 0200     		.2byte	0x2
 2213 004e 77       		.byte	0x77
 2214 004f 08       		.sleb128 8
 2215 0050 00000000 		.4byte	0
 2216 0054 00000000 		.4byte	0
 2217              	.LLST2:
 2218 0058 00000000 		.4byte	.LFB2
 2219 005c 02000000 		.4byte	.LCFI4
 2220 0060 0200     		.2byte	0x2
 2221 0062 7D       		.byte	0x7d
 2222 0063 00       		.sleb128 0
 2223 0064 02000000 		.4byte	.LCFI4
 2224 0068 04000000 		.4byte	.LCFI5
 2225 006c 0200     		.2byte	0x2
 2226 006e 7D       		.byte	0x7d
 2227 006f 08       		.sleb128 8
 2228 0070 04000000 		.4byte	.LCFI5
 2229 0074 06000000 		.4byte	.LCFI6
ARM GAS  C:\Users\Robert\AppData\Local\Temp\cczxa6fy.s 			page 55


 2230 0078 0200     		.2byte	0x2
 2231 007a 7D       		.byte	0x7d
 2232 007b 10       		.sleb128 16
 2233 007c 06000000 		.4byte	.LCFI6
 2234 0080 4A010000 		.4byte	.LFE2
 2235 0084 0200     		.2byte	0x2
 2236 0086 77       		.byte	0x77
 2237 0087 10       		.sleb128 16
 2238 0088 00000000 		.4byte	0
 2239 008c 00000000 		.4byte	0
 2240              	.LLST3:
 2241 0090 00000000 		.4byte	.LFB3
 2242 0094 02000000 		.4byte	.LCFI7
 2243 0098 0200     		.2byte	0x2
 2244 009a 7D       		.byte	0x7d
 2245 009b 00       		.sleb128 0
 2246 009c 02000000 		.4byte	.LCFI7
 2247 00a0 04000000 		.4byte	.LCFI8
 2248 00a4 0200     		.2byte	0x2
 2249 00a6 7D       		.byte	0x7d
 2250 00a7 08       		.sleb128 8
 2251 00a8 04000000 		.4byte	.LCFI8
 2252 00ac 06000000 		.4byte	.LCFI9
 2253 00b0 0200     		.2byte	0x2
 2254 00b2 7D       		.byte	0x7d
 2255 00b3 10       		.sleb128 16
 2256 00b4 06000000 		.4byte	.LCFI9
 2257 00b8 AA000000 		.4byte	.LFE3
 2258 00bc 0200     		.2byte	0x2
 2259 00be 77       		.byte	0x77
 2260 00bf 10       		.sleb128 16
 2261 00c0 00000000 		.4byte	0
 2262 00c4 00000000 		.4byte	0
 2263              	.LLST4:
 2264 00c8 00000000 		.4byte	.LFB4
 2265 00cc 02000000 		.4byte	.LCFI10
 2266 00d0 0200     		.2byte	0x2
 2267 00d2 7D       		.byte	0x7d
 2268 00d3 00       		.sleb128 0
 2269 00d4 02000000 		.4byte	.LCFI10
 2270 00d8 04000000 		.4byte	.LCFI11
 2271 00dc 0200     		.2byte	0x2
 2272 00de 7D       		.byte	0x7d
 2273 00df 04       		.sleb128 4
 2274 00e0 04000000 		.4byte	.LCFI11
 2275 00e4 06000000 		.4byte	.LCFI12
 2276 00e8 0200     		.2byte	0x2
 2277 00ea 7D       		.byte	0x7d
 2278 00eb 18       		.sleb128 24
 2279 00ec 06000000 		.4byte	.LCFI12
 2280 00f0 48000000 		.4byte	.LFE4
 2281 00f4 0200     		.2byte	0x2
 2282 00f6 77       		.byte	0x77
 2283 00f7 18       		.sleb128 24
 2284 00f8 00000000 		.4byte	0
 2285 00fc 00000000 		.4byte	0
 2286              	.LLST5:
ARM GAS  C:\Users\Robert\AppData\Local\Temp\cczxa6fy.s 			page 56


 2287 0100 00000000 		.4byte	.LFB5
 2288 0104 02000000 		.4byte	.LCFI13
 2289 0108 0200     		.2byte	0x2
 2290 010a 7D       		.byte	0x7d
 2291 010b 00       		.sleb128 0
 2292 010c 02000000 		.4byte	.LCFI13
 2293 0110 04000000 		.4byte	.LCFI14
 2294 0114 0200     		.2byte	0x2
 2295 0116 7D       		.byte	0x7d
 2296 0117 08       		.sleb128 8
 2297 0118 04000000 		.4byte	.LCFI14
 2298 011c 06000000 		.4byte	.LCFI15
 2299 0120 0200     		.2byte	0x2
 2300 0122 7D       		.byte	0x7d
 2301 0123 18       		.sleb128 24
 2302 0124 06000000 		.4byte	.LCFI15
 2303 0128 5E000000 		.4byte	.LFE5
 2304 012c 0200     		.2byte	0x2
 2305 012e 77       		.byte	0x77
 2306 012f 18       		.sleb128 24
 2307 0130 00000000 		.4byte	0
 2308 0134 00000000 		.4byte	0
 2309              	.LLST6:
 2310 0138 00000000 		.4byte	.LFB6
 2311 013c 02000000 		.4byte	.LCFI16
 2312 0140 0200     		.2byte	0x2
 2313 0142 7D       		.byte	0x7d
 2314 0143 00       		.sleb128 0
 2315 0144 02000000 		.4byte	.LCFI16
 2316 0148 04000000 		.4byte	.LCFI17
 2317 014c 0200     		.2byte	0x2
 2318 014e 7D       		.byte	0x7d
 2319 014f 04       		.sleb128 4
 2320 0150 04000000 		.4byte	.LCFI17
 2321 0154 26000000 		.4byte	.LFE6
 2322 0158 0200     		.2byte	0x2
 2323 015a 77       		.byte	0x77
 2324 015b 04       		.sleb128 4
 2325 015c 00000000 		.4byte	0
 2326 0160 00000000 		.4byte	0
 2327              	.LLST7:
 2328 0164 00000000 		.4byte	.LFB7
 2329 0168 02000000 		.4byte	.LCFI18
 2330 016c 0200     		.2byte	0x2
 2331 016e 7D       		.byte	0x7d
 2332 016f 00       		.sleb128 0
 2333 0170 02000000 		.4byte	.LCFI18
 2334 0174 04000000 		.4byte	.LCFI19
 2335 0178 0200     		.2byte	0x2
 2336 017a 7D       		.byte	0x7d
 2337 017b 04       		.sleb128 4
 2338 017c 04000000 		.4byte	.LCFI19
 2339 0180 26000000 		.4byte	.LFE7
 2340 0184 0200     		.2byte	0x2
 2341 0186 77       		.byte	0x77
 2342 0187 04       		.sleb128 4
 2343 0188 00000000 		.4byte	0
ARM GAS  C:\Users\Robert\AppData\Local\Temp\cczxa6fy.s 			page 57


 2344 018c 00000000 		.4byte	0
 2345              	.LLST8:
 2346 0190 00000000 		.4byte	.LFB8
 2347 0194 02000000 		.4byte	.LCFI20
 2348 0198 0200     		.2byte	0x2
 2349 019a 7D       		.byte	0x7d
 2350 019b 00       		.sleb128 0
 2351 019c 02000000 		.4byte	.LCFI20
 2352 01a0 04000000 		.4byte	.LCFI21
 2353 01a4 0200     		.2byte	0x2
 2354 01a6 7D       		.byte	0x7d
 2355 01a7 08       		.sleb128 8
 2356 01a8 04000000 		.4byte	.LCFI21
 2357 01ac 06000000 		.4byte	.LCFI22
 2358 01b0 0200     		.2byte	0x2
 2359 01b2 7D       		.byte	0x7d
 2360 01b3 18       		.sleb128 24
 2361 01b4 06000000 		.4byte	.LCFI22
 2362 01b8 4C000000 		.4byte	.LFE8
 2363 01bc 0200     		.2byte	0x2
 2364 01be 77       		.byte	0x77
 2365 01bf 18       		.sleb128 24
 2366 01c0 00000000 		.4byte	0
 2367 01c4 00000000 		.4byte	0
 2368              	.LLST9:
 2369 01c8 00000000 		.4byte	.LFB9
 2370 01cc 02000000 		.4byte	.LCFI23
 2371 01d0 0200     		.2byte	0x2
 2372 01d2 7D       		.byte	0x7d
 2373 01d3 00       		.sleb128 0
 2374 01d4 02000000 		.4byte	.LCFI23
 2375 01d8 04000000 		.4byte	.LCFI24
 2376 01dc 0200     		.2byte	0x2
 2377 01de 7D       		.byte	0x7d
 2378 01df 04       		.sleb128 4
 2379 01e0 04000000 		.4byte	.LCFI24
 2380 01e4 2E000000 		.4byte	.LFE9
 2381 01e8 0200     		.2byte	0x2
 2382 01ea 77       		.byte	0x77
 2383 01eb 04       		.sleb128 4
 2384 01ec 00000000 		.4byte	0
 2385 01f0 00000000 		.4byte	0
 2386              	.LLST10:
 2387 01f4 00000000 		.4byte	.LFB10
 2388 01f8 02000000 		.4byte	.LCFI25
 2389 01fc 0200     		.2byte	0x2
 2390 01fe 7D       		.byte	0x7d
 2391 01ff 00       		.sleb128 0
 2392 0200 02000000 		.4byte	.LCFI25
 2393 0204 04000000 		.4byte	.LCFI26
 2394 0208 0200     		.2byte	0x2
 2395 020a 7D       		.byte	0x7d
 2396 020b 04       		.sleb128 4
 2397 020c 04000000 		.4byte	.LCFI26
 2398 0210 06000000 		.4byte	.LCFI27
 2399 0214 0200     		.2byte	0x2
 2400 0216 7D       		.byte	0x7d
ARM GAS  C:\Users\Robert\AppData\Local\Temp\cczxa6fy.s 			page 58


 2401 0217 10       		.sleb128 16
 2402 0218 06000000 		.4byte	.LCFI27
 2403 021c 36000000 		.4byte	.LFE10
 2404 0220 0200     		.2byte	0x2
 2405 0222 77       		.byte	0x77
 2406 0223 10       		.sleb128 16
 2407 0224 00000000 		.4byte	0
 2408 0228 00000000 		.4byte	0
 2409              	.LLST11:
 2410 022c 00000000 		.4byte	.LFB11
 2411 0230 02000000 		.4byte	.LCFI28
 2412 0234 0200     		.2byte	0x2
 2413 0236 7D       		.byte	0x7d
 2414 0237 00       		.sleb128 0
 2415 0238 02000000 		.4byte	.LCFI28
 2416 023c 04000000 		.4byte	.LCFI29
 2417 0240 0200     		.2byte	0x2
 2418 0242 7D       		.byte	0x7d
 2419 0243 04       		.sleb128 4
 2420 0244 04000000 		.4byte	.LCFI29
 2421 0248 06000000 		.4byte	.LCFI30
 2422 024c 0200     		.2byte	0x2
 2423 024e 7D       		.byte	0x7d
 2424 024f 10       		.sleb128 16
 2425 0250 06000000 		.4byte	.LCFI30
 2426 0254 20000000 		.4byte	.LFE11
 2427 0258 0200     		.2byte	0x2
 2428 025a 77       		.byte	0x77
 2429 025b 10       		.sleb128 16
 2430 025c 00000000 		.4byte	0
 2431 0260 00000000 		.4byte	0
 2432              	.LLST12:
 2433 0264 00000000 		.4byte	.LFB12
 2434 0268 02000000 		.4byte	.LCFI31
 2435 026c 0200     		.2byte	0x2
 2436 026e 7D       		.byte	0x7d
 2437 026f 00       		.sleb128 0
 2438 0270 02000000 		.4byte	.LCFI31
 2439 0274 04000000 		.4byte	.LCFI32
 2440 0278 0200     		.2byte	0x2
 2441 027a 7D       		.byte	0x7d
 2442 027b 08       		.sleb128 8
 2443 027c 04000000 		.4byte	.LCFI32
 2444 0280 06000000 		.4byte	.LCFI33
 2445 0284 0200     		.2byte	0x2
 2446 0286 7D       		.byte	0x7d
 2447 0287 18       		.sleb128 24
 2448 0288 06000000 		.4byte	.LCFI33
 2449 028c 94000000 		.4byte	.LFE12
 2450 0290 0200     		.2byte	0x2
 2451 0292 77       		.byte	0x77
 2452 0293 18       		.sleb128 24
 2453 0294 00000000 		.4byte	0
 2454 0298 00000000 		.4byte	0
 2455              	.LLST13:
 2456 029c 00000000 		.4byte	.LFB13
 2457 02a0 02000000 		.4byte	.LCFI34
ARM GAS  C:\Users\Robert\AppData\Local\Temp\cczxa6fy.s 			page 59


 2458 02a4 0200     		.2byte	0x2
 2459 02a6 7D       		.byte	0x7d
 2460 02a7 00       		.sleb128 0
 2461 02a8 02000000 		.4byte	.LCFI34
 2462 02ac 04000000 		.4byte	.LCFI35
 2463 02b0 0200     		.2byte	0x2
 2464 02b2 7D       		.byte	0x7d
 2465 02b3 04       		.sleb128 4
 2466 02b4 04000000 		.4byte	.LCFI35
 2467 02b8 06000000 		.4byte	.LCFI36
 2468 02bc 0200     		.2byte	0x2
 2469 02be 7D       		.byte	0x7d
 2470 02bf 10       		.sleb128 16
 2471 02c0 06000000 		.4byte	.LCFI36
 2472 02c4 30000000 		.4byte	.LFE13
 2473 02c8 0200     		.2byte	0x2
 2474 02ca 77       		.byte	0x77
 2475 02cb 10       		.sleb128 16
 2476 02cc 00000000 		.4byte	0
 2477 02d0 00000000 		.4byte	0
 2478              	.LLST14:
 2479 02d4 00000000 		.4byte	.LFB14
 2480 02d8 02000000 		.4byte	.LCFI37
 2481 02dc 0200     		.2byte	0x2
 2482 02de 7D       		.byte	0x7d
 2483 02df 00       		.sleb128 0
 2484 02e0 02000000 		.4byte	.LCFI37
 2485 02e4 04000000 		.4byte	.LCFI38
 2486 02e8 0200     		.2byte	0x2
 2487 02ea 7D       		.byte	0x7d
 2488 02eb 04       		.sleb128 4
 2489 02ec 04000000 		.4byte	.LCFI38
 2490 02f0 06000000 		.4byte	.LCFI39
 2491 02f4 0200     		.2byte	0x2
 2492 02f6 7D       		.byte	0x7d
 2493 02f7 10       		.sleb128 16
 2494 02f8 06000000 		.4byte	.LCFI39
 2495 02fc 1E000000 		.4byte	.LFE14
 2496 0300 0200     		.2byte	0x2
 2497 0302 77       		.byte	0x77
 2498 0303 10       		.sleb128 16
 2499 0304 00000000 		.4byte	0
 2500 0308 00000000 		.4byte	0
 2501              	.LLST15:
 2502 030c 00000000 		.4byte	.LFB15
 2503 0310 02000000 		.4byte	.LCFI40
 2504 0314 0200     		.2byte	0x2
 2505 0316 7D       		.byte	0x7d
 2506 0317 00       		.sleb128 0
 2507 0318 02000000 		.4byte	.LCFI40
 2508 031c 04000000 		.4byte	.LCFI41
 2509 0320 0200     		.2byte	0x2
 2510 0322 7D       		.byte	0x7d
 2511 0323 04       		.sleb128 4
 2512 0324 04000000 		.4byte	.LCFI41
 2513 0328 06000000 		.4byte	.LCFI42
 2514 032c 0200     		.2byte	0x2
ARM GAS  C:\Users\Robert\AppData\Local\Temp\cczxa6fy.s 			page 60


 2515 032e 7D       		.byte	0x7d
 2516 032f 18       		.sleb128 24
 2517 0330 06000000 		.4byte	.LCFI42
 2518 0334 A6000000 		.4byte	.LFE15
 2519 0338 0200     		.2byte	0x2
 2520 033a 77       		.byte	0x77
 2521 033b 18       		.sleb128 24
 2522 033c 00000000 		.4byte	0
 2523 0340 00000000 		.4byte	0
 2524              	.LLST16:
 2525 0344 00000000 		.4byte	.LFB16
 2526 0348 02000000 		.4byte	.LCFI43
 2527 034c 0200     		.2byte	0x2
 2528 034e 7D       		.byte	0x7d
 2529 034f 00       		.sleb128 0
 2530 0350 02000000 		.4byte	.LCFI43
 2531 0354 04000000 		.4byte	.LCFI44
 2532 0358 0200     		.2byte	0x2
 2533 035a 7D       		.byte	0x7d
 2534 035b 0C       		.sleb128 12
 2535 035c 04000000 		.4byte	.LCFI44
 2536 0360 06000000 		.4byte	.LCFI45
 2537 0364 0200     		.2byte	0x2
 2538 0366 7D       		.byte	0x7d
 2539 0367 28       		.sleb128 40
 2540 0368 06000000 		.4byte	.LCFI45
 2541 036c A8000000 		.4byte	.LFE16
 2542 0370 0200     		.2byte	0x2
 2543 0372 77       		.byte	0x77
 2544 0373 28       		.sleb128 40
 2545 0374 00000000 		.4byte	0
 2546 0378 00000000 		.4byte	0
 2547              	.LLST17:
 2548 037c 00000000 		.4byte	.LFB17
 2549 0380 02000000 		.4byte	.LCFI46
 2550 0384 0200     		.2byte	0x2
 2551 0386 7D       		.byte	0x7d
 2552 0387 00       		.sleb128 0
 2553 0388 02000000 		.4byte	.LCFI46
 2554 038c 04000000 		.4byte	.LCFI47
 2555 0390 0200     		.2byte	0x2
 2556 0392 7D       		.byte	0x7d
 2557 0393 0C       		.sleb128 12
 2558 0394 04000000 		.4byte	.LCFI47
 2559 0398 06000000 		.4byte	.LCFI48
 2560 039c 0200     		.2byte	0x2
 2561 039e 7D       		.byte	0x7d
 2562 039f 20       		.sleb128 32
 2563 03a0 06000000 		.4byte	.LCFI48
 2564 03a4 98000000 		.4byte	.LFE17
 2565 03a8 0200     		.2byte	0x2
 2566 03aa 77       		.byte	0x77
 2567 03ab 20       		.sleb128 32
 2568 03ac 00000000 		.4byte	0
 2569 03b0 00000000 		.4byte	0
 2570              		.section	.debug_aranges,"",%progbits
 2571 0000 A4000000 		.4byte	0xa4
ARM GAS  C:\Users\Robert\AppData\Local\Temp\cczxa6fy.s 			page 61


 2572 0004 0200     		.2byte	0x2
 2573 0006 00000000 		.4byte	.Ldebug_info0
 2574 000a 04       		.byte	0x4
 2575 000b 00       		.byte	0
 2576 000c 0000     		.2byte	0
 2577 000e 0000     		.2byte	0
 2578 0010 00000000 		.4byte	.LFB0
 2579 0014 2A000000 		.4byte	.LFE0-.LFB0
 2580 0018 00000000 		.4byte	.LFB1
 2581 001c 5C000000 		.4byte	.LFE1-.LFB1
 2582 0020 00000000 		.4byte	.LFB2
 2583 0024 4A010000 		.4byte	.LFE2-.LFB2
 2584 0028 00000000 		.4byte	.LFB3
 2585 002c AA000000 		.4byte	.LFE3-.LFB3
 2586 0030 00000000 		.4byte	.LFB4
 2587 0034 48000000 		.4byte	.LFE4-.LFB4
 2588 0038 00000000 		.4byte	.LFB5
 2589 003c 5E000000 		.4byte	.LFE5-.LFB5
 2590 0040 00000000 		.4byte	.LFB6
 2591 0044 26000000 		.4byte	.LFE6-.LFB6
 2592 0048 00000000 		.4byte	.LFB7
 2593 004c 26000000 		.4byte	.LFE7-.LFB7
 2594 0050 00000000 		.4byte	.LFB8
 2595 0054 4C000000 		.4byte	.LFE8-.LFB8
 2596 0058 00000000 		.4byte	.LFB9
 2597 005c 2E000000 		.4byte	.LFE9-.LFB9
 2598 0060 00000000 		.4byte	.LFB10
 2599 0064 36000000 		.4byte	.LFE10-.LFB10
 2600 0068 00000000 		.4byte	.LFB11
 2601 006c 20000000 		.4byte	.LFE11-.LFB11
 2602 0070 00000000 		.4byte	.LFB12
 2603 0074 94000000 		.4byte	.LFE12-.LFB12
 2604 0078 00000000 		.4byte	.LFB13
 2605 007c 30000000 		.4byte	.LFE13-.LFB13
 2606 0080 00000000 		.4byte	.LFB14
 2607 0084 1E000000 		.4byte	.LFE14-.LFB14
 2608 0088 00000000 		.4byte	.LFB15
 2609 008c A6000000 		.4byte	.LFE15-.LFB15
 2610 0090 00000000 		.4byte	.LFB16
 2611 0094 A8000000 		.4byte	.LFE16-.LFB16
 2612 0098 00000000 		.4byte	.LFB17
 2613 009c 98000000 		.4byte	.LFE17-.LFB17
 2614 00a0 00000000 		.4byte	0
 2615 00a4 00000000 		.4byte	0
 2616              		.section	.debug_ranges,"",%progbits
 2617              	.Ldebug_ranges0:
 2618 0000 00000000 		.4byte	.LFB0
 2619 0004 2A000000 		.4byte	.LFE0
 2620 0008 00000000 		.4byte	.LFB1
 2621 000c 5C000000 		.4byte	.LFE1
 2622 0010 00000000 		.4byte	.LFB2
 2623 0014 4A010000 		.4byte	.LFE2
 2624 0018 00000000 		.4byte	.LFB3
 2625 001c AA000000 		.4byte	.LFE3
 2626 0020 00000000 		.4byte	.LFB4
 2627 0024 48000000 		.4byte	.LFE4
 2628 0028 00000000 		.4byte	.LFB5
ARM GAS  C:\Users\Robert\AppData\Local\Temp\cczxa6fy.s 			page 62


 2629 002c 5E000000 		.4byte	.LFE5
 2630 0030 00000000 		.4byte	.LFB6
 2631 0034 26000000 		.4byte	.LFE6
 2632 0038 00000000 		.4byte	.LFB7
 2633 003c 26000000 		.4byte	.LFE7
 2634 0040 00000000 		.4byte	.LFB8
 2635 0044 4C000000 		.4byte	.LFE8
 2636 0048 00000000 		.4byte	.LFB9
 2637 004c 2E000000 		.4byte	.LFE9
 2638 0050 00000000 		.4byte	.LFB10
 2639 0054 36000000 		.4byte	.LFE10
 2640 0058 00000000 		.4byte	.LFB11
 2641 005c 20000000 		.4byte	.LFE11
 2642 0060 00000000 		.4byte	.LFB12
 2643 0064 94000000 		.4byte	.LFE12
 2644 0068 00000000 		.4byte	.LFB13
 2645 006c 30000000 		.4byte	.LFE13
 2646 0070 00000000 		.4byte	.LFB14
 2647 0074 1E000000 		.4byte	.LFE14
 2648 0078 00000000 		.4byte	.LFB15
 2649 007c A6000000 		.4byte	.LFE15
 2650 0080 00000000 		.4byte	.LFB16
 2651 0084 A8000000 		.4byte	.LFE16
 2652 0088 00000000 		.4byte	.LFB17
 2653 008c 98000000 		.4byte	.LFE17
 2654 0090 00000000 		.4byte	0
 2655 0094 00000000 		.4byte	0
 2656              		.section	.debug_line,"",%progbits
 2657              	.Ldebug_line0:
 2658 0000 01020000 		.section	.debug_str,"MS",%progbits,1
 2658      02004800 
 2658      00000201 
 2658      FB0E0D00 
 2658      01010101 
 2659              	.LASF12:
 2660 0000 75696E74 		.ascii	"uint16\000"
 2660      313600
 2661              	.LASF44:
 2662 0007 61646347 		.ascii	"adcGain\000"
 2662      61696E00 
 2663              	.LASF40:
 2664 000f 4144435F 		.ascii	"ADC_SAR_2_SetOffset\000"
 2664      5341525F 
 2664      325F5365 
 2664      744F6666 
 2664      73657400 
 2665              	.LASF42:
 2666 0023 636F756E 		.ascii	"counts\000"
 2666      747300
 2667              	.LASF63:
 2668 002a 4144435F 		.ascii	"ADC_SAR_2_CalcGain\000"
 2668      5341525F 
 2668      325F4361 
 2668      6C634761 
 2668      696E00
 2669              	.LASF43:
 2670 003d 4144435F 		.ascii	"ADC_SAR_2_SetGain\000"
ARM GAS  C:\Users\Robert\AppData\Local\Temp\cczxa6fy.s 			page 63


 2670      5341525F 
 2670      325F5365 
 2670      74476169 
 2670      6E00
 2671              	.LASF24:
 2672 004f 4144435F 		.ascii	"ADC_SAR_2_Start\000"
 2672      5341525F 
 2672      325F5374 
 2672      61727400 
 2673              	.LASF6:
 2674 005f 6C6F6E67 		.ascii	"long long unsigned int\000"
 2674      206C6F6E 
 2674      6720756E 
 2674      7369676E 
 2674      65642069 
 2675              	.LASF54:
 2676 0076 4144435F 		.ascii	"ADC_SAR_2_initVar\000"
 2676      5341525F 
 2676      325F696E 
 2676      69745661 
 2676      7200
 2677              	.LASF29:
 2678 0088 4144435F 		.ascii	"ADC_SAR_2_Stop\000"
 2678      5341525F 
 2678      325F5374 
 2678      6F7000
 2679              	.LASF5:
 2680 0097 6C6F6E67 		.ascii	"long long int\000"
 2680      206C6F6E 
 2680      6720696E 
 2680      7400
 2681              	.LASF0:
 2682 00a5 7369676E 		.ascii	"signed char\000"
 2682      65642063 
 2682      68617200 
 2683              	.LASF16:
 2684 00b1 696E7433 		.ascii	"int32\000"
 2684      3200
 2685              	.LASF7:
 2686 00b7 6C6F6E67 		.ascii	"long int\000"
 2686      20696E74 
 2686      00
 2687              	.LASF55:
 2688 00c0 4144435F 		.ascii	"ADC_SAR_2_offset\000"
 2688      5341525F 
 2688      325F6F66 
 2688      66736574 
 2688      00
 2689              	.LASF50:
 2690 00d1 4144435F 		.ascii	"ADC_SAR_2_CountsTo_uVolts\000"
 2690      5341525F 
 2690      325F436F 
 2690      756E7473 
 2690      546F5F75 
 2691              	.LASF22:
 2692 00eb 72656731 		.ascii	"reg16\000"
 2692      3600
ARM GAS  C:\Users\Robert\AppData\Local\Temp\cczxa6fy.s 			page 64


 2693              	.LASF11:
 2694 00f1 75696E74 		.ascii	"uint8\000"
 2694      3800
 2695              	.LASF19:
 2696 00f7 646F7562 		.ascii	"double\000"
 2696      6C6500
 2697              	.LASF13:
 2698 00fe 75696E74 		.ascii	"uint32\000"
 2698      333200
 2699              	.LASF49:
 2700 0105 636F756E 		.ascii	"countsPer10Volt\000"
 2700      74735065 
 2700      72313056 
 2700      6F6C7400 
 2701              	.LASF52:
 2702 0115 4144435F 		.ascii	"ADC_SAR_2_CountsTo_Volts\000"
 2702      5341525F 
 2702      325F436F 
 2702      756E7473 
 2702      546F5F56 
 2703              	.LASF36:
 2704 012e 7265744D 		.ascii	"retMode\000"
 2704      6F646500 
 2705              	.LASF4:
 2706 0136 756E7369 		.ascii	"unsigned int\000"
 2706      676E6564 
 2706      20696E74 
 2706      00
 2707              	.LASF31:
 2708 0143 4144435F 		.ascii	"ADC_SAR_2_SetResolution\000"
 2708      5341525F 
 2708      325F5365 
 2708      74526573 
 2708      6F6C7574 
 2709              	.LASF51:
 2710 015b 75566F6C 		.ascii	"uVolts\000"
 2710      747300
 2711              	.LASF9:
 2712 0162 6C6F6E67 		.ascii	"long unsigned int\000"
 2712      20756E73 
 2712      69676E65 
 2712      6420696E 
 2712      7400
 2713              	.LASF53:
 2714 0174 766F6C74 		.ascii	"volts\000"
 2714      7300
 2715              	.LASF35:
 2716 017a 4144435F 		.ascii	"ADC_SAR_2_StopConvert\000"
 2716      5341525F 
 2716      325F5374 
 2716      6F70436F 
 2716      6E766572 
 2717              	.LASF62:
 2718 0190 4144435F 		.ascii	"ADC_SAR_2_GetResult8\000"
 2718      5341525F 
 2718      325F4765 
 2718      74526573 
ARM GAS  C:\Users\Robert\AppData\Local\Temp\cczxa6fy.s 			page 65


 2718      756C7438 
 2719              	.LASF3:
 2720 01a5 73686F72 		.ascii	"short unsigned int\000"
 2720      7420756E 
 2720      7369676E 
 2720      65642069 
 2720      6E7400
 2721              	.LASF14:
 2722 01b8 696E7438 		.ascii	"int8\000"
 2722      00
 2723              	.LASF61:
 2724 01bd 433A5C55 		.ascii	"C:\\Users\\Robert\\workspace\\embedit_git\\psoc_2_p"
 2724      73657273 
 2724      5C526F62 
 2724      6572745C 
 2724      776F726B 
 2725 01eb 695C5053 		.ascii	"i\\PSoC Creator\\PSoC_2_Pi.cydsn\000"
 2725      6F432043 
 2725      72656174 
 2725      6F725C50 
 2725      536F435F 
 2726              	.LASF48:
 2727 020a 6D566F6C 		.ascii	"mVolts\000"
 2727      747300
 2728              	.LASF23:
 2729 0211 72656733 		.ascii	"reg32\000"
 2729      3200
 2730              	.LASF58:
 2731 0217 4144435F 		.ascii	"ADC_SAR_2_shift\000"
 2731      5341525F 
 2731      325F7368 
 2731      69667400 
 2732              	.LASF17:
 2733 0227 666C6F61 		.ascii	"float32\000"
 2733      74333200 
 2734              	.LASF8:
 2735 022f 73697A65 		.ascii	"sizetype\000"
 2735      74797065 
 2735      00
 2736              	.LASF25:
 2737 0238 4144435F 		.ascii	"ADC_SAR_2_Init\000"
 2737      5341525F 
 2737      325F496E 
 2737      697400
 2738              	.LASF38:
 2739 0247 4144435F 		.ascii	"ADC_SAR_2_IsEndConversion\000"
 2739      5341525F 
 2739      325F4973 
 2739      456E6443 
 2739      6F6E7665 
 2740              	.LASF20:
 2741 0261 696E7436 		.ascii	"int64\000"
 2741      3400
 2742              	.LASF45:
 2743 0267 4144435F 		.ascii	"ADC_SAR_2_SetScaledGain\000"
 2743      5341525F 
 2743      325F5365 
ARM GAS  C:\Users\Robert\AppData\Local\Temp\cczxa6fy.s 			page 66


 2743      74536361 
 2743      6C656447 
 2744              	.LASF18:
 2745 027f 666C6F61 		.ascii	"float\000"
 2745      7400
 2746              	.LASF32:
 2747 0285 706F7765 		.ascii	"power\000"
 2747      7200
 2748              	.LASF59:
 2749 028b 474E5520 		.ascii	"GNU C 4.7.3 20130312 (release) [ARM/embedded-4_7-br"
 2749      4320342E 
 2749      372E3320 
 2749      32303133 
 2749      30333132 
 2750 02be 616E6368 		.ascii	"anch revision 196615]\000"
 2750      20726576 
 2750      6973696F 
 2750      6E203139 
 2750      36363135 
 2751              	.LASF21:
 2752 02d4 72656738 		.ascii	"reg8\000"
 2752      00
 2753              	.LASF1:
 2754 02d9 756E7369 		.ascii	"unsigned char\000"
 2754      676E6564 
 2754      20636861 
 2754      7200
 2755              	.LASF2:
 2756 02e7 73686F72 		.ascii	"short int\000"
 2756      7420696E 
 2756      7400
 2757              	.LASF46:
 2758 02f1 4144435F 		.ascii	"ADC_SAR_2_CountsTo_mVolts\000"
 2758      5341525F 
 2758      325F436F 
 2758      756E7473 
 2758      546F5F6D 
 2759              	.LASF33:
 2760 030b 7265736F 		.ascii	"resolution\000"
 2760      6C757469 
 2760      6F6E00
 2761              	.LASF10:
 2762 0316 63686172 		.ascii	"char\000"
 2762      00
 2763              	.LASF34:
 2764 031b 4144435F 		.ascii	"ADC_SAR_2_StartConvert\000"
 2764      5341525F 
 2764      325F5374 
 2764      61727443 
 2764      6F6E7665 
 2765              	.LASF28:
 2766 0332 4144435F 		.ascii	"ADC_SAR_2_Enable\000"
 2766      5341525F 
 2766      325F456E 
 2766      61626C65 
 2766      00
 2767              	.LASF41:
ARM GAS  C:\Users\Robert\AppData\Local\Temp\cczxa6fy.s 			page 67


 2768 0343 6F666673 		.ascii	"offset\000"
 2768      657400
 2769              	.LASF47:
 2770 034a 61646343 		.ascii	"adcCounts\000"
 2770      6F756E74 
 2770      7300
 2771              	.LASF27:
 2772 0354 656E6162 		.ascii	"enableInterrupts\000"
 2772      6C65496E 
 2772      74657272 
 2772      75707473 
 2772      00
 2773              	.LASF37:
 2774 0365 73746174 		.ascii	"status\000"
 2774      757300
 2775              	.LASF60:
 2776 036c 2E5C4765 		.ascii	".\\Generated_Source\\PSoC5\\ADC_SAR_2.c\000"
 2776      6E657261 
 2776      7465645F 
 2776      536F7572 
 2776      63655C50 
 2777              	.LASF57:
 2778 0391 4144435F 		.ascii	"ADC_SAR_2_countsPer10Volt\000"
 2778      5341525F 
 2778      325F636F 
 2778      756E7473 
 2778      50657231 
 2779              	.LASF30:
 2780 03ab 4144435F 		.ascii	"ADC_SAR_2_SetPower\000"
 2780      5341525F 
 2780      325F5365 
 2780      74506F77 
 2780      657200
 2781              	.LASF15:
 2782 03be 696E7431 		.ascii	"int16\000"
 2782      3600
 2783              	.LASF39:
 2784 03c4 4144435F 		.ascii	"ADC_SAR_2_GetResult16\000"
 2784      5341525F 
 2784      325F4765 
 2784      74526573 
 2784      756C7431 
 2785              	.LASF26:
 2786 03da 746D7052 		.ascii	"tmpReg\000"
 2786      656700
 2787              	.LASF56:
 2788 03e1 4144435F 		.ascii	"ADC_SAR_2_countsPerVolt\000"
 2788      5341525F 
 2788      325F636F 
 2788      756E7473 
 2788      50657256 
 2789              		.ident	"GCC: (GNU Tools for ARM Embedded Processors) 4.7.3 20130312 (release) [ARM/embedded-4_7-br
