ARM GAS  C:\Users\Brian\AppData\Local\Temp\ccOB2bNc.s 			page 1


   1              		.syntax unified
   2              		.cpu cortex-m3
   3              		.fpu softvfp
   4              		.eabi_attribute 20, 1
   5              		.eabi_attribute 21, 1
   6              		.eabi_attribute 23, 3
   7              		.eabi_attribute 24, 1
   8              		.eabi_attribute 25, 1
   9              		.eabi_attribute 26, 1
  10              		.eabi_attribute 30, 6
  11              		.eabi_attribute 34, 1
  12              		.eabi_attribute 18, 4
  13              		.thumb
  14              		.file	"ADC_SAR_2_IRQ.c"
  15              		.text
  16              	.Ltext0:
  17              		.cfi_sections	.debug_frame
  18              		.section	.text.ADC_SAR_2_IRQ_Start,"ax",%progbits
  19              		.align	2
  20              		.global	ADC_SAR_2_IRQ_Start
  21              		.thumb
  22              		.thumb_func
  23              		.type	ADC_SAR_2_IRQ_Start, %function
  24              	ADC_SAR_2_IRQ_Start:
  25              	.LFB0:
  26              		.file 1 ".\\Generated_Source\\PSoC5\\ADC_SAR_2_IRQ.c"
   1:.\Generated_Source\PSoC5/ADC_SAR_2_IRQ.c **** /*******************************************************************************
   2:.\Generated_Source\PSoC5/ADC_SAR_2_IRQ.c **** * File Name: ADC_SAR_2_IRQ.c  
   3:.\Generated_Source\PSoC5/ADC_SAR_2_IRQ.c **** * Version 1.70
   4:.\Generated_Source\PSoC5/ADC_SAR_2_IRQ.c **** *
   5:.\Generated_Source\PSoC5/ADC_SAR_2_IRQ.c **** *  Description:
   6:.\Generated_Source\PSoC5/ADC_SAR_2_IRQ.c **** *   API for controlling the state of an interrupt.
   7:.\Generated_Source\PSoC5/ADC_SAR_2_IRQ.c **** *
   8:.\Generated_Source\PSoC5/ADC_SAR_2_IRQ.c **** *
   9:.\Generated_Source\PSoC5/ADC_SAR_2_IRQ.c **** *  Note:
  10:.\Generated_Source\PSoC5/ADC_SAR_2_IRQ.c **** *
  11:.\Generated_Source\PSoC5/ADC_SAR_2_IRQ.c **** ********************************************************************************
  12:.\Generated_Source\PSoC5/ADC_SAR_2_IRQ.c **** * Copyright 2008-2012, Cypress Semiconductor Corporation.  All rights reserved.
  13:.\Generated_Source\PSoC5/ADC_SAR_2_IRQ.c **** * You may use this file only in accordance with the license, terms, conditions, 
  14:.\Generated_Source\PSoC5/ADC_SAR_2_IRQ.c **** * disclaimers, and limitations in the end user license agreement accompanying 
  15:.\Generated_Source\PSoC5/ADC_SAR_2_IRQ.c **** * the software package with which this file was provided.
  16:.\Generated_Source\PSoC5/ADC_SAR_2_IRQ.c **** *******************************************************************************/
  17:.\Generated_Source\PSoC5/ADC_SAR_2_IRQ.c **** 
  18:.\Generated_Source\PSoC5/ADC_SAR_2_IRQ.c **** 
  19:.\Generated_Source\PSoC5/ADC_SAR_2_IRQ.c **** #include <cydevice_trm.h>
  20:.\Generated_Source\PSoC5/ADC_SAR_2_IRQ.c **** #include <CyLib.h>
  21:.\Generated_Source\PSoC5/ADC_SAR_2_IRQ.c **** #include <ADC_SAR_2_IRQ.h>
  22:.\Generated_Source\PSoC5/ADC_SAR_2_IRQ.c **** 
  23:.\Generated_Source\PSoC5/ADC_SAR_2_IRQ.c **** #if !defined(ADC_SAR_2_IRQ__REMOVED) /* Check for removal by optimization */
  24:.\Generated_Source\PSoC5/ADC_SAR_2_IRQ.c **** 
  25:.\Generated_Source\PSoC5/ADC_SAR_2_IRQ.c **** /*******************************************************************************
  26:.\Generated_Source\PSoC5/ADC_SAR_2_IRQ.c **** *  Place your includes, defines and code here 
  27:.\Generated_Source\PSoC5/ADC_SAR_2_IRQ.c **** ********************************************************************************/
  28:.\Generated_Source\PSoC5/ADC_SAR_2_IRQ.c **** /* `#START ADC_SAR_2_IRQ_intc` */
  29:.\Generated_Source\PSoC5/ADC_SAR_2_IRQ.c **** 
  30:.\Generated_Source\PSoC5/ADC_SAR_2_IRQ.c **** /* `#END` */
  31:.\Generated_Source\PSoC5/ADC_SAR_2_IRQ.c **** 
ARM GAS  C:\Users\Brian\AppData\Local\Temp\ccOB2bNc.s 			page 2


  32:.\Generated_Source\PSoC5/ADC_SAR_2_IRQ.c **** #ifndef CYINT_IRQ_BASE
  33:.\Generated_Source\PSoC5/ADC_SAR_2_IRQ.c **** #define CYINT_IRQ_BASE      16
  34:.\Generated_Source\PSoC5/ADC_SAR_2_IRQ.c **** #endif /* CYINT_IRQ_BASE */
  35:.\Generated_Source\PSoC5/ADC_SAR_2_IRQ.c **** #ifndef CYINT_VECT_TABLE
  36:.\Generated_Source\PSoC5/ADC_SAR_2_IRQ.c **** #define CYINT_VECT_TABLE    ((cyisraddress **) CYREG_NVIC_VECT_OFFSET)
  37:.\Generated_Source\PSoC5/ADC_SAR_2_IRQ.c **** #endif /* CYINT_VECT_TABLE */
  38:.\Generated_Source\PSoC5/ADC_SAR_2_IRQ.c **** 
  39:.\Generated_Source\PSoC5/ADC_SAR_2_IRQ.c **** /* Declared in startup, used to set unused interrupts to. */
  40:.\Generated_Source\PSoC5/ADC_SAR_2_IRQ.c **** CY_ISR_PROTO(IntDefaultHandler);
  41:.\Generated_Source\PSoC5/ADC_SAR_2_IRQ.c **** 
  42:.\Generated_Source\PSoC5/ADC_SAR_2_IRQ.c **** 
  43:.\Generated_Source\PSoC5/ADC_SAR_2_IRQ.c **** /*******************************************************************************
  44:.\Generated_Source\PSoC5/ADC_SAR_2_IRQ.c **** * Function Name: ADC_SAR_2_IRQ_Start
  45:.\Generated_Source\PSoC5/ADC_SAR_2_IRQ.c **** ********************************************************************************
  46:.\Generated_Source\PSoC5/ADC_SAR_2_IRQ.c **** *
  47:.\Generated_Source\PSoC5/ADC_SAR_2_IRQ.c **** * Summary:
  48:.\Generated_Source\PSoC5/ADC_SAR_2_IRQ.c **** *  Set up the interrupt and enable it.
  49:.\Generated_Source\PSoC5/ADC_SAR_2_IRQ.c **** *
  50:.\Generated_Source\PSoC5/ADC_SAR_2_IRQ.c **** * Parameters:  
  51:.\Generated_Source\PSoC5/ADC_SAR_2_IRQ.c **** *   None
  52:.\Generated_Source\PSoC5/ADC_SAR_2_IRQ.c **** *
  53:.\Generated_Source\PSoC5/ADC_SAR_2_IRQ.c **** * Return:
  54:.\Generated_Source\PSoC5/ADC_SAR_2_IRQ.c **** *   None
  55:.\Generated_Source\PSoC5/ADC_SAR_2_IRQ.c **** *
  56:.\Generated_Source\PSoC5/ADC_SAR_2_IRQ.c **** *******************************************************************************/
  57:.\Generated_Source\PSoC5/ADC_SAR_2_IRQ.c **** void ADC_SAR_2_IRQ_Start(void)
  58:.\Generated_Source\PSoC5/ADC_SAR_2_IRQ.c **** {
  27              		.loc 1 58 0
  28              		.cfi_startproc
  29              		@ args = 0, pretend = 0, frame = 0
  30              		@ frame_needed = 1, uses_anonymous_args = 0
  31 0000 80B5     		push	{r7, lr}
  32              	.LCFI0:
  33              		.cfi_def_cfa_offset 8
  34              		.cfi_offset 7, -8
  35              		.cfi_offset 14, -4
  36 0002 00AF     		add	r7, sp, #0
  37              	.LCFI1:
  38              		.cfi_def_cfa_register 7
  59:.\Generated_Source\PSoC5/ADC_SAR_2_IRQ.c ****     /* For all we know the interrupt is active. */
  60:.\Generated_Source\PSoC5/ADC_SAR_2_IRQ.c ****     ADC_SAR_2_IRQ_Disable();
  39              		.loc 1 60 0
  40 0004 FFF7FEFF 		bl	ADC_SAR_2_IRQ_Disable
  61:.\Generated_Source\PSoC5/ADC_SAR_2_IRQ.c **** 
  62:.\Generated_Source\PSoC5/ADC_SAR_2_IRQ.c ****     /* Set the ISR to point to the ADC_SAR_2_IRQ Interrupt. */
  63:.\Generated_Source\PSoC5/ADC_SAR_2_IRQ.c ****     ADC_SAR_2_IRQ_SetVector(&ADC_SAR_2_IRQ_Interrupt);
  41              		.loc 1 63 0
  42 0008 40F20000 		movw	r0, #:lower16:ADC_SAR_2_IRQ_Interrupt
  43 000c C0F20000 		movt	r0, #:upper16:ADC_SAR_2_IRQ_Interrupt
  44 0010 FFF7FEFF 		bl	ADC_SAR_2_IRQ_SetVector
  64:.\Generated_Source\PSoC5/ADC_SAR_2_IRQ.c **** 
  65:.\Generated_Source\PSoC5/ADC_SAR_2_IRQ.c ****     /* Set the priority. */
  66:.\Generated_Source\PSoC5/ADC_SAR_2_IRQ.c ****     ADC_SAR_2_IRQ_SetPriority((uint8)ADC_SAR_2_IRQ_INTC_PRIOR_NUMBER);
  45              		.loc 1 66 0
  46 0014 4FF00700 		mov	r0, #7
  47 0018 FFF7FEFF 		bl	ADC_SAR_2_IRQ_SetPriority
  67:.\Generated_Source\PSoC5/ADC_SAR_2_IRQ.c **** 
ARM GAS  C:\Users\Brian\AppData\Local\Temp\ccOB2bNc.s 			page 3


  68:.\Generated_Source\PSoC5/ADC_SAR_2_IRQ.c ****     /* Enable it. */
  69:.\Generated_Source\PSoC5/ADC_SAR_2_IRQ.c ****     ADC_SAR_2_IRQ_Enable();
  48              		.loc 1 69 0
  49 001c FFF7FEFF 		bl	ADC_SAR_2_IRQ_Enable
  70:.\Generated_Source\PSoC5/ADC_SAR_2_IRQ.c **** }
  50              		.loc 1 70 0
  51 0020 80BD     		pop	{r7, pc}
  52              		.cfi_endproc
  53              	.LFE0:
  54              		.size	ADC_SAR_2_IRQ_Start, .-ADC_SAR_2_IRQ_Start
  55 0022 00BF     		.section	.text.ADC_SAR_2_IRQ_StartEx,"ax",%progbits
  56              		.align	2
  57              		.global	ADC_SAR_2_IRQ_StartEx
  58              		.thumb
  59              		.thumb_func
  60              		.type	ADC_SAR_2_IRQ_StartEx, %function
  61              	ADC_SAR_2_IRQ_StartEx:
  62              	.LFB1:
  71:.\Generated_Source\PSoC5/ADC_SAR_2_IRQ.c **** 
  72:.\Generated_Source\PSoC5/ADC_SAR_2_IRQ.c **** 
  73:.\Generated_Source\PSoC5/ADC_SAR_2_IRQ.c **** /*******************************************************************************
  74:.\Generated_Source\PSoC5/ADC_SAR_2_IRQ.c **** * Function Name: ADC_SAR_2_IRQ_StartEx
  75:.\Generated_Source\PSoC5/ADC_SAR_2_IRQ.c **** ********************************************************************************
  76:.\Generated_Source\PSoC5/ADC_SAR_2_IRQ.c **** *
  77:.\Generated_Source\PSoC5/ADC_SAR_2_IRQ.c **** * Summary:
  78:.\Generated_Source\PSoC5/ADC_SAR_2_IRQ.c **** *  Set up the interrupt and enable it.
  79:.\Generated_Source\PSoC5/ADC_SAR_2_IRQ.c **** *
  80:.\Generated_Source\PSoC5/ADC_SAR_2_IRQ.c **** * Parameters:  
  81:.\Generated_Source\PSoC5/ADC_SAR_2_IRQ.c **** *   address: Address of the ISR to set in the interrupt vector table.
  82:.\Generated_Source\PSoC5/ADC_SAR_2_IRQ.c **** *
  83:.\Generated_Source\PSoC5/ADC_SAR_2_IRQ.c **** * Return:
  84:.\Generated_Source\PSoC5/ADC_SAR_2_IRQ.c **** *   None
  85:.\Generated_Source\PSoC5/ADC_SAR_2_IRQ.c **** *
  86:.\Generated_Source\PSoC5/ADC_SAR_2_IRQ.c **** *******************************************************************************/
  87:.\Generated_Source\PSoC5/ADC_SAR_2_IRQ.c **** void ADC_SAR_2_IRQ_StartEx(cyisraddress address)
  88:.\Generated_Source\PSoC5/ADC_SAR_2_IRQ.c **** {
  63              		.loc 1 88 0
  64              		.cfi_startproc
  65              		@ args = 0, pretend = 0, frame = 8
  66              		@ frame_needed = 1, uses_anonymous_args = 0
  67 0000 80B5     		push	{r7, lr}
  68              	.LCFI2:
  69              		.cfi_def_cfa_offset 8
  70              		.cfi_offset 7, -8
  71              		.cfi_offset 14, -4
  72 0002 82B0     		sub	sp, sp, #8
  73              	.LCFI3:
  74              		.cfi_def_cfa_offset 16
  75 0004 00AF     		add	r7, sp, #0
  76              	.LCFI4:
  77              		.cfi_def_cfa_register 7
  78 0006 7860     		str	r0, [r7, #4]
  89:.\Generated_Source\PSoC5/ADC_SAR_2_IRQ.c ****     /* For all we know the interrupt is active. */
  90:.\Generated_Source\PSoC5/ADC_SAR_2_IRQ.c ****     ADC_SAR_2_IRQ_Disable();
  79              		.loc 1 90 0
  80 0008 FFF7FEFF 		bl	ADC_SAR_2_IRQ_Disable
  91:.\Generated_Source\PSoC5/ADC_SAR_2_IRQ.c **** 
ARM GAS  C:\Users\Brian\AppData\Local\Temp\ccOB2bNc.s 			page 4


  92:.\Generated_Source\PSoC5/ADC_SAR_2_IRQ.c ****     /* Set the ISR to point to the ADC_SAR_2_IRQ Interrupt. */
  93:.\Generated_Source\PSoC5/ADC_SAR_2_IRQ.c ****     ADC_SAR_2_IRQ_SetVector(address);
  81              		.loc 1 93 0
  82 000c 7868     		ldr	r0, [r7, #4]
  83 000e FFF7FEFF 		bl	ADC_SAR_2_IRQ_SetVector
  94:.\Generated_Source\PSoC5/ADC_SAR_2_IRQ.c **** 
  95:.\Generated_Source\PSoC5/ADC_SAR_2_IRQ.c ****     /* Set the priority. */
  96:.\Generated_Source\PSoC5/ADC_SAR_2_IRQ.c ****     ADC_SAR_2_IRQ_SetPriority((uint8)ADC_SAR_2_IRQ_INTC_PRIOR_NUMBER);
  84              		.loc 1 96 0
  85 0012 4FF00700 		mov	r0, #7
  86 0016 FFF7FEFF 		bl	ADC_SAR_2_IRQ_SetPriority
  97:.\Generated_Source\PSoC5/ADC_SAR_2_IRQ.c **** 
  98:.\Generated_Source\PSoC5/ADC_SAR_2_IRQ.c ****     /* Enable it. */
  99:.\Generated_Source\PSoC5/ADC_SAR_2_IRQ.c ****     ADC_SAR_2_IRQ_Enable();
  87              		.loc 1 99 0
  88 001a FFF7FEFF 		bl	ADC_SAR_2_IRQ_Enable
 100:.\Generated_Source\PSoC5/ADC_SAR_2_IRQ.c **** }
  89              		.loc 1 100 0
  90 001e 07F10807 		add	r7, r7, #8
  91 0022 BD46     		mov	sp, r7
  92 0024 80BD     		pop	{r7, pc}
  93              		.cfi_endproc
  94              	.LFE1:
  95              		.size	ADC_SAR_2_IRQ_StartEx, .-ADC_SAR_2_IRQ_StartEx
  96 0026 00BF     		.section	.text.ADC_SAR_2_IRQ_Stop,"ax",%progbits
  97              		.align	2
  98              		.global	ADC_SAR_2_IRQ_Stop
  99              		.thumb
 100              		.thumb_func
 101              		.type	ADC_SAR_2_IRQ_Stop, %function
 102              	ADC_SAR_2_IRQ_Stop:
 103              	.LFB2:
 101:.\Generated_Source\PSoC5/ADC_SAR_2_IRQ.c **** 
 102:.\Generated_Source\PSoC5/ADC_SAR_2_IRQ.c **** 
 103:.\Generated_Source\PSoC5/ADC_SAR_2_IRQ.c **** /*******************************************************************************
 104:.\Generated_Source\PSoC5/ADC_SAR_2_IRQ.c **** * Function Name: ADC_SAR_2_IRQ_Stop
 105:.\Generated_Source\PSoC5/ADC_SAR_2_IRQ.c **** ********************************************************************************
 106:.\Generated_Source\PSoC5/ADC_SAR_2_IRQ.c **** *
 107:.\Generated_Source\PSoC5/ADC_SAR_2_IRQ.c **** * Summary:
 108:.\Generated_Source\PSoC5/ADC_SAR_2_IRQ.c **** *   Disables and removes the interrupt.
 109:.\Generated_Source\PSoC5/ADC_SAR_2_IRQ.c **** *
 110:.\Generated_Source\PSoC5/ADC_SAR_2_IRQ.c **** * Parameters:  
 111:.\Generated_Source\PSoC5/ADC_SAR_2_IRQ.c **** *
 112:.\Generated_Source\PSoC5/ADC_SAR_2_IRQ.c **** * Return:
 113:.\Generated_Source\PSoC5/ADC_SAR_2_IRQ.c **** *   None
 114:.\Generated_Source\PSoC5/ADC_SAR_2_IRQ.c **** *
 115:.\Generated_Source\PSoC5/ADC_SAR_2_IRQ.c **** *******************************************************************************/
 116:.\Generated_Source\PSoC5/ADC_SAR_2_IRQ.c **** void ADC_SAR_2_IRQ_Stop(void)
 117:.\Generated_Source\PSoC5/ADC_SAR_2_IRQ.c **** {
 104              		.loc 1 117 0
 105              		.cfi_startproc
 106              		@ args = 0, pretend = 0, frame = 0
 107              		@ frame_needed = 1, uses_anonymous_args = 0
 108 0000 80B5     		push	{r7, lr}
 109              	.LCFI5:
 110              		.cfi_def_cfa_offset 8
 111              		.cfi_offset 7, -8
ARM GAS  C:\Users\Brian\AppData\Local\Temp\ccOB2bNc.s 			page 5


 112              		.cfi_offset 14, -4
 113 0002 00AF     		add	r7, sp, #0
 114              	.LCFI6:
 115              		.cfi_def_cfa_register 7
 118:.\Generated_Source\PSoC5/ADC_SAR_2_IRQ.c ****     /* Disable this interrupt. */
 119:.\Generated_Source\PSoC5/ADC_SAR_2_IRQ.c ****     ADC_SAR_2_IRQ_Disable();
 116              		.loc 1 119 0
 117 0004 FFF7FEFF 		bl	ADC_SAR_2_IRQ_Disable
 120:.\Generated_Source\PSoC5/ADC_SAR_2_IRQ.c **** 
 121:.\Generated_Source\PSoC5/ADC_SAR_2_IRQ.c ****     /* Set the ISR to point to the passive one. */
 122:.\Generated_Source\PSoC5/ADC_SAR_2_IRQ.c ****     ADC_SAR_2_IRQ_SetVector(&IntDefaultHandler);
 118              		.loc 1 122 0
 119 0008 40F20000 		movw	r0, #:lower16:IntDefaultHandler
 120 000c C0F20000 		movt	r0, #:upper16:IntDefaultHandler
 121 0010 FFF7FEFF 		bl	ADC_SAR_2_IRQ_SetVector
 123:.\Generated_Source\PSoC5/ADC_SAR_2_IRQ.c **** }
 122              		.loc 1 123 0
 123 0014 80BD     		pop	{r7, pc}
 124              		.cfi_endproc
 125              	.LFE2:
 126              		.size	ADC_SAR_2_IRQ_Stop, .-ADC_SAR_2_IRQ_Stop
 127 0016 00BF     		.section	.text.ADC_SAR_2_IRQ_Interrupt,"ax",%progbits
 128              		.align	2
 129              		.global	ADC_SAR_2_IRQ_Interrupt
 130              		.thumb
 131              		.thumb_func
 132              		.type	ADC_SAR_2_IRQ_Interrupt, %function
 133              	ADC_SAR_2_IRQ_Interrupt:
 134              	.LFB3:
 124:.\Generated_Source\PSoC5/ADC_SAR_2_IRQ.c **** 
 125:.\Generated_Source\PSoC5/ADC_SAR_2_IRQ.c **** 
 126:.\Generated_Source\PSoC5/ADC_SAR_2_IRQ.c **** /*******************************************************************************
 127:.\Generated_Source\PSoC5/ADC_SAR_2_IRQ.c **** * Function Name: ADC_SAR_2_IRQ_Interrupt
 128:.\Generated_Source\PSoC5/ADC_SAR_2_IRQ.c **** ********************************************************************************
 129:.\Generated_Source\PSoC5/ADC_SAR_2_IRQ.c **** *
 130:.\Generated_Source\PSoC5/ADC_SAR_2_IRQ.c **** * Summary:
 131:.\Generated_Source\PSoC5/ADC_SAR_2_IRQ.c **** *   The default Interrupt Service Routine for ADC_SAR_2_IRQ.
 132:.\Generated_Source\PSoC5/ADC_SAR_2_IRQ.c **** *
 133:.\Generated_Source\PSoC5/ADC_SAR_2_IRQ.c **** *   Add custom code between the coments to keep the next version of this file
 134:.\Generated_Source\PSoC5/ADC_SAR_2_IRQ.c **** *   from over writting your code.
 135:.\Generated_Source\PSoC5/ADC_SAR_2_IRQ.c **** *
 136:.\Generated_Source\PSoC5/ADC_SAR_2_IRQ.c **** * Parameters:  
 137:.\Generated_Source\PSoC5/ADC_SAR_2_IRQ.c **** *
 138:.\Generated_Source\PSoC5/ADC_SAR_2_IRQ.c **** * Return:
 139:.\Generated_Source\PSoC5/ADC_SAR_2_IRQ.c **** *   None
 140:.\Generated_Source\PSoC5/ADC_SAR_2_IRQ.c **** *
 141:.\Generated_Source\PSoC5/ADC_SAR_2_IRQ.c **** *******************************************************************************/
 142:.\Generated_Source\PSoC5/ADC_SAR_2_IRQ.c **** CY_ISR(ADC_SAR_2_IRQ_Interrupt)
 143:.\Generated_Source\PSoC5/ADC_SAR_2_IRQ.c **** {
 135              		.loc 1 143 0
 136              		.cfi_startproc
 137              		@ args = 0, pretend = 0, frame = 0
 138              		@ frame_needed = 1, uses_anonymous_args = 0
 139              		@ link register save eliminated.
 140 0000 80B4     		push	{r7}
 141              	.LCFI7:
 142              		.cfi_def_cfa_offset 4
ARM GAS  C:\Users\Brian\AppData\Local\Temp\ccOB2bNc.s 			page 6


 143              		.cfi_offset 7, -4
 144 0002 00AF     		add	r7, sp, #0
 145              	.LCFI8:
 146              		.cfi_def_cfa_register 7
 144:.\Generated_Source\PSoC5/ADC_SAR_2_IRQ.c ****     /*  Place your Interrupt code here. */
 145:.\Generated_Source\PSoC5/ADC_SAR_2_IRQ.c ****     /* `#START ADC_SAR_2_IRQ_Interrupt` */
 146:.\Generated_Source\PSoC5/ADC_SAR_2_IRQ.c **** 
 147:.\Generated_Source\PSoC5/ADC_SAR_2_IRQ.c ****     /* `#END` */
 148:.\Generated_Source\PSoC5/ADC_SAR_2_IRQ.c **** }
 147              		.loc 1 148 0
 148 0004 BD46     		mov	sp, r7
 149 0006 80BC     		pop	{r7}
 150 0008 7047     		bx	lr
 151              		.cfi_endproc
 152              	.LFE3:
 153              		.size	ADC_SAR_2_IRQ_Interrupt, .-ADC_SAR_2_IRQ_Interrupt
 154 000a 00BF     		.section	.text.ADC_SAR_2_IRQ_SetVector,"ax",%progbits
 155              		.align	2
 156              		.global	ADC_SAR_2_IRQ_SetVector
 157              		.thumb
 158              		.thumb_func
 159              		.type	ADC_SAR_2_IRQ_SetVector, %function
 160              	ADC_SAR_2_IRQ_SetVector:
 161              	.LFB4:
 149:.\Generated_Source\PSoC5/ADC_SAR_2_IRQ.c **** 
 150:.\Generated_Source\PSoC5/ADC_SAR_2_IRQ.c **** 
 151:.\Generated_Source\PSoC5/ADC_SAR_2_IRQ.c **** /*******************************************************************************
 152:.\Generated_Source\PSoC5/ADC_SAR_2_IRQ.c **** * Function Name: ADC_SAR_2_IRQ_SetVector
 153:.\Generated_Source\PSoC5/ADC_SAR_2_IRQ.c **** ********************************************************************************
 154:.\Generated_Source\PSoC5/ADC_SAR_2_IRQ.c **** *
 155:.\Generated_Source\PSoC5/ADC_SAR_2_IRQ.c **** * Summary:
 156:.\Generated_Source\PSoC5/ADC_SAR_2_IRQ.c **** *   Change the ISR vector for the Interrupt. Note calling ADC_SAR_2_IRQ_Start
 157:.\Generated_Source\PSoC5/ADC_SAR_2_IRQ.c **** *   will override any effect this method would have had. To set the vector 
 158:.\Generated_Source\PSoC5/ADC_SAR_2_IRQ.c **** *   before the component has been started use ADC_SAR_2_IRQ_StartEx instead.
 159:.\Generated_Source\PSoC5/ADC_SAR_2_IRQ.c **** *
 160:.\Generated_Source\PSoC5/ADC_SAR_2_IRQ.c **** * Parameters:
 161:.\Generated_Source\PSoC5/ADC_SAR_2_IRQ.c **** *   address: Address of the ISR to set in the interrupt vector table.
 162:.\Generated_Source\PSoC5/ADC_SAR_2_IRQ.c **** *
 163:.\Generated_Source\PSoC5/ADC_SAR_2_IRQ.c **** * Return:
 164:.\Generated_Source\PSoC5/ADC_SAR_2_IRQ.c **** *   None
 165:.\Generated_Source\PSoC5/ADC_SAR_2_IRQ.c **** *
 166:.\Generated_Source\PSoC5/ADC_SAR_2_IRQ.c **** *******************************************************************************/
 167:.\Generated_Source\PSoC5/ADC_SAR_2_IRQ.c **** void ADC_SAR_2_IRQ_SetVector(cyisraddress address)
 168:.\Generated_Source\PSoC5/ADC_SAR_2_IRQ.c **** {
 162              		.loc 1 168 0
 163              		.cfi_startproc
 164              		@ args = 0, pretend = 0, frame = 16
 165              		@ frame_needed = 1, uses_anonymous_args = 0
 166              		@ link register save eliminated.
 167 0000 80B4     		push	{r7}
 168              	.LCFI9:
 169              		.cfi_def_cfa_offset 4
 170              		.cfi_offset 7, -4
 171 0002 85B0     		sub	sp, sp, #20
 172              	.LCFI10:
 173              		.cfi_def_cfa_offset 24
 174 0004 00AF     		add	r7, sp, #0
ARM GAS  C:\Users\Brian\AppData\Local\Temp\ccOB2bNc.s 			page 7


 175              	.LCFI11:
 176              		.cfi_def_cfa_register 7
 177 0006 7860     		str	r0, [r7, #4]
 169:.\Generated_Source\PSoC5/ADC_SAR_2_IRQ.c ****     cyisraddress * ramVectorTable;
 170:.\Generated_Source\PSoC5/ADC_SAR_2_IRQ.c **** 
 171:.\Generated_Source\PSoC5/ADC_SAR_2_IRQ.c ****     ramVectorTable = (cyisraddress *) *CYINT_VECT_TABLE;
 178              		.loc 1 171 0
 179 0008 4EF60853 		movw	r3, #60680
 180 000c CEF20003 		movt	r3, 57344
 181 0010 1B68     		ldr	r3, [r3, #0]
 182 0012 FB60     		str	r3, [r7, #12]
 172:.\Generated_Source\PSoC5/ADC_SAR_2_IRQ.c **** 
 173:.\Generated_Source\PSoC5/ADC_SAR_2_IRQ.c ****     ramVectorTable[CYINT_IRQ_BASE + (uint32)ADC_SAR_2_IRQ__INTC_NUMBER] = address;
 183              		.loc 1 173 0
 184 0014 FB68     		ldr	r3, [r7, #12]
 185 0016 03F14403 		add	r3, r3, #68
 186 001a 7A68     		ldr	r2, [r7, #4]
 187 001c 1A60     		str	r2, [r3, #0]
 174:.\Generated_Source\PSoC5/ADC_SAR_2_IRQ.c **** }
 188              		.loc 1 174 0
 189 001e 07F11407 		add	r7, r7, #20
 190 0022 BD46     		mov	sp, r7
 191 0024 80BC     		pop	{r7}
 192 0026 7047     		bx	lr
 193              		.cfi_endproc
 194              	.LFE4:
 195              		.size	ADC_SAR_2_IRQ_SetVector, .-ADC_SAR_2_IRQ_SetVector
 196              		.section	.text.ADC_SAR_2_IRQ_GetVector,"ax",%progbits
 197              		.align	2
 198              		.global	ADC_SAR_2_IRQ_GetVector
 199              		.thumb
 200              		.thumb_func
 201              		.type	ADC_SAR_2_IRQ_GetVector, %function
 202              	ADC_SAR_2_IRQ_GetVector:
 203              	.LFB5:
 175:.\Generated_Source\PSoC5/ADC_SAR_2_IRQ.c **** 
 176:.\Generated_Source\PSoC5/ADC_SAR_2_IRQ.c **** 
 177:.\Generated_Source\PSoC5/ADC_SAR_2_IRQ.c **** /*******************************************************************************
 178:.\Generated_Source\PSoC5/ADC_SAR_2_IRQ.c **** * Function Name: ADC_SAR_2_IRQ_GetVector
 179:.\Generated_Source\PSoC5/ADC_SAR_2_IRQ.c **** ********************************************************************************
 180:.\Generated_Source\PSoC5/ADC_SAR_2_IRQ.c **** *
 181:.\Generated_Source\PSoC5/ADC_SAR_2_IRQ.c **** * Summary:
 182:.\Generated_Source\PSoC5/ADC_SAR_2_IRQ.c **** *   Gets the "address" of the current ISR vector for the Interrupt.
 183:.\Generated_Source\PSoC5/ADC_SAR_2_IRQ.c **** *
 184:.\Generated_Source\PSoC5/ADC_SAR_2_IRQ.c **** * Parameters:
 185:.\Generated_Source\PSoC5/ADC_SAR_2_IRQ.c **** *   None
 186:.\Generated_Source\PSoC5/ADC_SAR_2_IRQ.c **** *
 187:.\Generated_Source\PSoC5/ADC_SAR_2_IRQ.c **** * Return:
 188:.\Generated_Source\PSoC5/ADC_SAR_2_IRQ.c **** *   Address of the ISR in the interrupt vector table.
 189:.\Generated_Source\PSoC5/ADC_SAR_2_IRQ.c **** *
 190:.\Generated_Source\PSoC5/ADC_SAR_2_IRQ.c **** *******************************************************************************/
 191:.\Generated_Source\PSoC5/ADC_SAR_2_IRQ.c **** cyisraddress ADC_SAR_2_IRQ_GetVector(void)
 192:.\Generated_Source\PSoC5/ADC_SAR_2_IRQ.c **** {
 204              		.loc 1 192 0
 205              		.cfi_startproc
 206              		@ args = 0, pretend = 0, frame = 8
 207              		@ frame_needed = 1, uses_anonymous_args = 0
ARM GAS  C:\Users\Brian\AppData\Local\Temp\ccOB2bNc.s 			page 8


 208              		@ link register save eliminated.
 209 0000 80B4     		push	{r7}
 210              	.LCFI12:
 211              		.cfi_def_cfa_offset 4
 212              		.cfi_offset 7, -4
 213 0002 83B0     		sub	sp, sp, #12
 214              	.LCFI13:
 215              		.cfi_def_cfa_offset 16
 216 0004 00AF     		add	r7, sp, #0
 217              	.LCFI14:
 218              		.cfi_def_cfa_register 7
 193:.\Generated_Source\PSoC5/ADC_SAR_2_IRQ.c ****     cyisraddress * ramVectorTable;
 194:.\Generated_Source\PSoC5/ADC_SAR_2_IRQ.c **** 
 195:.\Generated_Source\PSoC5/ADC_SAR_2_IRQ.c ****     ramVectorTable = (cyisraddress *) *CYINT_VECT_TABLE;
 219              		.loc 1 195 0
 220 0006 4EF60853 		movw	r3, #60680
 221 000a CEF20003 		movt	r3, 57344
 222 000e 1B68     		ldr	r3, [r3, #0]
 223 0010 7B60     		str	r3, [r7, #4]
 196:.\Generated_Source\PSoC5/ADC_SAR_2_IRQ.c **** 
 197:.\Generated_Source\PSoC5/ADC_SAR_2_IRQ.c ****     return ramVectorTable[CYINT_IRQ_BASE + (uint32)ADC_SAR_2_IRQ__INTC_NUMBER];
 224              		.loc 1 197 0
 225 0012 7B68     		ldr	r3, [r7, #4]
 226 0014 5B6C     		ldr	r3, [r3, #68]
 198:.\Generated_Source\PSoC5/ADC_SAR_2_IRQ.c **** }
 227              		.loc 1 198 0
 228 0016 1846     		mov	r0, r3
 229 0018 07F10C07 		add	r7, r7, #12
 230 001c BD46     		mov	sp, r7
 231 001e 80BC     		pop	{r7}
 232 0020 7047     		bx	lr
 233              		.cfi_endproc
 234              	.LFE5:
 235              		.size	ADC_SAR_2_IRQ_GetVector, .-ADC_SAR_2_IRQ_GetVector
 236 0022 00BF     		.section	.text.ADC_SAR_2_IRQ_SetPriority,"ax",%progbits
 237              		.align	2
 238              		.global	ADC_SAR_2_IRQ_SetPriority
 239              		.thumb
 240              		.thumb_func
 241              		.type	ADC_SAR_2_IRQ_SetPriority, %function
 242              	ADC_SAR_2_IRQ_SetPriority:
 243              	.LFB6:
 199:.\Generated_Source\PSoC5/ADC_SAR_2_IRQ.c **** 
 200:.\Generated_Source\PSoC5/ADC_SAR_2_IRQ.c **** 
 201:.\Generated_Source\PSoC5/ADC_SAR_2_IRQ.c **** /*******************************************************************************
 202:.\Generated_Source\PSoC5/ADC_SAR_2_IRQ.c **** * Function Name: ADC_SAR_2_IRQ_SetPriority
 203:.\Generated_Source\PSoC5/ADC_SAR_2_IRQ.c **** ********************************************************************************
 204:.\Generated_Source\PSoC5/ADC_SAR_2_IRQ.c **** *
 205:.\Generated_Source\PSoC5/ADC_SAR_2_IRQ.c **** * Summary:
 206:.\Generated_Source\PSoC5/ADC_SAR_2_IRQ.c **** *   Sets the Priority of the Interrupt. Note calling ADC_SAR_2_IRQ_Start
 207:.\Generated_Source\PSoC5/ADC_SAR_2_IRQ.c **** *   or ADC_SAR_2_IRQ_StartEx will override any effect this method 
 208:.\Generated_Source\PSoC5/ADC_SAR_2_IRQ.c **** *   would have had. This method should only be called after 
 209:.\Generated_Source\PSoC5/ADC_SAR_2_IRQ.c **** *   ADC_SAR_2_IRQ_Start or ADC_SAR_2_IRQ_StartEx has been called. To set 
 210:.\Generated_Source\PSoC5/ADC_SAR_2_IRQ.c **** *   the initial priority for the component use the cydwr file in the tool.
 211:.\Generated_Source\PSoC5/ADC_SAR_2_IRQ.c **** *
 212:.\Generated_Source\PSoC5/ADC_SAR_2_IRQ.c **** * Parameters:
 213:.\Generated_Source\PSoC5/ADC_SAR_2_IRQ.c **** *   priority: Priority of the interrupt. 0 - 7, 0 being the highest.
ARM GAS  C:\Users\Brian\AppData\Local\Temp\ccOB2bNc.s 			page 9


 214:.\Generated_Source\PSoC5/ADC_SAR_2_IRQ.c **** *
 215:.\Generated_Source\PSoC5/ADC_SAR_2_IRQ.c **** * Return:
 216:.\Generated_Source\PSoC5/ADC_SAR_2_IRQ.c **** *   None
 217:.\Generated_Source\PSoC5/ADC_SAR_2_IRQ.c **** *
 218:.\Generated_Source\PSoC5/ADC_SAR_2_IRQ.c **** *******************************************************************************/
 219:.\Generated_Source\PSoC5/ADC_SAR_2_IRQ.c **** void ADC_SAR_2_IRQ_SetPriority(uint8 priority)
 220:.\Generated_Source\PSoC5/ADC_SAR_2_IRQ.c **** {
 244              		.loc 1 220 0
 245              		.cfi_startproc
 246              		@ args = 0, pretend = 0, frame = 8
 247              		@ frame_needed = 1, uses_anonymous_args = 0
 248              		@ link register save eliminated.
 249 0000 80B4     		push	{r7}
 250              	.LCFI15:
 251              		.cfi_def_cfa_offset 4
 252              		.cfi_offset 7, -4
 253 0002 83B0     		sub	sp, sp, #12
 254              	.LCFI16:
 255              		.cfi_def_cfa_offset 16
 256 0004 00AF     		add	r7, sp, #0
 257              	.LCFI17:
 258              		.cfi_def_cfa_register 7
 259 0006 0346     		mov	r3, r0
 260 0008 FB71     		strb	r3, [r7, #7]
 221:.\Generated_Source\PSoC5/ADC_SAR_2_IRQ.c ****     *ADC_SAR_2_IRQ_INTC_PRIOR = priority << 5;
 261              		.loc 1 221 0
 262 000a 4EF20143 		movw	r3, #58369
 263 000e CEF20003 		movt	r3, 57344
 264 0012 FA79     		ldrb	r2, [r7, #7]
 265 0014 4FEA4212 		lsl	r2, r2, #5
 266 0018 D2B2     		uxtb	r2, r2
 267 001a 1A70     		strb	r2, [r3, #0]
 222:.\Generated_Source\PSoC5/ADC_SAR_2_IRQ.c **** }
 268              		.loc 1 222 0
 269 001c 07F10C07 		add	r7, r7, #12
 270 0020 BD46     		mov	sp, r7
 271 0022 80BC     		pop	{r7}
 272 0024 7047     		bx	lr
 273              		.cfi_endproc
 274              	.LFE6:
 275              		.size	ADC_SAR_2_IRQ_SetPriority, .-ADC_SAR_2_IRQ_SetPriority
 276 0026 00BF     		.section	.text.ADC_SAR_2_IRQ_GetPriority,"ax",%progbits
 277              		.align	2
 278              		.global	ADC_SAR_2_IRQ_GetPriority
 279              		.thumb
 280              		.thumb_func
 281              		.type	ADC_SAR_2_IRQ_GetPriority, %function
 282              	ADC_SAR_2_IRQ_GetPriority:
 283              	.LFB7:
 223:.\Generated_Source\PSoC5/ADC_SAR_2_IRQ.c **** 
 224:.\Generated_Source\PSoC5/ADC_SAR_2_IRQ.c **** 
 225:.\Generated_Source\PSoC5/ADC_SAR_2_IRQ.c **** /*******************************************************************************
 226:.\Generated_Source\PSoC5/ADC_SAR_2_IRQ.c **** * Function Name: ADC_SAR_2_IRQ_GetPriority
 227:.\Generated_Source\PSoC5/ADC_SAR_2_IRQ.c **** ********************************************************************************
 228:.\Generated_Source\PSoC5/ADC_SAR_2_IRQ.c **** *
 229:.\Generated_Source\PSoC5/ADC_SAR_2_IRQ.c **** * Summary:
 230:.\Generated_Source\PSoC5/ADC_SAR_2_IRQ.c **** *   Gets the Priority of the Interrupt.
ARM GAS  C:\Users\Brian\AppData\Local\Temp\ccOB2bNc.s 			page 10


 231:.\Generated_Source\PSoC5/ADC_SAR_2_IRQ.c **** *
 232:.\Generated_Source\PSoC5/ADC_SAR_2_IRQ.c **** * Parameters:
 233:.\Generated_Source\PSoC5/ADC_SAR_2_IRQ.c **** *   None
 234:.\Generated_Source\PSoC5/ADC_SAR_2_IRQ.c **** *
 235:.\Generated_Source\PSoC5/ADC_SAR_2_IRQ.c **** * Return:
 236:.\Generated_Source\PSoC5/ADC_SAR_2_IRQ.c **** *   Priority of the interrupt. 0 - 7, 0 being the highest.
 237:.\Generated_Source\PSoC5/ADC_SAR_2_IRQ.c **** *
 238:.\Generated_Source\PSoC5/ADC_SAR_2_IRQ.c **** *******************************************************************************/
 239:.\Generated_Source\PSoC5/ADC_SAR_2_IRQ.c **** uint8 ADC_SAR_2_IRQ_GetPriority(void)
 240:.\Generated_Source\PSoC5/ADC_SAR_2_IRQ.c **** {
 284              		.loc 1 240 0
 285              		.cfi_startproc
 286              		@ args = 0, pretend = 0, frame = 8
 287              		@ frame_needed = 1, uses_anonymous_args = 0
 288              		@ link register save eliminated.
 289 0000 80B4     		push	{r7}
 290              	.LCFI18:
 291              		.cfi_def_cfa_offset 4
 292              		.cfi_offset 7, -4
 293 0002 83B0     		sub	sp, sp, #12
 294              	.LCFI19:
 295              		.cfi_def_cfa_offset 16
 296 0004 00AF     		add	r7, sp, #0
 297              	.LCFI20:
 298              		.cfi_def_cfa_register 7
 241:.\Generated_Source\PSoC5/ADC_SAR_2_IRQ.c ****     uint8 priority;
 242:.\Generated_Source\PSoC5/ADC_SAR_2_IRQ.c **** 
 243:.\Generated_Source\PSoC5/ADC_SAR_2_IRQ.c **** 
 244:.\Generated_Source\PSoC5/ADC_SAR_2_IRQ.c ****     priority = *ADC_SAR_2_IRQ_INTC_PRIOR >> 5;
 299              		.loc 1 244 0
 300 0006 4EF20143 		movw	r3, #58369
 301 000a CEF20003 		movt	r3, 57344
 302 000e 1B78     		ldrb	r3, [r3, #0]
 303 0010 DBB2     		uxtb	r3, r3
 304 0012 4FEA5313 		lsr	r3, r3, #5
 305 0016 FB71     		strb	r3, [r7, #7]
 245:.\Generated_Source\PSoC5/ADC_SAR_2_IRQ.c **** 
 246:.\Generated_Source\PSoC5/ADC_SAR_2_IRQ.c ****     return priority;
 306              		.loc 1 246 0
 307 0018 FB79     		ldrb	r3, [r7, #7]	@ zero_extendqisi2
 247:.\Generated_Source\PSoC5/ADC_SAR_2_IRQ.c **** }
 308              		.loc 1 247 0
 309 001a 1846     		mov	r0, r3
 310 001c 07F10C07 		add	r7, r7, #12
 311 0020 BD46     		mov	sp, r7
 312 0022 80BC     		pop	{r7}
 313 0024 7047     		bx	lr
 314              		.cfi_endproc
 315              	.LFE7:
 316              		.size	ADC_SAR_2_IRQ_GetPriority, .-ADC_SAR_2_IRQ_GetPriority
 317 0026 00BF     		.section	.text.ADC_SAR_2_IRQ_Enable,"ax",%progbits
 318              		.align	2
 319              		.global	ADC_SAR_2_IRQ_Enable
 320              		.thumb
 321              		.thumb_func
 322              		.type	ADC_SAR_2_IRQ_Enable, %function
 323              	ADC_SAR_2_IRQ_Enable:
ARM GAS  C:\Users\Brian\AppData\Local\Temp\ccOB2bNc.s 			page 11


 324              	.LFB8:
 248:.\Generated_Source\PSoC5/ADC_SAR_2_IRQ.c **** 
 249:.\Generated_Source\PSoC5/ADC_SAR_2_IRQ.c **** 
 250:.\Generated_Source\PSoC5/ADC_SAR_2_IRQ.c **** /*******************************************************************************
 251:.\Generated_Source\PSoC5/ADC_SAR_2_IRQ.c **** * Function Name: ADC_SAR_2_IRQ_Enable
 252:.\Generated_Source\PSoC5/ADC_SAR_2_IRQ.c **** ********************************************************************************
 253:.\Generated_Source\PSoC5/ADC_SAR_2_IRQ.c **** *
 254:.\Generated_Source\PSoC5/ADC_SAR_2_IRQ.c **** * Summary:
 255:.\Generated_Source\PSoC5/ADC_SAR_2_IRQ.c **** *   Enables the interrupt.
 256:.\Generated_Source\PSoC5/ADC_SAR_2_IRQ.c **** *
 257:.\Generated_Source\PSoC5/ADC_SAR_2_IRQ.c **** * Parameters:
 258:.\Generated_Source\PSoC5/ADC_SAR_2_IRQ.c **** *   None
 259:.\Generated_Source\PSoC5/ADC_SAR_2_IRQ.c **** *
 260:.\Generated_Source\PSoC5/ADC_SAR_2_IRQ.c **** * Return:
 261:.\Generated_Source\PSoC5/ADC_SAR_2_IRQ.c **** *   None
 262:.\Generated_Source\PSoC5/ADC_SAR_2_IRQ.c **** *
 263:.\Generated_Source\PSoC5/ADC_SAR_2_IRQ.c **** *******************************************************************************/
 264:.\Generated_Source\PSoC5/ADC_SAR_2_IRQ.c **** void ADC_SAR_2_IRQ_Enable(void)
 265:.\Generated_Source\PSoC5/ADC_SAR_2_IRQ.c **** {
 325              		.loc 1 265 0
 326              		.cfi_startproc
 327              		@ args = 0, pretend = 0, frame = 0
 328              		@ frame_needed = 1, uses_anonymous_args = 0
 329              		@ link register save eliminated.
 330 0000 80B4     		push	{r7}
 331              	.LCFI21:
 332              		.cfi_def_cfa_offset 4
 333              		.cfi_offset 7, -4
 334 0002 00AF     		add	r7, sp, #0
 335              	.LCFI22:
 336              		.cfi_def_cfa_register 7
 266:.\Generated_Source\PSoC5/ADC_SAR_2_IRQ.c ****     /* Enable the general interrupt. */
 267:.\Generated_Source\PSoC5/ADC_SAR_2_IRQ.c ****     *ADC_SAR_2_IRQ_INTC_SET_EN = ADC_SAR_2_IRQ__INTC_MASK;
 337              		.loc 1 267 0
 338 0004 4FF46143 		mov	r3, #57600
 339 0008 CEF20003 		movt	r3, 57344
 340 000c 4FF00202 		mov	r2, #2
 341 0010 1A60     		str	r2, [r3, #0]
 268:.\Generated_Source\PSoC5/ADC_SAR_2_IRQ.c **** }
 342              		.loc 1 268 0
 343 0012 BD46     		mov	sp, r7
 344 0014 80BC     		pop	{r7}
 345 0016 7047     		bx	lr
 346              		.cfi_endproc
 347              	.LFE8:
 348              		.size	ADC_SAR_2_IRQ_Enable, .-ADC_SAR_2_IRQ_Enable
 349              		.section	.text.ADC_SAR_2_IRQ_GetState,"ax",%progbits
 350              		.align	2
 351              		.global	ADC_SAR_2_IRQ_GetState
 352              		.thumb
 353              		.thumb_func
 354              		.type	ADC_SAR_2_IRQ_GetState, %function
 355              	ADC_SAR_2_IRQ_GetState:
 356              	.LFB9:
 269:.\Generated_Source\PSoC5/ADC_SAR_2_IRQ.c **** 
 270:.\Generated_Source\PSoC5/ADC_SAR_2_IRQ.c **** 
 271:.\Generated_Source\PSoC5/ADC_SAR_2_IRQ.c **** /*******************************************************************************
ARM GAS  C:\Users\Brian\AppData\Local\Temp\ccOB2bNc.s 			page 12


 272:.\Generated_Source\PSoC5/ADC_SAR_2_IRQ.c **** * Function Name: ADC_SAR_2_IRQ_GetState
 273:.\Generated_Source\PSoC5/ADC_SAR_2_IRQ.c **** ********************************************************************************
 274:.\Generated_Source\PSoC5/ADC_SAR_2_IRQ.c **** *
 275:.\Generated_Source\PSoC5/ADC_SAR_2_IRQ.c **** * Summary:
 276:.\Generated_Source\PSoC5/ADC_SAR_2_IRQ.c **** *   Gets the state (enabled, disabled) of the Interrupt.
 277:.\Generated_Source\PSoC5/ADC_SAR_2_IRQ.c **** *
 278:.\Generated_Source\PSoC5/ADC_SAR_2_IRQ.c **** * Parameters:
 279:.\Generated_Source\PSoC5/ADC_SAR_2_IRQ.c **** *   None
 280:.\Generated_Source\PSoC5/ADC_SAR_2_IRQ.c **** *
 281:.\Generated_Source\PSoC5/ADC_SAR_2_IRQ.c **** * Return:
 282:.\Generated_Source\PSoC5/ADC_SAR_2_IRQ.c **** *   1 if enabled, 0 if disabled.
 283:.\Generated_Source\PSoC5/ADC_SAR_2_IRQ.c **** *
 284:.\Generated_Source\PSoC5/ADC_SAR_2_IRQ.c **** *******************************************************************************/
 285:.\Generated_Source\PSoC5/ADC_SAR_2_IRQ.c **** uint8 ADC_SAR_2_IRQ_GetState(void)
 286:.\Generated_Source\PSoC5/ADC_SAR_2_IRQ.c **** {
 357              		.loc 1 286 0
 358              		.cfi_startproc
 359              		@ args = 0, pretend = 0, frame = 0
 360              		@ frame_needed = 1, uses_anonymous_args = 0
 361              		@ link register save eliminated.
 362 0000 80B4     		push	{r7}
 363              	.LCFI23:
 364              		.cfi_def_cfa_offset 4
 365              		.cfi_offset 7, -4
 366 0002 00AF     		add	r7, sp, #0
 367              	.LCFI24:
 368              		.cfi_def_cfa_register 7
 287:.\Generated_Source\PSoC5/ADC_SAR_2_IRQ.c ****     /* Get the state of the general interrupt. */
 288:.\Generated_Source\PSoC5/ADC_SAR_2_IRQ.c ****     return ((*ADC_SAR_2_IRQ_INTC_SET_EN & (uint32)ADC_SAR_2_IRQ__INTC_MASK) != 0u) ? 1u:0u;
 369              		.loc 1 288 0
 370 0004 4FF46143 		mov	r3, #57600
 371 0008 CEF20003 		movt	r3, 57344
 372 000c 1B68     		ldr	r3, [r3, #0]
 373 000e 03F00203 		and	r3, r3, #2
 374 0012 002B     		cmp	r3, #0
 375 0014 02D0     		beq	.L13
 376              		.loc 1 288 0 is_stmt 0 discriminator 1
 377 0016 4FF00103 		mov	r3, #1
 378 001a 01E0     		b	.L14
 379              	.L13:
 380              		.loc 1 288 0 discriminator 2
 381 001c 4FF00003 		mov	r3, #0
 382              	.L14:
 289:.\Generated_Source\PSoC5/ADC_SAR_2_IRQ.c **** }
 383              		.loc 1 289 0 is_stmt 1 discriminator 3
 384 0020 1846     		mov	r0, r3
 385 0022 BD46     		mov	sp, r7
 386 0024 80BC     		pop	{r7}
 387 0026 7047     		bx	lr
 388              		.cfi_endproc
 389              	.LFE9:
 390              		.size	ADC_SAR_2_IRQ_GetState, .-ADC_SAR_2_IRQ_GetState
 391              		.section	.text.ADC_SAR_2_IRQ_Disable,"ax",%progbits
 392              		.align	2
 393              		.global	ADC_SAR_2_IRQ_Disable
 394              		.thumb
 395              		.thumb_func
ARM GAS  C:\Users\Brian\AppData\Local\Temp\ccOB2bNc.s 			page 13


 396              		.type	ADC_SAR_2_IRQ_Disable, %function
 397              	ADC_SAR_2_IRQ_Disable:
 398              	.LFB10:
 290:.\Generated_Source\PSoC5/ADC_SAR_2_IRQ.c **** 
 291:.\Generated_Source\PSoC5/ADC_SAR_2_IRQ.c **** 
 292:.\Generated_Source\PSoC5/ADC_SAR_2_IRQ.c **** /*******************************************************************************
 293:.\Generated_Source\PSoC5/ADC_SAR_2_IRQ.c **** * Function Name: ADC_SAR_2_IRQ_Disable
 294:.\Generated_Source\PSoC5/ADC_SAR_2_IRQ.c **** ********************************************************************************
 295:.\Generated_Source\PSoC5/ADC_SAR_2_IRQ.c **** *
 296:.\Generated_Source\PSoC5/ADC_SAR_2_IRQ.c **** * Summary:
 297:.\Generated_Source\PSoC5/ADC_SAR_2_IRQ.c **** *   Disables the Interrupt.
 298:.\Generated_Source\PSoC5/ADC_SAR_2_IRQ.c **** *
 299:.\Generated_Source\PSoC5/ADC_SAR_2_IRQ.c **** * Parameters:
 300:.\Generated_Source\PSoC5/ADC_SAR_2_IRQ.c **** *   None
 301:.\Generated_Source\PSoC5/ADC_SAR_2_IRQ.c **** *
 302:.\Generated_Source\PSoC5/ADC_SAR_2_IRQ.c **** * Return:
 303:.\Generated_Source\PSoC5/ADC_SAR_2_IRQ.c **** *   None
 304:.\Generated_Source\PSoC5/ADC_SAR_2_IRQ.c **** *
 305:.\Generated_Source\PSoC5/ADC_SAR_2_IRQ.c **** *******************************************************************************/
 306:.\Generated_Source\PSoC5/ADC_SAR_2_IRQ.c **** void ADC_SAR_2_IRQ_Disable(void)
 307:.\Generated_Source\PSoC5/ADC_SAR_2_IRQ.c **** {
 399              		.loc 1 307 0
 400              		.cfi_startproc
 401              		@ args = 0, pretend = 0, frame = 0
 402              		@ frame_needed = 1, uses_anonymous_args = 0
 403              		@ link register save eliminated.
 404 0000 80B4     		push	{r7}
 405              	.LCFI25:
 406              		.cfi_def_cfa_offset 4
 407              		.cfi_offset 7, -4
 408 0002 00AF     		add	r7, sp, #0
 409              	.LCFI26:
 410              		.cfi_def_cfa_register 7
 308:.\Generated_Source\PSoC5/ADC_SAR_2_IRQ.c ****     /* Disable the general interrupt. */
 309:.\Generated_Source\PSoC5/ADC_SAR_2_IRQ.c ****     *ADC_SAR_2_IRQ_INTC_CLR_EN = ADC_SAR_2_IRQ__INTC_MASK;
 411              		.loc 1 309 0
 412 0004 4EF28013 		movw	r3, #57728
 413 0008 CEF20003 		movt	r3, 57344
 414 000c 4FF00202 		mov	r2, #2
 415 0010 1A60     		str	r2, [r3, #0]
 310:.\Generated_Source\PSoC5/ADC_SAR_2_IRQ.c **** }
 416              		.loc 1 310 0
 417 0012 BD46     		mov	sp, r7
 418 0014 80BC     		pop	{r7}
 419 0016 7047     		bx	lr
 420              		.cfi_endproc
 421              	.LFE10:
 422              		.size	ADC_SAR_2_IRQ_Disable, .-ADC_SAR_2_IRQ_Disable
 423              		.section	.text.ADC_SAR_2_IRQ_SetPending,"ax",%progbits
 424              		.align	2
 425              		.global	ADC_SAR_2_IRQ_SetPending
 426              		.thumb
 427              		.thumb_func
 428              		.type	ADC_SAR_2_IRQ_SetPending, %function
 429              	ADC_SAR_2_IRQ_SetPending:
 430              	.LFB11:
 311:.\Generated_Source\PSoC5/ADC_SAR_2_IRQ.c **** 
ARM GAS  C:\Users\Brian\AppData\Local\Temp\ccOB2bNc.s 			page 14


 312:.\Generated_Source\PSoC5/ADC_SAR_2_IRQ.c **** 
 313:.\Generated_Source\PSoC5/ADC_SAR_2_IRQ.c **** /*******************************************************************************
 314:.\Generated_Source\PSoC5/ADC_SAR_2_IRQ.c **** * Function Name: ADC_SAR_2_IRQ_SetPending
 315:.\Generated_Source\PSoC5/ADC_SAR_2_IRQ.c **** ********************************************************************************
 316:.\Generated_Source\PSoC5/ADC_SAR_2_IRQ.c **** *
 317:.\Generated_Source\PSoC5/ADC_SAR_2_IRQ.c **** * Summary:
 318:.\Generated_Source\PSoC5/ADC_SAR_2_IRQ.c **** *   Causes the Interrupt to enter the pending state, a software method of
 319:.\Generated_Source\PSoC5/ADC_SAR_2_IRQ.c **** *   generating the interrupt.
 320:.\Generated_Source\PSoC5/ADC_SAR_2_IRQ.c **** *
 321:.\Generated_Source\PSoC5/ADC_SAR_2_IRQ.c **** * Parameters:
 322:.\Generated_Source\PSoC5/ADC_SAR_2_IRQ.c **** *   None
 323:.\Generated_Source\PSoC5/ADC_SAR_2_IRQ.c **** *
 324:.\Generated_Source\PSoC5/ADC_SAR_2_IRQ.c **** * Return:
 325:.\Generated_Source\PSoC5/ADC_SAR_2_IRQ.c **** *   None
 326:.\Generated_Source\PSoC5/ADC_SAR_2_IRQ.c **** *
 327:.\Generated_Source\PSoC5/ADC_SAR_2_IRQ.c **** *******************************************************************************/
 328:.\Generated_Source\PSoC5/ADC_SAR_2_IRQ.c **** void ADC_SAR_2_IRQ_SetPending(void)
 329:.\Generated_Source\PSoC5/ADC_SAR_2_IRQ.c **** {
 431              		.loc 1 329 0
 432              		.cfi_startproc
 433              		@ args = 0, pretend = 0, frame = 0
 434              		@ frame_needed = 1, uses_anonymous_args = 0
 435              		@ link register save eliminated.
 436 0000 80B4     		push	{r7}
 437              	.LCFI27:
 438              		.cfi_def_cfa_offset 4
 439              		.cfi_offset 7, -4
 440 0002 00AF     		add	r7, sp, #0
 441              	.LCFI28:
 442              		.cfi_def_cfa_register 7
 330:.\Generated_Source\PSoC5/ADC_SAR_2_IRQ.c ****     *ADC_SAR_2_IRQ_INTC_SET_PD = ADC_SAR_2_IRQ__INTC_MASK;
 443              		.loc 1 330 0
 444 0004 4FF46243 		mov	r3, #57856
 445 0008 CEF20003 		movt	r3, 57344
 446 000c 4FF00202 		mov	r2, #2
 447 0010 1A60     		str	r2, [r3, #0]
 331:.\Generated_Source\PSoC5/ADC_SAR_2_IRQ.c **** }
 448              		.loc 1 331 0
 449 0012 BD46     		mov	sp, r7
 450 0014 80BC     		pop	{r7}
 451 0016 7047     		bx	lr
 452              		.cfi_endproc
 453              	.LFE11:
 454              		.size	ADC_SAR_2_IRQ_SetPending, .-ADC_SAR_2_IRQ_SetPending
 455              		.section	.text.ADC_SAR_2_IRQ_ClearPending,"ax",%progbits
 456              		.align	2
 457              		.global	ADC_SAR_2_IRQ_ClearPending
 458              		.thumb
 459              		.thumb_func
 460              		.type	ADC_SAR_2_IRQ_ClearPending, %function
 461              	ADC_SAR_2_IRQ_ClearPending:
 462              	.LFB12:
 332:.\Generated_Source\PSoC5/ADC_SAR_2_IRQ.c **** 
 333:.\Generated_Source\PSoC5/ADC_SAR_2_IRQ.c **** 
 334:.\Generated_Source\PSoC5/ADC_SAR_2_IRQ.c **** /*******************************************************************************
 335:.\Generated_Source\PSoC5/ADC_SAR_2_IRQ.c **** * Function Name: ADC_SAR_2_IRQ_ClearPending
 336:.\Generated_Source\PSoC5/ADC_SAR_2_IRQ.c **** ********************************************************************************
ARM GAS  C:\Users\Brian\AppData\Local\Temp\ccOB2bNc.s 			page 15


 337:.\Generated_Source\PSoC5/ADC_SAR_2_IRQ.c **** *
 338:.\Generated_Source\PSoC5/ADC_SAR_2_IRQ.c **** * Summary:
 339:.\Generated_Source\PSoC5/ADC_SAR_2_IRQ.c **** *   Clears a pending interrupt.
 340:.\Generated_Source\PSoC5/ADC_SAR_2_IRQ.c **** *
 341:.\Generated_Source\PSoC5/ADC_SAR_2_IRQ.c **** * Parameters:
 342:.\Generated_Source\PSoC5/ADC_SAR_2_IRQ.c **** *   None
 343:.\Generated_Source\PSoC5/ADC_SAR_2_IRQ.c **** *
 344:.\Generated_Source\PSoC5/ADC_SAR_2_IRQ.c **** * Return:
 345:.\Generated_Source\PSoC5/ADC_SAR_2_IRQ.c **** *   None
 346:.\Generated_Source\PSoC5/ADC_SAR_2_IRQ.c **** *
 347:.\Generated_Source\PSoC5/ADC_SAR_2_IRQ.c **** *******************************************************************************/
 348:.\Generated_Source\PSoC5/ADC_SAR_2_IRQ.c **** void ADC_SAR_2_IRQ_ClearPending(void)
 349:.\Generated_Source\PSoC5/ADC_SAR_2_IRQ.c **** {
 463              		.loc 1 349 0
 464              		.cfi_startproc
 465              		@ args = 0, pretend = 0, frame = 0
 466              		@ frame_needed = 1, uses_anonymous_args = 0
 467              		@ link register save eliminated.
 468 0000 80B4     		push	{r7}
 469              	.LCFI29:
 470              		.cfi_def_cfa_offset 4
 471              		.cfi_offset 7, -4
 472 0002 00AF     		add	r7, sp, #0
 473              	.LCFI30:
 474              		.cfi_def_cfa_register 7
 350:.\Generated_Source\PSoC5/ADC_SAR_2_IRQ.c ****     *ADC_SAR_2_IRQ_INTC_CLR_PD = ADC_SAR_2_IRQ__INTC_MASK;
 475              		.loc 1 350 0
 476 0004 4EF28023 		movw	r3, #57984
 477 0008 CEF20003 		movt	r3, 57344
 478 000c 4FF00202 		mov	r2, #2
 479 0010 1A60     		str	r2, [r3, #0]
 351:.\Generated_Source\PSoC5/ADC_SAR_2_IRQ.c **** }
 480              		.loc 1 351 0
 481 0012 BD46     		mov	sp, r7
 482 0014 80BC     		pop	{r7}
 483 0016 7047     		bx	lr
 484              		.cfi_endproc
 485              	.LFE12:
 486              		.size	ADC_SAR_2_IRQ_ClearPending, .-ADC_SAR_2_IRQ_ClearPending
 487              		.text
 488              	.Letext0:
 489              		.file 2 "./Generated_Source/PSoC5/cytypes.h"