ARM GAS  C:\Users\Brian\AppData\Local\Temp\ccTj2tfG.s 			page 1


   1              		.syntax unified
   2              		.cpu cortex-m3
   3              		.fpu softvfp
   4              		.eabi_attribute 20, 1
   5              		.eabi_attribute 21, 1
   6              		.eabi_attribute 23, 3
   7              		.eabi_attribute 24, 1
   8              		.eabi_attribute 25, 1
   9              		.eabi_attribute 26, 1
  10              		.eabi_attribute 30, 6
  11              		.eabi_attribute 34, 1
  12              		.eabi_attribute 18, 4
  13              		.thumb
  14              		.file	"cyfitter_cfg.c"
  15              		.text
  16              	.Ltext0:
  17              		.cfi_sections	.debug_frame
  18              		.section	.text.CYMEMZERO,"ax",%progbits
  19              		.align	2
  20              		.thumb
  21              		.thumb_func
  22              		.type	CYMEMZERO, %function
  23              	CYMEMZERO:
  24              	.LFB0:
  25              		.file 1 ".\\Generated_Source\\PSoC5\\cyfitter_cfg.c"
   1:.\Generated_Source\PSoC5/cyfitter_cfg.c **** /*******************************************************************************
   2:.\Generated_Source\PSoC5/cyfitter_cfg.c **** * FILENAME: cyfitter_cfg.c
   3:.\Generated_Source\PSoC5/cyfitter_cfg.c **** * PSoC Creator 3.0 SP1
   4:.\Generated_Source\PSoC5/cyfitter_cfg.c **** *
   5:.\Generated_Source\PSoC5/cyfitter_cfg.c **** * Description:
   6:.\Generated_Source\PSoC5/cyfitter_cfg.c **** * This file is automatically generated by PSoC Creator with device 
   7:.\Generated_Source\PSoC5/cyfitter_cfg.c **** * initialization code.  Except for the user defined sections in
   8:.\Generated_Source\PSoC5/cyfitter_cfg.c **** * CyClockStartupError(), this file should not be modified.
   9:.\Generated_Source\PSoC5/cyfitter_cfg.c **** *
  10:.\Generated_Source\PSoC5/cyfitter_cfg.c **** ********************************************************************************
  11:.\Generated_Source\PSoC5/cyfitter_cfg.c **** * Copyright 2013, Cypress Semiconductor Corporation.  All rights reserved.
  12:.\Generated_Source\PSoC5/cyfitter_cfg.c **** * You may use this file only in accordance with the license, terms, conditions, 
  13:.\Generated_Source\PSoC5/cyfitter_cfg.c **** * disclaimers, and limitations in the end user license agreement accompanying 
  14:.\Generated_Source\PSoC5/cyfitter_cfg.c **** * the software package with which this file was provided.
  15:.\Generated_Source\PSoC5/cyfitter_cfg.c **** ********************************************************************************/
  16:.\Generated_Source\PSoC5/cyfitter_cfg.c **** 
  17:.\Generated_Source\PSoC5/cyfitter_cfg.c **** #include <string.h>
  18:.\Generated_Source\PSoC5/cyfitter_cfg.c **** #include <cytypes.h>
  19:.\Generated_Source\PSoC5/cyfitter_cfg.c **** #include <cydevice_trm.h>
  20:.\Generated_Source\PSoC5/cyfitter_cfg.c **** #include <cyfitter.h>
  21:.\Generated_Source\PSoC5/cyfitter_cfg.c **** #include <CyLib.h>
  22:.\Generated_Source\PSoC5/cyfitter_cfg.c **** #include <cyfitter_cfg.h>
  23:.\Generated_Source\PSoC5/cyfitter_cfg.c **** 
  24:.\Generated_Source\PSoC5/cyfitter_cfg.c **** #define CY_NEED_CYCLOCKSTARTUPERROR 1
  25:.\Generated_Source\PSoC5/cyfitter_cfg.c **** 
  26:.\Generated_Source\PSoC5/cyfitter_cfg.c **** 
  27:.\Generated_Source\PSoC5/cyfitter_cfg.c **** #if defined(__GNUC__) || defined(__ARMCC_VERSION)
  28:.\Generated_Source\PSoC5/cyfitter_cfg.c ****     #define CYPACKED 
  29:.\Generated_Source\PSoC5/cyfitter_cfg.c ****     #define CYPACKED_ATTR __attribute__ ((packed))
  30:.\Generated_Source\PSoC5/cyfitter_cfg.c ****     #define CYALIGNED __attribute__ ((aligned))
  31:.\Generated_Source\PSoC5/cyfitter_cfg.c ****     #define CY_CFG_UNUSED __attribute__ ((unused))
  32:.\Generated_Source\PSoC5/cyfitter_cfg.c ****     #define CY_CFG_SECTION __attribute__ ((section(".psocinit")))
ARM GAS  C:\Users\Brian\AppData\Local\Temp\ccTj2tfG.s 			page 2


  33:.\Generated_Source\PSoC5/cyfitter_cfg.c ****     
  34:.\Generated_Source\PSoC5/cyfitter_cfg.c ****     #if defined(__ARMCC_VERSION)
  35:.\Generated_Source\PSoC5/cyfitter_cfg.c ****         #define CY_CFG_MEMORY_BARRIER() __memory_changed()
  36:.\Generated_Source\PSoC5/cyfitter_cfg.c ****     #else
  37:.\Generated_Source\PSoC5/cyfitter_cfg.c ****         #define CY_CFG_MEMORY_BARRIER() __sync_synchronize()
  38:.\Generated_Source\PSoC5/cyfitter_cfg.c ****     #endif
  39:.\Generated_Source\PSoC5/cyfitter_cfg.c ****     
  40:.\Generated_Source\PSoC5/cyfitter_cfg.c **** #elif defined(__ICCARM__)
  41:.\Generated_Source\PSoC5/cyfitter_cfg.c ****     #include <intrinsics.h>
  42:.\Generated_Source\PSoC5/cyfitter_cfg.c **** 
  43:.\Generated_Source\PSoC5/cyfitter_cfg.c ****     #define CYPACKED __packed
  44:.\Generated_Source\PSoC5/cyfitter_cfg.c ****     #define CYPACKED_ATTR 
  45:.\Generated_Source\PSoC5/cyfitter_cfg.c ****     #define CYALIGNED _Pragma("data_alignment=4")
  46:.\Generated_Source\PSoC5/cyfitter_cfg.c ****     #define CY_CFG_UNUSED _Pragma("diag_suppress=Pe177")
  47:.\Generated_Source\PSoC5/cyfitter_cfg.c ****     #define CY_CFG_SECTION _Pragma("location=\".psocinit\"")
  48:.\Generated_Source\PSoC5/cyfitter_cfg.c ****     
  49:.\Generated_Source\PSoC5/cyfitter_cfg.c ****     #define CY_CFG_MEMORY_BARRIER() __DMB()
  50:.\Generated_Source\PSoC5/cyfitter_cfg.c ****     
  51:.\Generated_Source\PSoC5/cyfitter_cfg.c **** #else
  52:.\Generated_Source\PSoC5/cyfitter_cfg.c ****     #error Unsupported toolchain
  53:.\Generated_Source\PSoC5/cyfitter_cfg.c **** #endif
  54:.\Generated_Source\PSoC5/cyfitter_cfg.c **** 
  55:.\Generated_Source\PSoC5/cyfitter_cfg.c **** #if defined(__ARMCC_VERSION)
  56:.\Generated_Source\PSoC5/cyfitter_cfg.c ****     extern unsigned int Load$$LR$$CYCONFIGECC$$Base;
  57:.\Generated_Source\PSoC5/cyfitter_cfg.c ****     #pragma diag_suppress 170,1296
  58:.\Generated_Source\PSoC5/cyfitter_cfg.c ****     #define CYDEV_ECC_VIRT_BASE 0x80000000
  59:.\Generated_Source\PSoC5/cyfitter_cfg.c ****     #define CYAPP_ECC_OFFSET ((uint32)&Load$$LR$$CYCONFIGECC$$Base - CYDEV_ECC_VIRT_BASE)
  60:.\Generated_Source\PSoC5/cyfitter_cfg.c **** #elif defined (__GNUC__) || defined (__ICCARM__)
  61:.\Generated_Source\PSoC5/cyfitter_cfg.c ****     extern int CY_ECC_OFFSET;
  62:.\Generated_Source\PSoC5/cyfitter_cfg.c ****     #define CYAPP_ECC_OFFSET ((uint32)&CY_ECC_OFFSET)
  63:.\Generated_Source\PSoC5/cyfitter_cfg.c **** #endif
  64:.\Generated_Source\PSoC5/cyfitter_cfg.c **** 
  65:.\Generated_Source\PSoC5/cyfitter_cfg.c **** CY_CFG_UNUSED
  66:.\Generated_Source\PSoC5/cyfitter_cfg.c **** static void CYMEMZERO(void *s, size_t n);
  67:.\Generated_Source\PSoC5/cyfitter_cfg.c **** CY_CFG_UNUSED
  68:.\Generated_Source\PSoC5/cyfitter_cfg.c **** static void CYMEMZERO(void *s, size_t n)
  69:.\Generated_Source\PSoC5/cyfitter_cfg.c **** {
  26              		.loc 1 69 0
  27              		.cfi_startproc
  28              		@ args = 0, pretend = 0, frame = 8
  29              		@ frame_needed = 1, uses_anonymous_args = 0
  30 0000 80B5     		push	{r7, lr}
  31              	.LCFI0:
  32              		.cfi_def_cfa_offset 8
  33              		.cfi_offset 7, -8
  34              		.cfi_offset 14, -4
  35 0002 82B0     		sub	sp, sp, #8
  36              	.LCFI1:
  37              		.cfi_def_cfa_offset 16
  38 0004 00AF     		add	r7, sp, #0
  39              	.LCFI2:
  40              		.cfi_def_cfa_register 7
  41 0006 7860     		str	r0, [r7, #4]
  42 0008 3960     		str	r1, [r7, #0]
  70:.\Generated_Source\PSoC5/cyfitter_cfg.c **** 	(void)memset(s, 0, n);
  43              		.loc 1 70 0
  44 000a 7868     		ldr	r0, [r7, #4]
ARM GAS  C:\Users\Brian\AppData\Local\Temp\ccTj2tfG.s 			page 3


  45 000c 4FF00001 		mov	r1, #0
  46 0010 3A68     		ldr	r2, [r7, #0]
  47 0012 FFF7FEFF 		bl	memset
  71:.\Generated_Source\PSoC5/cyfitter_cfg.c **** }
  48              		.loc 1 71 0
  49 0016 07F10807 		add	r7, r7, #8
  50 001a BD46     		mov	sp, r7
  51 001c 80BD     		pop	{r7, pc}
  52              		.cfi_endproc
  53              	.LFE0:
  54              		.size	CYMEMZERO, .-CYMEMZERO
  55 001e 00BF     		.section	.text.CYCONFIGCPY,"ax",%progbits
  56              		.align	2
  57              		.thumb
  58              		.thumb_func
  59              		.type	CYCONFIGCPY, %function
  60              	CYCONFIGCPY:
  61              	.LFB1:
  72:.\Generated_Source\PSoC5/cyfitter_cfg.c **** CY_CFG_UNUSED
  73:.\Generated_Source\PSoC5/cyfitter_cfg.c **** static void CYCONFIGCPY(void *dest, const void *src, size_t n);
  74:.\Generated_Source\PSoC5/cyfitter_cfg.c **** CY_CFG_UNUSED
  75:.\Generated_Source\PSoC5/cyfitter_cfg.c **** static void CYCONFIGCPY(void *dest, const void *src, size_t n)
  76:.\Generated_Source\PSoC5/cyfitter_cfg.c **** {
  62              		.loc 1 76 0
  63              		.cfi_startproc
  64              		@ args = 0, pretend = 0, frame = 16
  65              		@ frame_needed = 1, uses_anonymous_args = 0
  66 0000 80B5     		push	{r7, lr}
  67              	.LCFI3:
  68              		.cfi_def_cfa_offset 8
  69              		.cfi_offset 7, -8
  70              		.cfi_offset 14, -4
  71 0002 84B0     		sub	sp, sp, #16
  72              	.LCFI4:
  73              		.cfi_def_cfa_offset 24
  74 0004 00AF     		add	r7, sp, #0
  75              	.LCFI5:
  76              		.cfi_def_cfa_register 7
  77 0006 F860     		str	r0, [r7, #12]
  78 0008 B960     		str	r1, [r7, #8]
  79 000a 7A60     		str	r2, [r7, #4]
  77:.\Generated_Source\PSoC5/cyfitter_cfg.c **** 	(void)memcpy(dest, src, n);
  80              		.loc 1 77 0
  81 000c F868     		ldr	r0, [r7, #12]
  82 000e B968     		ldr	r1, [r7, #8]
  83 0010 7A68     		ldr	r2, [r7, #4]
  84 0012 FFF7FEFF 		bl	memcpy
  78:.\Generated_Source\PSoC5/cyfitter_cfg.c **** }
  85              		.loc 1 78 0
  86 0016 07F11007 		add	r7, r7, #16
  87 001a BD46     		mov	sp, r7
  88 001c 80BD     		pop	{r7, pc}
  89              		.cfi_endproc
  90              	.LFE1:
  91              		.size	CYCONFIGCPY, .-CYCONFIGCPY
  92 001e 00BF     		.section	.text.CYCONFIGCPYCODE,"ax",%progbits
  93              		.align	2
ARM GAS  C:\Users\Brian\AppData\Local\Temp\ccTj2tfG.s 			page 4


  94              		.thumb
  95              		.thumb_func
  96              		.type	CYCONFIGCPYCODE, %function
  97              	CYCONFIGCPYCODE:
  98              	.LFB2:
  79:.\Generated_Source\PSoC5/cyfitter_cfg.c **** CY_CFG_UNUSED
  80:.\Generated_Source\PSoC5/cyfitter_cfg.c **** static void CYCONFIGCPYCODE(void *dest, const void *src, size_t n);
  81:.\Generated_Source\PSoC5/cyfitter_cfg.c **** CY_CFG_UNUSED
  82:.\Generated_Source\PSoC5/cyfitter_cfg.c **** static void CYCONFIGCPYCODE(void *dest, const void *src, size_t n)
  83:.\Generated_Source\PSoC5/cyfitter_cfg.c **** {
  99              		.loc 1 83 0
 100              		.cfi_startproc
 101              		@ args = 0, pretend = 0, frame = 16
 102              		@ frame_needed = 1, uses_anonymous_args = 0
 103 0000 80B5     		push	{r7, lr}
 104              	.LCFI6:
 105              		.cfi_def_cfa_offset 8
 106              		.cfi_offset 7, -8
 107              		.cfi_offset 14, -4
 108 0002 84B0     		sub	sp, sp, #16
 109              	.LCFI7:
 110              		.cfi_def_cfa_offset 24
 111 0004 00AF     		add	r7, sp, #0
 112              	.LCFI8:
 113              		.cfi_def_cfa_register 7
 114 0006 F860     		str	r0, [r7, #12]
 115 0008 B960     		str	r1, [r7, #8]
 116 000a 7A60     		str	r2, [r7, #4]
  84:.\Generated_Source\PSoC5/cyfitter_cfg.c **** 	(void)memcpy(dest, src, n);
 117              		.loc 1 84 0
 118 000c F868     		ldr	r0, [r7, #12]
 119 000e B968     		ldr	r1, [r7, #8]
 120 0010 7A68     		ldr	r2, [r7, #4]
 121 0012 FFF7FEFF 		bl	memcpy
  85:.\Generated_Source\PSoC5/cyfitter_cfg.c **** }
 122              		.loc 1 85 0
 123 0016 07F11007 		add	r7, r7, #16
 124 001a BD46     		mov	sp, r7
 125 001c 80BD     		pop	{r7, pc}
 126              		.cfi_endproc
 127              	.LFE2:
 128              		.size	CYCONFIGCPYCODE, .-CYCONFIGCPYCODE
 129 001e 00BF     		.section	.text.CyClockStartupError,"ax",%progbits
 130              		.align	2
 131              		.thumb
 132              		.thumb_func
 133              		.type	CyClockStartupError, %function
 134              	CyClockStartupError:
 135              	.LFB3:
  86:.\Generated_Source\PSoC5/cyfitter_cfg.c **** 
  87:.\Generated_Source\PSoC5/cyfitter_cfg.c **** 
  88:.\Generated_Source\PSoC5/cyfitter_cfg.c **** 
  89:.\Generated_Source\PSoC5/cyfitter_cfg.c **** /* Clock startup error codes                                                   */
  90:.\Generated_Source\PSoC5/cyfitter_cfg.c **** #define CYCLOCKSTART_NO_ERROR    0u
  91:.\Generated_Source\PSoC5/cyfitter_cfg.c **** #define CYCLOCKSTART_XTAL_ERROR  1u
  92:.\Generated_Source\PSoC5/cyfitter_cfg.c **** #define CYCLOCKSTART_32KHZ_ERROR 2u
  93:.\Generated_Source\PSoC5/cyfitter_cfg.c **** #define CYCLOCKSTART_PLL_ERROR   3u
ARM GAS  C:\Users\Brian\AppData\Local\Temp\ccTj2tfG.s 			page 5


  94:.\Generated_Source\PSoC5/cyfitter_cfg.c **** 
  95:.\Generated_Source\PSoC5/cyfitter_cfg.c **** #ifdef CY_NEED_CYCLOCKSTARTUPERROR
  96:.\Generated_Source\PSoC5/cyfitter_cfg.c **** /*******************************************************************************
  97:.\Generated_Source\PSoC5/cyfitter_cfg.c **** * Function Name: CyClockStartupError
  98:.\Generated_Source\PSoC5/cyfitter_cfg.c **** ********************************************************************************
  99:.\Generated_Source\PSoC5/cyfitter_cfg.c **** * Summary:
 100:.\Generated_Source\PSoC5/cyfitter_cfg.c **** *  If an error is encountered during clock configuration (crystal startup error,
 101:.\Generated_Source\PSoC5/cyfitter_cfg.c **** *  PLL lock error, etc.), the system will end up here.  Unless reimplemented by
 102:.\Generated_Source\PSoC5/cyfitter_cfg.c **** *  the customer, this function will stop in an infinite loop.
 103:.\Generated_Source\PSoC5/cyfitter_cfg.c **** *
 104:.\Generated_Source\PSoC5/cyfitter_cfg.c **** * Parameters:
 105:.\Generated_Source\PSoC5/cyfitter_cfg.c **** *   void
 106:.\Generated_Source\PSoC5/cyfitter_cfg.c **** *
 107:.\Generated_Source\PSoC5/cyfitter_cfg.c **** * Return:
 108:.\Generated_Source\PSoC5/cyfitter_cfg.c **** *   void
 109:.\Generated_Source\PSoC5/cyfitter_cfg.c **** *
 110:.\Generated_Source\PSoC5/cyfitter_cfg.c **** *******************************************************************************/
 111:.\Generated_Source\PSoC5/cyfitter_cfg.c **** CY_CFG_UNUSED
 112:.\Generated_Source\PSoC5/cyfitter_cfg.c **** static void CyClockStartupError(uint8 errorCode);
 113:.\Generated_Source\PSoC5/cyfitter_cfg.c **** CY_CFG_UNUSED
 114:.\Generated_Source\PSoC5/cyfitter_cfg.c **** static void CyClockStartupError(uint8 errorCode)
 115:.\Generated_Source\PSoC5/cyfitter_cfg.c **** {
 136              		.loc 1 115 0
 137              		.cfi_startproc
 138              		@ args = 0, pretend = 0, frame = 8
 139              		@ frame_needed = 1, uses_anonymous_args = 0
 140              		@ link register save eliminated.
 141 0000 80B4     		push	{r7}
 142              	.LCFI9:
 143              		.cfi_def_cfa_offset 4
 144              		.cfi_offset 7, -4
 145 0002 83B0     		sub	sp, sp, #12
 146              	.LCFI10:
 147              		.cfi_def_cfa_offset 16
 148 0004 00AF     		add	r7, sp, #0
 149              	.LCFI11:
 150              		.cfi_def_cfa_register 7
 151 0006 0346     		mov	r3, r0
 152 0008 FB71     		strb	r3, [r7, #7]
 153              	.L5:
 116:.\Generated_Source\PSoC5/cyfitter_cfg.c ****     /* To remove the compiler warning if errorCode not used.                */
 117:.\Generated_Source\PSoC5/cyfitter_cfg.c ****     errorCode = errorCode;
 118:.\Generated_Source\PSoC5/cyfitter_cfg.c **** 
 119:.\Generated_Source\PSoC5/cyfitter_cfg.c ****     /* `#START CyClockStartupError` */
 120:.\Generated_Source\PSoC5/cyfitter_cfg.c **** 
 121:.\Generated_Source\PSoC5/cyfitter_cfg.c ****     /* If we have a clock startup error (bad MHz crystal, PLL lock, etc.),  */
 122:.\Generated_Source\PSoC5/cyfitter_cfg.c ****     /* we will end up here to allow the customer to implement something to  */
 123:.\Generated_Source\PSoC5/cyfitter_cfg.c ****     /* deal with the clock condition.                                       */
 124:.\Generated_Source\PSoC5/cyfitter_cfg.c **** 
 125:.\Generated_Source\PSoC5/cyfitter_cfg.c ****     /* `#END` */
 126:.\Generated_Source\PSoC5/cyfitter_cfg.c **** 
 127:.\Generated_Source\PSoC5/cyfitter_cfg.c ****     /* If nothing else, stop here since the clocks have not started         */
 128:.\Generated_Source\PSoC5/cyfitter_cfg.c ****     /* correctly.                                                           */
 129:.\Generated_Source\PSoC5/cyfitter_cfg.c ****     while(1) {}
 154              		.loc 1 129 0 discriminator 1
 155 000a FEE7     		b	.L5
 156              		.cfi_endproc
ARM GAS  C:\Users\Brian\AppData\Local\Temp\ccTj2tfG.s 			page 6


 157              	.LFE3:
 158              		.size	CyClockStartupError, .-CyClockStartupError
 159              		.section	.text.cfg_write_bytes32,"ax",%progbits
 160              		.align	2
 161              		.thumb
 162              		.thumb_func
 163              		.type	cfg_write_bytes32, %function
 164              	cfg_write_bytes32:
 165              	.LFB4:
 130:.\Generated_Source\PSoC5/cyfitter_cfg.c **** }
 131:.\Generated_Source\PSoC5/cyfitter_cfg.c **** #endif
 132:.\Generated_Source\PSoC5/cyfitter_cfg.c **** 
 133:.\Generated_Source\PSoC5/cyfitter_cfg.c **** #define CY_CFG_BASE_ADDR_COUNT 41u
 134:.\Generated_Source\PSoC5/cyfitter_cfg.c **** CYPACKED typedef struct
 135:.\Generated_Source\PSoC5/cyfitter_cfg.c **** {
 136:.\Generated_Source\PSoC5/cyfitter_cfg.c **** 	uint8 offset;
 137:.\Generated_Source\PSoC5/cyfitter_cfg.c **** 	uint8 value;
 138:.\Generated_Source\PSoC5/cyfitter_cfg.c **** } CYPACKED_ATTR cy_cfg_addrvalue_t;
 139:.\Generated_Source\PSoC5/cyfitter_cfg.c **** 
 140:.\Generated_Source\PSoC5/cyfitter_cfg.c **** #define cy_cfg_addr_table ((const uint32 CYFAR *)(0x48000000u + CYAPP_ECC_OFFSET))
 141:.\Generated_Source\PSoC5/cyfitter_cfg.c **** #define cy_cfg_data_table ((const cy_cfg_addrvalue_t CYFAR *)(0x480000A4u + CYAPP_ECC_OFFSET))
 142:.\Generated_Source\PSoC5/cyfitter_cfg.c **** 
 143:.\Generated_Source\PSoC5/cyfitter_cfg.c **** /* IOPINS0_0 Address: CYREG_PRT0_DM0 Size (bytes): 8 */
 144:.\Generated_Source\PSoC5/cyfitter_cfg.c **** #define BS_IOPINS0_0_VAL ((const uint8 CYFAR *)(0x48000B90u + CYAPP_ECC_OFFSET))
 145:.\Generated_Source\PSoC5/cyfitter_cfg.c **** 
 146:.\Generated_Source\PSoC5/cyfitter_cfg.c **** /* IOPINS0_7 Address: CYREG_PRT12_DM0 Size (bytes): 8 */
 147:.\Generated_Source\PSoC5/cyfitter_cfg.c **** #define BS_IOPINS0_7_VAL ((const uint8 CYFAR *)(0x48000B98u + CYAPP_ECC_OFFSET))
 148:.\Generated_Source\PSoC5/cyfitter_cfg.c **** 
 149:.\Generated_Source\PSoC5/cyfitter_cfg.c **** /* IOPINS0_8 Address: CYREG_PRT15_DM0 Size (bytes): 8 */
 150:.\Generated_Source\PSoC5/cyfitter_cfg.c **** #define BS_IOPINS0_8_VAL ((const uint8 CYFAR *)(0x48000BA0u + CYAPP_ECC_OFFSET))
 151:.\Generated_Source\PSoC5/cyfitter_cfg.c **** 
 152:.\Generated_Source\PSoC5/cyfitter_cfg.c **** /* IOPINS0_1 Address: CYREG_PRT1_DR Size (bytes): 10 */
 153:.\Generated_Source\PSoC5/cyfitter_cfg.c **** #define BS_IOPINS0_1_VAL ((const uint8 CYFAR *)(0x48000BA8u + CYAPP_ECC_OFFSET))
 154:.\Generated_Source\PSoC5/cyfitter_cfg.c **** 
 155:.\Generated_Source\PSoC5/cyfitter_cfg.c **** /* IOPINS0_2 Address: CYREG_PRT2_DM0 Size (bytes): 8 */
 156:.\Generated_Source\PSoC5/cyfitter_cfg.c **** #define BS_IOPINS0_2_VAL ((const uint8 CYFAR *)(0x48000BB4u + CYAPP_ECC_OFFSET))
 157:.\Generated_Source\PSoC5/cyfitter_cfg.c **** 
 158:.\Generated_Source\PSoC5/cyfitter_cfg.c **** /* IOPINS0_3 Address: CYREG_PRT3_DM0 Size (bytes): 8 */
 159:.\Generated_Source\PSoC5/cyfitter_cfg.c **** #define BS_IOPINS0_3_VAL ((const uint8 CYFAR *)(0x48000BBCu + CYAPP_ECC_OFFSET))
 160:.\Generated_Source\PSoC5/cyfitter_cfg.c **** 
 161:.\Generated_Source\PSoC5/cyfitter_cfg.c **** /* IOPINS0_4 Address: CYREG_PRT4_DM0 Size (bytes): 8 */
 162:.\Generated_Source\PSoC5/cyfitter_cfg.c **** #define BS_IOPINS0_4_VAL ((const uint8 CYFAR *)(0x48000BC4u + CYAPP_ECC_OFFSET))
 163:.\Generated_Source\PSoC5/cyfitter_cfg.c **** 
 164:.\Generated_Source\PSoC5/cyfitter_cfg.c **** /* IOPINS0_5 Address: CYREG_PRT5_DM0 Size (bytes): 8 */
 165:.\Generated_Source\PSoC5/cyfitter_cfg.c **** #define BS_IOPINS0_5_VAL ((const uint8 CYFAR *)(0x48000BCCu + CYAPP_ECC_OFFSET))
 166:.\Generated_Source\PSoC5/cyfitter_cfg.c **** 
 167:.\Generated_Source\PSoC5/cyfitter_cfg.c **** /* IOPINS0_6 Address: CYREG_PRT6_DM0 Size (bytes): 8 */
 168:.\Generated_Source\PSoC5/cyfitter_cfg.c **** #define BS_IOPINS0_6_VAL ((const uint8 CYFAR *)(0x48000BD4u + CYAPP_ECC_OFFSET))
 169:.\Generated_Source\PSoC5/cyfitter_cfg.c **** 
 170:.\Generated_Source\PSoC5/cyfitter_cfg.c **** /* CYDEV_CLKDIST_ACFG0_CFG0 Address: CYREG_CLKDIST_ACFG0_CFG0 Size (bytes): 12 */
 171:.\Generated_Source\PSoC5/cyfitter_cfg.c **** #define BS_CYDEV_CLKDIST_ACFG0_CFG0_VAL ((const uint8 CYFAR *)(0x48000BDCu + CYAPP_ECC_OFFSET))
 172:.\Generated_Source\PSoC5/cyfitter_cfg.c **** 
 173:.\Generated_Source\PSoC5/cyfitter_cfg.c **** 
 174:.\Generated_Source\PSoC5/cyfitter_cfg.c **** /*******************************************************************************
 175:.\Generated_Source\PSoC5/cyfitter_cfg.c **** * Function Name: cfg_write_bytes32
 176:.\Generated_Source\PSoC5/cyfitter_cfg.c **** ********************************************************************************
 177:.\Generated_Source\PSoC5/cyfitter_cfg.c **** * Summary:
ARM GAS  C:\Users\Brian\AppData\Local\Temp\ccTj2tfG.s 			page 7


 178:.\Generated_Source\PSoC5/cyfitter_cfg.c **** *  This function is used for setting up the chip configuration areas that
 179:.\Generated_Source\PSoC5/cyfitter_cfg.c **** *  contain relatively sparse data.
 180:.\Generated_Source\PSoC5/cyfitter_cfg.c **** *
 181:.\Generated_Source\PSoC5/cyfitter_cfg.c **** * Parameters:
 182:.\Generated_Source\PSoC5/cyfitter_cfg.c **** *   void
 183:.\Generated_Source\PSoC5/cyfitter_cfg.c **** *
 184:.\Generated_Source\PSoC5/cyfitter_cfg.c **** * Return:
 185:.\Generated_Source\PSoC5/cyfitter_cfg.c **** *   void
 186:.\Generated_Source\PSoC5/cyfitter_cfg.c **** *
 187:.\Generated_Source\PSoC5/cyfitter_cfg.c **** *******************************************************************************/
 188:.\Generated_Source\PSoC5/cyfitter_cfg.c **** static void cfg_write_bytes32(const uint32 addr_table[], const cy_cfg_addrvalue_t data_table[]);
 189:.\Generated_Source\PSoC5/cyfitter_cfg.c **** static void cfg_write_bytes32(const uint32 addr_table[], const cy_cfg_addrvalue_t data_table[])
 190:.\Generated_Source\PSoC5/cyfitter_cfg.c **** {
 166              		.loc 1 190 0
 167              		.cfi_startproc
 168              		@ args = 0, pretend = 0, frame = 24
 169              		@ frame_needed = 1, uses_anonymous_args = 0
 170              		@ link register save eliminated.
 171 0000 80B4     		push	{r7}
 172              	.LCFI12:
 173              		.cfi_def_cfa_offset 4
 174              		.cfi_offset 7, -4
 175 0002 87B0     		sub	sp, sp, #28
 176              	.LCFI13:
 177              		.cfi_def_cfa_offset 32
 178 0004 00AF     		add	r7, sp, #0
 179              	.LCFI14:
 180              		.cfi_def_cfa_register 7
 181 0006 7860     		str	r0, [r7, #4]
 182 0008 3960     		str	r1, [r7, #0]
 191:.\Generated_Source\PSoC5/cyfitter_cfg.c **** 	/* For 32-bit little-endian architectures */
 192:.\Generated_Source\PSoC5/cyfitter_cfg.c **** 	uint32 i, j = 0u;
 183              		.loc 1 192 0
 184 000a 4FF00003 		mov	r3, #0
 185 000e 3B61     		str	r3, [r7, #16]
 193:.\Generated_Source\PSoC5/cyfitter_cfg.c **** 	for (i = 0u; i < CY_CFG_BASE_ADDR_COUNT; i++)
 186              		.loc 1 193 0
 187 0010 4FF00003 		mov	r3, #0
 188 0014 7B61     		str	r3, [r7, #20]
 189 0016 2CE0     		b	.L7
 190              	.L10:
 191              	.LBB2:
 194:.\Generated_Source\PSoC5/cyfitter_cfg.c **** 	{
 195:.\Generated_Source\PSoC5/cyfitter_cfg.c **** 		uint32 baseAddr = addr_table[i];
 192              		.loc 1 195 0
 193 0018 7B69     		ldr	r3, [r7, #20]
 194 001a 4FEA8303 		lsl	r3, r3, #2
 195 001e 7A68     		ldr	r2, [r7, #4]
 196 0020 D318     		adds	r3, r2, r3
 197 0022 1B68     		ldr	r3, [r3, #0]
 198 0024 BB60     		str	r3, [r7, #8]
 196:.\Generated_Source\PSoC5/cyfitter_cfg.c **** 		uint8 count = (uint8)baseAddr;
 199              		.loc 1 196 0
 200 0026 BB68     		ldr	r3, [r7, #8]
 201 0028 FB73     		strb	r3, [r7, #15]
 197:.\Generated_Source\PSoC5/cyfitter_cfg.c **** 		baseAddr &= 0xFFFFFF00u;
 202              		.loc 1 197 0
ARM GAS  C:\Users\Brian\AppData\Local\Temp\ccTj2tfG.s 			page 8


 203 002a BB68     		ldr	r3, [r7, #8]
 204 002c 23F0FF03 		bic	r3, r3, #255
 205 0030 BB60     		str	r3, [r7, #8]
 198:.\Generated_Source\PSoC5/cyfitter_cfg.c **** 		while (count != 0u)
 206              		.loc 1 198 0
 207 0032 17E0     		b	.L8
 208              	.L9:
 199:.\Generated_Source\PSoC5/cyfitter_cfg.c **** 		{
 200:.\Generated_Source\PSoC5/cyfitter_cfg.c **** 			CY_SET_XTND_REG8((void CYFAR *)(baseAddr + data_table[j].offset), data_table[j].value);
 209              		.loc 1 200 0
 210 0034 3B69     		ldr	r3, [r7, #16]
 211 0036 4FEA4303 		lsl	r3, r3, #1
 212 003a 3A68     		ldr	r2, [r7, #0]
 213 003c D318     		adds	r3, r2, r3
 214 003e 1B78     		ldrb	r3, [r3, #0]	@ zero_extendqisi2
 215 0040 1A46     		mov	r2, r3
 216 0042 BB68     		ldr	r3, [r7, #8]
 217 0044 D318     		adds	r3, r2, r3
 218 0046 3A69     		ldr	r2, [r7, #16]
 219 0048 4FEA4202 		lsl	r2, r2, #1
 220 004c 3968     		ldr	r1, [r7, #0]
 221 004e 8A18     		adds	r2, r1, r2
 222 0050 5278     		ldrb	r2, [r2, #1]	@ zero_extendqisi2
 223 0052 1A70     		strb	r2, [r3, #0]
 201:.\Generated_Source\PSoC5/cyfitter_cfg.c **** 			j++;
 224              		.loc 1 201 0
 225 0054 3B69     		ldr	r3, [r7, #16]
 226 0056 03F10103 		add	r3, r3, #1
 227 005a 3B61     		str	r3, [r7, #16]
 202:.\Generated_Source\PSoC5/cyfitter_cfg.c **** 			count--;
 228              		.loc 1 202 0
 229 005c FB7B     		ldrb	r3, [r7, #15]
 230 005e 03F1FF33 		add	r3, r3, #-1
 231 0062 FB73     		strb	r3, [r7, #15]
 232              	.L8:
 198:.\Generated_Source\PSoC5/cyfitter_cfg.c **** 		while (count != 0u)
 233              		.loc 1 198 0 discriminator 1
 234 0064 FB7B     		ldrb	r3, [r7, #15]	@ zero_extendqisi2
 235 0066 002B     		cmp	r3, #0
 236 0068 E4D1     		bne	.L9
 237              	.LBE2:
 193:.\Generated_Source\PSoC5/cyfitter_cfg.c **** 	for (i = 0u; i < CY_CFG_BASE_ADDR_COUNT; i++)
 238              		.loc 1 193 0
 239 006a 7B69     		ldr	r3, [r7, #20]
 240 006c 03F10103 		add	r3, r3, #1
 241 0070 7B61     		str	r3, [r7, #20]
 242              	.L7:
 193:.\Generated_Source\PSoC5/cyfitter_cfg.c **** 	for (i = 0u; i < CY_CFG_BASE_ADDR_COUNT; i++)
 243              		.loc 1 193 0 is_stmt 0 discriminator 1
 244 0072 7B69     		ldr	r3, [r7, #20]
 245 0074 282B     		cmp	r3, #40
 246 0076 CFD9     		bls	.L10
 203:.\Generated_Source\PSoC5/cyfitter_cfg.c **** 		}
 204:.\Generated_Source\PSoC5/cyfitter_cfg.c **** 	}
 205:.\Generated_Source\PSoC5/cyfitter_cfg.c **** }
 247              		.loc 1 205 0 is_stmt 1
 248 0078 07F11C07 		add	r7, r7, #28
ARM GAS  C:\Users\Brian\AppData\Local\Temp\ccTj2tfG.s 			page 9


 249 007c BD46     		mov	sp, r7
 250 007e 80BC     		pop	{r7}
 251 0080 7047     		bx	lr
 252              		.cfi_endproc
 253              	.LFE4:
 254              		.size	cfg_write_bytes32, .-cfg_write_bytes32
 255 0082 00BF     		.section	.text.ClockSetup,"ax",%progbits
 256              		.align	2
 257              		.thumb
 258              		.thumb_func
 259              		.type	ClockSetup, %function
 260              	ClockSetup:
 261              	.LFB5:
 206:.\Generated_Source\PSoC5/cyfitter_cfg.c **** 
 207:.\Generated_Source\PSoC5/cyfitter_cfg.c **** /*******************************************************************************
 208:.\Generated_Source\PSoC5/cyfitter_cfg.c **** * Function Name: ClockSetup
 209:.\Generated_Source\PSoC5/cyfitter_cfg.c **** ********************************************************************************
 210:.\Generated_Source\PSoC5/cyfitter_cfg.c **** *
 211:.\Generated_Source\PSoC5/cyfitter_cfg.c **** * Summary:
 212:.\Generated_Source\PSoC5/cyfitter_cfg.c **** *  Performs the initialization of all of the clocks in the device based on the
 213:.\Generated_Source\PSoC5/cyfitter_cfg.c **** *  settings in the Clock tab of the DWR.  This includes enabling the requested
 214:.\Generated_Source\PSoC5/cyfitter_cfg.c **** *  clocks and setting the necessary dividers to produce the desired frequency. 
 215:.\Generated_Source\PSoC5/cyfitter_cfg.c **** *
 216:.\Generated_Source\PSoC5/cyfitter_cfg.c **** * Parameters:
 217:.\Generated_Source\PSoC5/cyfitter_cfg.c **** *  void
 218:.\Generated_Source\PSoC5/cyfitter_cfg.c **** *
 219:.\Generated_Source\PSoC5/cyfitter_cfg.c **** * Return:
 220:.\Generated_Source\PSoC5/cyfitter_cfg.c **** *  void
 221:.\Generated_Source\PSoC5/cyfitter_cfg.c **** *
 222:.\Generated_Source\PSoC5/cyfitter_cfg.c **** *******************************************************************************/
 223:.\Generated_Source\PSoC5/cyfitter_cfg.c **** static void ClockSetup(void);
 224:.\Generated_Source\PSoC5/cyfitter_cfg.c **** static void ClockSetup(void)
 225:.\Generated_Source\PSoC5/cyfitter_cfg.c **** {
 262              		.loc 1 225 0
 263              		.cfi_startproc
 264              		@ args = 0, pretend = 0, frame = 8
 265              		@ frame_needed = 1, uses_anonymous_args = 0
 266 0000 80B5     		push	{r7, lr}
 267              	.LCFI15:
 268              		.cfi_def_cfa_offset 8
 269              		.cfi_offset 7, -8
 270              		.cfi_offset 14, -4
 271 0002 82B0     		sub	sp, sp, #8
 272              	.LCFI16:
 273              		.cfi_def_cfa_offset 16
 274 0004 00AF     		add	r7, sp, #0
 275              	.LCFI17:
 276              		.cfi_def_cfa_register 7
 226:.\Generated_Source\PSoC5/cyfitter_cfg.c **** 	uint32 timeout;
 227:.\Generated_Source\PSoC5/cyfitter_cfg.c **** 	uint8 pllLock;
 228:.\Generated_Source\PSoC5/cyfitter_cfg.c **** 
 229:.\Generated_Source\PSoC5/cyfitter_cfg.c **** 
 230:.\Generated_Source\PSoC5/cyfitter_cfg.c **** 	/* Configure Digital Clocks based on settings from Clock DWR */
 231:.\Generated_Source\PSoC5/cyfitter_cfg.c **** 	CY_SET_XTND_REG16((void CYFAR *)(CYREG_CLKDIST_DCFG0_CFG0), 0x0017u);
 277              		.loc 1 231 0
 278 0006 4FF48143 		mov	r3, #16512
 279 000a C4F20003 		movt	r3, 16384
ARM GAS  C:\Users\Brian\AppData\Local\Temp\ccTj2tfG.s 			page 10


 280 000e 4FF01702 		mov	r2, #23
 281 0012 1A80     		strh	r2, [r3, #0]	@ movhi
 232:.\Generated_Source\PSoC5/cyfitter_cfg.c **** 	CY_SET_XTND_REG8((void CYFAR *)(CYREG_CLKDIST_DCFG0_CFG0 + 0x2u), 0x18u);
 282              		.loc 1 232 0
 283 0014 44F28203 		movw	r3, #16514
 284 0018 C4F20003 		movt	r3, 16384
 285 001c 4FF01802 		mov	r2, #24
 286 0020 1A70     		strb	r2, [r3, #0]
 233:.\Generated_Source\PSoC5/cyfitter_cfg.c **** 	CY_SET_XTND_REG16((void CYFAR *)(CYREG_CLKDIST_DCFG1_CFG0), 0x000Bu);
 287              		.loc 1 233 0
 288 0022 44F28403 		movw	r3, #16516
 289 0026 C4F20003 		movt	r3, 16384
 290 002a 4FF00B02 		mov	r2, #11
 291 002e 1A80     		strh	r2, [r3, #0]	@ movhi
 234:.\Generated_Source\PSoC5/cyfitter_cfg.c **** 	CY_SET_XTND_REG8((void CYFAR *)(CYREG_CLKDIST_DCFG1_CFG0 + 0x2u), 0x19u);
 292              		.loc 1 234 0
 293 0030 44F28603 		movw	r3, #16518
 294 0034 C4F20003 		movt	r3, 16384
 295 0038 4FF01902 		mov	r2, #25
 296 003c 1A70     		strb	r2, [r3, #0]
 235:.\Generated_Source\PSoC5/cyfitter_cfg.c **** 	CY_SET_XTND_REG16((void CYFAR *)(CYREG_CLKDIST_DCFG2_CFG0), 0x0017u);
 297              		.loc 1 235 0
 298 003e 44F28803 		movw	r3, #16520
 299 0042 C4F20003 		movt	r3, 16384
 300 0046 4FF01702 		mov	r2, #23
 301 004a 1A80     		strh	r2, [r3, #0]	@ movhi
 236:.\Generated_Source\PSoC5/cyfitter_cfg.c **** 	CY_SET_XTND_REG8((void CYFAR *)(CYREG_CLKDIST_DCFG2_CFG0 + 0x2u), 0x18u);
 302              		.loc 1 236 0
 303 004c 44F28A03 		movw	r3, #16522
 304 0050 C4F20003 		movt	r3, 16384
 305 0054 4FF01802 		mov	r2, #24
 306 0058 1A70     		strb	r2, [r3, #0]
 237:.\Generated_Source\PSoC5/cyfitter_cfg.c **** 	CY_SET_XTND_REG16((void CYFAR *)(CYREG_CLKDIST_DCFG3_CFG0), 0x0017u);
 307              		.loc 1 237 0
 308 005a 44F28C03 		movw	r3, #16524
 309 005e C4F20003 		movt	r3, 16384
 310 0062 4FF01702 		mov	r2, #23
 311 0066 1A80     		strh	r2, [r3, #0]	@ movhi
 238:.\Generated_Source\PSoC5/cyfitter_cfg.c **** 	CY_SET_XTND_REG8((void CYFAR *)(CYREG_CLKDIST_DCFG3_CFG0 + 0x2u), 0x18u);
 312              		.loc 1 238 0
 313 0068 44F28E03 		movw	r3, #16526
 314 006c C4F20003 		movt	r3, 16384
 315 0070 4FF01802 		mov	r2, #24
 316 0074 1A70     		strb	r2, [r3, #0]
 239:.\Generated_Source\PSoC5/cyfitter_cfg.c **** 	CY_SET_XTND_REG16((void CYFAR *)(CYREG_CLKDIST_DCFG4_CFG0), 0x0000u);
 317              		.loc 1 239 0
 318 0076 44F29003 		movw	r3, #16528
 319 007a C4F20003 		movt	r3, 16384
 320 007e 4FF00002 		mov	r2, #0
 321 0082 1A80     		strh	r2, [r3, #0]	@ movhi
 240:.\Generated_Source\PSoC5/cyfitter_cfg.c **** 	CY_SET_XTND_REG8((void CYFAR *)(CYREG_CLKDIST_DCFG4_CFG0 + 0x2u), 0x50u);
 322              		.loc 1 240 0
 323 0084 44F29203 		movw	r3, #16530
 324 0088 C4F20003 		movt	r3, 16384
 325 008c 4FF05002 		mov	r2, #80
 326 0090 1A70     		strb	r2, [r3, #0]
 241:.\Generated_Source\PSoC5/cyfitter_cfg.c **** 	CY_SET_XTND_REG16((void CYFAR *)(CYREG_CLKDIST_DCFG5_CFG0), 0x0017u);
ARM GAS  C:\Users\Brian\AppData\Local\Temp\ccTj2tfG.s 			page 11


 327              		.loc 1 241 0
 328 0092 44F29403 		movw	r3, #16532
 329 0096 C4F20003 		movt	r3, 16384
 330 009a 4FF01702 		mov	r2, #23
 331 009e 1A80     		strh	r2, [r3, #0]	@ movhi
 242:.\Generated_Source\PSoC5/cyfitter_cfg.c **** 	CY_SET_XTND_REG8((void CYFAR *)(CYREG_CLKDIST_DCFG5_CFG0 + 0x2u), 0x18u);
 332              		.loc 1 242 0
 333 00a0 44F29603 		movw	r3, #16534
 334 00a4 C4F20003 		movt	r3, 16384
 335 00a8 4FF01802 		mov	r2, #24
 336 00ac 1A70     		strb	r2, [r3, #0]
 243:.\Generated_Source\PSoC5/cyfitter_cfg.c **** 	CY_SET_XTND_REG16((void CYFAR *)(CYREG_CLKDIST_DCFG6_CFG0), 0x0001u);
 337              		.loc 1 243 0
 338 00ae 44F29803 		movw	r3, #16536
 339 00b2 C4F20003 		movt	r3, 16384
 340 00b6 4FF00102 		mov	r2, #1
 341 00ba 1A80     		strh	r2, [r3, #0]	@ movhi
 244:.\Generated_Source\PSoC5/cyfitter_cfg.c **** 	CY_SET_XTND_REG8((void CYFAR *)(CYREG_CLKDIST_DCFG6_CFG0 + 0x2u), 0x18u);
 342              		.loc 1 244 0
 343 00bc 44F29A03 		movw	r3, #16538
 344 00c0 C4F20003 		movt	r3, 16384
 345 00c4 4FF01802 		mov	r2, #24
 346 00c8 1A70     		strb	r2, [r3, #0]
 245:.\Generated_Source\PSoC5/cyfitter_cfg.c **** 	CY_SET_XTND_REG16((void CYFAR *)(CYREG_CLKDIST_DCFG7_CFG0), 0x000Bu);
 347              		.loc 1 245 0
 348 00ca 44F29C03 		movw	r3, #16540
 349 00ce C4F20003 		movt	r3, 16384
 350 00d2 4FF00B02 		mov	r2, #11
 351 00d6 1A80     		strh	r2, [r3, #0]	@ movhi
 246:.\Generated_Source\PSoC5/cyfitter_cfg.c **** 	CY_SET_XTND_REG8((void CYFAR *)(CYREG_CLKDIST_DCFG7_CFG0 + 0x2u), 0x18u);
 352              		.loc 1 246 0
 353 00d8 44F29E03 		movw	r3, #16542
 354 00dc C4F20003 		movt	r3, 16384
 355 00e0 4FF01802 		mov	r2, #24
 356 00e4 1A70     		strb	r2, [r3, #0]
 247:.\Generated_Source\PSoC5/cyfitter_cfg.c **** 
 248:.\Generated_Source\PSoC5/cyfitter_cfg.c **** 	/* Configure Analog Clocks based on settings from Clock DWR */
 249:.\Generated_Source\PSoC5/cyfitter_cfg.c **** 	CYCONFIGCPY((void CYFAR *)(CYREG_CLKDIST_ACFG0_CFG0), (const void CYFAR *)(BS_CYDEV_CLKDIST_ACFG0_
 357              		.loc 1 249 0
 358 00e6 40F20003 		movw	r3, #:lower16:CY_ECC_OFFSET
 359 00ea C0F20003 		movt	r3, #:upper16:CY_ECC_OFFSET
 360 00ee 03F19043 		add	r3, r3, #1207959552
 361 00f2 03F6DC33 		addw	r3, r3, #3036
 362 00f6 4FF48240 		mov	r0, #16640
 363 00fa C4F20000 		movt	r0, 16384
 364 00fe 1946     		mov	r1, r3
 365 0100 4FF00C02 		mov	r2, #12
 366 0104 FFF7FEFF 		bl	CYCONFIGCPY
 250:.\Generated_Source\PSoC5/cyfitter_cfg.c **** 
 251:.\Generated_Source\PSoC5/cyfitter_cfg.c **** 	/* Configure ILO based on settings from Clock DWR */
 252:.\Generated_Source\PSoC5/cyfitter_cfg.c **** 	CY_SET_XTND_REG8((void CYFAR *)(CYREG_SLOWCLK_ILO_CR0), 0x02u);
 367              		.loc 1 252 0
 368 0108 4FF48643 		mov	r3, #17152
 369 010c C4F20003 		movt	r3, 16384
 370 0110 4FF00202 		mov	r2, #2
 371 0114 1A70     		strb	r2, [r3, #0]
 253:.\Generated_Source\PSoC5/cyfitter_cfg.c **** 	CY_SET_XTND_REG8((void CYFAR *)(CYREG_CLKDIST_CR), 0x08u);
ARM GAS  C:\Users\Brian\AppData\Local\Temp\ccTj2tfG.s 			page 12


 372              		.loc 1 253 0
 373 0116 4FF04023 		mov	r3, #1073758208
 374 011a 4FF00802 		mov	r2, #8
 375 011e 1A70     		strb	r2, [r3, #0]
 254:.\Generated_Source\PSoC5/cyfitter_cfg.c **** 
 255:.\Generated_Source\PSoC5/cyfitter_cfg.c **** 	/* Configure IMO based on settings from Clock DWR */
 256:.\Generated_Source\PSoC5/cyfitter_cfg.c **** 	CY_SET_XTND_REG8((void CYFAR *)(CYREG_FASTCLK_IMO_CR), 0x03u);
 376              		.loc 1 256 0
 377 0120 4FF48443 		mov	r3, #16896
 378 0124 C4F20003 		movt	r3, 16384
 379 0128 4FF00302 		mov	r2, #3
 380 012c 1A70     		strb	r2, [r3, #0]
 257:.\Generated_Source\PSoC5/cyfitter_cfg.c **** 	CY_SET_XTND_REG8((void CYFAR *)(CYREG_IMO_TR1), (CY_GET_XTND_REG8((void CYFAR *)CYREG_FLSHID_CUST_
 381              		.loc 1 257 0
 382 012e 44F2A163 		movw	r3, #18081
 383 0132 C4F20003 		movt	r3, 16384
 384 0136 4FF48472 		mov	r2, #264
 385 013a C4F60012 		movt	r2, 18688
 386 013e 1278     		ldrb	r2, [r2, #0]
 387 0140 D2B2     		uxtb	r2, r2
 388 0142 1A70     		strb	r2, [r3, #0]
 258:.\Generated_Source\PSoC5/cyfitter_cfg.c **** 
 259:.\Generated_Source\PSoC5/cyfitter_cfg.c **** 	/* Configure PLL based on settings from Clock DWR */
 260:.\Generated_Source\PSoC5/cyfitter_cfg.c **** 	CY_SET_XTND_REG16((void CYFAR *)(CYREG_FASTCLK_PLL_P), 0x0008u);
 389              		.loc 1 260 0
 390 0144 44F22223 		movw	r3, #16930
 391 0148 C4F20003 		movt	r3, 16384
 392 014c 4FF00802 		mov	r2, #8
 393 0150 1A80     		strh	r2, [r3, #0]	@ movhi
 261:.\Generated_Source\PSoC5/cyfitter_cfg.c **** 	CY_SET_XTND_REG16((void CYFAR *)(CYREG_FASTCLK_PLL_CFG0), 0x1251u);
 394              		.loc 1 261 0
 395 0152 44F22023 		movw	r3, #16928
 396 0156 C4F20003 		movt	r3, 16384
 397 015a 41F25122 		movw	r2, #4689
 398 015e 1A80     		strh	r2, [r3, #0]	@ movhi
 262:.\Generated_Source\PSoC5/cyfitter_cfg.c **** 	/* Wait up to 250us for the PLL to lock */
 263:.\Generated_Source\PSoC5/cyfitter_cfg.c **** 	pllLock = 0u;
 399              		.loc 1 263 0
 400 0160 4FF00003 		mov	r3, #0
 401 0164 FB70     		strb	r3, [r7, #3]
 264:.\Generated_Source\PSoC5/cyfitter_cfg.c **** 	for (timeout = 250u / 10u; (timeout > 0u) && (pllLock != 0x03u); timeout--)
 402              		.loc 1 264 0
 403 0166 4FF01903 		mov	r3, #25
 404 016a 7B60     		str	r3, [r7, #4]
 405 016c 19E0     		b	.L12
 406              	.L14:
 265:.\Generated_Source\PSoC5/cyfitter_cfg.c **** 	{ 
 266:.\Generated_Source\PSoC5/cyfitter_cfg.c **** 		pllLock = 0x03u & ((uint8)((uint8)pllLock << 1) | ((CY_GET_XTND_REG8((void CYFAR *)CYREG_FASTCLK_
 407              		.loc 1 266 0 discriminator 1
 408 016e FB78     		ldrb	r3, [r7, #3]
 409 0170 4FEA4303 		lsl	r3, r3, #1
 410 0174 DAB2     		uxtb	r2, r3
 411 0176 44F22523 		movw	r3, #16933
 412 017a C4F20003 		movt	r3, 16384
 413 017e 1B78     		ldrb	r3, [r3, #0]
 414 0180 DBB2     		uxtb	r3, r3
 415 0182 03F00103 		and	r3, r3, #1
ARM GAS  C:\Users\Brian\AppData\Local\Temp\ccTj2tfG.s 			page 13


 416 0186 DBB2     		uxtb	r3, r3
 417 0188 1343     		orrs	r3, r3, r2
 418 018a DBB2     		uxtb	r3, r3
 419 018c 03F00303 		and	r3, r3, #3
 420 0190 FB70     		strb	r3, [r7, #3]
 267:.\Generated_Source\PSoC5/cyfitter_cfg.c **** 		CyDelayCycles(10u * 48u); /* Delay 10us based on 48MHz clock */
 421              		.loc 1 267 0 discriminator 1
 422 0192 4FF4F070 		mov	r0, #480
 423 0196 FFF7FEFF 		bl	CyDelayCycles
 264:.\Generated_Source\PSoC5/cyfitter_cfg.c **** 	for (timeout = 250u / 10u; (timeout > 0u) && (pllLock != 0x03u); timeout--)
 424              		.loc 1 264 0 discriminator 1
 425 019a 7B68     		ldr	r3, [r7, #4]
 426 019c 03F1FF33 		add	r3, r3, #-1
 427 01a0 7B60     		str	r3, [r7, #4]
 428              	.L12:
 429 01a2 7B68     		ldr	r3, [r7, #4]
 430 01a4 002B     		cmp	r3, #0
 431 01a6 02D0     		beq	.L13
 264:.\Generated_Source\PSoC5/cyfitter_cfg.c **** 	for (timeout = 250u / 10u; (timeout > 0u) && (pllLock != 0x03u); timeout--)
 432              		.loc 1 264 0 is_stmt 0 discriminator 2
 433 01a8 FB78     		ldrb	r3, [r7, #3]	@ zero_extendqisi2
 434 01aa 032B     		cmp	r3, #3
 435 01ac DFD1     		bne	.L14
 436              	.L13:
 268:.\Generated_Source\PSoC5/cyfitter_cfg.c **** 	}
 269:.\Generated_Source\PSoC5/cyfitter_cfg.c **** 	/* If we ran out of time the PLL didn't lock so go to the error function */
 270:.\Generated_Source\PSoC5/cyfitter_cfg.c **** 	if (timeout == 0u)
 437              		.loc 1 270 0 is_stmt 1
 438 01ae 7B68     		ldr	r3, [r7, #4]
 439 01b0 002B     		cmp	r3, #0
 440 01b2 03D1     		bne	.L15
 271:.\Generated_Source\PSoC5/cyfitter_cfg.c **** 	{
 272:.\Generated_Source\PSoC5/cyfitter_cfg.c **** 		CyClockStartupError(CYCLOCKSTART_PLL_ERROR);
 441              		.loc 1 272 0
 442 01b4 4FF00300 		mov	r0, #3
 443 01b8 FFF7FEFF 		bl	CyClockStartupError
 444              	.L15:
 273:.\Generated_Source\PSoC5/cyfitter_cfg.c **** 	}
 274:.\Generated_Source\PSoC5/cyfitter_cfg.c **** 
 275:.\Generated_Source\PSoC5/cyfitter_cfg.c **** 	/* Configure Bus/Master Clock based on settings from Clock DWR */
 276:.\Generated_Source\PSoC5/cyfitter_cfg.c **** 	CY_SET_XTND_REG16((void CYFAR *)(CYREG_CLKDIST_MSTR0), 0x0100u);
 445              		.loc 1 276 0
 446 01bc 44F20403 		movw	r3, #16388
 447 01c0 C4F20003 		movt	r3, 16384
 448 01c4 4FF48072 		mov	r2, #256
 449 01c8 1A80     		strh	r2, [r3, #0]	@ movhi
 277:.\Generated_Source\PSoC5/cyfitter_cfg.c **** 	CY_SET_XTND_REG8((void CYFAR *)(CYREG_CLKDIST_MSTR0), 0x07u);
 450              		.loc 1 277 0
 451 01ca 44F20403 		movw	r3, #16388
 452 01ce C4F20003 		movt	r3, 16384
 453 01d2 4FF00702 		mov	r2, #7
 454 01d6 1A70     		strb	r2, [r3, #0]
 278:.\Generated_Source\PSoC5/cyfitter_cfg.c **** 	CY_SET_XTND_REG8((void CYFAR *)(CYREG_CLKDIST_BCFG0), 0x00u);
 455              		.loc 1 278 0
 456 01d8 44F20603 		movw	r3, #16390
 457 01dc C4F20003 		movt	r3, 16384
 458 01e0 4FF00002 		mov	r2, #0
ARM GAS  C:\Users\Brian\AppData\Local\Temp\ccTj2tfG.s 			page 14


 459 01e4 1A70     		strb	r2, [r3, #0]
 279:.\Generated_Source\PSoC5/cyfitter_cfg.c **** 	CY_SET_XTND_REG8((void CYFAR *)(CYREG_CLKDIST_BCFG2), 0x48u);
 460              		.loc 1 279 0
 461 01e6 44F20803 		movw	r3, #16392
 462 01ea C4F20003 		movt	r3, 16384
 463 01ee 4FF04802 		mov	r2, #72
 464 01f2 1A70     		strb	r2, [r3, #0]
 280:.\Generated_Source\PSoC5/cyfitter_cfg.c **** 	CY_SET_XTND_REG8((void CYFAR *)(CYREG_CLKDIST_MSTR0), 0x00u);
 465              		.loc 1 280 0
 466 01f4 44F20403 		movw	r3, #16388
 467 01f8 C4F20003 		movt	r3, 16384
 468 01fc 4FF00002 		mov	r2, #0
 469 0200 1A70     		strb	r2, [r3, #0]
 281:.\Generated_Source\PSoC5/cyfitter_cfg.c **** 	CY_SET_XTND_REG8((void CYFAR *)(CYREG_CLKDIST_LD), 0x02u);
 470              		.loc 1 281 0
 471 0202 44F20103 		movw	r3, #16385
 472 0206 C4F20003 		movt	r3, 16384
 473 020a 4FF00202 		mov	r2, #2
 474 020e 1A70     		strb	r2, [r3, #0]
 282:.\Generated_Source\PSoC5/cyfitter_cfg.c **** 	CY_SET_XTND_REG8((void CYFAR *)(CYREG_CLKDIST_DLY1), 0x04u);
 475              		.loc 1 282 0
 476 0210 44F20B03 		movw	r3, #16395
 477 0214 C4F20003 		movt	r3, 16384
 478 0218 4FF00402 		mov	r2, #4
 479 021c 1A70     		strb	r2, [r3, #0]
 283:.\Generated_Source\PSoC5/cyfitter_cfg.c **** 
 284:.\Generated_Source\PSoC5/cyfitter_cfg.c **** 	CY_SET_XTND_REG8((void CYFAR *)(CYREG_PM_ACT_CFG2), ((CY_GET_XTND_REG8((void CYFAR *)CYREG_PM_ACT_
 480              		.loc 1 284 0
 481 021e 44F2A233 		movw	r3, #17314
 482 0222 C4F20003 		movt	r3, 16384
 483 0226 1B78     		ldrb	r3, [r3, #0]
 484 0228 44F2A233 		movw	r3, #17314
 485 022c C4F20003 		movt	r3, 16384
 486 0230 4FF0FF02 		mov	r2, #255
 487 0234 1A70     		strb	r2, [r3, #0]
 285:.\Generated_Source\PSoC5/cyfitter_cfg.c **** 	CY_SET_XTND_REG8((void CYFAR *)(CYREG_PM_ACT_CFG1), ((CY_GET_XTND_REG8((void CYFAR *)CYREG_PM_ACT_
 488              		.loc 1 285 0
 489 0236 44F2A133 		movw	r3, #17313
 490 023a C4F20003 		movt	r3, 16384
 491 023e 44F2A132 		movw	r2, #17313
 492 0242 C4F20002 		movt	r2, 16384
 493 0246 1278     		ldrb	r2, [r2, #0]
 494 0248 D2B2     		uxtb	r2, r2
 495 024a 42F00702 		orr	r2, r2, #7
 496 024e D2B2     		uxtb	r2, r2
 497 0250 1A70     		strb	r2, [r3, #0]
 286:.\Generated_Source\PSoC5/cyfitter_cfg.c **** 	CY_SET_XTND_REG8((void CYFAR *)(CYREG_PM_ACT_CFG0), ((CY_GET_XTND_REG8((void CYFAR *)CYREG_PM_ACT_
 498              		.loc 1 286 0
 499 0252 44F2A033 		movw	r3, #17312
 500 0256 C4F20003 		movt	r3, 16384
 501 025a 44F2A032 		movw	r2, #17312
 502 025e C4F20002 		movt	r2, 16384
 503 0262 1278     		ldrb	r2, [r2, #0]
 504 0264 D2B2     		uxtb	r2, r2
 505 0266 62F07F02 		orn	r2, r2, #127
 506 026a D2B2     		uxtb	r2, r2
 507 026c 1A70     		strb	r2, [r3, #0]
ARM GAS  C:\Users\Brian\AppData\Local\Temp\ccTj2tfG.s 			page 15


 287:.\Generated_Source\PSoC5/cyfitter_cfg.c **** }
 508              		.loc 1 287 0
 509 026e 07F10807 		add	r7, r7, #8
 510 0272 BD46     		mov	sp, r7
 511 0274 80BD     		pop	{r7, pc}
 512              		.cfi_endproc
 513              	.LFE5:
 514              		.size	ClockSetup, .-ClockSetup
 515 0276 00BF     		.section	.text.AnalogSetDefault,"ax",%progbits
 516              		.align	2
 517              		.thumb
 518              		.thumb_func
 519              		.type	AnalogSetDefault, %function
 520              	AnalogSetDefault:
 521              	.LFB6:
 288:.\Generated_Source\PSoC5/cyfitter_cfg.c **** 
 289:.\Generated_Source\PSoC5/cyfitter_cfg.c **** 
 290:.\Generated_Source\PSoC5/cyfitter_cfg.c **** /* Analog API Functions */
 291:.\Generated_Source\PSoC5/cyfitter_cfg.c **** 
 292:.\Generated_Source\PSoC5/cyfitter_cfg.c **** 
 293:.\Generated_Source\PSoC5/cyfitter_cfg.c **** /*******************************************************************************
 294:.\Generated_Source\PSoC5/cyfitter_cfg.c **** * Function Name: AnalogSetDefault
 295:.\Generated_Source\PSoC5/cyfitter_cfg.c **** ********************************************************************************
 296:.\Generated_Source\PSoC5/cyfitter_cfg.c **** *
 297:.\Generated_Source\PSoC5/cyfitter_cfg.c **** * Summary:
 298:.\Generated_Source\PSoC5/cyfitter_cfg.c **** *  Sets up the analog portions of the chip to default values based on chip
 299:.\Generated_Source\PSoC5/cyfitter_cfg.c **** *  configuration options from the project.
 300:.\Generated_Source\PSoC5/cyfitter_cfg.c **** *
 301:.\Generated_Source\PSoC5/cyfitter_cfg.c **** * Parameters:
 302:.\Generated_Source\PSoC5/cyfitter_cfg.c **** *  void
 303:.\Generated_Source\PSoC5/cyfitter_cfg.c **** *
 304:.\Generated_Source\PSoC5/cyfitter_cfg.c **** * Return:
 305:.\Generated_Source\PSoC5/cyfitter_cfg.c **** *  void
 306:.\Generated_Source\PSoC5/cyfitter_cfg.c **** *
 307:.\Generated_Source\PSoC5/cyfitter_cfg.c **** *******************************************************************************/
 308:.\Generated_Source\PSoC5/cyfitter_cfg.c **** static void AnalogSetDefault(void);
 309:.\Generated_Source\PSoC5/cyfitter_cfg.c **** static void AnalogSetDefault(void)
 310:.\Generated_Source\PSoC5/cyfitter_cfg.c **** {
 522              		.loc 1 310 0
 523              		.cfi_startproc
 524              		@ args = 0, pretend = 0, frame = 8
 525              		@ frame_needed = 1, uses_anonymous_args = 0
 526              		@ link register save eliminated.
 527 0000 80B4     		push	{r7}
 528              	.LCFI18:
 529              		.cfi_def_cfa_offset 4
 530              		.cfi_offset 7, -4
 531 0002 83B0     		sub	sp, sp, #12
 532              	.LCFI19:
 533              		.cfi_def_cfa_offset 16
 534 0004 00AF     		add	r7, sp, #0
 535              	.LCFI20:
 536              		.cfi_def_cfa_register 7
 311:.\Generated_Source\PSoC5/cyfitter_cfg.c **** 	uint8 bg_xover_inl_trim = CY_GET_XTND_REG8((void CYFAR *)(CYREG_FLSHID_MFG_CFG_BG_XOVER_INL_TRIM +
 537              		.loc 1 311 0
 538 0006 40F2CF13 		movw	r3, #463
 539 000a C4F60013 		movt	r3, 18688
ARM GAS  C:\Users\Brian\AppData\Local\Temp\ccTj2tfG.s 			page 16


 540 000e 1B78     		ldrb	r3, [r3, #0]
 541 0010 FB71     		strb	r3, [r7, #7]
 312:.\Generated_Source\PSoC5/cyfitter_cfg.c **** 	uint8 cr4 = CY_GET_XTND_REG8((void CYFAR *)(CYREG_RESET_CR4));
 542              		.loc 1 312 0
 543 0012 44F2F863 		movw	r3, #18168
 544 0016 C4F20003 		movt	r3, 16384
 545 001a 1B78     		ldrb	r3, [r3, #0]
 546 001c BB71     		strb	r3, [r7, #6]
 313:.\Generated_Source\PSoC5/cyfitter_cfg.c **** 	uint8 cr5 = CY_GET_XTND_REG8((void CYFAR *)(CYREG_RESET_CR5));
 547              		.loc 1 313 0
 548 001e 44F2F963 		movw	r3, #18169
 549 0022 C4F20003 		movt	r3, 16384
 550 0026 1B78     		ldrb	r3, [r3, #0]
 551 0028 7B71     		strb	r3, [r7, #5]
 314:.\Generated_Source\PSoC5/cyfitter_cfg.c **** 	CY_SET_XTND_REG8((void CYFAR *)(CYREG_BG_DFT0), (bg_xover_inl_trim & 0x07u));
 552              		.loc 1 314 0
 553 002a 45F66E03 		movw	r3, #22638
 554 002e C4F20003 		movt	r3, 16384
 555 0032 FA79     		ldrb	r2, [r7, #7]
 556 0034 02F00702 		and	r2, r2, #7
 557 0038 D2B2     		uxtb	r2, r2
 558 003a 1A70     		strb	r2, [r3, #0]
 315:.\Generated_Source\PSoC5/cyfitter_cfg.c **** 	CY_SET_XTND_REG8((void CYFAR *)(CYREG_BG_DFT1), ((bg_xover_inl_trim >> 4) & 0x0Fu));
 559              		.loc 1 315 0
 560 003c 45F66F03 		movw	r3, #22639
 561 0040 C4F20003 		movt	r3, 16384
 562 0044 FA79     		ldrb	r2, [r7, #7]	@ zero_extendqisi2
 563 0046 4FEA1212 		lsr	r2, r2, #4
 564 004a D2B2     		uxtb	r2, r2
 565 004c 1A70     		strb	r2, [r3, #0]
 316:.\Generated_Source\PSoC5/cyfitter_cfg.c **** 	/* Disable PRES while setting up SAR voltage reference */
 317:.\Generated_Source\PSoC5/cyfitter_cfg.c **** 	CY_SET_XTND_REG8((void CYFAR *)(CYREG_RESET_CR4), (cr4 | 0x03u));
 566              		.loc 1 317 0
 567 004e 44F2F863 		movw	r3, #18168
 568 0052 C4F20003 		movt	r3, 16384
 569 0056 BA79     		ldrb	r2, [r7, #6]
 570 0058 42F00302 		orr	r2, r2, #3
 571 005c D2B2     		uxtb	r2, r2
 572 005e 1A70     		strb	r2, [r3, #0]
 318:.\Generated_Source\PSoC5/cyfitter_cfg.c **** 	CY_SET_XTND_REG8((void CYFAR *)(CYREG_RESET_CR5), (cr5 | 0x03u));
 573              		.loc 1 318 0
 574 0060 44F2F963 		movw	r3, #18169
 575 0064 C4F20003 		movt	r3, 16384
 576 0068 7A79     		ldrb	r2, [r7, #5]
 577 006a 42F00302 		orr	r2, r2, #3
 578 006e D2B2     		uxtb	r2, r2
 579 0070 1A70     		strb	r2, [r3, #0]
 319:.\Generated_Source\PSoC5/cyfitter_cfg.c **** 	CY_SET_XTND_REG16((void CYFAR *)CYREG_PRT0_AMUX, 0x0A20u);
 580              		.loc 1 319 0
 581 0072 45F20C13 		movw	r3, #20748
 582 0076 C4F20003 		movt	r3, 16384
 583 007a 4FF42262 		mov	r2, #2592
 584 007e 1A80     		strh	r2, [r3, #0]	@ movhi
 320:.\Generated_Source\PSoC5/cyfitter_cfg.c **** 	CY_SET_XTND_REG8((void CYFAR *)CYREG_PRT15_AG, 0x30u);
 585              		.loc 1 320 0
 586 0080 45F2FD13 		movw	r3, #20989
 587 0084 C4F20003 		movt	r3, 16384
ARM GAS  C:\Users\Brian\AppData\Local\Temp\ccTj2tfG.s 			page 17


 588 0088 4FF03002 		mov	r2, #48
 589 008c 1A70     		strb	r2, [r3, #0]
 321:.\Generated_Source\PSoC5/cyfitter_cfg.c **** 	CY_SET_XTND_REG8((void CYFAR *)CYREG_SAR0_CSR1, 0x40u);
 590              		.loc 1 321 0
 591 008e 45F60113 		movw	r3, #22785
 592 0092 C4F20003 		movt	r3, 16384
 593 0096 4FF04002 		mov	r2, #64
 594 009a 1A70     		strb	r2, [r3, #0]
 322:.\Generated_Source\PSoC5/cyfitter_cfg.c **** 	CY_SET_XTND_REG8((void CYFAR *)CYREG_SAR0_CSR3, 0x40u);
 595              		.loc 1 322 0
 596 009c 45F60313 		movw	r3, #22787
 597 00a0 C4F20003 		movt	r3, 16384
 598 00a4 4FF04002 		mov	r2, #64
 599 00a8 1A70     		strb	r2, [r3, #0]
 323:.\Generated_Source\PSoC5/cyfitter_cfg.c **** 	CY_SET_XTND_REG8((void CYFAR *)CYREG_SAR1_CSR1, 0x40u);
 600              		.loc 1 323 0
 601 00aa 45F60913 		movw	r3, #22793
 602 00ae C4F20003 		movt	r3, 16384
 603 00b2 4FF04002 		mov	r2, #64
 604 00b6 1A70     		strb	r2, [r3, #0]
 324:.\Generated_Source\PSoC5/cyfitter_cfg.c **** 	CY_SET_XTND_REG8((void CYFAR *)CYREG_SAR1_CSR3, 0x40u);
 605              		.loc 1 324 0
 606 00b8 45F60B13 		movw	r3, #22795
 607 00bc C4F20003 		movt	r3, 16384
 608 00c0 4FF04002 		mov	r2, #64
 609 00c4 1A70     		strb	r2, [r3, #0]
 325:.\Generated_Source\PSoC5/cyfitter_cfg.c **** 	CY_SET_XTND_REG8((void CYFAR *)CYREG_DAC0_SW3, 0x80u);
 610              		.loc 1 325 0
 611 00c6 45F68323 		movw	r3, #23171
 612 00ca C4F20003 		movt	r3, 16384
 613 00ce 4FF08002 		mov	r2, #128
 614 00d2 1A70     		strb	r2, [r3, #0]
 326:.\Generated_Source\PSoC5/cyfitter_cfg.c **** 	CY_SET_XTND_REG8((void CYFAR *)CYREG_DAC1_SW3, 0x01u);
 615              		.loc 1 326 0
 616 00d4 45F68B23 		movw	r3, #23179
 617 00d8 C4F20003 		movt	r3, 16384
 618 00dc 4FF00102 		mov	r2, #1
 619 00e0 1A70     		strb	r2, [r3, #0]
 327:.\Generated_Source\PSoC5/cyfitter_cfg.c **** 	CY_SET_XTND_REG8((void CYFAR *)CYREG_DAC2_SW0, 0x10u);
 620              		.loc 1 327 0
 621 00e2 45F69023 		movw	r3, #23184
 622 00e6 C4F20003 		movt	r3, 16384
 623 00ea 4FF01002 		mov	r2, #16
 624 00ee 1A70     		strb	r2, [r3, #0]
 328:.\Generated_Source\PSoC5/cyfitter_cfg.c **** 	CY_SET_XTND_REG8((void CYFAR *)CYREG_DAC3_SW0, 0x20u);
 625              		.loc 1 328 0
 626 00f0 45F69823 		movw	r3, #23192
 627 00f4 C4F20003 		movt	r3, 16384
 628 00f8 4FF02002 		mov	r2, #32
 629 00fc 1A70     		strb	r2, [r3, #0]
 329:.\Generated_Source\PSoC5/cyfitter_cfg.c **** 	CY_SET_XTND_REG8((void CYFAR *)CYREG_DSM0_SW0, 0x02u);
 630              		.loc 1 329 0
 631 00fe 4FF4B643 		mov	r3, #23296
 632 0102 C4F20003 		movt	r3, 16384
 633 0106 4FF00202 		mov	r2, #2
 634 010a 1A70     		strb	r2, [r3, #0]
 330:.\Generated_Source\PSoC5/cyfitter_cfg.c **** 	CY_SET_XTND_REG8((void CYFAR *)CYREG_SAR0_SW0, 0x80u);
ARM GAS  C:\Users\Brian\AppData\Local\Temp\ccTj2tfG.s 			page 18


 635              		.loc 1 330 0
 636 010c 45F62033 		movw	r3, #23328
 637 0110 C4F20003 		movt	r3, 16384
 638 0114 4FF08002 		mov	r2, #128
 639 0118 1A70     		strb	r2, [r3, #0]
 331:.\Generated_Source\PSoC5/cyfitter_cfg.c **** 	CY_SET_XTND_REG8((void CYFAR *)CYREG_SAR0_SW3, 0x20u);
 640              		.loc 1 331 0
 641 011a 45F62333 		movw	r3, #23331
 642 011e C4F20003 		movt	r3, 16384
 643 0122 4FF02002 		mov	r2, #32
 644 0126 1A70     		strb	r2, [r3, #0]
 332:.\Generated_Source\PSoC5/cyfitter_cfg.c **** 	CY_SET_XTND_REG8((void CYFAR *)CYREG_SAR1_SW0, 0x01u);
 645              		.loc 1 332 0
 646 0128 45F62833 		movw	r3, #23336
 647 012c C4F20003 		movt	r3, 16384
 648 0130 4FF00102 		mov	r2, #1
 649 0134 1A70     		strb	r2, [r3, #0]
 333:.\Generated_Source\PSoC5/cyfitter_cfg.c **** 	CY_SET_XTND_REG8((void CYFAR *)CYREG_SAR1_SW3, 0x20u);
 650              		.loc 1 333 0
 651 0136 45F62B33 		movw	r3, #23339
 652 013a C4F20003 		movt	r3, 16384
 653 013e 4FF02002 		mov	r2, #32
 654 0142 1A70     		strb	r2, [r3, #0]
 334:.\Generated_Source\PSoC5/cyfitter_cfg.c **** 	CY_SET_XTND_REG16((void CYFAR *)CYREG_OPAMP2_MX, 0x0101u);
 655              		.loc 1 334 0
 656 0144 45F64433 		movw	r3, #23364
 657 0148 C4F20003 		movt	r3, 16384
 658 014c 40F20112 		movw	r2, #257
 659 0150 1A80     		strh	r2, [r3, #0]	@ movhi
 335:.\Generated_Source\PSoC5/cyfitter_cfg.c **** 	CY_SET_XTND_REG8((void CYFAR *)CYREG_BUS_SW0, 0x21u);
 660              		.loc 1 335 0
 661 0152 45F65833 		movw	r3, #23384
 662 0156 C4F20003 		movt	r3, 16384
 663 015a 4FF02102 		mov	r2, #33
 664 015e 1A70     		strb	r2, [r3, #0]
 336:.\Generated_Source\PSoC5/cyfitter_cfg.c **** 	CY_SET_XTND_REG8((void CYFAR *)CYREG_BUS_SW3, 0x01u);
 665              		.loc 1 336 0
 666 0160 45F65B33 		movw	r3, #23387
 667 0164 C4F20003 		movt	r3, 16384
 668 0168 4FF00102 		mov	r2, #1
 669 016c 1A70     		strb	r2, [r3, #0]
 337:.\Generated_Source\PSoC5/cyfitter_cfg.c **** 	CY_SET_XTND_REG8((void CYFAR *)(CYREG_RESET_CR5), (cr5));
 670              		.loc 1 337 0
 671 016e 44F2F963 		movw	r3, #18169
 672 0172 C4F20003 		movt	r3, 16384
 673 0176 7A79     		ldrb	r2, [r7, #5]
 674 0178 1A70     		strb	r2, [r3, #0]
 338:.\Generated_Source\PSoC5/cyfitter_cfg.c **** 	CY_SET_XTND_REG8((void CYFAR *)(CYREG_RESET_CR4), (cr4));
 675              		.loc 1 338 0
 676 017a 44F2F863 		movw	r3, #18168
 677 017e C4F20003 		movt	r3, 16384
 678 0182 BA79     		ldrb	r2, [r7, #6]
 679 0184 1A70     		strb	r2, [r3, #0]
 339:.\Generated_Source\PSoC5/cyfitter_cfg.c **** 	CY_SET_XTND_REG8((void CYFAR *)CYREG_PUMP_CR0, 0x44u);
 680              		.loc 1 339 0
 681 0186 45F67603 		movw	r3, #22646
 682 018a C4F20003 		movt	r3, 16384
ARM GAS  C:\Users\Brian\AppData\Local\Temp\ccTj2tfG.s 			page 19


 683 018e 4FF04402 		mov	r2, #68
 684 0192 1A70     		strb	r2, [r3, #0]
 340:.\Generated_Source\PSoC5/cyfitter_cfg.c **** }
 685              		.loc 1 340 0
 686 0194 07F10C07 		add	r7, r7, #12
 687 0198 BD46     		mov	sp, r7
 688 019a 80BC     		pop	{r7}
 689 019c 7047     		bx	lr
 690              		.cfi_endproc
 691              	.LFE6:
 692              		.size	AnalogSetDefault, .-AnalogSetDefault
 693 019e 00BF     		.section	.text.SetAnalogRoutingPumps,"ax",%progbits
 694              		.align	2
 695              		.global	SetAnalogRoutingPumps
 696              		.thumb
 697              		.thumb_func
 698              		.type	SetAnalogRoutingPumps, %function
 699              	SetAnalogRoutingPumps:
 700              	.LFB7:
 341:.\Generated_Source\PSoC5/cyfitter_cfg.c **** 
 342:.\Generated_Source\PSoC5/cyfitter_cfg.c **** 
 343:.\Generated_Source\PSoC5/cyfitter_cfg.c **** /*******************************************************************************
 344:.\Generated_Source\PSoC5/cyfitter_cfg.c **** * Function Name: SetAnalogRoutingPumps
 345:.\Generated_Source\PSoC5/cyfitter_cfg.c **** ********************************************************************************
 346:.\Generated_Source\PSoC5/cyfitter_cfg.c **** *
 347:.\Generated_Source\PSoC5/cyfitter_cfg.c **** * Summary:
 348:.\Generated_Source\PSoC5/cyfitter_cfg.c **** * Enables or disables the analog pumps feeding analog routing switches.
 349:.\Generated_Source\PSoC5/cyfitter_cfg.c **** * Intended to be called at startup, based on the Vdda system configuration;
 350:.\Generated_Source\PSoC5/cyfitter_cfg.c **** * may be called during operation when the user informs us that the Vdda voltage
 351:.\Generated_Source\PSoC5/cyfitter_cfg.c **** * crossed the pump threshold.
 352:.\Generated_Source\PSoC5/cyfitter_cfg.c **** *
 353:.\Generated_Source\PSoC5/cyfitter_cfg.c **** * Parameters:
 354:.\Generated_Source\PSoC5/cyfitter_cfg.c **** *  enabled - 1 to enable the pumps, 0 to disable the pumps
 355:.\Generated_Source\PSoC5/cyfitter_cfg.c **** *
 356:.\Generated_Source\PSoC5/cyfitter_cfg.c **** * Return:
 357:.\Generated_Source\PSoC5/cyfitter_cfg.c **** *  void
 358:.\Generated_Source\PSoC5/cyfitter_cfg.c **** *
 359:.\Generated_Source\PSoC5/cyfitter_cfg.c **** *******************************************************************************/
 360:.\Generated_Source\PSoC5/cyfitter_cfg.c **** void SetAnalogRoutingPumps(uint8 enabled)
 361:.\Generated_Source\PSoC5/cyfitter_cfg.c **** {
 701              		.loc 1 361 0
 702              		.cfi_startproc
 703              		@ args = 0, pretend = 0, frame = 16
 704              		@ frame_needed = 1, uses_anonymous_args = 0
 705              		@ link register save eliminated.
 706 0000 80B4     		push	{r7}
 707              	.LCFI21:
 708              		.cfi_def_cfa_offset 4
 709              		.cfi_offset 7, -4
 710 0002 85B0     		sub	sp, sp, #20
 711              	.LCFI22:
 712              		.cfi_def_cfa_offset 24
 713 0004 00AF     		add	r7, sp, #0
 714              	.LCFI23:
 715              		.cfi_def_cfa_register 7
 716 0006 0346     		mov	r3, r0
 717 0008 FB71     		strb	r3, [r7, #7]
ARM GAS  C:\Users\Brian\AppData\Local\Temp\ccTj2tfG.s 			page 20


 362:.\Generated_Source\PSoC5/cyfitter_cfg.c **** 	uint8 regValue = CY_GET_XTND_REG8((void CYFAR *)CYREG_PUMP_CR0);
 718              		.loc 1 362 0
 719 000a 45F67603 		movw	r3, #22646
 720 000e C4F20003 		movt	r3, 16384
 721 0012 1B78     		ldrb	r3, [r3, #0]
 722 0014 FB73     		strb	r3, [r7, #15]
 363:.\Generated_Source\PSoC5/cyfitter_cfg.c **** 	if (enabled != 0u)
 723              		.loc 1 363 0
 724 0016 FB79     		ldrb	r3, [r7, #7]	@ zero_extendqisi2
 725 0018 002B     		cmp	r3, #0
 726 001a 04D0     		beq	.L18
 364:.\Generated_Source\PSoC5/cyfitter_cfg.c **** 	{
 365:.\Generated_Source\PSoC5/cyfitter_cfg.c **** 		regValue |= 0x22u;
 727              		.loc 1 365 0
 728 001c FB7B     		ldrb	r3, [r7, #15]
 729 001e 43F02203 		orr	r3, r3, #34
 730 0022 FB73     		strb	r3, [r7, #15]
 731 0024 03E0     		b	.L19
 732              	.L18:
 366:.\Generated_Source\PSoC5/cyfitter_cfg.c **** 	}
 367:.\Generated_Source\PSoC5/cyfitter_cfg.c **** 	else
 368:.\Generated_Source\PSoC5/cyfitter_cfg.c **** 	{
 369:.\Generated_Source\PSoC5/cyfitter_cfg.c **** 		regValue &= (uint8)~0x22u;
 733              		.loc 1 369 0
 734 0026 FB7B     		ldrb	r3, [r7, #15]
 735 0028 23F02203 		bic	r3, r3, #34
 736 002c FB73     		strb	r3, [r7, #15]
 737              	.L19:
 370:.\Generated_Source\PSoC5/cyfitter_cfg.c **** 	}
 371:.\Generated_Source\PSoC5/cyfitter_cfg.c **** 	CY_SET_XTND_REG8((void CYFAR *)CYREG_PUMP_CR0, regValue);
 738              		.loc 1 371 0
 739 002e 45F67603 		movw	r3, #22646
 740 0032 C4F20003 		movt	r3, 16384
 741 0036 FA7B     		ldrb	r2, [r7, #15]
 742 0038 1A70     		strb	r2, [r3, #0]
 372:.\Generated_Source\PSoC5/cyfitter_cfg.c **** }
 743              		.loc 1 372 0
 744 003a 07F11407 		add	r7, r7, #20
 745 003e BD46     		mov	sp, r7
 746 0040 80BC     		pop	{r7}
 747 0042 7047     		bx	lr
 748              		.cfi_endproc
 749              	.LFE7:
 750              		.size	SetAnalogRoutingPumps, .-SetAnalogRoutingPumps
 751              		.global	ADC_DelSig_1_AMux__addrTable
 752              		.section	.rodata
 753              		.align	2
 754              		.type	ADC_DelSig_1_AMux__addrTable, %object
 755              		.size	ADC_DelSig_1_AMux__addrTable, 8
 756              	ADC_DelSig_1_AMux__addrTable:
 757 0000 035B0040 		.word	1073765123
 758 0004 24430040 		.word	1073759012
 759              		.global	ADC_DelSig_1_AMux__maskTable
 760              		.align	2
 761              		.type	ADC_DelSig_1_AMux__maskTable, %object
 762              		.size	ADC_DelSig_1_AMux__maskTable, 2
 763              	ADC_DelSig_1_AMux__maskTable:
ARM GAS  C:\Users\Brian\AppData\Local\Temp\ccTj2tfG.s 			page 21


 764 0008 40       		.byte	64
 765 0009 00       		.byte	0
 766              		.section	.text.ADC_DelSig_1_AMux_Set,"ax",%progbits
 767              		.align	2
 768              		.global	ADC_DelSig_1_AMux_Set
 769              		.thumb
 770              		.thumb_func
 771              		.type	ADC_DelSig_1_AMux_Set, %function
 772              	ADC_DelSig_1_AMux_Set:
 773              	.LFB8:
 373:.\Generated_Source\PSoC5/cyfitter_cfg.c **** 
 374:.\Generated_Source\PSoC5/cyfitter_cfg.c **** #define CY_AMUX_UNUSED CYREG_BOOST_SR
 375:.\Generated_Source\PSoC5/cyfitter_cfg.c **** /* This is an implementation detail of the AMux. Code that depends on it may be
 376:.\Generated_Source\PSoC5/cyfitter_cfg.c ****    incompatible with other versions of PSoC Creator. */
 377:.\Generated_Source\PSoC5/cyfitter_cfg.c **** uint8 CYXDATA * const CYCODE ADC_DelSig_1_AMux__addrTable[2] = {
 378:.\Generated_Source\PSoC5/cyfitter_cfg.c **** 	(uint8 CYXDATA *)CYREG_DSM0_SW3, 
 379:.\Generated_Source\PSoC5/cyfitter_cfg.c **** 	(uint8 CYXDATA *)CY_AMUX_UNUSED, 
 380:.\Generated_Source\PSoC5/cyfitter_cfg.c **** };
 381:.\Generated_Source\PSoC5/cyfitter_cfg.c **** 
 382:.\Generated_Source\PSoC5/cyfitter_cfg.c **** /* This is an implementation detail of the AMux. Code that depends on it may be
 383:.\Generated_Source\PSoC5/cyfitter_cfg.c ****    incompatible with other versions of PSoC Creator. */
 384:.\Generated_Source\PSoC5/cyfitter_cfg.c **** const uint8 CYCODE ADC_DelSig_1_AMux__maskTable[2] = {
 385:.\Generated_Source\PSoC5/cyfitter_cfg.c **** 	0x40u, 
 386:.\Generated_Source\PSoC5/cyfitter_cfg.c **** 	0x00u, 
 387:.\Generated_Source\PSoC5/cyfitter_cfg.c **** };
 388:.\Generated_Source\PSoC5/cyfitter_cfg.c **** 
 389:.\Generated_Source\PSoC5/cyfitter_cfg.c **** /*******************************************************************************
 390:.\Generated_Source\PSoC5/cyfitter_cfg.c **** * Function Name: ADC_DelSig_1_AMux_Set
 391:.\Generated_Source\PSoC5/cyfitter_cfg.c **** ********************************************************************************
 392:.\Generated_Source\PSoC5/cyfitter_cfg.c **** * Summary:
 393:.\Generated_Source\PSoC5/cyfitter_cfg.c **** *  This function is used to set a particular channel as active on the AMux.
 394:.\Generated_Source\PSoC5/cyfitter_cfg.c **** *
 395:.\Generated_Source\PSoC5/cyfitter_cfg.c **** * Parameters:  
 396:.\Generated_Source\PSoC5/cyfitter_cfg.c **** *   channel - The mux channel input to set as active
 397:.\Generated_Source\PSoC5/cyfitter_cfg.c **** *
 398:.\Generated_Source\PSoC5/cyfitter_cfg.c **** * Return:
 399:.\Generated_Source\PSoC5/cyfitter_cfg.c **** *   void
 400:.\Generated_Source\PSoC5/cyfitter_cfg.c **** *
 401:.\Generated_Source\PSoC5/cyfitter_cfg.c **** *******************************************************************************/
 402:.\Generated_Source\PSoC5/cyfitter_cfg.c **** void ADC_DelSig_1_AMux_Set(uint8 channel)
 403:.\Generated_Source\PSoC5/cyfitter_cfg.c **** {
 774              		.loc 1 403 0
 775              		.cfi_startproc
 776              		@ args = 0, pretend = 0, frame = 8
 777              		@ frame_needed = 1, uses_anonymous_args = 0
 778              		@ link register save eliminated.
 779 0000 80B4     		push	{r7}
 780              	.LCFI24:
 781              		.cfi_def_cfa_offset 4
 782              		.cfi_offset 7, -4
 783 0002 83B0     		sub	sp, sp, #12
 784              	.LCFI25:
 785              		.cfi_def_cfa_offset 16
 786 0004 00AF     		add	r7, sp, #0
 787              	.LCFI26:
 788              		.cfi_def_cfa_register 7
 789 0006 0346     		mov	r3, r0
ARM GAS  C:\Users\Brian\AppData\Local\Temp\ccTj2tfG.s 			page 22


 790 0008 FB71     		strb	r3, [r7, #7]
 404:.\Generated_Source\PSoC5/cyfitter_cfg.c **** 	if (channel < 2)
 791              		.loc 1 404 0
 792 000a FB79     		ldrb	r3, [r7, #7]	@ zero_extendqisi2
 793 000c 012B     		cmp	r3, #1
 794 000e 17D8     		bhi	.L20
 405:.\Generated_Source\PSoC5/cyfitter_cfg.c **** 	{
 406:.\Generated_Source\PSoC5/cyfitter_cfg.c **** 		*ADC_DelSig_1_AMux__addrTable[channel] |= ADC_DelSig_1_AMux__maskTable[channel];
 795              		.loc 1 406 0
 796 0010 FA79     		ldrb	r2, [r7, #7]	@ zero_extendqisi2
 797 0012 40F20003 		movw	r3, #:lower16:ADC_DelSig_1_AMux__addrTable
 798 0016 C0F20003 		movt	r3, #:upper16:ADC_DelSig_1_AMux__addrTable
 799 001a 53F82220 		ldr	r2, [r3, r2, lsl #2]
 800 001e F979     		ldrb	r1, [r7, #7]	@ zero_extendqisi2
 801 0020 40F20003 		movw	r3, #:lower16:ADC_DelSig_1_AMux__addrTable
 802 0024 C0F20003 		movt	r3, #:upper16:ADC_DelSig_1_AMux__addrTable
 803 0028 53F82130 		ldr	r3, [r3, r1, lsl #2]
 804 002c 1978     		ldrb	r1, [r3, #0]	@ zero_extendqisi2
 805 002e F879     		ldrb	r0, [r7, #7]	@ zero_extendqisi2
 806 0030 40F20003 		movw	r3, #:lower16:ADC_DelSig_1_AMux__maskTable
 807 0034 C0F20003 		movt	r3, #:upper16:ADC_DelSig_1_AMux__maskTable
 808 0038 1B5C     		ldrb	r3, [r3, r0]	@ zero_extendqisi2
 809 003a 0B43     		orrs	r3, r3, r1
 810 003c DBB2     		uxtb	r3, r3
 811 003e 1370     		strb	r3, [r2, #0]
 812              	.L20:
 407:.\Generated_Source\PSoC5/cyfitter_cfg.c **** 	}
 408:.\Generated_Source\PSoC5/cyfitter_cfg.c **** }
 813              		.loc 1 408 0
 814 0040 07F10C07 		add	r7, r7, #12
 815 0044 BD46     		mov	sp, r7
 816 0046 80BC     		pop	{r7}
 817 0048 7047     		bx	lr
 818              		.cfi_endproc
 819              	.LFE8:
 820              		.size	ADC_DelSig_1_AMux_Set, .-ADC_DelSig_1_AMux_Set
 821 004a 00BF     		.section	.text.ADC_DelSig_1_AMux_Unset,"ax",%progbits
 822              		.align	2
 823              		.global	ADC_DelSig_1_AMux_Unset
 824              		.thumb
 825              		.thumb_func
 826              		.type	ADC_DelSig_1_AMux_Unset, %function
 827              	ADC_DelSig_1_AMux_Unset:
 828              	.LFB9:
 409:.\Generated_Source\PSoC5/cyfitter_cfg.c **** 
 410:.\Generated_Source\PSoC5/cyfitter_cfg.c **** /*******************************************************************************
 411:.\Generated_Source\PSoC5/cyfitter_cfg.c **** * Function Name: ADC_DelSig_1_AMux_Unset
 412:.\Generated_Source\PSoC5/cyfitter_cfg.c **** ********************************************************************************
 413:.\Generated_Source\PSoC5/cyfitter_cfg.c **** * Summary:
 414:.\Generated_Source\PSoC5/cyfitter_cfg.c **** *  This function is used to clear a particular channel from being active on the
 415:.\Generated_Source\PSoC5/cyfitter_cfg.c **** *  AMux.
 416:.\Generated_Source\PSoC5/cyfitter_cfg.c **** *
 417:.\Generated_Source\PSoC5/cyfitter_cfg.c **** * Parameters:  
 418:.\Generated_Source\PSoC5/cyfitter_cfg.c **** *   channel - The mux channel input to mark inactive
 419:.\Generated_Source\PSoC5/cyfitter_cfg.c **** *
 420:.\Generated_Source\PSoC5/cyfitter_cfg.c **** * Return:
 421:.\Generated_Source\PSoC5/cyfitter_cfg.c **** *   void
ARM GAS  C:\Users\Brian\AppData\Local\Temp\ccTj2tfG.s 			page 23


 422:.\Generated_Source\PSoC5/cyfitter_cfg.c **** *
 423:.\Generated_Source\PSoC5/cyfitter_cfg.c **** *******************************************************************************/
 424:.\Generated_Source\PSoC5/cyfitter_cfg.c **** void ADC_DelSig_1_AMux_Unset(uint8 channel)
 425:.\Generated_Source\PSoC5/cyfitter_cfg.c **** {
 829              		.loc 1 425 0
 830              		.cfi_startproc
 831              		@ args = 0, pretend = 0, frame = 8
 832              		@ frame_needed = 1, uses_anonymous_args = 0
 833              		@ link register save eliminated.
 834 0000 80B4     		push	{r7}
 835              	.LCFI27:
 836              		.cfi_def_cfa_offset 4
 837              		.cfi_offset 7, -4
 838 0002 83B0     		sub	sp, sp, #12
 839              	.LCFI28:
 840              		.cfi_def_cfa_offset 16
 841 0004 00AF     		add	r7, sp, #0
 842              	.LCFI29:
 843              		.cfi_def_cfa_register 7
 844 0006 0346     		mov	r3, r0
 845 0008 FB71     		strb	r3, [r7, #7]
 426:.\Generated_Source\PSoC5/cyfitter_cfg.c **** 	if (channel < 2)
 846              		.loc 1 426 0
 847 000a FB79     		ldrb	r3, [r7, #7]	@ zero_extendqisi2
 848 000c 012B     		cmp	r3, #1
 849 000e 1AD8     		bhi	.L22
 427:.\Generated_Source\PSoC5/cyfitter_cfg.c **** 	{
 428:.\Generated_Source\PSoC5/cyfitter_cfg.c **** 		*ADC_DelSig_1_AMux__addrTable[channel] &= (uint8)~ADC_DelSig_1_AMux__maskTable[channel];
 850              		.loc 1 428 0
 851 0010 FA79     		ldrb	r2, [r7, #7]	@ zero_extendqisi2
 852 0012 40F20003 		movw	r3, #:lower16:ADC_DelSig_1_AMux__addrTable
 853 0016 C0F20003 		movt	r3, #:upper16:ADC_DelSig_1_AMux__addrTable
 854 001a 53F82220 		ldr	r2, [r3, r2, lsl #2]
 855 001e F979     		ldrb	r1, [r7, #7]	@ zero_extendqisi2
 856 0020 40F20003 		movw	r3, #:lower16:ADC_DelSig_1_AMux__addrTable
 857 0024 C0F20003 		movt	r3, #:upper16:ADC_DelSig_1_AMux__addrTable
 858 0028 53F82130 		ldr	r3, [r3, r1, lsl #2]
 859 002c 1978     		ldrb	r1, [r3, #0]	@ zero_extendqisi2
 860 002e F879     		ldrb	r0, [r7, #7]	@ zero_extendqisi2
 861 0030 40F20003 		movw	r3, #:lower16:ADC_DelSig_1_AMux__maskTable
 862 0034 C0F20003 		movt	r3, #:upper16:ADC_DelSig_1_AMux__maskTable
 863 0038 1B5C     		ldrb	r3, [r3, r0]	@ zero_extendqisi2
 864 003a 6FEA0303 		mvn	r3, r3
 865 003e DBB2     		uxtb	r3, r3
 866 0040 0B40     		ands	r3, r3, r1
 867 0042 DBB2     		uxtb	r3, r3
 868 0044 1370     		strb	r3, [r2, #0]
 869              	.L22:
 429:.\Generated_Source\PSoC5/cyfitter_cfg.c **** 	}
 430:.\Generated_Source\PSoC5/cyfitter_cfg.c **** }
 870              		.loc 1 430 0
 871 0046 07F10C07 		add	r7, r7, #12
 872 004a BD46     		mov	sp, r7
 873 004c 80BC     		pop	{r7}
 874 004e 7047     		bx	lr
 875              		.cfi_endproc
 876              	.LFE9:
ARM GAS  C:\Users\Brian\AppData\Local\Temp\ccTj2tfG.s 			page 24


 877              		.size	ADC_DelSig_1_AMux_Unset, .-ADC_DelSig_1_AMux_Unset
 878              		.section	.text.cyfitter_cfg,"ax",%progbits
 879              		.align	2
 880              		.global	cyfitter_cfg
 881              		.thumb
 882              		.thumb_func
 883              		.type	cyfitter_cfg, %function
 884              	cyfitter_cfg:
 885              	.LFB10:
 431:.\Generated_Source\PSoC5/cyfitter_cfg.c **** 
 432:.\Generated_Source\PSoC5/cyfitter_cfg.c **** 
 433:.\Generated_Source\PSoC5/cyfitter_cfg.c **** 
 434:.\Generated_Source\PSoC5/cyfitter_cfg.c **** /*******************************************************************************
 435:.\Generated_Source\PSoC5/cyfitter_cfg.c **** * Function Name: cyfitter_cfg
 436:.\Generated_Source\PSoC5/cyfitter_cfg.c **** ********************************************************************************
 437:.\Generated_Source\PSoC5/cyfitter_cfg.c **** * Summary:
 438:.\Generated_Source\PSoC5/cyfitter_cfg.c **** *  This function is called by the start-up code for the selected device. It
 439:.\Generated_Source\PSoC5/cyfitter_cfg.c **** *  performs all of the necessary device configuration based on the design
 440:.\Generated_Source\PSoC5/cyfitter_cfg.c **** *  settings.  This includes settings from the Design Wide Resources (DWR) such
 441:.\Generated_Source\PSoC5/cyfitter_cfg.c **** *  as Clocks and Pins as well as any component configuration that is necessary.
 442:.\Generated_Source\PSoC5/cyfitter_cfg.c **** *
 443:.\Generated_Source\PSoC5/cyfitter_cfg.c **** * Parameters:  
 444:.\Generated_Source\PSoC5/cyfitter_cfg.c **** *   void
 445:.\Generated_Source\PSoC5/cyfitter_cfg.c **** *
 446:.\Generated_Source\PSoC5/cyfitter_cfg.c **** * Return:
 447:.\Generated_Source\PSoC5/cyfitter_cfg.c **** *   void
 448:.\Generated_Source\PSoC5/cyfitter_cfg.c **** *
 449:.\Generated_Source\PSoC5/cyfitter_cfg.c **** *******************************************************************************/
 450:.\Generated_Source\PSoC5/cyfitter_cfg.c **** 
 451:.\Generated_Source\PSoC5/cyfitter_cfg.c **** void cyfitter_cfg(void)
 452:.\Generated_Source\PSoC5/cyfitter_cfg.c **** {
 886              		.loc 1 452 0
 887              		.cfi_startproc
 888              		@ args = 0, pretend = 0, frame = 8
 889              		@ frame_needed = 1, uses_anonymous_args = 0
 890 0000 80B5     		push	{r7, lr}
 891              	.LCFI30:
 892              		.cfi_def_cfa_offset 8
 893              		.cfi_offset 7, -8
 894              		.cfi_offset 14, -4
 895 0002 82B0     		sub	sp, sp, #8
 896              	.LCFI31:
 897              		.cfi_def_cfa_offset 16
 898 0004 00AF     		add	r7, sp, #0
 899              	.LCFI32:
 900              		.cfi_def_cfa_register 7
 453:.\Generated_Source\PSoC5/cyfitter_cfg.c **** #ifdef CYGlobalIntDisable
 454:.\Generated_Source\PSoC5/cyfitter_cfg.c **** 	/* Disable interrupts by default. Let user enable if/when they want. */
 455:.\Generated_Source\PSoC5/cyfitter_cfg.c **** 	CYGlobalIntDisable
 901              		.loc 1 455 0
 902              	@ 455 ".\Generated_Source\PSoC5\cyfitter_cfg.c" 1
 903 0006 72B6     		CPSID   i
 904              	@ 0 "" 2
 456:.\Generated_Source\PSoC5/cyfitter_cfg.c **** #endif
 457:.\Generated_Source\PSoC5/cyfitter_cfg.c **** 
 458:.\Generated_Source\PSoC5/cyfitter_cfg.c **** 	/* Enable/Disable Debug functionality based on settings from System DWR */
 459:.\Generated_Source\PSoC5/cyfitter_cfg.c **** 	CY_SET_XTND_REG8((void CYFAR *)CYREG_MLOGIC_DEBUG, (CY_GET_XTND_REG8((void CYFAR *)CYREG_MLOGIC_DE
ARM GAS  C:\Users\Brian\AppData\Local\Temp\ccTj2tfG.s 			page 25


 905              		.loc 1 459 0
 906              		.thumb
 907 0008 44F2E863 		movw	r3, #18152
 908 000c C4F20003 		movt	r3, 16384
 909 0010 44F2E862 		movw	r2, #18152
 910 0014 C4F20002 		movt	r2, 16384
 911 0018 1278     		ldrb	r2, [r2, #0]
 912 001a D2B2     		uxtb	r2, r2
 913 001c 42F02002 		orr	r2, r2, #32
 914 0020 D2B2     		uxtb	r2, r2
 915 0022 1A70     		strb	r2, [r3, #0]
 916              	.LBB3:
 460:.\Generated_Source\PSoC5/cyfitter_cfg.c **** 
 461:.\Generated_Source\PSoC5/cyfitter_cfg.c **** 	{
 462:.\Generated_Source\PSoC5/cyfitter_cfg.c **** 
 463:.\Generated_Source\PSoC5/cyfitter_cfg.c **** 		CYPACKED typedef struct {
 464:.\Generated_Source\PSoC5/cyfitter_cfg.c **** 			void CYFAR *address;
 465:.\Generated_Source\PSoC5/cyfitter_cfg.c **** 			uint16 size;
 466:.\Generated_Source\PSoC5/cyfitter_cfg.c **** 		} CYPACKED_ATTR cfg_memset_t;
 467:.\Generated_Source\PSoC5/cyfitter_cfg.c **** 
 468:.\Generated_Source\PSoC5/cyfitter_cfg.c **** 		static const cfg_memset_t CYCODE cfg_memset_list [] = {
 469:.\Generated_Source\PSoC5/cyfitter_cfg.c **** 			/* address, size */
 470:.\Generated_Source\PSoC5/cyfitter_cfg.c **** 			{(void CYFAR *)(CYREG_I2C_XCFG), 25u},
 471:.\Generated_Source\PSoC5/cyfitter_cfg.c **** 			{(void CYFAR *)(CYDEV_UCFG_B0_P0_U0_BASE), 4096u},
 472:.\Generated_Source\PSoC5/cyfitter_cfg.c **** 			{(void CYFAR *)(CYDEV_UCFG_B1_P2_U0_BASE), 2048u},
 473:.\Generated_Source\PSoC5/cyfitter_cfg.c **** 			{(void CYFAR *)(CYDEV_UCFG_DSI0_BASE), 2560u},
 474:.\Generated_Source\PSoC5/cyfitter_cfg.c **** 			{(void CYFAR *)(CYDEV_UCFG_DSI12_BASE), 512u},
 475:.\Generated_Source\PSoC5/cyfitter_cfg.c **** 			{(void CYFAR *)(CYREG_BCTL0_MDCLK_EN), 32u},
 476:.\Generated_Source\PSoC5/cyfitter_cfg.c **** 		};
 477:.\Generated_Source\PSoC5/cyfitter_cfg.c **** 
 478:.\Generated_Source\PSoC5/cyfitter_cfg.c **** 		uint8 CYDATA i;
 479:.\Generated_Source\PSoC5/cyfitter_cfg.c **** 
 480:.\Generated_Source\PSoC5/cyfitter_cfg.c **** 		/* Zero out critical memory blocks before beginning configuration */
 481:.\Generated_Source\PSoC5/cyfitter_cfg.c **** 		for (i = 0u; i < (sizeof(cfg_memset_list)/sizeof(cfg_memset_list[0])); i++)
 917              		.loc 1 481 0
 918 0024 4FF00003 		mov	r3, #0
 919 0028 FB71     		strb	r3, [r7, #7]
 920 002a 19E0     		b	.L25
 921              	.L26:
 922              	.LBB4:
 482:.\Generated_Source\PSoC5/cyfitter_cfg.c **** 		{
 483:.\Generated_Source\PSoC5/cyfitter_cfg.c **** 			const cfg_memset_t CYCODE * CYDATA ms = &cfg_memset_list[i];
 923              		.loc 1 483 0 discriminator 2
 924 002c FA79     		ldrb	r2, [r7, #7]	@ zero_extendqisi2
 925 002e 1346     		mov	r3, r2
 926 0030 4FEA4303 		lsl	r3, r3, #1
 927 0034 9B18     		adds	r3, r3, r2
 928 0036 4FEA4303 		lsl	r3, r3, #1
 929 003a 40F20002 		movw	r2, #:lower16:cfg_memset_list.4825
 930 003e C0F20002 		movt	r2, #:upper16:cfg_memset_list.4825
 931 0042 9B18     		adds	r3, r3, r2
 932 0044 3B60     		str	r3, [r7, #0]
 484:.\Generated_Source\PSoC5/cyfitter_cfg.c **** 			CYMEMZERO(ms->address, (uint32)(ms->size));
 933              		.loc 1 484 0 discriminator 2
 934 0046 3B68     		ldr	r3, [r7, #0]
 935 0048 1A68     		ldr	r2, [r3, #0]	@ unaligned
 936 004a 3B68     		ldr	r3, [r7, #0]
ARM GAS  C:\Users\Brian\AppData\Local\Temp\ccTj2tfG.s 			page 26


 937 004c 9B88     		ldrh	r3, [r3, #4]	@ unaligned
 938 004e 9BB2     		uxth	r3, r3
 939 0050 1046     		mov	r0, r2
 940 0052 1946     		mov	r1, r3
 941 0054 FFF7FEFF 		bl	CYMEMZERO
 942              	.LBE4:
 481:.\Generated_Source\PSoC5/cyfitter_cfg.c **** 		for (i = 0u; i < (sizeof(cfg_memset_list)/sizeof(cfg_memset_list[0])); i++)
 943              		.loc 1 481 0 discriminator 2
 944 0058 FB79     		ldrb	r3, [r7, #7]
 945 005a 03F10103 		add	r3, r3, #1
 946 005e FB71     		strb	r3, [r7, #7]
 947              	.L25:
 481:.\Generated_Source\PSoC5/cyfitter_cfg.c **** 		for (i = 0u; i < (sizeof(cfg_memset_list)/sizeof(cfg_memset_list[0])); i++)
 948              		.loc 1 481 0 is_stmt 0 discriminator 1
 949 0060 FB79     		ldrb	r3, [r7, #7]	@ zero_extendqisi2
 950 0062 052B     		cmp	r3, #5
 951 0064 E2D9     		bls	.L26
 485:.\Generated_Source\PSoC5/cyfitter_cfg.c **** 		}
 486:.\Generated_Source\PSoC5/cyfitter_cfg.c **** 
 487:.\Generated_Source\PSoC5/cyfitter_cfg.c **** 		cfg_write_bytes32(cy_cfg_addr_table, cy_cfg_data_table);
 952              		.loc 1 487 0 is_stmt 1
 953 0066 40F20003 		movw	r3, #:lower16:CY_ECC_OFFSET
 954 006a C0F20003 		movt	r3, #:upper16:CY_ECC_OFFSET
 955 006e 03F19043 		add	r3, r3, #1207959552
 956 0072 1A46     		mov	r2, r3
 957 0074 40F20003 		movw	r3, #:lower16:CY_ECC_OFFSET
 958 0078 C0F20003 		movt	r3, #:upper16:CY_ECC_OFFSET
 959 007c 03F19043 		add	r3, r3, #1207959552
 960 0080 03F1A403 		add	r3, r3, #164
 961 0084 1046     		mov	r0, r2
 962 0086 1946     		mov	r1, r3
 963 0088 FFF7FEFF 		bl	cfg_write_bytes32
 488:.\Generated_Source\PSoC5/cyfitter_cfg.c **** 
 489:.\Generated_Source\PSoC5/cyfitter_cfg.c **** 		/* Perform normal device configuration. Order is not critical for these items. */
 490:.\Generated_Source\PSoC5/cyfitter_cfg.c **** 		CY_SET_XTND_REG8((void CYFAR *)(CYREG_DSM0_CR3), 0x0Au);
 964              		.loc 1 490 0
 965 008c 45F68303 		movw	r3, #22659
 966 0090 C4F20003 		movt	r3, 16384
 967 0094 4FF00A02 		mov	r2, #10
 968 0098 1A70     		strb	r2, [r3, #0]
 491:.\Generated_Source\PSoC5/cyfitter_cfg.c **** 		CY_SET_XTND_REG8((void CYFAR *)(CYREG_DSM0_CLK), 0x02u);
 969              		.loc 1 491 0
 970 009a 45F60733 		movw	r3, #23303
 971 009e C4F20003 		movt	r3, 16384
 972 00a2 4FF00202 		mov	r2, #2
 973 00a6 1A70     		strb	r2, [r3, #0]
 492:.\Generated_Source\PSoC5/cyfitter_cfg.c **** 		CYMEMZERO((void CYFAR *)(CYREG_PHUB_CFGMEM0_CFG0), 4u);
 974              		.loc 1 492 0
 975 00a8 4FF4EC40 		mov	r0, #30208
 976 00ac C4F20000 		movt	r0, 16384
 977 00b0 4FF00401 		mov	r1, #4
 978 00b4 FFF7FEFF 		bl	CYMEMZERO
 493:.\Generated_Source\PSoC5/cyfitter_cfg.c **** 		CYMEMZERO((void CYFAR *)(CYREG_PHUB_CFGMEM1_CFG0), 4u);
 979              		.loc 1 493 0
 980 00b8 47F20860 		movw	r0, #30216
 981 00bc C4F20000 		movt	r0, 16384
 982 00c0 4FF00401 		mov	r1, #4
ARM GAS  C:\Users\Brian\AppData\Local\Temp\ccTj2tfG.s 			page 27


 983 00c4 FFF7FEFF 		bl	CYMEMZERO
 494:.\Generated_Source\PSoC5/cyfitter_cfg.c **** 
 495:.\Generated_Source\PSoC5/cyfitter_cfg.c **** 		/* Enable digital routing */
 496:.\Generated_Source\PSoC5/cyfitter_cfg.c **** 		CY_SET_XTND_REG8((void CYFAR *)CYREG_BCTL0_BANK_CTL, CY_GET_XTND_REG8((void CYFAR *)CYREG_BCTL0_B
 984              		.loc 1 496 0
 985 00c8 45F20303 		movw	r3, #20483
 986 00cc C4F20103 		movt	r3, 16385
 987 00d0 45F20302 		movw	r2, #20483
 988 00d4 C4F20102 		movt	r2, 16385
 989 00d8 1278     		ldrb	r2, [r2, #0]
 990 00da D2B2     		uxtb	r2, r2
 991 00dc 42F00202 		orr	r2, r2, #2
 992 00e0 D2B2     		uxtb	r2, r2
 993 00e2 1A70     		strb	r2, [r3, #0]
 497:.\Generated_Source\PSoC5/cyfitter_cfg.c **** 		CY_SET_XTND_REG8((void CYFAR *)CYREG_BCTL1_BANK_CTL, CY_GET_XTND_REG8((void CYFAR *)CYREG_BCTL1_B
 994              		.loc 1 497 0
 995 00e4 45F21303 		movw	r3, #20499
 996 00e8 C4F20103 		movt	r3, 16385
 997 00ec 45F21302 		movw	r2, #20499
 998 00f0 C4F20102 		movt	r2, 16385
 999 00f4 1278     		ldrb	r2, [r2, #0]
 1000 00f6 D2B2     		uxtb	r2, r2
 1001 00f8 42F00202 		orr	r2, r2, #2
 1002 00fc D2B2     		uxtb	r2, r2
 1003 00fe 1A70     		strb	r2, [r3, #0]
 498:.\Generated_Source\PSoC5/cyfitter_cfg.c **** 
 499:.\Generated_Source\PSoC5/cyfitter_cfg.c **** 		/* Enable UDB array */
 500:.\Generated_Source\PSoC5/cyfitter_cfg.c **** 		CY_SET_XTND_REG8((void CYFAR *)CYREG_PM_ACT_CFG0, CY_GET_XTND_REG8((void CYFAR *)CYREG_PM_ACT_CFG
 1004              		.loc 1 500 0
 1005 0100 44F2A033 		movw	r3, #17312
 1006 0104 C4F20003 		movt	r3, 16384
 1007 0108 44F2A032 		movw	r2, #17312
 1008 010c C4F20002 		movt	r2, 16384
 1009 0110 1278     		ldrb	r2, [r2, #0]
 1010 0112 D2B2     		uxtb	r2, r2
 1011 0114 42F04002 		orr	r2, r2, #64
 1012 0118 D2B2     		uxtb	r2, r2
 1013 011a 1A70     		strb	r2, [r3, #0]
 501:.\Generated_Source\PSoC5/cyfitter_cfg.c **** 		CY_SET_XTND_REG8((void CYFAR *)CYREG_PM_AVAIL_CR2, CY_GET_XTND_REG8((void CYFAR *)CYREG_PM_AVAIL_
 1014              		.loc 1 501 0
 1015 011c 44F2C233 		movw	r3, #17346
 1016 0120 C4F20003 		movt	r3, 16384
 1017 0124 44F2C232 		movw	r2, #17346
 1018 0128 C4F20002 		movt	r2, 16384
 1019 012c 1278     		ldrb	r2, [r2, #0]
 1020 012e D2B2     		uxtb	r2, r2
 1021 0130 42F01002 		orr	r2, r2, #16
 1022 0134 D2B2     		uxtb	r2, r2
 1023 0136 1A70     		strb	r2, [r3, #0]
 1024              	.LBE3:
 502:.\Generated_Source\PSoC5/cyfitter_cfg.c **** 	}
 503:.\Generated_Source\PSoC5/cyfitter_cfg.c **** 
 504:.\Generated_Source\PSoC5/cyfitter_cfg.c **** 	/* Perform second pass device configuration. These items must be configured in specific order afte
 505:.\Generated_Source\PSoC5/cyfitter_cfg.c **** 	CYCONFIGCPY((void CYFAR *)(CYREG_PRT0_DM0), (const void CYFAR *)(BS_IOPINS0_0_VAL), 8u);
 1025              		.loc 1 505 0
 1026 0138 40F20003 		movw	r3, #:lower16:CY_ECC_OFFSET
 1027 013c C0F20003 		movt	r3, #:upper16:CY_ECC_OFFSET
ARM GAS  C:\Users\Brian\AppData\Local\Temp\ccTj2tfG.s 			page 28


 1028 0140 03F19043 		add	r3, r3, #1207959552
 1029 0144 03F53963 		add	r3, r3, #2960
 1030 0148 45F20210 		movw	r0, #20738
 1031 014c C4F20000 		movt	r0, 16384
 1032 0150 1946     		mov	r1, r3
 1033 0152 4FF00802 		mov	r2, #8
 1034 0156 FFF7FEFF 		bl	CYCONFIGCPY
 506:.\Generated_Source\PSoC5/cyfitter_cfg.c **** 	CYCONFIGCPY((void CYFAR *)(CYREG_PRT12_DM0), (const void CYFAR *)(BS_IOPINS0_7_VAL), 8u);
 1035              		.loc 1 506 0
 1036 015a 40F20003 		movw	r3, #:lower16:CY_ECC_OFFSET
 1037 015e C0F20003 		movt	r3, #:upper16:CY_ECC_OFFSET
 1038 0162 03F19043 		add	r3, r3, #1207959552
 1039 0166 03F69833 		addw	r3, r3, #2968
 1040 016a 45F2C210 		movw	r0, #20930
 1041 016e C4F20000 		movt	r0, 16384
 1042 0172 1946     		mov	r1, r3
 1043 0174 4FF00802 		mov	r2, #8
 1044 0178 FFF7FEFF 		bl	CYCONFIGCPY
 507:.\Generated_Source\PSoC5/cyfitter_cfg.c **** 	CYCONFIGCPY((void CYFAR *)(CYREG_PRT15_DM0), (const void CYFAR *)(BS_IOPINS0_8_VAL), 8u);
 1045              		.loc 1 507 0
 1046 017c 40F20003 		movw	r3, #:lower16:CY_ECC_OFFSET
 1047 0180 C0F20003 		movt	r3, #:upper16:CY_ECC_OFFSET
 1048 0184 03F19043 		add	r3, r3, #1207959552
 1049 0188 03F53A63 		add	r3, r3, #2976
 1050 018c 45F2F210 		movw	r0, #20978
 1051 0190 C4F20000 		movt	r0, 16384
 1052 0194 1946     		mov	r1, r3
 1053 0196 4FF00802 		mov	r2, #8
 1054 019a FFF7FEFF 		bl	CYCONFIGCPY
 508:.\Generated_Source\PSoC5/cyfitter_cfg.c **** 	CYCONFIGCPY((void CYFAR *)(CYREG_PRT1_DR), (const void CYFAR *)(BS_IOPINS0_1_VAL), 10u);
 1055              		.loc 1 508 0
 1056 019e 40F20003 		movw	r3, #:lower16:CY_ECC_OFFSET
 1057 01a2 C0F20003 		movt	r3, #:upper16:CY_ECC_OFFSET
 1058 01a6 03F19043 		add	r3, r3, #1207959552
 1059 01aa 03F6A833 		addw	r3, r3, #2984
 1060 01ae 45F21010 		movw	r0, #20752
 1061 01b2 C4F20000 		movt	r0, 16384
 1062 01b6 1946     		mov	r1, r3
 1063 01b8 4FF00A02 		mov	r2, #10
 1064 01bc FFF7FEFF 		bl	CYCONFIGCPY
 509:.\Generated_Source\PSoC5/cyfitter_cfg.c **** 	CYCONFIGCPY((void CYFAR *)(CYREG_PRT2_DM0), (const void CYFAR *)(BS_IOPINS0_2_VAL), 8u);
 1065              		.loc 1 509 0
 1066 01c0 40F20003 		movw	r3, #:lower16:CY_ECC_OFFSET
 1067 01c4 C0F20003 		movt	r3, #:upper16:CY_ECC_OFFSET
 1068 01c8 03F19043 		add	r3, r3, #1207959552
 1069 01cc 03F6B433 		addw	r3, r3, #2996
 1070 01d0 45F22210 		movw	r0, #20770
 1071 01d4 C4F20000 		movt	r0, 16384
 1072 01d8 1946     		mov	r1, r3
 1073 01da 4FF00802 		mov	r2, #8
 1074 01de FFF7FEFF 		bl	CYCONFIGCPY
 510:.\Generated_Source\PSoC5/cyfitter_cfg.c **** 	CYCONFIGCPY((void CYFAR *)(CYREG_PRT3_DM0), (const void CYFAR *)(BS_IOPINS0_3_VAL), 8u);
 1075              		.loc 1 510 0
 1076 01e2 40F20003 		movw	r3, #:lower16:CY_ECC_OFFSET
 1077 01e6 C0F20003 		movt	r3, #:upper16:CY_ECC_OFFSET
 1078 01ea 03F19043 		add	r3, r3, #1207959552
 1079 01ee 03F6BC33 		addw	r3, r3, #3004
ARM GAS  C:\Users\Brian\AppData\Local\Temp\ccTj2tfG.s 			page 29


 1080 01f2 45F23210 		movw	r0, #20786
 1081 01f6 C4F20000 		movt	r0, 16384
 1082 01fa 1946     		mov	r1, r3
 1083 01fc 4FF00802 		mov	r2, #8
 1084 0200 FFF7FEFF 		bl	CYCONFIGCPY
 511:.\Generated_Source\PSoC5/cyfitter_cfg.c **** 	CYCONFIGCPY((void CYFAR *)(CYREG_PRT4_DM0), (const void CYFAR *)(BS_IOPINS0_4_VAL), 8u);
 1085              		.loc 1 511 0
 1086 0204 40F20003 		movw	r3, #:lower16:CY_ECC_OFFSET
 1087 0208 C0F20003 		movt	r3, #:upper16:CY_ECC_OFFSET
 1088 020c 03F19043 		add	r3, r3, #1207959552
 1089 0210 03F6C433 		addw	r3, r3, #3012
 1090 0214 45F24210 		movw	r0, #20802
 1091 0218 C4F20000 		movt	r0, 16384
 1092 021c 1946     		mov	r1, r3
 1093 021e 4FF00802 		mov	r2, #8
 1094 0222 FFF7FEFF 		bl	CYCONFIGCPY
 512:.\Generated_Source\PSoC5/cyfitter_cfg.c **** 	CYCONFIGCPY((void CYFAR *)(CYREG_PRT5_DM0), (const void CYFAR *)(BS_IOPINS0_5_VAL), 8u);
 1095              		.loc 1 512 0
 1096 0226 40F20003 		movw	r3, #:lower16:CY_ECC_OFFSET
 1097 022a C0F20003 		movt	r3, #:upper16:CY_ECC_OFFSET
 1098 022e 03F19043 		add	r3, r3, #1207959552
 1099 0232 03F6CC33 		addw	r3, r3, #3020
 1100 0236 45F25210 		movw	r0, #20818
 1101 023a C4F20000 		movt	r0, 16384
 1102 023e 1946     		mov	r1, r3
 1103 0240 4FF00802 		mov	r2, #8
 1104 0244 FFF7FEFF 		bl	CYCONFIGCPY
 513:.\Generated_Source\PSoC5/cyfitter_cfg.c **** 	CYCONFIGCPY((void CYFAR *)(CYREG_PRT6_DM0), (const void CYFAR *)(BS_IOPINS0_6_VAL), 8u);
 1105              		.loc 1 513 0
 1106 0248 40F20003 		movw	r3, #:lower16:CY_ECC_OFFSET
 1107 024c C0F20003 		movt	r3, #:upper16:CY_ECC_OFFSET
 1108 0250 03F19043 		add	r3, r3, #1207959552
 1109 0254 03F6D433 		addw	r3, r3, #3028
 1110 0258 45F26210 		movw	r0, #20834
 1111 025c C4F20000 		movt	r0, 16384
 1112 0260 1946     		mov	r1, r3
 1113 0262 4FF00802 		mov	r2, #8
 1114 0266 FFF7FEFF 		bl	CYCONFIGCPY
 514:.\Generated_Source\PSoC5/cyfitter_cfg.c **** 
 515:.\Generated_Source\PSoC5/cyfitter_cfg.c **** 	/* Switch Boost to the precision bandgap reference from its internal reference */
 516:.\Generated_Source\PSoC5/cyfitter_cfg.c **** 	CY_SET_REG8((void CYXDATA *)CYREG_BOOST_CR2, (CY_GET_REG8((void CYXDATA *)CYREG_BOOST_CR2) | 0x08u
 1115              		.loc 1 516 0
 1116 026a 44F22233 		movw	r3, #17186
 1117 026e C4F20003 		movt	r3, 16384
 1118 0272 44F22232 		movw	r2, #17186
 1119 0276 C4F20002 		movt	r2, 16384
 1120 027a 1278     		ldrb	r2, [r2, #0]
 1121 027c D2B2     		uxtb	r2, r2
 1122 027e 42F00802 		orr	r2, r2, #8
 1123 0282 D2B2     		uxtb	r2, r2
 1124 0284 1A70     		strb	r2, [r3, #0]
 517:.\Generated_Source\PSoC5/cyfitter_cfg.c **** 
 518:.\Generated_Source\PSoC5/cyfitter_cfg.c **** 	/* Set Flash Cycles based on max possible frequency in case a glitch occurs during ClockSetup(). *
 519:.\Generated_Source\PSoC5/cyfitter_cfg.c **** 	CY_SET_XTND_REG8((void CYFAR *)(CYREG_CACHE_CC_CTL), (((CYDEV_INSTRUCT_CACHE_ENABLED) != 0) ? 0x01
 1125              		.loc 1 519 0
 1126 0286 4FF49043 		mov	r3, #18432
 1127 028a C4F20003 		movt	r3, 16384
ARM GAS  C:\Users\Brian\AppData\Local\Temp\ccTj2tfG.s 			page 30


 1128 028e 4FF00102 		mov	r2, #1
 1129 0292 1A70     		strb	r2, [r3, #0]
 520:.\Generated_Source\PSoC5/cyfitter_cfg.c **** 	/* Setup clocks based on selections from Clock DWR */
 521:.\Generated_Source\PSoC5/cyfitter_cfg.c **** 	ClockSetup();
 1130              		.loc 1 521 0
 1131 0294 FFF7FEFF 		bl	ClockSetup
 522:.\Generated_Source\PSoC5/cyfitter_cfg.c **** 	/* Set Flash Cycles based on newly configured 24.00MHz Bus Clock. */
 523:.\Generated_Source\PSoC5/cyfitter_cfg.c **** 	CY_SET_XTND_REG8((void CYFAR *)(CYREG_CACHE_CC_CTL), (((CYDEV_INSTRUCT_CACHE_ENABLED) != 0) ? 0x81
 1132              		.loc 1 523 0
 1133 0298 4FF49043 		mov	r3, #18432
 1134 029c C4F20003 		movt	r3, 16384
 1135 02a0 4FF08102 		mov	r2, #129
 1136 02a4 1A70     		strb	r2, [r3, #0]
 524:.\Generated_Source\PSoC5/cyfitter_cfg.c **** 	CY_SET_XTND_REG8((void CYFAR *)(CYREG_PANTHER_WAITPIPE), 0x01u);
 1137              		.loc 1 524 0
 1138 02a6 4FF00403 		mov	r3, #4
 1139 02aa C4F20803 		movt	r3, 16392
 1140 02ae 4FF00102 		mov	r2, #1
 1141 02b2 1A70     		strb	r2, [r3, #0]
 525:.\Generated_Source\PSoC5/cyfitter_cfg.c **** 
 526:.\Generated_Source\PSoC5/cyfitter_cfg.c **** 	/* Perform basic analog initialization to defaults */
 527:.\Generated_Source\PSoC5/cyfitter_cfg.c **** 	AnalogSetDefault();
 1142              		.loc 1 527 0
 1143 02b4 FFF7FEFF 		bl	AnalogSetDefault
 528:.\Generated_Source\PSoC5/cyfitter_cfg.c **** 
 529:.\Generated_Source\PSoC5/cyfitter_cfg.c **** 	/* Configure alternate active mode */
 530:.\Generated_Source\PSoC5/cyfitter_cfg.c **** 	CYCONFIGCPY((void CYFAR *)CYDEV_PM_STBY_BASE, (const void CYFAR *)CYDEV_PM_ACT_BASE, 14u);
 1144              		.loc 1 530 0
 1145 02b8 44F2B030 		movw	r0, #17328
 1146 02bc C4F20000 		movt	r0, 16384
 1147 02c0 44F2A031 		movw	r1, #17312
 1148 02c4 C4F20001 		movt	r1, 16384
 1149 02c8 4FF00E02 		mov	r2, #14
 1150 02cc FFF7FEFF 		bl	CYCONFIGCPY
 531:.\Generated_Source\PSoC5/cyfitter_cfg.c **** }
 1151              		.loc 1 531 0
 1152 02d0 07F10807 		add	r7, r7, #8
 1153 02d4 BD46     		mov	sp, r7
 1154 02d6 80BD     		pop	{r7, pc}
 1155              		.cfi_endproc
 1156              	.LFE10:
 1157              		.size	cyfitter_cfg, .-cyfitter_cfg
 1158              		.section	.rodata
 1159 000a 0000     		.align	2
 1160              		.type	cfg_memset_list.4825, %object
 1161              		.size	cfg_memset_list.4825, 36
 1162              	cfg_memset_list.4825:
 1163 000c C8490040 		.word	1073760712
 1164 0010 1900     		.short	25
 1165 0012 00000140 		.4byte	1073807360
 1166 0016 0010     		.short	4096
 1167 0018 00140140 		.word	1073812480
 1168 001c 0008     		.short	2048
 1169 001e 00400140 		.4byte	1073823744
 1170 0022 000A     		.short	2560
 1171 0024 004C0140 		.word	1073826816
 1172 0028 0002     		.short	512
ARM GAS  C:\Users\Brian\AppData\Local\Temp\ccTj2tfG.s 			page 31


 1173 002a 00500140 		.4byte	1073827840
 1174 002e 2000     		.short	32
 1175              		.text
 1176              	.Letext0:
 1177              		.file 2 "c:\\program files (x86)\\cypress\\psoc creator\\3.0\\psoc creator\\import\\gnu_cs\\arm\\4
 1178              		.file 3 "./Generated_Source/PSoC5/cytypes.h"