ARM GAS  C:\Users\Robert\AppData\Local\Temp\cc0dkL6l.s 			page 1


   1              		.syntax unified
   2              		.cpu cortex-m3
   3              		.fpu softvfp
   4              		.eabi_attribute 20, 1
   5              		.eabi_attribute 21, 1
   6              		.eabi_attribute 23, 3
   7              		.eabi_attribute 24, 1
   8              		.eabi_attribute 25, 1
   9              		.eabi_attribute 26, 1
  10              		.eabi_attribute 30, 6
  11              		.eabi_attribute 34, 1
  12              		.eabi_attribute 18, 4
  13              		.thumb
  14              		.file	"CySpc.c"
  15              		.text
  16              	.Ltext0:
  17              		.cfi_sections	.debug_frame
  18              		.global	SpcLockState
  19              		.bss
  20              		.type	SpcLockState, %object
  21              		.size	SpcLockState, 1
  22              	SpcLockState:
  23 0000 00       		.space	1
  24 0001 000000   		.align	2
  25              	spcWaitPipeBypass:
  26 0004 00000000 		.space	4
  27              		.section	.text.CySpcStart,"ax",%progbits
  28              		.align	2
  29              		.global	CySpcStart
  30              		.thumb
  31              		.thumb_func
  32              		.type	CySpcStart, %function
  33              	CySpcStart:
  34              	.LFB0:
  35              		.file 1 ".\\Generated_Source\\PSoC5\\CySpc.c"
   1:.\Generated_Source\PSoC5/CySpc.c **** /*******************************************************************************
   2:.\Generated_Source\PSoC5/CySpc.c **** * File Name: CySpc.c
   3:.\Generated_Source\PSoC5/CySpc.c **** * Version 4.10
   4:.\Generated_Source\PSoC5/CySpc.c **** *
   5:.\Generated_Source\PSoC5/CySpc.c **** *  Description:
   6:.\Generated_Source\PSoC5/CySpc.c **** *   Provides an API for the System Performance Component.
   7:.\Generated_Source\PSoC5/CySpc.c **** *   The SPC functions are not meant to be called directly by the user
   8:.\Generated_Source\PSoC5/CySpc.c **** *   application.
   9:.\Generated_Source\PSoC5/CySpc.c **** *
  10:.\Generated_Source\PSoC5/CySpc.c **** ********************************************************************************
  11:.\Generated_Source\PSoC5/CySpc.c **** * Copyright 2008-2014, Cypress Semiconductor Corporation.  All rights reserved.
  12:.\Generated_Source\PSoC5/CySpc.c **** * You may use this file only in accordance with the license, terms, conditions,
  13:.\Generated_Source\PSoC5/CySpc.c **** * disclaimers, and limitations in the end user license agreement accompanying
  14:.\Generated_Source\PSoC5/CySpc.c **** * the software package with which this file was provided.
  15:.\Generated_Source\PSoC5/CySpc.c **** *******************************************************************************/
  16:.\Generated_Source\PSoC5/CySpc.c **** 
  17:.\Generated_Source\PSoC5/CySpc.c **** #include "CySpc.h"
  18:.\Generated_Source\PSoC5/CySpc.c **** 
  19:.\Generated_Source\PSoC5/CySpc.c **** #define CY_SPC_KEY_ONE                      (0xB6u)
  20:.\Generated_Source\PSoC5/CySpc.c **** #define CY_SPC_KEY_TWO(x)                   ((uint8) (((uint16) 0xD3u) + ((uint16) (x))))
  21:.\Generated_Source\PSoC5/CySpc.c **** 
  22:.\Generated_Source\PSoC5/CySpc.c **** /* Command Codes */
ARM GAS  C:\Users\Robert\AppData\Local\Temp\cc0dkL6l.s 			page 2


  23:.\Generated_Source\PSoC5/CySpc.c **** #define CY_SPC_CMD_LD_BYTE                  (0x00u)
  24:.\Generated_Source\PSoC5/CySpc.c **** #define CY_SPC_CMD_LD_MULTI_BYTE            (0x01u)
  25:.\Generated_Source\PSoC5/CySpc.c **** #define CY_SPC_CMD_LD_ROW                   (0x02u)
  26:.\Generated_Source\PSoC5/CySpc.c **** #define CY_SPC_CMD_RD_BYTE                  (0x03u)
  27:.\Generated_Source\PSoC5/CySpc.c **** #define CY_SPC_CMD_RD_MULTI_BYTE            (0x04u)
  28:.\Generated_Source\PSoC5/CySpc.c **** #define CY_SPC_CMD_WR_ROW                   (0x05u)
  29:.\Generated_Source\PSoC5/CySpc.c **** #define CY_SPC_CMD_WR_USER_NVL              (0x06u)
  30:.\Generated_Source\PSoC5/CySpc.c **** #define CY_SPC_CMD_PRG_ROW                  (0x07u)
  31:.\Generated_Source\PSoC5/CySpc.c **** #define CY_SPC_CMD_ER_SECTOR                (0x08u)
  32:.\Generated_Source\PSoC5/CySpc.c **** #define CY_SPC_CMD_ER_ALL                   (0x09u)
  33:.\Generated_Source\PSoC5/CySpc.c **** #define CY_SPC_CMD_RD_HIDDEN                (0x0Au)
  34:.\Generated_Source\PSoC5/CySpc.c **** #define CY_SPC_CMD_PRG_PROTECT              (0x0Bu)
  35:.\Generated_Source\PSoC5/CySpc.c **** #define CY_SPC_CMD_CHECKSUM                 (0x0Cu)
  36:.\Generated_Source\PSoC5/CySpc.c **** #define CY_SPC_CMD_DWNLD_ALGORITHM          (0x0Du)
  37:.\Generated_Source\PSoC5/CySpc.c **** #define CY_SPC_CMD_GET_TEMP                 (0x0Eu)
  38:.\Generated_Source\PSoC5/CySpc.c **** #define CY_SPC_CMD_GET_ADC                  (0x0Fu)
  39:.\Generated_Source\PSoC5/CySpc.c **** #define CY_SPC_CMD_RD_NVL_VOLATILE          (0x10u)
  40:.\Generated_Source\PSoC5/CySpc.c **** #define CY_SPC_CMD_SETUP_TS                 (0x11u)
  41:.\Generated_Source\PSoC5/CySpc.c **** #define CY_SPC_CMD_DISABLE_TS               (0x12u)
  42:.\Generated_Source\PSoC5/CySpc.c **** #define CY_SPC_CMD_ER_ROW                   (0x13u)
  43:.\Generated_Source\PSoC5/CySpc.c **** 
  44:.\Generated_Source\PSoC5/CySpc.c **** /* Enable bit in Active and Alternate Active mode templates */
  45:.\Generated_Source\PSoC5/CySpc.c **** #define PM_SPC_PM_EN                        (0x08u)
  46:.\Generated_Source\PSoC5/CySpc.c **** 
  47:.\Generated_Source\PSoC5/CySpc.c **** /* Gate calls to the SPC. */
  48:.\Generated_Source\PSoC5/CySpc.c **** uint8 SpcLockState = CY_SPC_UNLOCKED;
  49:.\Generated_Source\PSoC5/CySpc.c **** 
  50:.\Generated_Source\PSoC5/CySpc.c **** 
  51:.\Generated_Source\PSoC5/CySpc.c **** #if(CY_PSOC5)
  52:.\Generated_Source\PSoC5/CySpc.c **** 
  53:.\Generated_Source\PSoC5/CySpc.c ****     /***************************************************************************
  54:.\Generated_Source\PSoC5/CySpc.c ****     * The wait-state pipeline must be enabled prior to accessing the SPC
  55:.\Generated_Source\PSoC5/CySpc.c ****     * register interface regardless of CPU frequency. The CySpcLock() saves
  56:.\Generated_Source\PSoC5/CySpc.c ****     * current wait-state pipeline state and enables it. The CySpcUnlock()
  57:.\Generated_Source\PSoC5/CySpc.c ****     * function, which must be called after SPC transaction, restores original
  58:.\Generated_Source\PSoC5/CySpc.c ****     * state.
  59:.\Generated_Source\PSoC5/CySpc.c ****     ***************************************************************************/
  60:.\Generated_Source\PSoC5/CySpc.c ****     static uint32 spcWaitPipeBypass = 0u;
  61:.\Generated_Source\PSoC5/CySpc.c **** 
  62:.\Generated_Source\PSoC5/CySpc.c **** #endif  /* (CY_PSOC5) */
  63:.\Generated_Source\PSoC5/CySpc.c **** 
  64:.\Generated_Source\PSoC5/CySpc.c **** 
  65:.\Generated_Source\PSoC5/CySpc.c **** /*******************************************************************************
  66:.\Generated_Source\PSoC5/CySpc.c **** * Function Name: CySpcStart
  67:.\Generated_Source\PSoC5/CySpc.c **** ********************************************************************************
  68:.\Generated_Source\PSoC5/CySpc.c **** * Summary:
  69:.\Generated_Source\PSoC5/CySpc.c **** *  Starts the SPC.
  70:.\Generated_Source\PSoC5/CySpc.c **** *
  71:.\Generated_Source\PSoC5/CySpc.c **** * Parameters:
  72:.\Generated_Source\PSoC5/CySpc.c **** *  None
  73:.\Generated_Source\PSoC5/CySpc.c **** *
  74:.\Generated_Source\PSoC5/CySpc.c **** * Return:
  75:.\Generated_Source\PSoC5/CySpc.c **** *  None
  76:.\Generated_Source\PSoC5/CySpc.c **** *
  77:.\Generated_Source\PSoC5/CySpc.c **** *******************************************************************************/
  78:.\Generated_Source\PSoC5/CySpc.c **** void CySpcStart(void) 
  79:.\Generated_Source\PSoC5/CySpc.c **** {
ARM GAS  C:\Users\Robert\AppData\Local\Temp\cc0dkL6l.s 			page 3


  36              		.loc 1 79 0
  37              		.cfi_startproc
  38              		@ args = 0, pretend = 0, frame = 8
  39              		@ frame_needed = 1, uses_anonymous_args = 0
  40 0000 80B5     		push	{r7, lr}
  41              	.LCFI0:
  42              		.cfi_def_cfa_offset 8
  43              		.cfi_offset 7, -8
  44              		.cfi_offset 14, -4
  45 0002 82B0     		sub	sp, sp, #8
  46              	.LCFI1:
  47              		.cfi_def_cfa_offset 16
  48 0004 00AF     		add	r7, sp, #0
  49              	.LCFI2:
  50              		.cfi_def_cfa_register 7
  80:.\Generated_Source\PSoC5/CySpc.c ****     /* Save current global interrupt enable and disable it */
  81:.\Generated_Source\PSoC5/CySpc.c ****     uint8 interruptState = CyEnterCriticalSection();
  51              		.loc 1 81 0
  52 0006 FFF7FEFF 		bl	CyEnterCriticalSection
  53 000a 0346     		mov	r3, r0
  54 000c FB71     		strb	r3, [r7, #7]
  82:.\Generated_Source\PSoC5/CySpc.c **** 
  83:.\Generated_Source\PSoC5/CySpc.c ****     CY_SPC_PM_ACT_REG  |= PM_SPC_PM_EN;
  55              		.loc 1 83 0
  56 000e 44F2A033 		movw	r3, #17312
  57 0012 C4F20003 		movt	r3, 16384
  58 0016 44F2A032 		movw	r2, #17312
  59 001a C4F20002 		movt	r2, 16384
  60 001e 1278     		ldrb	r2, [r2, #0]
  61 0020 D2B2     		uxtb	r2, r2
  62 0022 42F00802 		orr	r2, r2, #8
  63 0026 D2B2     		uxtb	r2, r2
  64 0028 1A70     		strb	r2, [r3, #0]
  84:.\Generated_Source\PSoC5/CySpc.c ****     CY_SPC_PM_STBY_REG |= PM_SPC_PM_EN;
  65              		.loc 1 84 0
  66 002a 44F2B033 		movw	r3, #17328
  67 002e C4F20003 		movt	r3, 16384
  68 0032 44F2B032 		movw	r2, #17328
  69 0036 C4F20002 		movt	r2, 16384
  70 003a 1278     		ldrb	r2, [r2, #0]
  71 003c D2B2     		uxtb	r2, r2
  72 003e 42F00802 		orr	r2, r2, #8
  73 0042 D2B2     		uxtb	r2, r2
  74 0044 1A70     		strb	r2, [r3, #0]
  85:.\Generated_Source\PSoC5/CySpc.c **** 
  86:.\Generated_Source\PSoC5/CySpc.c ****     /* Restore global interrupt enable state */
  87:.\Generated_Source\PSoC5/CySpc.c ****     CyExitCriticalSection(interruptState);
  75              		.loc 1 87 0
  76 0046 FB79     		ldrb	r3, [r7, #7]	@ zero_extendqisi2
  77 0048 1846     		mov	r0, r3
  78 004a FFF7FEFF 		bl	CyExitCriticalSection
  88:.\Generated_Source\PSoC5/CySpc.c **** }
  79              		.loc 1 88 0
  80 004e 07F10807 		add	r7, r7, #8
  81 0052 BD46     		mov	sp, r7
  82 0054 80BD     		pop	{r7, pc}
  83              		.cfi_endproc
ARM GAS  C:\Users\Robert\AppData\Local\Temp\cc0dkL6l.s 			page 4


  84              	.LFE0:
  85              		.size	CySpcStart, .-CySpcStart
  86 0056 00BF     		.section	.text.CySpcStop,"ax",%progbits
  87              		.align	2
  88              		.global	CySpcStop
  89              		.thumb
  90              		.thumb_func
  91              		.type	CySpcStop, %function
  92              	CySpcStop:
  93              	.LFB1:
  89:.\Generated_Source\PSoC5/CySpc.c **** 
  90:.\Generated_Source\PSoC5/CySpc.c **** 
  91:.\Generated_Source\PSoC5/CySpc.c **** /*******************************************************************************
  92:.\Generated_Source\PSoC5/CySpc.c **** * Function Name: CySpcStop
  93:.\Generated_Source\PSoC5/CySpc.c **** ********************************************************************************
  94:.\Generated_Source\PSoC5/CySpc.c **** * Summary:
  95:.\Generated_Source\PSoC5/CySpc.c **** *  Stops the SPC.
  96:.\Generated_Source\PSoC5/CySpc.c **** *
  97:.\Generated_Source\PSoC5/CySpc.c **** * Parameters:
  98:.\Generated_Source\PSoC5/CySpc.c **** *  None
  99:.\Generated_Source\PSoC5/CySpc.c **** *
 100:.\Generated_Source\PSoC5/CySpc.c **** * Return:
 101:.\Generated_Source\PSoC5/CySpc.c **** *  None
 102:.\Generated_Source\PSoC5/CySpc.c **** *
 103:.\Generated_Source\PSoC5/CySpc.c **** *******************************************************************************/
 104:.\Generated_Source\PSoC5/CySpc.c **** void CySpcStop(void) 
 105:.\Generated_Source\PSoC5/CySpc.c **** {
  94              		.loc 1 105 0
  95              		.cfi_startproc
  96              		@ args = 0, pretend = 0, frame = 8
  97              		@ frame_needed = 1, uses_anonymous_args = 0
  98 0000 80B5     		push	{r7, lr}
  99              	.LCFI3:
 100              		.cfi_def_cfa_offset 8
 101              		.cfi_offset 7, -8
 102              		.cfi_offset 14, -4
 103 0002 82B0     		sub	sp, sp, #8
 104              	.LCFI4:
 105              		.cfi_def_cfa_offset 16
 106 0004 00AF     		add	r7, sp, #0
 107              	.LCFI5:
 108              		.cfi_def_cfa_register 7
 106:.\Generated_Source\PSoC5/CySpc.c ****     /* Save current global interrupt enable and disable it */
 107:.\Generated_Source\PSoC5/CySpc.c ****     uint8 interruptState = CyEnterCriticalSection();
 109              		.loc 1 107 0
 110 0006 FFF7FEFF 		bl	CyEnterCriticalSection
 111 000a 0346     		mov	r3, r0
 112 000c FB71     		strb	r3, [r7, #7]
 108:.\Generated_Source\PSoC5/CySpc.c **** 
 109:.\Generated_Source\PSoC5/CySpc.c ****     CY_SPC_PM_ACT_REG  &= ((uint8)(~PM_SPC_PM_EN));
 113              		.loc 1 109 0
 114 000e 44F2A033 		movw	r3, #17312
 115 0012 C4F20003 		movt	r3, 16384
 116 0016 44F2A032 		movw	r2, #17312
 117 001a C4F20002 		movt	r2, 16384
 118 001e 1278     		ldrb	r2, [r2, #0]
 119 0020 D2B2     		uxtb	r2, r2
ARM GAS  C:\Users\Robert\AppData\Local\Temp\cc0dkL6l.s 			page 5


 120 0022 22F00802 		bic	r2, r2, #8
 121 0026 D2B2     		uxtb	r2, r2
 122 0028 1A70     		strb	r2, [r3, #0]
 110:.\Generated_Source\PSoC5/CySpc.c ****     CY_SPC_PM_STBY_REG &= ((uint8)(~PM_SPC_PM_EN));
 123              		.loc 1 110 0
 124 002a 44F2B033 		movw	r3, #17328
 125 002e C4F20003 		movt	r3, 16384
 126 0032 44F2B032 		movw	r2, #17328
 127 0036 C4F20002 		movt	r2, 16384
 128 003a 1278     		ldrb	r2, [r2, #0]
 129 003c D2B2     		uxtb	r2, r2
 130 003e 22F00802 		bic	r2, r2, #8
 131 0042 D2B2     		uxtb	r2, r2
 132 0044 1A70     		strb	r2, [r3, #0]
 111:.\Generated_Source\PSoC5/CySpc.c **** 
 112:.\Generated_Source\PSoC5/CySpc.c ****     /* Restore global interrupt enable state */
 113:.\Generated_Source\PSoC5/CySpc.c ****     CyExitCriticalSection(interruptState);
 133              		.loc 1 113 0
 134 0046 FB79     		ldrb	r3, [r7, #7]	@ zero_extendqisi2
 135 0048 1846     		mov	r0, r3
 136 004a FFF7FEFF 		bl	CyExitCriticalSection
 114:.\Generated_Source\PSoC5/CySpc.c **** }
 137              		.loc 1 114 0
 138 004e 07F10807 		add	r7, r7, #8
 139 0052 BD46     		mov	sp, r7
 140 0054 80BD     		pop	{r7, pc}
 141              		.cfi_endproc
 142              	.LFE1:
 143              		.size	CySpcStop, .-CySpcStop
 144 0056 00BF     		.section	.text.CySpcReadData,"ax",%progbits
 145              		.align	2
 146              		.global	CySpcReadData
 147              		.thumb
 148              		.thumb_func
 149              		.type	CySpcReadData, %function
 150              	CySpcReadData:
 151              	.LFB2:
 115:.\Generated_Source\PSoC5/CySpc.c **** 
 116:.\Generated_Source\PSoC5/CySpc.c **** 
 117:.\Generated_Source\PSoC5/CySpc.c **** /*******************************************************************************
 118:.\Generated_Source\PSoC5/CySpc.c **** * Function Name: CySpcReadData
 119:.\Generated_Source\PSoC5/CySpc.c **** ********************************************************************************
 120:.\Generated_Source\PSoC5/CySpc.c **** * Summary:
 121:.\Generated_Source\PSoC5/CySpc.c **** *  Reads data from the SPC.
 122:.\Generated_Source\PSoC5/CySpc.c **** *
 123:.\Generated_Source\PSoC5/CySpc.c **** * Parameters:
 124:.\Generated_Source\PSoC5/CySpc.c **** *  uint8 buffer:
 125:.\Generated_Source\PSoC5/CySpc.c **** *   Address to store data read.
 126:.\Generated_Source\PSoC5/CySpc.c **** *
 127:.\Generated_Source\PSoC5/CySpc.c **** *  uint8 size:
 128:.\Generated_Source\PSoC5/CySpc.c **** *   Number of bytes to read from the SPC.
 129:.\Generated_Source\PSoC5/CySpc.c **** *
 130:.\Generated_Source\PSoC5/CySpc.c **** * Return:
 131:.\Generated_Source\PSoC5/CySpc.c **** *  uint8:
 132:.\Generated_Source\PSoC5/CySpc.c **** *   The number of bytes read from the SPC.
 133:.\Generated_Source\PSoC5/CySpc.c **** *
 134:.\Generated_Source\PSoC5/CySpc.c **** *******************************************************************************/
ARM GAS  C:\Users\Robert\AppData\Local\Temp\cc0dkL6l.s 			page 6


 135:.\Generated_Source\PSoC5/CySpc.c **** uint8 CySpcReadData(uint8 buffer[], uint8 size) 
 136:.\Generated_Source\PSoC5/CySpc.c **** {
 152              		.loc 1 136 0
 153              		.cfi_startproc
 154              		@ args = 0, pretend = 0, frame = 16
 155              		@ frame_needed = 1, uses_anonymous_args = 0
 156 0000 80B5     		push	{r7, lr}
 157              	.LCFI6:
 158              		.cfi_def_cfa_offset 8
 159              		.cfi_offset 7, -8
 160              		.cfi_offset 14, -4
 161 0002 84B0     		sub	sp, sp, #16
 162              	.LCFI7:
 163              		.cfi_def_cfa_offset 24
 164 0004 00AF     		add	r7, sp, #0
 165              	.LCFI8:
 166              		.cfi_def_cfa_register 7
 167 0006 7860     		str	r0, [r7, #4]
 168 0008 0B46     		mov	r3, r1
 169 000a FB70     		strb	r3, [r7, #3]
 137:.\Generated_Source\PSoC5/CySpc.c ****     uint8 i;
 138:.\Generated_Source\PSoC5/CySpc.c **** 
 139:.\Generated_Source\PSoC5/CySpc.c ****     for(i = 0u; i < size; i++)
 170              		.loc 1 139 0
 171 000c 4FF00003 		mov	r3, #0
 172 0010 FB73     		strb	r3, [r7, #15]
 173 0012 1DE0     		b	.L4
 174              	.L6:
 140:.\Generated_Source\PSoC5/CySpc.c ****     {
 141:.\Generated_Source\PSoC5/CySpc.c ****         while(!CY_SPC_DATA_READY)
 142:.\Generated_Source\PSoC5/CySpc.c ****         {
 143:.\Generated_Source\PSoC5/CySpc.c ****             CyDelayUs(1u);
 175              		.loc 1 143 0
 176 0014 4FF00100 		mov	r0, #1
 177 0018 FFF7FEFF 		bl	CyDelayUs
 178 001c 00E0     		b	.L5
 179              	.L9:
 141:.\Generated_Source\PSoC5/CySpc.c ****         while(!CY_SPC_DATA_READY)
 180              		.loc 1 141 0
 181 001e 00BF     		nop
 182              	.L5:
 141:.\Generated_Source\PSoC5/CySpc.c ****         while(!CY_SPC_DATA_READY)
 183              		.loc 1 141 0 is_stmt 0 discriminator 1
 184 0020 44F22273 		movw	r3, #18210
 185 0024 C4F20003 		movt	r3, 16384
 186 0028 1B78     		ldrb	r3, [r3, #0]
 187 002a DBB2     		uxtb	r3, r3
 188 002c 03F00103 		and	r3, r3, #1
 189 0030 002B     		cmp	r3, #0
 190 0032 EFD0     		beq	.L6
 144:.\Generated_Source\PSoC5/CySpc.c ****         }
 145:.\Generated_Source\PSoC5/CySpc.c ****         buffer[i] = CY_SPC_CPU_DATA_REG;
 191              		.loc 1 145 0 is_stmt 1
 192 0034 FB7B     		ldrb	r3, [r7, #15]	@ zero_extendqisi2
 193 0036 7A68     		ldr	r2, [r7, #4]
 194 0038 D218     		adds	r2, r2, r3
 195 003a 44F22073 		movw	r3, #18208
ARM GAS  C:\Users\Robert\AppData\Local\Temp\cc0dkL6l.s 			page 7


 196 003e C4F20003 		movt	r3, 16384
 197 0042 1B78     		ldrb	r3, [r3, #0]
 198 0044 DBB2     		uxtb	r3, r3
 199 0046 1370     		strb	r3, [r2, #0]
 139:.\Generated_Source\PSoC5/CySpc.c ****     for(i = 0u; i < size; i++)
 200              		.loc 1 139 0
 201 0048 FB7B     		ldrb	r3, [r7, #15]
 202 004a 03F10103 		add	r3, r3, #1
 203 004e FB73     		strb	r3, [r7, #15]
 204              	.L4:
 139:.\Generated_Source\PSoC5/CySpc.c ****     for(i = 0u; i < size; i++)
 205              		.loc 1 139 0 is_stmt 0 discriminator 1
 206 0050 FA7B     		ldrb	r2, [r7, #15]	@ zero_extendqisi2
 207 0052 FB78     		ldrb	r3, [r7, #3]	@ zero_extendqisi2
 208 0054 9A42     		cmp	r2, r3
 209 0056 E2D3     		bcc	.L9
 146:.\Generated_Source\PSoC5/CySpc.c ****     }
 147:.\Generated_Source\PSoC5/CySpc.c **** 
 148:.\Generated_Source\PSoC5/CySpc.c ****     return(i);
 210              		.loc 1 148 0 is_stmt 1
 211 0058 FB7B     		ldrb	r3, [r7, #15]	@ zero_extendqisi2
 149:.\Generated_Source\PSoC5/CySpc.c **** }
 212              		.loc 1 149 0
 213 005a 1846     		mov	r0, r3
 214 005c 07F11007 		add	r7, r7, #16
 215 0060 BD46     		mov	sp, r7
 216 0062 80BD     		pop	{r7, pc}
 217              		.cfi_endproc
 218              	.LFE2:
 219              		.size	CySpcReadData, .-CySpcReadData
 220              		.section	.text.CySpcLoadMultiByte,"ax",%progbits
 221              		.align	2
 222              		.global	CySpcLoadMultiByte
 223              		.thumb
 224              		.thumb_func
 225              		.type	CySpcLoadMultiByte, %function
 226              	CySpcLoadMultiByte:
 227              	.LFB3:
 150:.\Generated_Source\PSoC5/CySpc.c **** 
 151:.\Generated_Source\PSoC5/CySpc.c **** 
 152:.\Generated_Source\PSoC5/CySpc.c **** /*******************************************************************************
 153:.\Generated_Source\PSoC5/CySpc.c **** * Function Name: CySpcLoadMultiByte
 154:.\Generated_Source\PSoC5/CySpc.c **** ********************************************************************************
 155:.\Generated_Source\PSoC5/CySpc.c **** * Summary:
 156:.\Generated_Source\PSoC5/CySpc.c **** *  Loads 1 to 32 bytes of data into the row latch of a Flash/EEPROM array.
 157:.\Generated_Source\PSoC5/CySpc.c **** *
 158:.\Generated_Source\PSoC5/CySpc.c **** * Parameters:
 159:.\Generated_Source\PSoC5/CySpc.c **** *  uint8 array:
 160:.\Generated_Source\PSoC5/CySpc.c **** *   Id of the array.
 161:.\Generated_Source\PSoC5/CySpc.c **** *
 162:.\Generated_Source\PSoC5/CySpc.c **** *  uint16 address:
 163:.\Generated_Source\PSoC5/CySpc.c **** *   Flash/eeprom addrress
 164:.\Generated_Source\PSoC5/CySpc.c **** *
 165:.\Generated_Source\PSoC5/CySpc.c **** *  uint8* buffer:
 166:.\Generated_Source\PSoC5/CySpc.c **** *   Data to load to the row latch
 167:.\Generated_Source\PSoC5/CySpc.c **** *
 168:.\Generated_Source\PSoC5/CySpc.c **** *  uint16 number:
ARM GAS  C:\Users\Robert\AppData\Local\Temp\cc0dkL6l.s 			page 8


 169:.\Generated_Source\PSoC5/CySpc.c **** *   Number bytes to load.
 170:.\Generated_Source\PSoC5/CySpc.c **** *
 171:.\Generated_Source\PSoC5/CySpc.c **** * Return:
 172:.\Generated_Source\PSoC5/CySpc.c **** *  CYRET_STARTED
 173:.\Generated_Source\PSoC5/CySpc.c **** *  CYRET_CANCELED
 174:.\Generated_Source\PSoC5/CySpc.c **** *  CYRET_LOCKED
 175:.\Generated_Source\PSoC5/CySpc.c **** *  CYRET_BAD_PARAM
 176:.\Generated_Source\PSoC5/CySpc.c **** *
 177:.\Generated_Source\PSoC5/CySpc.c **** *******************************************************************************/
 178:.\Generated_Source\PSoC5/CySpc.c **** cystatus CySpcLoadMultiByte(uint8 array, uint16 address, const uint8 buffer[], uint8 size)\
 179:.\Generated_Source\PSoC5/CySpc.c **** 
 180:.\Generated_Source\PSoC5/CySpc.c **** {
 228              		.loc 1 180 0
 229              		.cfi_startproc
 230              		@ args = 0, pretend = 0, frame = 16
 231              		@ frame_needed = 1, uses_anonymous_args = 0
 232              		@ link register save eliminated.
 233 0000 80B4     		push	{r7}
 234              	.LCFI9:
 235              		.cfi_def_cfa_offset 4
 236              		.cfi_offset 7, -4
 237 0002 85B0     		sub	sp, sp, #20
 238              	.LCFI10:
 239              		.cfi_def_cfa_offset 24
 240 0004 00AF     		add	r7, sp, #0
 241              	.LCFI11:
 242              		.cfi_def_cfa_register 7
 243 0006 3A60     		str	r2, [r7, #0]
 244 0008 0246     		mov	r2, r0
 245 000a FA71     		strb	r2, [r7, #7]
 246 000c 0A46     		mov	r2, r1	@ movhi
 247 000e BA80     		strh	r2, [r7, #4]	@ movhi
 248 0010 BB71     		strb	r3, [r7, #6]
 181:.\Generated_Source\PSoC5/CySpc.c ****     cystatus status = CYRET_STARTED;
 249              		.loc 1 181 0
 250 0012 4FF00703 		mov	r3, #7
 251 0016 FB60     		str	r3, [r7, #12]
 182:.\Generated_Source\PSoC5/CySpc.c ****     uint8 i;
 183:.\Generated_Source\PSoC5/CySpc.c **** 
 184:.\Generated_Source\PSoC5/CySpc.c ****     /***************************************************************************
 185:.\Generated_Source\PSoC5/CySpc.c ****     * Check if number is correct for array. Number must be less than
 186:.\Generated_Source\PSoC5/CySpc.c ****     * 32 for Flash or less than 16 for EEPROM.
 187:.\Generated_Source\PSoC5/CySpc.c ****     ***************************************************************************/
 188:.\Generated_Source\PSoC5/CySpc.c ****     if(((array < CY_SPC_LAST_FLASH_ARRAYID) && (size < 32u)) ||
 252              		.loc 1 188 0
 253 0018 FB79     		ldrb	r3, [r7, #7]	@ zero_extendqisi2
 254 001a 3E2B     		cmp	r3, #62
 255 001c 02D8     		bhi	.L11
 256              		.loc 1 188 0 is_stmt 0 discriminator 1
 257 001e BB79     		ldrb	r3, [r7, #6]	@ zero_extendqisi2
 258 0020 1F2B     		cmp	r3, #31
 259 0022 05D9     		bls	.L12
 260              	.L11:
 261              		.loc 1 188 0 discriminator 2
 262 0024 FB79     		ldrb	r3, [r7, #7]	@ zero_extendqisi2
 263 0026 3F2B     		cmp	r3, #63
 264 0028 6DD9     		bls	.L13
ARM GAS  C:\Users\Robert\AppData\Local\Temp\cc0dkL6l.s 			page 9


 189:.\Generated_Source\PSoC5/CySpc.c ****        ((array > CY_SPC_LAST_FLASH_ARRAYID) && (size < 16u)))
 265              		.loc 1 189 0 is_stmt 1
 266 002a BB79     		ldrb	r3, [r7, #6]	@ zero_extendqisi2
 267 002c 0F2B     		cmp	r3, #15
 268 002e 6AD8     		bhi	.L13
 269              	.L12:
 190:.\Generated_Source\PSoC5/CySpc.c ****     {
 191:.\Generated_Source\PSoC5/CySpc.c ****         if(CY_SPC_IDLE)
 270              		.loc 1 191 0
 271 0030 44F22273 		movw	r3, #18210
 272 0034 C4F20003 		movt	r3, 16384
 273 0038 1B78     		ldrb	r3, [r3, #0]
 274 003a DBB2     		uxtb	r3, r3
 275 003c 03F00203 		and	r3, r3, #2
 276 0040 002B     		cmp	r3, #0
 277 0042 5BD0     		beq	.L14
 192:.\Generated_Source\PSoC5/CySpc.c ****         {
 193:.\Generated_Source\PSoC5/CySpc.c ****             CY_SPC_CPU_DATA_REG = CY_SPC_KEY_ONE;
 278              		.loc 1 193 0
 279 0044 44F22073 		movw	r3, #18208
 280 0048 C4F20003 		movt	r3, 16384
 281 004c 4FF0B602 		mov	r2, #182
 282 0050 1A70     		strb	r2, [r3, #0]
 194:.\Generated_Source\PSoC5/CySpc.c ****             CY_SPC_CPU_DATA_REG = CY_SPC_KEY_TWO(CY_SPC_CMD_LD_MULTI_BYTE);
 283              		.loc 1 194 0
 284 0052 44F22073 		movw	r3, #18208
 285 0056 C4F20003 		movt	r3, 16384
 286 005a 4FF0D402 		mov	r2, #212
 287 005e 1A70     		strb	r2, [r3, #0]
 195:.\Generated_Source\PSoC5/CySpc.c ****             CY_SPC_CPU_DATA_REG = CY_SPC_CMD_LD_MULTI_BYTE;
 288              		.loc 1 195 0
 289 0060 44F22073 		movw	r3, #18208
 290 0064 C4F20003 		movt	r3, 16384
 291 0068 4FF00102 		mov	r2, #1
 292 006c 1A70     		strb	r2, [r3, #0]
 196:.\Generated_Source\PSoC5/CySpc.c **** 
 197:.\Generated_Source\PSoC5/CySpc.c ****             if(CY_SPC_BUSY)
 293              		.loc 1 197 0
 294 006e 44F22273 		movw	r3, #18210
 295 0072 C4F20003 		movt	r3, 16384
 296 0076 1B78     		ldrb	r3, [r3, #0]
 297 0078 DBB2     		uxtb	r3, r3
 298 007a 03F00203 		and	r3, r3, #2
 299 007e 002B     		cmp	r3, #0
 300 0080 38D1     		bne	.L15
 198:.\Generated_Source\PSoC5/CySpc.c ****             {
 199:.\Generated_Source\PSoC5/CySpc.c ****                 CY_SPC_CPU_DATA_REG = array;
 301              		.loc 1 199 0
 302 0082 44F22073 		movw	r3, #18208
 303 0086 C4F20003 		movt	r3, 16384
 304 008a FA79     		ldrb	r2, [r7, #7]
 305 008c 1A70     		strb	r2, [r3, #0]
 200:.\Generated_Source\PSoC5/CySpc.c ****                 CY_SPC_CPU_DATA_REG = 1u & HI8(address);
 306              		.loc 1 200 0
 307 008e 44F22073 		movw	r3, #18208
 308 0092 C4F20003 		movt	r3, 16384
 309 0096 BA88     		ldrh	r2, [r7, #4]
ARM GAS  C:\Users\Robert\AppData\Local\Temp\cc0dkL6l.s 			page 10


 310 0098 4FEA1222 		lsr	r2, r2, #8
 311 009c 92B2     		uxth	r2, r2
 312 009e D2B2     		uxtb	r2, r2
 313 00a0 02F00102 		and	r2, r2, #1
 314 00a4 D2B2     		uxtb	r2, r2
 315 00a6 1A70     		strb	r2, [r3, #0]
 201:.\Generated_Source\PSoC5/CySpc.c ****                 CY_SPC_CPU_DATA_REG = LO8(address);
 316              		.loc 1 201 0
 317 00a8 44F22073 		movw	r3, #18208
 318 00ac C4F20003 		movt	r3, 16384
 319 00b0 BA88     		ldrh	r2, [r7, #4]	@ movhi
 320 00b2 D2B2     		uxtb	r2, r2
 321 00b4 1A70     		strb	r2, [r3, #0]
 202:.\Generated_Source\PSoC5/CySpc.c ****                 CY_SPC_CPU_DATA_REG = ((uint8)(size - 1u));
 322              		.loc 1 202 0
 323 00b6 44F22073 		movw	r3, #18208
 324 00ba C4F20003 		movt	r3, 16384
 325 00be BA79     		ldrb	r2, [r7, #6]
 326 00c0 02F1FF32 		add	r2, r2, #-1
 327 00c4 D2B2     		uxtb	r2, r2
 328 00c6 1A70     		strb	r2, [r3, #0]
 203:.\Generated_Source\PSoC5/CySpc.c **** 
 204:.\Generated_Source\PSoC5/CySpc.c ****                 for(i = 0u; i < size; i++)
 329              		.loc 1 204 0
 330 00c8 4FF00003 		mov	r3, #0
 331 00cc FB72     		strb	r3, [r7, #11]
 332 00ce 0CE0     		b	.L16
 333              	.L17:
 205:.\Generated_Source\PSoC5/CySpc.c ****                 {
 206:.\Generated_Source\PSoC5/CySpc.c ****                     CY_SPC_CPU_DATA_REG = buffer[i];
 334              		.loc 1 206 0 discriminator 2
 335 00d0 44F22073 		movw	r3, #18208
 336 00d4 C4F20003 		movt	r3, 16384
 337 00d8 FA7A     		ldrb	r2, [r7, #11]	@ zero_extendqisi2
 338 00da 3968     		ldr	r1, [r7, #0]
 339 00dc 8A18     		adds	r2, r1, r2
 340 00de 1278     		ldrb	r2, [r2, #0]	@ zero_extendqisi2
 341 00e0 1A70     		strb	r2, [r3, #0]
 204:.\Generated_Source\PSoC5/CySpc.c ****                 for(i = 0u; i < size; i++)
 342              		.loc 1 204 0 discriminator 2
 343 00e2 FB7A     		ldrb	r3, [r7, #11]
 344 00e4 03F10103 		add	r3, r3, #1
 345 00e8 FB72     		strb	r3, [r7, #11]
 346              	.L16:
 204:.\Generated_Source\PSoC5/CySpc.c ****                 for(i = 0u; i < size; i++)
 347              		.loc 1 204 0 is_stmt 0 discriminator 1
 348 00ea FA7A     		ldrb	r2, [r7, #11]	@ zero_extendqisi2
 349 00ec BB79     		ldrb	r3, [r7, #6]	@ zero_extendqisi2
 350 00ee 9A42     		cmp	r2, r3
 351 00f0 EED3     		bcc	.L17
 204:.\Generated_Source\PSoC5/CySpc.c ****                 for(i = 0u; i < size; i++)
 352              		.loc 1 204 0
 353 00f2 07E0     		b	.L21
 354              	.L15:
 207:.\Generated_Source\PSoC5/CySpc.c ****                 }
 208:.\Generated_Source\PSoC5/CySpc.c ****             }
 209:.\Generated_Source\PSoC5/CySpc.c ****             else
ARM GAS  C:\Users\Robert\AppData\Local\Temp\cc0dkL6l.s 			page 11


 210:.\Generated_Source\PSoC5/CySpc.c ****             {
 211:.\Generated_Source\PSoC5/CySpc.c ****                 status = CYRET_CANCELED;
 355              		.loc 1 211 0 is_stmt 1
 356 00f4 4FF00903 		mov	r3, #9
 357 00f8 FB60     		str	r3, [r7, #12]
 191:.\Generated_Source\PSoC5/CySpc.c ****         if(CY_SPC_IDLE)
 358              		.loc 1 191 0
 359 00fa 07E0     		b	.L19
 360              	.L14:
 212:.\Generated_Source\PSoC5/CySpc.c ****             }
 213:.\Generated_Source\PSoC5/CySpc.c ****         }
 214:.\Generated_Source\PSoC5/CySpc.c ****         else
 215:.\Generated_Source\PSoC5/CySpc.c ****         {
 216:.\Generated_Source\PSoC5/CySpc.c ****             status = CYRET_LOCKED;
 361              		.loc 1 216 0
 362 00fc 4FF00403 		mov	r3, #4
 363 0100 FB60     		str	r3, [r7, #12]
 191:.\Generated_Source\PSoC5/CySpc.c ****         if(CY_SPC_IDLE)
 364              		.loc 1 191 0
 365 0102 03E0     		b	.L19
 366              	.L21:
 367 0104 02E0     		b	.L19
 368              	.L13:
 217:.\Generated_Source\PSoC5/CySpc.c ****         }
 218:.\Generated_Source\PSoC5/CySpc.c ****     }
 219:.\Generated_Source\PSoC5/CySpc.c ****     else
 220:.\Generated_Source\PSoC5/CySpc.c ****     {
 221:.\Generated_Source\PSoC5/CySpc.c ****         status = CYRET_BAD_PARAM;
 369              		.loc 1 221 0
 370 0106 4FF00103 		mov	r3, #1
 371 010a FB60     		str	r3, [r7, #12]
 372              	.L19:
 222:.\Generated_Source\PSoC5/CySpc.c ****     }
 223:.\Generated_Source\PSoC5/CySpc.c **** 
 224:.\Generated_Source\PSoC5/CySpc.c ****     return(status);
 373              		.loc 1 224 0
 374 010c FB68     		ldr	r3, [r7, #12]
 225:.\Generated_Source\PSoC5/CySpc.c **** }
 375              		.loc 1 225 0
 376 010e 1846     		mov	r0, r3
 377 0110 07F11407 		add	r7, r7, #20
 378 0114 BD46     		mov	sp, r7
 379 0116 80BC     		pop	{r7}
 380 0118 7047     		bx	lr
 381              		.cfi_endproc
 382              	.LFE3:
 383              		.size	CySpcLoadMultiByte, .-CySpcLoadMultiByte
 384 011a 00BF     		.section	.text.CySpcLoadRow,"ax",%progbits
 385              		.align	2
 386              		.global	CySpcLoadRow
 387              		.thumb
 388              		.thumb_func
 389              		.type	CySpcLoadRow, %function
 390              	CySpcLoadRow:
 391              	.LFB4:
 226:.\Generated_Source\PSoC5/CySpc.c **** 
 227:.\Generated_Source\PSoC5/CySpc.c **** 
ARM GAS  C:\Users\Robert\AppData\Local\Temp\cc0dkL6l.s 			page 12


 228:.\Generated_Source\PSoC5/CySpc.c **** /*******************************************************************************
 229:.\Generated_Source\PSoC5/CySpc.c **** * Function Name: CySpcLoadRow
 230:.\Generated_Source\PSoC5/CySpc.c **** ********************************************************************************
 231:.\Generated_Source\PSoC5/CySpc.c **** * Summary:
 232:.\Generated_Source\PSoC5/CySpc.c **** *  Loads a row of data into the row latch of a Flash/EEPROM array.
 233:.\Generated_Source\PSoC5/CySpc.c **** *
 234:.\Generated_Source\PSoC5/CySpc.c **** * Parameters:
 235:.\Generated_Source\PSoC5/CySpc.c **** *  uint8 array:
 236:.\Generated_Source\PSoC5/CySpc.c **** *   Id of the array.
 237:.\Generated_Source\PSoC5/CySpc.c **** *
 238:.\Generated_Source\PSoC5/CySpc.c **** *  uint8* buffer:
 239:.\Generated_Source\PSoC5/CySpc.c **** *   Data to be loaded to the row latch
 240:.\Generated_Source\PSoC5/CySpc.c **** *
 241:.\Generated_Source\PSoC5/CySpc.c **** *  uint8 size:
 242:.\Generated_Source\PSoC5/CySpc.c **** *   The number of data bytes that the SPC expects to be written. Depends on the
 243:.\Generated_Source\PSoC5/CySpc.c **** *   type of the array and, if the array is Flash, whether ECC is being enabled
 244:.\Generated_Source\PSoC5/CySpc.c **** *   or not. There are following values: flash row latch size with ECC enabled,
 245:.\Generated_Source\PSoC5/CySpc.c **** *   flash row latch size with ECC disabled and EEPROM row latch size.
 246:.\Generated_Source\PSoC5/CySpc.c **** *
 247:.\Generated_Source\PSoC5/CySpc.c **** * Return:
 248:.\Generated_Source\PSoC5/CySpc.c **** *  CYRET_STARTED
 249:.\Generated_Source\PSoC5/CySpc.c **** *  CYRET_CANCELED
 250:.\Generated_Source\PSoC5/CySpc.c **** *  CYRET_LOCKED
 251:.\Generated_Source\PSoC5/CySpc.c **** *
 252:.\Generated_Source\PSoC5/CySpc.c **** *******************************************************************************/
 253:.\Generated_Source\PSoC5/CySpc.c **** cystatus CySpcLoadRow(uint8 array, const uint8 buffer[], uint16 size)
 254:.\Generated_Source\PSoC5/CySpc.c **** {
 392              		.loc 1 254 0
 393              		.cfi_startproc
 394              		@ args = 0, pretend = 0, frame = 16
 395              		@ frame_needed = 1, uses_anonymous_args = 0
 396              		@ link register save eliminated.
 397 0000 80B4     		push	{r7}
 398              	.LCFI12:
 399              		.cfi_def_cfa_offset 4
 400              		.cfi_offset 7, -4
 401 0002 85B0     		sub	sp, sp, #20
 402              	.LCFI13:
 403              		.cfi_def_cfa_offset 24
 404 0004 00AF     		add	r7, sp, #0
 405              	.LCFI14:
 406              		.cfi_def_cfa_register 7
 407 0006 3960     		str	r1, [r7, #0]
 408 0008 1346     		mov	r3, r2
 409 000a 0246     		mov	r2, r0
 410 000c FA71     		strb	r2, [r7, #7]
 411 000e BB80     		strh	r3, [r7, #4]	@ movhi
 255:.\Generated_Source\PSoC5/CySpc.c ****     cystatus status = CYRET_STARTED;
 412              		.loc 1 255 0
 413 0010 4FF00703 		mov	r3, #7
 414 0014 FB60     		str	r3, [r7, #12]
 256:.\Generated_Source\PSoC5/CySpc.c ****     uint16 i;
 257:.\Generated_Source\PSoC5/CySpc.c **** 
 258:.\Generated_Source\PSoC5/CySpc.c ****     /* Make sure the SPC is ready to accept command */
 259:.\Generated_Source\PSoC5/CySpc.c ****     if(CY_SPC_IDLE)
 415              		.loc 1 259 0
 416 0016 44F22273 		movw	r3, #18210
ARM GAS  C:\Users\Robert\AppData\Local\Temp\cc0dkL6l.s 			page 13


 417 001a C4F20003 		movt	r3, 16384
 418 001e 1B78     		ldrb	r3, [r3, #0]
 419 0020 DBB2     		uxtb	r3, r3
 420 0022 03F00203 		and	r3, r3, #2
 421 0026 002B     		cmp	r3, #0
 422 0028 3ED0     		beq	.L23
 260:.\Generated_Source\PSoC5/CySpc.c ****     {
 261:.\Generated_Source\PSoC5/CySpc.c ****         CY_SPC_CPU_DATA_REG = CY_SPC_KEY_ONE;
 423              		.loc 1 261 0
 424 002a 44F22073 		movw	r3, #18208
 425 002e C4F20003 		movt	r3, 16384
 426 0032 4FF0B602 		mov	r2, #182
 427 0036 1A70     		strb	r2, [r3, #0]
 262:.\Generated_Source\PSoC5/CySpc.c ****         CY_SPC_CPU_DATA_REG = CY_SPC_KEY_TWO(CY_SPC_CMD_LD_ROW);
 428              		.loc 1 262 0
 429 0038 44F22073 		movw	r3, #18208
 430 003c C4F20003 		movt	r3, 16384
 431 0040 4FF0D502 		mov	r2, #213
 432 0044 1A70     		strb	r2, [r3, #0]
 263:.\Generated_Source\PSoC5/CySpc.c ****         CY_SPC_CPU_DATA_REG = CY_SPC_CMD_LD_ROW;
 433              		.loc 1 263 0
 434 0046 44F22073 		movw	r3, #18208
 435 004a C4F20003 		movt	r3, 16384
 436 004e 4FF00202 		mov	r2, #2
 437 0052 1A70     		strb	r2, [r3, #0]
 264:.\Generated_Source\PSoC5/CySpc.c **** 
 265:.\Generated_Source\PSoC5/CySpc.c ****         /* Make sure the command was accepted */
 266:.\Generated_Source\PSoC5/CySpc.c ****         if(CY_SPC_BUSY)
 438              		.loc 1 266 0
 439 0054 44F22273 		movw	r3, #18210
 440 0058 C4F20003 		movt	r3, 16384
 441 005c 1B78     		ldrb	r3, [r3, #0]
 442 005e DBB2     		uxtb	r3, r3
 443 0060 03F00203 		and	r3, r3, #2
 444 0064 002B     		cmp	r3, #0
 445 0066 1BD1     		bne	.L24
 267:.\Generated_Source\PSoC5/CySpc.c ****         {
 268:.\Generated_Source\PSoC5/CySpc.c ****             CY_SPC_CPU_DATA_REG = array;
 446              		.loc 1 268 0
 447 0068 44F22073 		movw	r3, #18208
 448 006c C4F20003 		movt	r3, 16384
 449 0070 FA79     		ldrb	r2, [r7, #7]
 450 0072 1A70     		strb	r2, [r3, #0]
 269:.\Generated_Source\PSoC5/CySpc.c **** 
 270:.\Generated_Source\PSoC5/CySpc.c ****             for(i = 0u; i < size; i++)
 451              		.loc 1 270 0
 452 0074 4FF00003 		mov	r3, #0
 453 0078 7B81     		strh	r3, [r7, #10]	@ movhi
 454 007a 0CE0     		b	.L25
 455              	.L26:
 271:.\Generated_Source\PSoC5/CySpc.c ****             {
 272:.\Generated_Source\PSoC5/CySpc.c ****                 CY_SPC_CPU_DATA_REG = buffer[i];
 456              		.loc 1 272 0 discriminator 2
 457 007c 44F22073 		movw	r3, #18208
 458 0080 C4F20003 		movt	r3, 16384
 459 0084 7A89     		ldrh	r2, [r7, #10]
 460 0086 3968     		ldr	r1, [r7, #0]
ARM GAS  C:\Users\Robert\AppData\Local\Temp\cc0dkL6l.s 			page 14


 461 0088 8A18     		adds	r2, r1, r2
 462 008a 1278     		ldrb	r2, [r2, #0]	@ zero_extendqisi2
 463 008c 1A70     		strb	r2, [r3, #0]
 270:.\Generated_Source\PSoC5/CySpc.c ****             for(i = 0u; i < size; i++)
 464              		.loc 1 270 0 discriminator 2
 465 008e 7B89     		ldrh	r3, [r7, #10]	@ movhi
 466 0090 03F10103 		add	r3, r3, #1
 467 0094 7B81     		strh	r3, [r7, #10]	@ movhi
 468              	.L25:
 270:.\Generated_Source\PSoC5/CySpc.c ****             for(i = 0u; i < size; i++)
 469              		.loc 1 270 0 is_stmt 0 discriminator 1
 470 0096 7A89     		ldrh	r2, [r7, #10]
 471 0098 BB88     		ldrh	r3, [r7, #4]
 472 009a 9A42     		cmp	r2, r3
 473 009c EED3     		bcc	.L26
 270:.\Generated_Source\PSoC5/CySpc.c ****             for(i = 0u; i < size; i++)
 474              		.loc 1 270 0
 475 009e 06E0     		b	.L27
 476              	.L24:
 273:.\Generated_Source\PSoC5/CySpc.c ****             }
 274:.\Generated_Source\PSoC5/CySpc.c ****         }
 275:.\Generated_Source\PSoC5/CySpc.c ****         else
 276:.\Generated_Source\PSoC5/CySpc.c ****         {
 277:.\Generated_Source\PSoC5/CySpc.c ****             status = CYRET_CANCELED;
 477              		.loc 1 277 0 is_stmt 1
 478 00a0 4FF00903 		mov	r3, #9
 479 00a4 FB60     		str	r3, [r7, #12]
 480 00a6 02E0     		b	.L27
 481              	.L23:
 278:.\Generated_Source\PSoC5/CySpc.c ****         }
 279:.\Generated_Source\PSoC5/CySpc.c ****     }
 280:.\Generated_Source\PSoC5/CySpc.c ****     else
 281:.\Generated_Source\PSoC5/CySpc.c ****     {
 282:.\Generated_Source\PSoC5/CySpc.c ****         status = CYRET_LOCKED;
 482              		.loc 1 282 0
 483 00a8 4FF00403 		mov	r3, #4
 484 00ac FB60     		str	r3, [r7, #12]
 485              	.L27:
 283:.\Generated_Source\PSoC5/CySpc.c ****     }
 284:.\Generated_Source\PSoC5/CySpc.c **** 
 285:.\Generated_Source\PSoC5/CySpc.c ****     return(status);
 486              		.loc 1 285 0
 487 00ae FB68     		ldr	r3, [r7, #12]
 286:.\Generated_Source\PSoC5/CySpc.c **** }
 488              		.loc 1 286 0
 489 00b0 1846     		mov	r0, r3
 490 00b2 07F11407 		add	r7, r7, #20
 491 00b6 BD46     		mov	sp, r7
 492 00b8 80BC     		pop	{r7}
 493 00ba 7047     		bx	lr
 494              		.cfi_endproc
 495              	.LFE4:
 496              		.size	CySpcLoadRow, .-CySpcLoadRow
 497              		.section	.text.CySpcWriteRow,"ax",%progbits
 498              		.align	2
 499              		.global	CySpcWriteRow
 500              		.thumb
ARM GAS  C:\Users\Robert\AppData\Local\Temp\cc0dkL6l.s 			page 15


 501              		.thumb_func
 502              		.type	CySpcWriteRow, %function
 503              	CySpcWriteRow:
 504              	.LFB5:
 287:.\Generated_Source\PSoC5/CySpc.c **** 
 288:.\Generated_Source\PSoC5/CySpc.c **** 
 289:.\Generated_Source\PSoC5/CySpc.c **** /*******************************************************************************
 290:.\Generated_Source\PSoC5/CySpc.c **** * Function Name: CySpcWriteRow
 291:.\Generated_Source\PSoC5/CySpc.c **** ********************************************************************************
 292:.\Generated_Source\PSoC5/CySpc.c **** * Summary:
 293:.\Generated_Source\PSoC5/CySpc.c **** *  Erases then programs a row in Flash/EEPROM with data in row latch.
 294:.\Generated_Source\PSoC5/CySpc.c **** *
 295:.\Generated_Source\PSoC5/CySpc.c **** * Parameters:
 296:.\Generated_Source\PSoC5/CySpc.c **** *  uint8 array:
 297:.\Generated_Source\PSoC5/CySpc.c **** *   Id of the array.
 298:.\Generated_Source\PSoC5/CySpc.c **** *
 299:.\Generated_Source\PSoC5/CySpc.c **** *  uint16 address:
 300:.\Generated_Source\PSoC5/CySpc.c **** *   flash/eeprom addrress
 301:.\Generated_Source\PSoC5/CySpc.c **** *
 302:.\Generated_Source\PSoC5/CySpc.c **** *  uint8 tempPolarity:
 303:.\Generated_Source\PSoC5/CySpc.c **** *   temperature polarity.
 304:.\Generated_Source\PSoC5/CySpc.c **** *   1: the Temp Magnitude is interpreted as a positive value
 305:.\Generated_Source\PSoC5/CySpc.c **** *   0: the Temp Magnitude is interpreted as a negative value
 306:.\Generated_Source\PSoC5/CySpc.c **** *
 307:.\Generated_Source\PSoC5/CySpc.c **** *  uint8 tempMagnitude:
 308:.\Generated_Source\PSoC5/CySpc.c **** *   temperature magnitude.
 309:.\Generated_Source\PSoC5/CySpc.c **** *
 310:.\Generated_Source\PSoC5/CySpc.c **** * Return:
 311:.\Generated_Source\PSoC5/CySpc.c **** *  CYRET_STARTED
 312:.\Generated_Source\PSoC5/CySpc.c **** *  CYRET_CANCELED
 313:.\Generated_Source\PSoC5/CySpc.c **** *  CYRET_LOCKED
 314:.\Generated_Source\PSoC5/CySpc.c **** *
 315:.\Generated_Source\PSoC5/CySpc.c **** *******************************************************************************/
 316:.\Generated_Source\PSoC5/CySpc.c **** cystatus CySpcWriteRow(uint8 array, uint16 address, uint8 tempPolarity, uint8 tempMagnitude)\
 317:.\Generated_Source\PSoC5/CySpc.c **** 
 318:.\Generated_Source\PSoC5/CySpc.c **** {
 505              		.loc 1 318 0
 506              		.cfi_startproc
 507              		@ args = 0, pretend = 0, frame = 16
 508              		@ frame_needed = 1, uses_anonymous_args = 0
 509              		@ link register save eliminated.
 510 0000 80B4     		push	{r7}
 511              	.LCFI15:
 512              		.cfi_def_cfa_offset 4
 513              		.cfi_offset 7, -4
 514 0002 85B0     		sub	sp, sp, #20
 515              	.LCFI16:
 516              		.cfi_def_cfa_offset 24
 517 0004 00AF     		add	r7, sp, #0
 518              	.LCFI17:
 519              		.cfi_def_cfa_register 7
 520 0006 F871     		strb	r0, [r7, #7]
 521 0008 B980     		strh	r1, [r7, #4]	@ movhi
 522 000a BA71     		strb	r2, [r7, #6]
 523 000c FB70     		strb	r3, [r7, #3]
 319:.\Generated_Source\PSoC5/CySpc.c ****     cystatus status = CYRET_STARTED;
 524              		.loc 1 319 0
ARM GAS  C:\Users\Robert\AppData\Local\Temp\cc0dkL6l.s 			page 16


 525 000e 4FF00703 		mov	r3, #7
 526 0012 FB60     		str	r3, [r7, #12]
 320:.\Generated_Source\PSoC5/CySpc.c **** 
 321:.\Generated_Source\PSoC5/CySpc.c ****     /* Make sure the SPC is ready to accept command */
 322:.\Generated_Source\PSoC5/CySpc.c ****     if(CY_SPC_IDLE)
 527              		.loc 1 322 0
 528 0014 44F22273 		movw	r3, #18210
 529 0018 C4F20003 		movt	r3, 16384
 530 001c 1B78     		ldrb	r3, [r3, #0]
 531 001e DBB2     		uxtb	r3, r3
 532 0020 03F00203 		and	r3, r3, #2
 533 0024 002B     		cmp	r3, #0
 534 0026 46D0     		beq	.L30
 323:.\Generated_Source\PSoC5/CySpc.c ****     {
 324:.\Generated_Source\PSoC5/CySpc.c ****         CY_SPC_CPU_DATA_REG = CY_SPC_KEY_ONE;
 535              		.loc 1 324 0
 536 0028 44F22073 		movw	r3, #18208
 537 002c C4F20003 		movt	r3, 16384
 538 0030 4FF0B602 		mov	r2, #182
 539 0034 1A70     		strb	r2, [r3, #0]
 325:.\Generated_Source\PSoC5/CySpc.c ****         CY_SPC_CPU_DATA_REG = CY_SPC_KEY_TWO(CY_SPC_CMD_WR_ROW);
 540              		.loc 1 325 0
 541 0036 44F22073 		movw	r3, #18208
 542 003a C4F20003 		movt	r3, 16384
 543 003e 4FF0D802 		mov	r2, #216
 544 0042 1A70     		strb	r2, [r3, #0]
 326:.\Generated_Source\PSoC5/CySpc.c ****         CY_SPC_CPU_DATA_REG = CY_SPC_CMD_WR_ROW;
 545              		.loc 1 326 0
 546 0044 44F22073 		movw	r3, #18208
 547 0048 C4F20003 		movt	r3, 16384
 548 004c 4FF00502 		mov	r2, #5
 549 0050 1A70     		strb	r2, [r3, #0]
 327:.\Generated_Source\PSoC5/CySpc.c **** 
 328:.\Generated_Source\PSoC5/CySpc.c ****         /* Make sure the command was accepted */
 329:.\Generated_Source\PSoC5/CySpc.c ****         if(CY_SPC_BUSY)
 550              		.loc 1 329 0
 551 0052 44F22273 		movw	r3, #18210
 552 0056 C4F20003 		movt	r3, 16384
 553 005a 1B78     		ldrb	r3, [r3, #0]
 554 005c DBB2     		uxtb	r3, r3
 555 005e 03F00203 		and	r3, r3, #2
 556 0062 002B     		cmp	r3, #0
 557 0064 23D1     		bne	.L31
 330:.\Generated_Source\PSoC5/CySpc.c ****         {
 331:.\Generated_Source\PSoC5/CySpc.c ****             CY_SPC_CPU_DATA_REG = array;
 558              		.loc 1 331 0
 559 0066 44F22073 		movw	r3, #18208
 560 006a C4F20003 		movt	r3, 16384
 561 006e FA79     		ldrb	r2, [r7, #7]
 562 0070 1A70     		strb	r2, [r3, #0]
 332:.\Generated_Source\PSoC5/CySpc.c ****             CY_SPC_CPU_DATA_REG = HI8(address);
 563              		.loc 1 332 0
 564 0072 44F22073 		movw	r3, #18208
 565 0076 C4F20003 		movt	r3, 16384
 566 007a BA88     		ldrh	r2, [r7, #4]
 567 007c 4FEA1222 		lsr	r2, r2, #8
 568 0080 92B2     		uxth	r2, r2
ARM GAS  C:\Users\Robert\AppData\Local\Temp\cc0dkL6l.s 			page 17


 569 0082 D2B2     		uxtb	r2, r2
 570 0084 1A70     		strb	r2, [r3, #0]
 333:.\Generated_Source\PSoC5/CySpc.c ****             CY_SPC_CPU_DATA_REG = LO8(address);
 571              		.loc 1 333 0
 572 0086 44F22073 		movw	r3, #18208
 573 008a C4F20003 		movt	r3, 16384
 574 008e BA88     		ldrh	r2, [r7, #4]	@ movhi
 575 0090 D2B2     		uxtb	r2, r2
 576 0092 1A70     		strb	r2, [r3, #0]
 334:.\Generated_Source\PSoC5/CySpc.c ****             CY_SPC_CPU_DATA_REG = tempPolarity;
 577              		.loc 1 334 0
 578 0094 44F22073 		movw	r3, #18208
 579 0098 C4F20003 		movt	r3, 16384
 580 009c BA79     		ldrb	r2, [r7, #6]
 581 009e 1A70     		strb	r2, [r3, #0]
 335:.\Generated_Source\PSoC5/CySpc.c ****             CY_SPC_CPU_DATA_REG = tempMagnitude;
 582              		.loc 1 335 0
 583 00a0 44F22073 		movw	r3, #18208
 584 00a4 C4F20003 		movt	r3, 16384
 585 00a8 FA78     		ldrb	r2, [r7, #3]
 586 00aa 1A70     		strb	r2, [r3, #0]
 587 00ac 06E0     		b	.L32
 588              	.L31:
 336:.\Generated_Source\PSoC5/CySpc.c ****         }
 337:.\Generated_Source\PSoC5/CySpc.c ****         else
 338:.\Generated_Source\PSoC5/CySpc.c ****         {
 339:.\Generated_Source\PSoC5/CySpc.c ****             status = CYRET_CANCELED;
 589              		.loc 1 339 0
 590 00ae 4FF00903 		mov	r3, #9
 591 00b2 FB60     		str	r3, [r7, #12]
 592 00b4 02E0     		b	.L32
 593              	.L30:
 340:.\Generated_Source\PSoC5/CySpc.c ****         }
 341:.\Generated_Source\PSoC5/CySpc.c ****     }
 342:.\Generated_Source\PSoC5/CySpc.c ****     else
 343:.\Generated_Source\PSoC5/CySpc.c ****     {
 344:.\Generated_Source\PSoC5/CySpc.c ****         status = CYRET_LOCKED;
 594              		.loc 1 344 0
 595 00b6 4FF00403 		mov	r3, #4
 596 00ba FB60     		str	r3, [r7, #12]
 597              	.L32:
 345:.\Generated_Source\PSoC5/CySpc.c ****     }
 346:.\Generated_Source\PSoC5/CySpc.c **** 
 347:.\Generated_Source\PSoC5/CySpc.c ****     return(status);
 598              		.loc 1 347 0
 599 00bc FB68     		ldr	r3, [r7, #12]
 348:.\Generated_Source\PSoC5/CySpc.c **** }
 600              		.loc 1 348 0
 601 00be 1846     		mov	r0, r3
 602 00c0 07F11407 		add	r7, r7, #20
 603 00c4 BD46     		mov	sp, r7
 604 00c6 80BC     		pop	{r7}
 605 00c8 7047     		bx	lr
 606              		.cfi_endproc
 607              	.LFE5:
 608              		.size	CySpcWriteRow, .-CySpcWriteRow
 609 00ca 00BF     		.section	.text.CySpcEraseSector,"ax",%progbits
ARM GAS  C:\Users\Robert\AppData\Local\Temp\cc0dkL6l.s 			page 18


 610              		.align	2
 611              		.global	CySpcEraseSector
 612              		.thumb
 613              		.thumb_func
 614              		.type	CySpcEraseSector, %function
 615              	CySpcEraseSector:
 616              	.LFB6:
 349:.\Generated_Source\PSoC5/CySpc.c **** 
 350:.\Generated_Source\PSoC5/CySpc.c **** 
 351:.\Generated_Source\PSoC5/CySpc.c **** /*******************************************************************************
 352:.\Generated_Source\PSoC5/CySpc.c **** * Function Name: CySpcEraseSector
 353:.\Generated_Source\PSoC5/CySpc.c **** ********************************************************************************
 354:.\Generated_Source\PSoC5/CySpc.c **** * Summary:
 355:.\Generated_Source\PSoC5/CySpc.c **** *  Erases all data in the addressed sector (block of 64 rows).
 356:.\Generated_Source\PSoC5/CySpc.c **** *
 357:.\Generated_Source\PSoC5/CySpc.c **** * Parameters:
 358:.\Generated_Source\PSoC5/CySpc.c **** *  uint8 array:
 359:.\Generated_Source\PSoC5/CySpc.c **** *   Id of the array.
 360:.\Generated_Source\PSoC5/CySpc.c **** *
 361:.\Generated_Source\PSoC5/CySpc.c **** *  uint8 sectorNumber:
 362:.\Generated_Source\PSoC5/CySpc.c **** *   Zero based sector number within Flash/EEPROM array
 363:.\Generated_Source\PSoC5/CySpc.c **** *
 364:.\Generated_Source\PSoC5/CySpc.c **** * Return:
 365:.\Generated_Source\PSoC5/CySpc.c **** *  CYRET_STARTED
 366:.\Generated_Source\PSoC5/CySpc.c **** *  CYRET_CANCELED
 367:.\Generated_Source\PSoC5/CySpc.c **** *  CYRET_LOCKED
 368:.\Generated_Source\PSoC5/CySpc.c **** *
 369:.\Generated_Source\PSoC5/CySpc.c **** *******************************************************************************/
 370:.\Generated_Source\PSoC5/CySpc.c **** cystatus CySpcEraseSector(uint8 array, uint8 sectorNumber)
 371:.\Generated_Source\PSoC5/CySpc.c **** {
 617              		.loc 1 371 0
 618              		.cfi_startproc
 619              		@ args = 0, pretend = 0, frame = 16
 620              		@ frame_needed = 1, uses_anonymous_args = 0
 621              		@ link register save eliminated.
 622 0000 80B4     		push	{r7}
 623              	.LCFI18:
 624              		.cfi_def_cfa_offset 4
 625              		.cfi_offset 7, -4
 626 0002 85B0     		sub	sp, sp, #20
 627              	.LCFI19:
 628              		.cfi_def_cfa_offset 24
 629 0004 00AF     		add	r7, sp, #0
 630              	.LCFI20:
 631              		.cfi_def_cfa_register 7
 632 0006 0246     		mov	r2, r0
 633 0008 0B46     		mov	r3, r1
 634 000a FA71     		strb	r2, [r7, #7]
 635 000c BB71     		strb	r3, [r7, #6]
 372:.\Generated_Source\PSoC5/CySpc.c ****     cystatus status = CYRET_STARTED;
 636              		.loc 1 372 0
 637 000e 4FF00703 		mov	r3, #7
 638 0012 FB60     		str	r3, [r7, #12]
 373:.\Generated_Source\PSoC5/CySpc.c **** 
 374:.\Generated_Source\PSoC5/CySpc.c ****     /* Make sure the SPC is ready to accept command */
 375:.\Generated_Source\PSoC5/CySpc.c ****     if(CY_SPC_IDLE)
 639              		.loc 1 375 0
ARM GAS  C:\Users\Robert\AppData\Local\Temp\cc0dkL6l.s 			page 19


 640 0014 44F22273 		movw	r3, #18210
 641 0018 C4F20003 		movt	r3, 16384
 642 001c 1B78     		ldrb	r3, [r3, #0]
 643 001e DBB2     		uxtb	r3, r3
 644 0020 03F00203 		and	r3, r3, #2
 645 0024 002B     		cmp	r3, #0
 646 0026 2FD0     		beq	.L35
 376:.\Generated_Source\PSoC5/CySpc.c ****     {
 377:.\Generated_Source\PSoC5/CySpc.c ****         CY_SPC_CPU_DATA_REG = CY_SPC_KEY_ONE;
 647              		.loc 1 377 0
 648 0028 44F22073 		movw	r3, #18208
 649 002c C4F20003 		movt	r3, 16384
 650 0030 4FF0B602 		mov	r2, #182
 651 0034 1A70     		strb	r2, [r3, #0]
 378:.\Generated_Source\PSoC5/CySpc.c ****         CY_SPC_CPU_DATA_REG = CY_SPC_KEY_TWO(CY_SPC_CMD_ER_SECTOR);
 652              		.loc 1 378 0
 653 0036 44F22073 		movw	r3, #18208
 654 003a C4F20003 		movt	r3, 16384
 655 003e 4FF0DB02 		mov	r2, #219
 656 0042 1A70     		strb	r2, [r3, #0]
 379:.\Generated_Source\PSoC5/CySpc.c ****         CY_SPC_CPU_DATA_REG = CY_SPC_CMD_ER_SECTOR;
 657              		.loc 1 379 0
 658 0044 44F22073 		movw	r3, #18208
 659 0048 C4F20003 		movt	r3, 16384
 660 004c 4FF00802 		mov	r2, #8
 661 0050 1A70     		strb	r2, [r3, #0]
 380:.\Generated_Source\PSoC5/CySpc.c **** 
 381:.\Generated_Source\PSoC5/CySpc.c ****         /* Make sure the command was accepted */
 382:.\Generated_Source\PSoC5/CySpc.c ****         if(CY_SPC_BUSY)
 662              		.loc 1 382 0
 663 0052 44F22273 		movw	r3, #18210
 664 0056 C4F20003 		movt	r3, 16384
 665 005a 1B78     		ldrb	r3, [r3, #0]
 666 005c DBB2     		uxtb	r3, r3
 667 005e 03F00203 		and	r3, r3, #2
 668 0062 002B     		cmp	r3, #0
 669 0064 0CD1     		bne	.L36
 383:.\Generated_Source\PSoC5/CySpc.c ****         {
 384:.\Generated_Source\PSoC5/CySpc.c ****             CY_SPC_CPU_DATA_REG = array;
 670              		.loc 1 384 0
 671 0066 44F22073 		movw	r3, #18208
 672 006a C4F20003 		movt	r3, 16384
 673 006e FA79     		ldrb	r2, [r7, #7]
 674 0070 1A70     		strb	r2, [r3, #0]
 385:.\Generated_Source\PSoC5/CySpc.c ****             CY_SPC_CPU_DATA_REG = sectorNumber;
 675              		.loc 1 385 0
 676 0072 44F22073 		movw	r3, #18208
 677 0076 C4F20003 		movt	r3, 16384
 678 007a BA79     		ldrb	r2, [r7, #6]
 679 007c 1A70     		strb	r2, [r3, #0]
 680 007e 06E0     		b	.L37
 681              	.L36:
 386:.\Generated_Source\PSoC5/CySpc.c ****         }
 387:.\Generated_Source\PSoC5/CySpc.c ****         else
 388:.\Generated_Source\PSoC5/CySpc.c ****         {
 389:.\Generated_Source\PSoC5/CySpc.c ****             status = CYRET_CANCELED;
 682              		.loc 1 389 0
ARM GAS  C:\Users\Robert\AppData\Local\Temp\cc0dkL6l.s 			page 20


 683 0080 4FF00903 		mov	r3, #9
 684 0084 FB60     		str	r3, [r7, #12]
 685 0086 02E0     		b	.L37
 686              	.L35:
 390:.\Generated_Source\PSoC5/CySpc.c ****         }
 391:.\Generated_Source\PSoC5/CySpc.c ****     }
 392:.\Generated_Source\PSoC5/CySpc.c ****     else
 393:.\Generated_Source\PSoC5/CySpc.c ****     {
 394:.\Generated_Source\PSoC5/CySpc.c ****         status = CYRET_LOCKED;
 687              		.loc 1 394 0
 688 0088 4FF00403 		mov	r3, #4
 689 008c FB60     		str	r3, [r7, #12]
 690              	.L37:
 395:.\Generated_Source\PSoC5/CySpc.c ****     }
 396:.\Generated_Source\PSoC5/CySpc.c **** 
 397:.\Generated_Source\PSoC5/CySpc.c ****     return(status);
 691              		.loc 1 397 0
 692 008e FB68     		ldr	r3, [r7, #12]
 398:.\Generated_Source\PSoC5/CySpc.c **** }
 693              		.loc 1 398 0
 694 0090 1846     		mov	r0, r3
 695 0092 07F11407 		add	r7, r7, #20
 696 0096 BD46     		mov	sp, r7
 697 0098 80BC     		pop	{r7}
 698 009a 7047     		bx	lr
 699              		.cfi_endproc
 700              	.LFE6:
 701              		.size	CySpcEraseSector, .-CySpcEraseSector
 702              		.section	.text.CySpcGetTemp,"ax",%progbits
 703              		.align	2
 704              		.global	CySpcGetTemp
 705              		.thumb
 706              		.thumb_func
 707              		.type	CySpcGetTemp, %function
 708              	CySpcGetTemp:
 709              	.LFB7:
 399:.\Generated_Source\PSoC5/CySpc.c **** 
 400:.\Generated_Source\PSoC5/CySpc.c **** 
 401:.\Generated_Source\PSoC5/CySpc.c **** /*******************************************************************************
 402:.\Generated_Source\PSoC5/CySpc.c **** * Function Name: CySpcGetTemp
 403:.\Generated_Source\PSoC5/CySpc.c **** ********************************************************************************
 404:.\Generated_Source\PSoC5/CySpc.c **** * Summary:
 405:.\Generated_Source\PSoC5/CySpc.c **** *  Returns the internal die temperature
 406:.\Generated_Source\PSoC5/CySpc.c **** *
 407:.\Generated_Source\PSoC5/CySpc.c **** * Parameters:
 408:.\Generated_Source\PSoC5/CySpc.c **** *  uint8 numSamples:
 409:.\Generated_Source\PSoC5/CySpc.c **** *   Number of samples. Valid values are 1-5, resulting in 2 - 32 samples
 410:.\Generated_Source\PSoC5/CySpc.c **** *   respectively.
 411:.\Generated_Source\PSoC5/CySpc.c **** *
 412:.\Generated_Source\PSoC5/CySpc.c **** * uint16 timerPeriod:
 413:.\Generated_Source\PSoC5/CySpc.c **** *   Number of ADC ACLK cycles. A valid 14 bit value is accepted, higher 2 bits
 414:.\Generated_Source\PSoC5/CySpc.c **** *   of 16 bit values are ignored.
 415:.\Generated_Source\PSoC5/CySpc.c **** *
 416:.\Generated_Source\PSoC5/CySpc.c **** * uint8 clkDivSelect:
 417:.\Generated_Source\PSoC5/CySpc.c **** *   ADC ACLK clock divide value. Valid values are 2 - 225.
 418:.\Generated_Source\PSoC5/CySpc.c **** *
 419:.\Generated_Source\PSoC5/CySpc.c **** * Return:
ARM GAS  C:\Users\Robert\AppData\Local\Temp\cc0dkL6l.s 			page 21


 420:.\Generated_Source\PSoC5/CySpc.c **** *  CYRET_STARTED
 421:.\Generated_Source\PSoC5/CySpc.c **** *  CYRET_CANCELED
 422:.\Generated_Source\PSoC5/CySpc.c **** *  CYRET_LOCKED
 423:.\Generated_Source\PSoC5/CySpc.c **** *
 424:.\Generated_Source\PSoC5/CySpc.c **** *******************************************************************************/
 425:.\Generated_Source\PSoC5/CySpc.c **** cystatus CySpcGetTemp(uint8 numSamples)
 426:.\Generated_Source\PSoC5/CySpc.c **** {
 710              		.loc 1 426 0
 711              		.cfi_startproc
 712              		@ args = 0, pretend = 0, frame = 16
 713              		@ frame_needed = 1, uses_anonymous_args = 0
 714              		@ link register save eliminated.
 715 0000 80B4     		push	{r7}
 716              	.LCFI21:
 717              		.cfi_def_cfa_offset 4
 718              		.cfi_offset 7, -4
 719 0002 85B0     		sub	sp, sp, #20
 720              	.LCFI22:
 721              		.cfi_def_cfa_offset 24
 722 0004 00AF     		add	r7, sp, #0
 723              	.LCFI23:
 724              		.cfi_def_cfa_register 7
 725 0006 0346     		mov	r3, r0
 726 0008 FB71     		strb	r3, [r7, #7]
 427:.\Generated_Source\PSoC5/CySpc.c ****     cystatus status = CYRET_STARTED;
 727              		.loc 1 427 0
 728 000a 4FF00703 		mov	r3, #7
 729 000e FB60     		str	r3, [r7, #12]
 428:.\Generated_Source\PSoC5/CySpc.c **** 
 429:.\Generated_Source\PSoC5/CySpc.c ****     /* Make sure the SPC is ready to accept command */
 430:.\Generated_Source\PSoC5/CySpc.c ****     if(CY_SPC_IDLE)
 730              		.loc 1 430 0
 731 0010 44F22273 		movw	r3, #18210
 732 0014 C4F20003 		movt	r3, 16384
 733 0018 1B78     		ldrb	r3, [r3, #0]
 734 001a DBB2     		uxtb	r3, r3
 735 001c 03F00203 		and	r3, r3, #2
 736 0020 002B     		cmp	r3, #0
 737 0022 29D0     		beq	.L40
 431:.\Generated_Source\PSoC5/CySpc.c ****     {
 432:.\Generated_Source\PSoC5/CySpc.c ****         CY_SPC_CPU_DATA_REG = CY_SPC_KEY_ONE;
 738              		.loc 1 432 0
 739 0024 44F22073 		movw	r3, #18208
 740 0028 C4F20003 		movt	r3, 16384
 741 002c 4FF0B602 		mov	r2, #182
 742 0030 1A70     		strb	r2, [r3, #0]
 433:.\Generated_Source\PSoC5/CySpc.c ****         CY_SPC_CPU_DATA_REG = CY_SPC_KEY_TWO(CY_SPC_CMD_GET_TEMP);
 743              		.loc 1 433 0
 744 0032 44F22073 		movw	r3, #18208
 745 0036 C4F20003 		movt	r3, 16384
 746 003a 4FF0E102 		mov	r2, #225
 747 003e 1A70     		strb	r2, [r3, #0]
 434:.\Generated_Source\PSoC5/CySpc.c ****         CY_SPC_CPU_DATA_REG = CY_SPC_CMD_GET_TEMP;
 748              		.loc 1 434 0
 749 0040 44F22073 		movw	r3, #18208
 750 0044 C4F20003 		movt	r3, 16384
 751 0048 4FF00E02 		mov	r2, #14
ARM GAS  C:\Users\Robert\AppData\Local\Temp\cc0dkL6l.s 			page 22


 752 004c 1A70     		strb	r2, [r3, #0]
 435:.\Generated_Source\PSoC5/CySpc.c **** 
 436:.\Generated_Source\PSoC5/CySpc.c ****         /* Make sure the command was accepted */
 437:.\Generated_Source\PSoC5/CySpc.c ****         if(CY_SPC_BUSY)
 753              		.loc 1 437 0
 754 004e 44F22273 		movw	r3, #18210
 755 0052 C4F20003 		movt	r3, 16384
 756 0056 1B78     		ldrb	r3, [r3, #0]
 757 0058 DBB2     		uxtb	r3, r3
 758 005a 03F00203 		and	r3, r3, #2
 759 005e 002B     		cmp	r3, #0
 760 0060 06D1     		bne	.L41
 438:.\Generated_Source\PSoC5/CySpc.c ****         {
 439:.\Generated_Source\PSoC5/CySpc.c ****             CY_SPC_CPU_DATA_REG = numSamples;
 761              		.loc 1 439 0
 762 0062 44F22073 		movw	r3, #18208
 763 0066 C4F20003 		movt	r3, 16384
 764 006a FA79     		ldrb	r2, [r7, #7]
 765 006c 1A70     		strb	r2, [r3, #0]
 766 006e 06E0     		b	.L42
 767              	.L41:
 440:.\Generated_Source\PSoC5/CySpc.c ****         }
 441:.\Generated_Source\PSoC5/CySpc.c ****         else
 442:.\Generated_Source\PSoC5/CySpc.c ****         {
 443:.\Generated_Source\PSoC5/CySpc.c ****             status = CYRET_CANCELED;
 768              		.loc 1 443 0
 769 0070 4FF00903 		mov	r3, #9
 770 0074 FB60     		str	r3, [r7, #12]
 771 0076 02E0     		b	.L42
 772              	.L40:
 444:.\Generated_Source\PSoC5/CySpc.c ****         }
 445:.\Generated_Source\PSoC5/CySpc.c ****     }
 446:.\Generated_Source\PSoC5/CySpc.c ****     else
 447:.\Generated_Source\PSoC5/CySpc.c ****     {
 448:.\Generated_Source\PSoC5/CySpc.c ****         status = CYRET_LOCKED;
 773              		.loc 1 448 0
 774 0078 4FF00403 		mov	r3, #4
 775 007c FB60     		str	r3, [r7, #12]
 776              	.L42:
 449:.\Generated_Source\PSoC5/CySpc.c ****     }
 450:.\Generated_Source\PSoC5/CySpc.c **** 
 451:.\Generated_Source\PSoC5/CySpc.c ****     return(status);
 777              		.loc 1 451 0
 778 007e FB68     		ldr	r3, [r7, #12]
 452:.\Generated_Source\PSoC5/CySpc.c **** }
 779              		.loc 1 452 0
 780 0080 1846     		mov	r0, r3
 781 0082 07F11407 		add	r7, r7, #20
 782 0086 BD46     		mov	sp, r7
 783 0088 80BC     		pop	{r7}
 784 008a 7047     		bx	lr
 785              		.cfi_endproc
 786              	.LFE7:
 787              		.size	CySpcGetTemp, .-CySpcGetTemp
 788              		.section	.text.CySpcLock,"ax",%progbits
 789              		.align	2
 790              		.global	CySpcLock
ARM GAS  C:\Users\Robert\AppData\Local\Temp\cc0dkL6l.s 			page 23


 791              		.thumb
 792              		.thumb_func
 793              		.type	CySpcLock, %function
 794              	CySpcLock:
 795              	.LFB8:
 453:.\Generated_Source\PSoC5/CySpc.c **** 
 454:.\Generated_Source\PSoC5/CySpc.c **** 
 455:.\Generated_Source\PSoC5/CySpc.c **** /*******************************************************************************
 456:.\Generated_Source\PSoC5/CySpc.c **** * Function Name: CySpcLock
 457:.\Generated_Source\PSoC5/CySpc.c **** ********************************************************************************
 458:.\Generated_Source\PSoC5/CySpc.c **** * Summary:
 459:.\Generated_Source\PSoC5/CySpc.c **** *  Locks the SPC so it can not be used by someone else:
 460:.\Generated_Source\PSoC5/CySpc.c **** *   - Saves wait-pipeline enable state and enable pipeline (PSoC5)
 461:.\Generated_Source\PSoC5/CySpc.c **** *
 462:.\Generated_Source\PSoC5/CySpc.c **** * Parameters:
 463:.\Generated_Source\PSoC5/CySpc.c **** *  Note
 464:.\Generated_Source\PSoC5/CySpc.c **** *
 465:.\Generated_Source\PSoC5/CySpc.c **** * Return:
 466:.\Generated_Source\PSoC5/CySpc.c **** *  CYRET_SUCCESS - if the resource was free.
 467:.\Generated_Source\PSoC5/CySpc.c **** *  CYRET_LOCKED  - if the SPC is in use.
 468:.\Generated_Source\PSoC5/CySpc.c **** *
 469:.\Generated_Source\PSoC5/CySpc.c **** *******************************************************************************/
 470:.\Generated_Source\PSoC5/CySpc.c **** cystatus CySpcLock(void)
 471:.\Generated_Source\PSoC5/CySpc.c **** {
 796              		.loc 1 471 0
 797              		.cfi_startproc
 798              		@ args = 0, pretend = 0, frame = 8
 799              		@ frame_needed = 1, uses_anonymous_args = 0
 800 0000 80B5     		push	{r7, lr}
 801              	.LCFI24:
 802              		.cfi_def_cfa_offset 8
 803              		.cfi_offset 7, -8
 804              		.cfi_offset 14, -4
 805 0002 82B0     		sub	sp, sp, #8
 806              	.LCFI25:
 807              		.cfi_def_cfa_offset 16
 808 0004 00AF     		add	r7, sp, #0
 809              	.LCFI26:
 810              		.cfi_def_cfa_register 7
 472:.\Generated_Source\PSoC5/CySpc.c ****     cystatus status = CYRET_LOCKED;
 811              		.loc 1 472 0
 812 0006 4FF00403 		mov	r3, #4
 813 000a 7B60     		str	r3, [r7, #4]
 473:.\Generated_Source\PSoC5/CySpc.c ****     uint8 interruptState;
 474:.\Generated_Source\PSoC5/CySpc.c **** 
 475:.\Generated_Source\PSoC5/CySpc.c ****     /* Enter critical section */
 476:.\Generated_Source\PSoC5/CySpc.c ****     interruptState = CyEnterCriticalSection();
 814              		.loc 1 476 0
 815 000c FFF7FEFF 		bl	CyEnterCriticalSection
 816 0010 0346     		mov	r3, r0
 817 0012 FB70     		strb	r3, [r7, #3]
 477:.\Generated_Source\PSoC5/CySpc.c **** 
 478:.\Generated_Source\PSoC5/CySpc.c ****     if(CY_SPC_UNLOCKED == SpcLockState)
 818              		.loc 1 478 0
 819 0014 40F20003 		movw	r3, #:lower16:SpcLockState
 820 0018 C0F20003 		movt	r3, #:upper16:SpcLockState
 821 001c 1B78     		ldrb	r3, [r3, #0]	@ zero_extendqisi2
ARM GAS  C:\Users\Robert\AppData\Local\Temp\cc0dkL6l.s 			page 24


 822 001e 002B     		cmp	r3, #0
 823 0020 28D1     		bne	.L45
 479:.\Generated_Source\PSoC5/CySpc.c ****     {
 480:.\Generated_Source\PSoC5/CySpc.c ****         SpcLockState = CY_SPC_LOCKED;
 824              		.loc 1 480 0
 825 0022 40F20003 		movw	r3, #:lower16:SpcLockState
 826 0026 C0F20003 		movt	r3, #:upper16:SpcLockState
 827 002a 4FF00102 		mov	r2, #1
 828 002e 1A70     		strb	r2, [r3, #0]
 481:.\Generated_Source\PSoC5/CySpc.c ****         status = CYRET_SUCCESS;
 829              		.loc 1 481 0
 830 0030 4FF00003 		mov	r3, #0
 831 0034 7B60     		str	r3, [r7, #4]
 482:.\Generated_Source\PSoC5/CySpc.c **** 
 483:.\Generated_Source\PSoC5/CySpc.c ****         #if(CY_PSOC5)
 484:.\Generated_Source\PSoC5/CySpc.c **** 
 485:.\Generated_Source\PSoC5/CySpc.c ****             if(0u != (CY_SPC_CPU_WAITPIPE_REG & CY_SPC_CPU_WAITPIPE_BYPASS))
 832              		.loc 1 485 0
 833 0036 4FF00403 		mov	r3, #4
 834 003a C4F20803 		movt	r3, 16392
 835 003e 1B68     		ldr	r3, [r3, #0]
 836 0040 03F00103 		and	r3, r3, #1
 837 0044 002B     		cmp	r3, #0
 838 0046 15D0     		beq	.L45
 486:.\Generated_Source\PSoC5/CySpc.c ****             {
 487:.\Generated_Source\PSoC5/CySpc.c ****                 /* Enable pipeline registers */
 488:.\Generated_Source\PSoC5/CySpc.c ****                 CY_SPC_CPU_WAITPIPE_REG &= ((uint32)(~CY_SPC_CPU_WAITPIPE_BYPASS));
 839              		.loc 1 488 0
 840 0048 4FF00403 		mov	r3, #4
 841 004c C4F20803 		movt	r3, 16392
 842 0050 4FF00402 		mov	r2, #4
 843 0054 C4F20802 		movt	r2, 16392
 844 0058 1268     		ldr	r2, [r2, #0]
 845 005a 22F00102 		bic	r2, r2, #1
 846 005e 1A60     		str	r2, [r3, #0]
 489:.\Generated_Source\PSoC5/CySpc.c **** 
 490:.\Generated_Source\PSoC5/CySpc.c ****                 /* At least 2 NOP instructions are recommended */
 491:.\Generated_Source\PSoC5/CySpc.c ****                 CY_NOP;
 847              		.loc 1 491 0
 848              	@ 491 ".\Generated_Source\PSoC5\CySpc.c" 1
 849 0060 00BF     		NOP
 850              	
 851              	@ 0 "" 2
 492:.\Generated_Source\PSoC5/CySpc.c ****                 CY_NOP;
 852              		.loc 1 492 0
 853              	@ 492 ".\Generated_Source\PSoC5\CySpc.c" 1
 854 0062 00BF     		NOP
 855              	
 856              	@ 0 "" 2
 493:.\Generated_Source\PSoC5/CySpc.c ****                 CY_NOP;
 857              		.loc 1 493 0
 858              	@ 493 ".\Generated_Source\PSoC5\CySpc.c" 1
 859 0064 00BF     		NOP
 860              	
 861              	@ 0 "" 2
 494:.\Generated_Source\PSoC5/CySpc.c **** 
 495:.\Generated_Source\PSoC5/CySpc.c ****                 spcWaitPipeBypass = CY_SPC_CPU_WAITPIPE_BYPASS;
ARM GAS  C:\Users\Robert\AppData\Local\Temp\cc0dkL6l.s 			page 25


 862              		.loc 1 495 0
 863              		.thumb
 864 0066 40F20003 		movw	r3, #:lower16:spcWaitPipeBypass
 865 006a C0F20003 		movt	r3, #:upper16:spcWaitPipeBypass
 866 006e 4FF00102 		mov	r2, #1
 867 0072 1A60     		str	r2, [r3, #0]
 868              	.L45:
 496:.\Generated_Source\PSoC5/CySpc.c ****             }
 497:.\Generated_Source\PSoC5/CySpc.c **** 
 498:.\Generated_Source\PSoC5/CySpc.c ****         #endif  /* (CY_PSOC5) */
 499:.\Generated_Source\PSoC5/CySpc.c ****     }
 500:.\Generated_Source\PSoC5/CySpc.c **** 
 501:.\Generated_Source\PSoC5/CySpc.c ****     /* Exit critical section */
 502:.\Generated_Source\PSoC5/CySpc.c ****     CyExitCriticalSection(interruptState);
 869              		.loc 1 502 0
 870 0074 FB78     		ldrb	r3, [r7, #3]	@ zero_extendqisi2
 871 0076 1846     		mov	r0, r3
 872 0078 FFF7FEFF 		bl	CyExitCriticalSection
 503:.\Generated_Source\PSoC5/CySpc.c **** 
 504:.\Generated_Source\PSoC5/CySpc.c ****     return(status);
 873              		.loc 1 504 0
 874 007c 7B68     		ldr	r3, [r7, #4]
 505:.\Generated_Source\PSoC5/CySpc.c **** }
 875              		.loc 1 505 0
 876 007e 1846     		mov	r0, r3
 877 0080 07F10807 		add	r7, r7, #8
 878 0084 BD46     		mov	sp, r7
 879 0086 80BD     		pop	{r7, pc}
 880              		.cfi_endproc
 881              	.LFE8:
 882              		.size	CySpcLock, .-CySpcLock
 883              		.section	.text.CySpcUnlock,"ax",%progbits
 884              		.align	2
 885              		.global	CySpcUnlock
 886              		.thumb
 887              		.thumb_func
 888              		.type	CySpcUnlock, %function
 889              	CySpcUnlock:
 890              	.LFB9:
 506:.\Generated_Source\PSoC5/CySpc.c **** 
 507:.\Generated_Source\PSoC5/CySpc.c **** 
 508:.\Generated_Source\PSoC5/CySpc.c **** /*******************************************************************************
 509:.\Generated_Source\PSoC5/CySpc.c **** * Function Name: CySpcUnlock
 510:.\Generated_Source\PSoC5/CySpc.c **** ********************************************************************************
 511:.\Generated_Source\PSoC5/CySpc.c **** * Summary:
 512:.\Generated_Source\PSoC5/CySpc.c **** *  Unlocks the SPC so it can be used by someone else:
 513:.\Generated_Source\PSoC5/CySpc.c **** *   - Restores wait-pipeline enable state (PSoC5)
 514:.\Generated_Source\PSoC5/CySpc.c **** *
 515:.\Generated_Source\PSoC5/CySpc.c **** * Parameters:
 516:.\Generated_Source\PSoC5/CySpc.c **** *  None
 517:.\Generated_Source\PSoC5/CySpc.c **** *
 518:.\Generated_Source\PSoC5/CySpc.c **** * Return:
 519:.\Generated_Source\PSoC5/CySpc.c **** *  None
 520:.\Generated_Source\PSoC5/CySpc.c **** *
 521:.\Generated_Source\PSoC5/CySpc.c **** *******************************************************************************/
 522:.\Generated_Source\PSoC5/CySpc.c **** void CySpcUnlock(void)
 523:.\Generated_Source\PSoC5/CySpc.c **** {
ARM GAS  C:\Users\Robert\AppData\Local\Temp\cc0dkL6l.s 			page 26


 891              		.loc 1 523 0
 892              		.cfi_startproc
 893              		@ args = 0, pretend = 0, frame = 8
 894              		@ frame_needed = 1, uses_anonymous_args = 0
 895 0000 80B5     		push	{r7, lr}
 896              	.LCFI27:
 897              		.cfi_def_cfa_offset 8
 898              		.cfi_offset 7, -8
 899              		.cfi_offset 14, -4
 900 0002 82B0     		sub	sp, sp, #8
 901              	.LCFI28:
 902              		.cfi_def_cfa_offset 16
 903 0004 00AF     		add	r7, sp, #0
 904              	.LCFI29:
 905              		.cfi_def_cfa_register 7
 524:.\Generated_Source\PSoC5/CySpc.c ****     uint8 interruptState;
 525:.\Generated_Source\PSoC5/CySpc.c **** 
 526:.\Generated_Source\PSoC5/CySpc.c ****     /* Enter critical section */
 527:.\Generated_Source\PSoC5/CySpc.c ****     interruptState = CyEnterCriticalSection();
 906              		.loc 1 527 0
 907 0006 FFF7FEFF 		bl	CyEnterCriticalSection
 908 000a 0346     		mov	r3, r0
 909 000c FB71     		strb	r3, [r7, #7]
 528:.\Generated_Source\PSoC5/CySpc.c **** 
 529:.\Generated_Source\PSoC5/CySpc.c ****     /* Release the SPC object */
 530:.\Generated_Source\PSoC5/CySpc.c ****     SpcLockState = CY_SPC_UNLOCKED;
 910              		.loc 1 530 0
 911 000e 40F20003 		movw	r3, #:lower16:SpcLockState
 912 0012 C0F20003 		movt	r3, #:upper16:SpcLockState
 913 0016 4FF00002 		mov	r2, #0
 914 001a 1A70     		strb	r2, [r3, #0]
 531:.\Generated_Source\PSoC5/CySpc.c **** 
 532:.\Generated_Source\PSoC5/CySpc.c ****     #if(CY_PSOC5)
 533:.\Generated_Source\PSoC5/CySpc.c **** 
 534:.\Generated_Source\PSoC5/CySpc.c ****         if(CY_SPC_CPU_WAITPIPE_BYPASS == spcWaitPipeBypass)
 915              		.loc 1 534 0
 916 001c 40F20003 		movw	r3, #:lower16:spcWaitPipeBypass
 917 0020 C0F20003 		movt	r3, #:upper16:spcWaitPipeBypass
 918 0024 1B68     		ldr	r3, [r3, #0]
 919 0026 012B     		cmp	r3, #1
 920 0028 15D1     		bne	.L48
 535:.\Generated_Source\PSoC5/CySpc.c ****         {
 536:.\Generated_Source\PSoC5/CySpc.c ****             /* Force to bypass pipeline registers */
 537:.\Generated_Source\PSoC5/CySpc.c ****             CY_SPC_CPU_WAITPIPE_REG |= CY_SPC_CPU_WAITPIPE_BYPASS;
 921              		.loc 1 537 0
 922 002a 4FF00403 		mov	r3, #4
 923 002e C4F20803 		movt	r3, 16392
 924 0032 4FF00402 		mov	r2, #4
 925 0036 C4F20802 		movt	r2, 16392
 926 003a 1268     		ldr	r2, [r2, #0]
 927 003c 42F00102 		orr	r2, r2, #1
 928 0040 1A60     		str	r2, [r3, #0]
 538:.\Generated_Source\PSoC5/CySpc.c **** 
 539:.\Generated_Source\PSoC5/CySpc.c ****             /* At least 2 NOP instructions are recommended */
 540:.\Generated_Source\PSoC5/CySpc.c ****             CY_NOP;
 929              		.loc 1 540 0
 930              	@ 540 ".\Generated_Source\PSoC5\CySpc.c" 1
ARM GAS  C:\Users\Robert\AppData\Local\Temp\cc0dkL6l.s 			page 27


 931 0042 00BF     		NOP
 932              	
 933              	@ 0 "" 2
 541:.\Generated_Source\PSoC5/CySpc.c ****             CY_NOP;
 934              		.loc 1 541 0
 935              	@ 541 ".\Generated_Source\PSoC5\CySpc.c" 1
 936 0044 00BF     		NOP
 937              	
 938              	@ 0 "" 2
 542:.\Generated_Source\PSoC5/CySpc.c ****             CY_NOP;
 939              		.loc 1 542 0
 940              	@ 542 ".\Generated_Source\PSoC5\CySpc.c" 1
 941 0046 00BF     		NOP
 942              	
 943              	@ 0 "" 2
 543:.\Generated_Source\PSoC5/CySpc.c **** 
 544:.\Generated_Source\PSoC5/CySpc.c ****             spcWaitPipeBypass = 0u;
 944              		.loc 1 544 0
 945              		.thumb
 946 0048 40F20003 		movw	r3, #:lower16:spcWaitPipeBypass
 947 004c C0F20003 		movt	r3, #:upper16:spcWaitPipeBypass
 948 0050 4FF00002 		mov	r2, #0
 949 0054 1A60     		str	r2, [r3, #0]
 950              	.L48:
 545:.\Generated_Source\PSoC5/CySpc.c ****         }
 546:.\Generated_Source\PSoC5/CySpc.c **** 
 547:.\Generated_Source\PSoC5/CySpc.c ****     #endif  /* (CY_PSOC5) */
 548:.\Generated_Source\PSoC5/CySpc.c **** 
 549:.\Generated_Source\PSoC5/CySpc.c ****     /* Exit critical section */
 550:.\Generated_Source\PSoC5/CySpc.c ****     CyExitCriticalSection(interruptState);
 951              		.loc 1 550 0
 952 0056 FB79     		ldrb	r3, [r7, #7]	@ zero_extendqisi2
 953 0058 1846     		mov	r0, r3
 954 005a FFF7FEFF 		bl	CyExitCriticalSection
 551:.\Generated_Source\PSoC5/CySpc.c **** }
 955              		.loc 1 551 0
 956 005e 07F10807 		add	r7, r7, #8
 957 0062 BD46     		mov	sp, r7
 958 0064 80BD     		pop	{r7, pc}
 959              		.cfi_endproc
 960              	.LFE9:
 961              		.size	CySpcUnlock, .-CySpcUnlock
 962 0066 00BF     		.text
 963              	.Letext0:
 964              		.file 2 ".\\Generated_Source\\PSoC5\\cytypes.h"
 965              		.section	.debug_info,"",%progbits
 966              	.Ldebug_info0:
 967 0000 D5030000 		.4byte	0x3d5
 968 0004 0200     		.2byte	0x2
 969 0006 00000000 		.4byte	.Ldebug_abbrev0
 970 000a 04       		.byte	0x4
 971 000b 01       		.uleb128 0x1
 972 000c 3C020000 		.4byte	.LASF40
 973 0010 01       		.byte	0x1
 974 0011 45000000 		.4byte	.LASF41
 975 0015 71010000 		.4byte	.LASF42
 976 0019 00000000 		.4byte	.Ldebug_ranges0+0
ARM GAS  C:\Users\Robert\AppData\Local\Temp\cc0dkL6l.s 			page 28


 977 001d 00000000 		.4byte	0
 978 0021 00000000 		.4byte	0
 979 0025 00000000 		.4byte	.Ldebug_line0
 980 0029 02       		.uleb128 0x2
 981 002a 01       		.byte	0x1
 982 002b 06       		.byte	0x6
 983 002c 30020000 		.4byte	.LASF0
 984 0030 02       		.uleb128 0x2
 985 0031 01       		.byte	0x1
 986 0032 08       		.byte	0x8
 987 0033 F0000000 		.4byte	.LASF1
 988 0037 02       		.uleb128 0x2
 989 0038 02       		.byte	0x2
 990 0039 05       		.byte	0x5
 991 003a F7010000 		.4byte	.LASF2
 992 003e 02       		.uleb128 0x2
 993 003f 02       		.byte	0x2
 994 0040 07       		.byte	0x7
 995 0041 66000000 		.4byte	.LASF3
 996 0045 02       		.uleb128 0x2
 997 0046 04       		.byte	0x4
 998 0047 05       		.byte	0x5
 999 0048 15020000 		.4byte	.LASF4
 1000 004c 02       		.uleb128 0x2
 1001 004d 04       		.byte	0x4
 1002 004e 07       		.byte	0x7
 1003 004f B8000000 		.4byte	.LASF5
 1004 0053 02       		.uleb128 0x2
 1005 0054 08       		.byte	0x8
 1006 0055 05       		.byte	0x5
 1007 0056 DB010000 		.4byte	.LASF6
 1008 005a 02       		.uleb128 0x2
 1009 005b 08       		.byte	0x8
 1010 005c 07       		.byte	0x7
 1011 005d 3F010000 		.4byte	.LASF7
 1012 0061 03       		.uleb128 0x3
 1013 0062 04       		.byte	0x4
 1014 0063 05       		.byte	0x5
 1015 0064 696E7400 		.ascii	"int\000"
 1016 0068 02       		.uleb128 0x2
 1017 0069 04       		.byte	0x4
 1018 006a 07       		.byte	0x7
 1019 006b 2A010000 		.4byte	.LASF8
 1020 006f 04       		.uleb128 0x4
 1021 0070 CA000000 		.4byte	.LASF9
 1022 0074 02       		.byte	0x2
 1023 0075 5B       		.byte	0x5b
 1024 0076 30000000 		.4byte	0x30
 1025 007a 04       		.uleb128 0x4
 1026 007b 12010000 		.4byte	.LASF10
 1027 007f 02       		.byte	0x2
 1028 0080 5C       		.byte	0x5c
 1029 0081 3E000000 		.4byte	0x3e
 1030 0085 04       		.uleb128 0x4
 1031 0086 23010000 		.4byte	.LASF11
 1032 008a 02       		.byte	0x2
 1033 008b 5D       		.byte	0x5d
ARM GAS  C:\Users\Robert\AppData\Local\Temp\cc0dkL6l.s 			page 29


 1034 008c 4C000000 		.4byte	0x4c
 1035 0090 02       		.uleb128 0x2
 1036 0091 04       		.byte	0x4
 1037 0092 04       		.byte	0x4
 1038 0093 8E000000 		.4byte	.LASF12
 1039 0097 02       		.uleb128 0x2
 1040 0098 08       		.byte	0x8
 1041 0099 04       		.byte	0x4
 1042 009a FE000000 		.4byte	.LASF13
 1043 009e 02       		.uleb128 0x2
 1044 009f 01       		.byte	0x1
 1045 00a0 08       		.byte	0x8
 1046 00a1 F2010000 		.4byte	.LASF14
 1047 00a5 04       		.uleb128 0x4
 1048 00a6 13000000 		.4byte	.LASF15
 1049 00aa 02       		.byte	0x2
 1050 00ab E8       		.byte	0xe8
 1051 00ac 4C000000 		.4byte	0x4c
 1052 00b0 04       		.uleb128 0x4
 1053 00b1 A4000000 		.4byte	.LASF16
 1054 00b5 02       		.byte	0x2
 1055 00b6 F0       		.byte	0xf0
 1056 00b7 BB000000 		.4byte	0xbb
 1057 00bb 05       		.uleb128 0x5
 1058 00bc 6F000000 		.4byte	0x6f
 1059 00c0 04       		.uleb128 0x4
 1060 00c1 1C000000 		.4byte	.LASF17
 1061 00c5 02       		.byte	0x2
 1062 00c6 F2       		.byte	0xf2
 1063 00c7 CB000000 		.4byte	0xcb
 1064 00cb 05       		.uleb128 0x5
 1065 00cc 85000000 		.4byte	0x85
 1066 00d0 02       		.uleb128 0x2
 1067 00d1 04       		.byte	0x4
 1068 00d2 07       		.byte	0x7
 1069 00d3 E9010000 		.4byte	.LASF18
 1070 00d7 06       		.uleb128 0x6
 1071 00d8 01       		.byte	0x1
 1072 00d9 22000000 		.4byte	.LASF19
 1073 00dd 01       		.byte	0x1
 1074 00de 4E       		.byte	0x4e
 1075 00df 01       		.byte	0x1
 1076 00e0 00000000 		.4byte	.LFB0
 1077 00e4 56000000 		.4byte	.LFE0
 1078 00e8 00000000 		.4byte	.LLST0
 1079 00ec 01       		.byte	0x1
 1080 00ed 00010000 		.4byte	0x100
 1081 00f1 07       		.uleb128 0x7
 1082 00f2 A9000000 		.4byte	.LASF21
 1083 00f6 01       		.byte	0x1
 1084 00f7 51       		.byte	0x51
 1085 00f8 6F000000 		.4byte	0x6f
 1086 00fc 02       		.byte	0x2
 1087 00fd 91       		.byte	0x91
 1088 00fe 77       		.sleb128 -9
 1089 00ff 00       		.byte	0
 1090 0100 06       		.uleb128 0x6
ARM GAS  C:\Users\Robert\AppData\Local\Temp\cc0dkL6l.s 			page 30


 1091 0101 01       		.byte	0x1
 1092 0102 3B000000 		.4byte	.LASF20
 1093 0106 01       		.byte	0x1
 1094 0107 68       		.byte	0x68
 1095 0108 01       		.byte	0x1
 1096 0109 00000000 		.4byte	.LFB1
 1097 010d 56000000 		.4byte	.LFE1
 1098 0111 38000000 		.4byte	.LLST1
 1099 0115 01       		.byte	0x1
 1100 0116 29010000 		.4byte	0x129
 1101 011a 07       		.uleb128 0x7
 1102 011b A9000000 		.4byte	.LASF21
 1103 011f 01       		.byte	0x1
 1104 0120 6B       		.byte	0x6b
 1105 0121 6F000000 		.4byte	0x6f
 1106 0125 02       		.byte	0x2
 1107 0126 91       		.byte	0x91
 1108 0127 77       		.sleb128 -9
 1109 0128 00       		.byte	0
 1110 0129 08       		.uleb128 0x8
 1111 012a 01       		.byte	0x1
 1112 012b 79000000 		.4byte	.LASF24
 1113 012f 01       		.byte	0x1
 1114 0130 87       		.byte	0x87
 1115 0131 01       		.byte	0x1
 1116 0132 6F000000 		.4byte	0x6f
 1117 0136 00000000 		.4byte	.LFB2
 1118 013a 64000000 		.4byte	.LFE2
 1119 013e 70000000 		.4byte	.LLST2
 1120 0142 01       		.byte	0x1
 1121 0143 70010000 		.4byte	0x170
 1122 0147 09       		.uleb128 0x9
 1123 0148 01020000 		.4byte	.LASF22
 1124 014c 01       		.byte	0x1
 1125 014d 87       		.byte	0x87
 1126 014e 70010000 		.4byte	0x170
 1127 0152 02       		.byte	0x2
 1128 0153 91       		.byte	0x91
 1129 0154 6C       		.sleb128 -20
 1130 0155 09       		.uleb128 0x9
 1131 0156 9F000000 		.4byte	.LASF23
 1132 015a 01       		.byte	0x1
 1133 015b 87       		.byte	0x87
 1134 015c 6F000000 		.4byte	0x6f
 1135 0160 02       		.byte	0x2
 1136 0161 91       		.byte	0x91
 1137 0162 6B       		.sleb128 -21
 1138 0163 0A       		.uleb128 0xa
 1139 0164 6900     		.ascii	"i\000"
 1140 0166 01       		.byte	0x1
 1141 0167 89       		.byte	0x89
 1142 0168 6F000000 		.4byte	0x6f
 1143 016c 02       		.byte	0x2
 1144 016d 91       		.byte	0x91
 1145 016e 77       		.sleb128 -9
 1146 016f 00       		.byte	0
 1147 0170 0B       		.uleb128 0xb
ARM GAS  C:\Users\Robert\AppData\Local\Temp\cc0dkL6l.s 			page 31


 1148 0171 04       		.byte	0x4
 1149 0172 6F000000 		.4byte	0x6f
 1150 0176 0C       		.uleb128 0xc
 1151 0177 01       		.byte	0x1
 1152 0178 00000000 		.4byte	.LASF25
 1153 017c 01       		.byte	0x1
 1154 017d B2       		.byte	0xb2
 1155 017e 01       		.byte	0x1
 1156 017f A5000000 		.4byte	0xa5
 1157 0183 00000000 		.4byte	.LFB3
 1158 0187 1A010000 		.4byte	.LFE3
 1159 018b A8000000 		.4byte	.LLST3
 1160 018f 01       		.byte	0x1
 1161 0190 E7010000 		.4byte	0x1e7
 1162 0194 09       		.uleb128 0x9
 1163 0195 EA000000 		.4byte	.LASF26
 1164 0199 01       		.byte	0x1
 1165 019a B2       		.byte	0xb2
 1166 019b 6F000000 		.4byte	0x6f
 1167 019f 02       		.byte	0x2
 1168 01a0 91       		.byte	0x91
 1169 01a1 6F       		.sleb128 -17
 1170 01a2 09       		.uleb128 0x9
 1171 01a3 37010000 		.4byte	.LASF27
 1172 01a7 01       		.byte	0x1
 1173 01a8 B2       		.byte	0xb2
 1174 01a9 7A000000 		.4byte	0x7a
 1175 01ad 02       		.byte	0x2
 1176 01ae 91       		.byte	0x91
 1177 01af 6C       		.sleb128 -20
 1178 01b0 09       		.uleb128 0x9
 1179 01b1 01020000 		.4byte	.LASF22
 1180 01b5 01       		.byte	0x1
 1181 01b6 B2       		.byte	0xb2
 1182 01b7 E7010000 		.4byte	0x1e7
 1183 01bb 02       		.byte	0x2
 1184 01bc 91       		.byte	0x91
 1185 01bd 68       		.sleb128 -24
 1186 01be 09       		.uleb128 0x9
 1187 01bf 9F000000 		.4byte	.LASF23
 1188 01c3 01       		.byte	0x1
 1189 01c4 B2       		.byte	0xb2
 1190 01c5 6F000000 		.4byte	0x6f
 1191 01c9 02       		.byte	0x2
 1192 01ca 91       		.byte	0x91
 1193 01cb 6E       		.sleb128 -18
 1194 01cc 07       		.uleb128 0x7
 1195 01cd 87000000 		.4byte	.LASF28
 1196 01d1 01       		.byte	0x1
 1197 01d2 B5       		.byte	0xb5
 1198 01d3 A5000000 		.4byte	0xa5
 1199 01d7 02       		.byte	0x2
 1200 01d8 91       		.byte	0x91
 1201 01d9 74       		.sleb128 -12
 1202 01da 0A       		.uleb128 0xa
 1203 01db 6900     		.ascii	"i\000"
 1204 01dd 01       		.byte	0x1
ARM GAS  C:\Users\Robert\AppData\Local\Temp\cc0dkL6l.s 			page 32


 1205 01de B6       		.byte	0xb6
 1206 01df 6F000000 		.4byte	0x6f
 1207 01e3 02       		.byte	0x2
 1208 01e4 91       		.byte	0x91
 1209 01e5 73       		.sleb128 -13
 1210 01e6 00       		.byte	0
 1211 01e7 0B       		.uleb128 0xb
 1212 01e8 04       		.byte	0x4
 1213 01e9 ED010000 		.4byte	0x1ed
 1214 01ed 0D       		.uleb128 0xd
 1215 01ee 6F000000 		.4byte	0x6f
 1216 01f2 0C       		.uleb128 0xc
 1217 01f3 01       		.byte	0x1
 1218 01f4 64010000 		.4byte	.LASF29
 1219 01f8 01       		.byte	0x1
 1220 01f9 FD       		.byte	0xfd
 1221 01fa 01       		.byte	0x1
 1222 01fb A5000000 		.4byte	0xa5
 1223 01ff 00000000 		.4byte	.LFB4
 1224 0203 BC000000 		.4byte	.LFE4
 1225 0207 E0000000 		.4byte	.LLST4
 1226 020b 01       		.byte	0x1
 1227 020c 56020000 		.4byte	0x256
 1228 0210 09       		.uleb128 0x9
 1229 0211 EA000000 		.4byte	.LASF26
 1230 0215 01       		.byte	0x1
 1231 0216 FD       		.byte	0xfd
 1232 0217 6F000000 		.4byte	0x6f
 1233 021b 02       		.byte	0x2
 1234 021c 91       		.byte	0x91
 1235 021d 6F       		.sleb128 -17
 1236 021e 09       		.uleb128 0x9
 1237 021f 01020000 		.4byte	.LASF22
 1238 0223 01       		.byte	0x1
 1239 0224 FD       		.byte	0xfd
 1240 0225 E7010000 		.4byte	0x1e7
 1241 0229 02       		.byte	0x2
 1242 022a 91       		.byte	0x91
 1243 022b 68       		.sleb128 -24
 1244 022c 09       		.uleb128 0x9
 1245 022d 9F000000 		.4byte	.LASF23
 1246 0231 01       		.byte	0x1
 1247 0232 FD       		.byte	0xfd
 1248 0233 7A000000 		.4byte	0x7a
 1249 0237 02       		.byte	0x2
 1250 0238 91       		.byte	0x91
 1251 0239 6C       		.sleb128 -20
 1252 023a 07       		.uleb128 0x7
 1253 023b 87000000 		.4byte	.LASF28
 1254 023f 01       		.byte	0x1
 1255 0240 FF       		.byte	0xff
 1256 0241 A5000000 		.4byte	0xa5
 1257 0245 02       		.byte	0x2
 1258 0246 91       		.byte	0x91
 1259 0247 74       		.sleb128 -12
 1260 0248 0E       		.uleb128 0xe
 1261 0249 6900     		.ascii	"i\000"
ARM GAS  C:\Users\Robert\AppData\Local\Temp\cc0dkL6l.s 			page 33


 1262 024b 01       		.byte	0x1
 1263 024c 0001     		.2byte	0x100
 1264 024e 7A000000 		.4byte	0x7a
 1265 0252 02       		.byte	0x2
 1266 0253 91       		.byte	0x91
 1267 0254 72       		.sleb128 -14
 1268 0255 00       		.byte	0
 1269 0256 0F       		.uleb128 0xf
 1270 0257 01       		.byte	0x1
 1271 0258 2D000000 		.4byte	.LASF30
 1272 025c 01       		.byte	0x1
 1273 025d 3C01     		.2byte	0x13c
 1274 025f 01       		.byte	0x1
 1275 0260 A5000000 		.4byte	0xa5
 1276 0264 00000000 		.4byte	.LFB5
 1277 0268 CA000000 		.4byte	.LFE5
 1278 026c 18010000 		.4byte	.LLST5
 1279 0270 01       		.byte	0x1
 1280 0271 C1020000 		.4byte	0x2c1
 1281 0275 10       		.uleb128 0x10
 1282 0276 EA000000 		.4byte	.LASF26
 1283 027a 01       		.byte	0x1
 1284 027b 3C01     		.2byte	0x13c
 1285 027d 6F000000 		.4byte	0x6f
 1286 0281 02       		.byte	0x2
 1287 0282 91       		.byte	0x91
 1288 0283 6F       		.sleb128 -17
 1289 0284 10       		.uleb128 0x10
 1290 0285 37010000 		.4byte	.LASF27
 1291 0289 01       		.byte	0x1
 1292 028a 3C01     		.2byte	0x13c
 1293 028c 7A000000 		.4byte	0x7a
 1294 0290 02       		.byte	0x2
 1295 0291 91       		.byte	0x91
 1296 0292 6C       		.sleb128 -20
 1297 0293 10       		.uleb128 0x10
 1298 0294 DD000000 		.4byte	.LASF31
 1299 0298 01       		.byte	0x1
 1300 0299 3C01     		.2byte	0x13c
 1301 029b 6F000000 		.4byte	0x6f
 1302 029f 02       		.byte	0x2
 1303 02a0 91       		.byte	0x91
 1304 02a1 6E       		.sleb128 -18
 1305 02a2 10       		.uleb128 0x10
 1306 02a3 56010000 		.4byte	.LASF32
 1307 02a7 01       		.byte	0x1
 1308 02a8 3C01     		.2byte	0x13c
 1309 02aa 6F000000 		.4byte	0x6f
 1310 02ae 02       		.byte	0x2
 1311 02af 91       		.byte	0x91
 1312 02b0 6B       		.sleb128 -21
 1313 02b1 11       		.uleb128 0x11
 1314 02b2 87000000 		.4byte	.LASF28
 1315 02b6 01       		.byte	0x1
 1316 02b7 3F01     		.2byte	0x13f
 1317 02b9 A5000000 		.4byte	0xa5
 1318 02bd 02       		.byte	0x2
ARM GAS  C:\Users\Robert\AppData\Local\Temp\cc0dkL6l.s 			page 34


 1319 02be 91       		.byte	0x91
 1320 02bf 74       		.sleb128 -12
 1321 02c0 00       		.byte	0
 1322 02c1 0F       		.uleb128 0xf
 1323 02c2 01       		.byte	0x1
 1324 02c3 CA010000 		.4byte	.LASF33
 1325 02c7 01       		.byte	0x1
 1326 02c8 7201     		.2byte	0x172
 1327 02ca 01       		.byte	0x1
 1328 02cb A5000000 		.4byte	0xa5
 1329 02cf 00000000 		.4byte	.LFB6
 1330 02d3 9C000000 		.4byte	.LFE6
 1331 02d7 50010000 		.4byte	.LLST6
 1332 02db 01       		.byte	0x1
 1333 02dc 0E030000 		.4byte	0x30e
 1334 02e0 10       		.uleb128 0x10
 1335 02e1 EA000000 		.4byte	.LASF26
 1336 02e5 01       		.byte	0x1
 1337 02e6 7201     		.2byte	0x172
 1338 02e8 6F000000 		.4byte	0x6f
 1339 02ec 02       		.byte	0x2
 1340 02ed 91       		.byte	0x91
 1341 02ee 6F       		.sleb128 -17
 1342 02ef 10       		.uleb128 0x10
 1343 02f0 08020000 		.4byte	.LASF34
 1344 02f4 01       		.byte	0x1
 1345 02f5 7201     		.2byte	0x172
 1346 02f7 6F000000 		.4byte	0x6f
 1347 02fb 02       		.byte	0x2
 1348 02fc 91       		.byte	0x91
 1349 02fd 6E       		.sleb128 -18
 1350 02fe 11       		.uleb128 0x11
 1351 02ff 87000000 		.4byte	.LASF28
 1352 0303 01       		.byte	0x1
 1353 0304 7401     		.2byte	0x174
 1354 0306 A5000000 		.4byte	0xa5
 1355 030a 02       		.byte	0x2
 1356 030b 91       		.byte	0x91
 1357 030c 74       		.sleb128 -12
 1358 030d 00       		.byte	0
 1359 030e 0F       		.uleb128 0xf
 1360 030f 01       		.byte	0x1
 1361 0310 05010000 		.4byte	.LASF35
 1362 0314 01       		.byte	0x1
 1363 0315 A901     		.2byte	0x1a9
 1364 0317 01       		.byte	0x1
 1365 0318 A5000000 		.4byte	0xa5
 1366 031c 00000000 		.4byte	.LFB7
 1367 0320 8C000000 		.4byte	.LFE7
 1368 0324 88010000 		.4byte	.LLST7
 1369 0328 01       		.byte	0x1
 1370 0329 4C030000 		.4byte	0x34c
 1371 032d 10       		.uleb128 0x10
 1372 032e 94000000 		.4byte	.LASF36
 1373 0332 01       		.byte	0x1
 1374 0333 A901     		.2byte	0x1a9
 1375 0335 6F000000 		.4byte	0x6f
ARM GAS  C:\Users\Robert\AppData\Local\Temp\cc0dkL6l.s 			page 35


 1376 0339 02       		.byte	0x2
 1377 033a 91       		.byte	0x91
 1378 033b 6F       		.sleb128 -17
 1379 033c 11       		.uleb128 0x11
 1380 033d 87000000 		.4byte	.LASF28
 1381 0341 01       		.byte	0x1
 1382 0342 AB01     		.2byte	0x1ab
 1383 0344 A5000000 		.4byte	0xa5
 1384 0348 02       		.byte	0x2
 1385 0349 91       		.byte	0x91
 1386 034a 74       		.sleb128 -12
 1387 034b 00       		.byte	0
 1388 034c 12       		.uleb128 0x12
 1389 034d 01       		.byte	0x1
 1390 034e 19010000 		.4byte	.LASF37
 1391 0352 01       		.byte	0x1
 1392 0353 D601     		.2byte	0x1d6
 1393 0355 01       		.byte	0x1
 1394 0356 A5000000 		.4byte	0xa5
 1395 035a 00000000 		.4byte	.LFB8
 1396 035e 88000000 		.4byte	.LFE8
 1397 0362 C0010000 		.4byte	.LLST8
 1398 0366 01       		.byte	0x1
 1399 0367 8A030000 		.4byte	0x38a
 1400 036b 11       		.uleb128 0x11
 1401 036c 87000000 		.4byte	.LASF28
 1402 0370 01       		.byte	0x1
 1403 0371 D801     		.2byte	0x1d8
 1404 0373 A5000000 		.4byte	0xa5
 1405 0377 02       		.byte	0x2
 1406 0378 91       		.byte	0x91
 1407 0379 74       		.sleb128 -12
 1408 037a 11       		.uleb128 0x11
 1409 037b A9000000 		.4byte	.LASF21
 1410 037f 01       		.byte	0x1
 1411 0380 D901     		.2byte	0x1d9
 1412 0382 6F000000 		.4byte	0x6f
 1413 0386 02       		.byte	0x2
 1414 0387 91       		.byte	0x91
 1415 0388 73       		.sleb128 -13
 1416 0389 00       		.byte	0
 1417 038a 13       		.uleb128 0x13
 1418 038b 01       		.byte	0x1
 1419 038c BE010000 		.4byte	.LASF38
 1420 0390 01       		.byte	0x1
 1421 0391 0A02     		.2byte	0x20a
 1422 0393 01       		.byte	0x1
 1423 0394 00000000 		.4byte	.LFB9
 1424 0398 66000000 		.4byte	.LFE9
 1425 039c F8010000 		.4byte	.LLST9
 1426 03a0 01       		.byte	0x1
 1427 03a1 B5030000 		.4byte	0x3b5
 1428 03a5 11       		.uleb128 0x11
 1429 03a6 A9000000 		.4byte	.LASF21
 1430 03aa 01       		.byte	0x1
 1431 03ab 0C02     		.2byte	0x20c
 1432 03ad 6F000000 		.4byte	0x6f
ARM GAS  C:\Users\Robert\AppData\Local\Temp\cc0dkL6l.s 			page 36


 1433 03b1 02       		.byte	0x2
 1434 03b2 91       		.byte	0x91
 1435 03b3 77       		.sleb128 -9
 1436 03b4 00       		.byte	0
 1437 03b5 07       		.uleb128 0x7
 1438 03b6 1E020000 		.4byte	.LASF39
 1439 03ba 01       		.byte	0x1
 1440 03bb 3C       		.byte	0x3c
 1441 03bc 85000000 		.4byte	0x85
 1442 03c0 05       		.byte	0x5
 1443 03c1 03       		.byte	0x3
 1444 03c2 04000000 		.4byte	spcWaitPipeBypass
 1445 03c6 14       		.uleb128 0x14
 1446 03c7 D0000000 		.4byte	.LASF43
 1447 03cb 01       		.byte	0x1
 1448 03cc 30       		.byte	0x30
 1449 03cd 6F000000 		.4byte	0x6f
 1450 03d1 01       		.byte	0x1
 1451 03d2 05       		.byte	0x5
 1452 03d3 03       		.byte	0x3
 1453 03d4 00000000 		.4byte	SpcLockState
 1454 03d8 00       		.byte	0
 1455              		.section	.debug_abbrev,"",%progbits
 1456              	.Ldebug_abbrev0:
 1457 0000 01       		.uleb128 0x1
 1458 0001 11       		.uleb128 0x11
 1459 0002 01       		.byte	0x1
 1460 0003 25       		.uleb128 0x25
 1461 0004 0E       		.uleb128 0xe
 1462 0005 13       		.uleb128 0x13
 1463 0006 0B       		.uleb128 0xb
 1464 0007 03       		.uleb128 0x3
 1465 0008 0E       		.uleb128 0xe
 1466 0009 1B       		.uleb128 0x1b
 1467 000a 0E       		.uleb128 0xe
 1468 000b 55       		.uleb128 0x55
 1469 000c 06       		.uleb128 0x6
 1470 000d 11       		.uleb128 0x11
 1471 000e 01       		.uleb128 0x1
 1472 000f 52       		.uleb128 0x52
 1473 0010 01       		.uleb128 0x1
 1474 0011 10       		.uleb128 0x10
 1475 0012 06       		.uleb128 0x6
 1476 0013 00       		.byte	0
 1477 0014 00       		.byte	0
 1478 0015 02       		.uleb128 0x2
 1479 0016 24       		.uleb128 0x24
 1480 0017 00       		.byte	0
 1481 0018 0B       		.uleb128 0xb
 1482 0019 0B       		.uleb128 0xb
 1483 001a 3E       		.uleb128 0x3e
 1484 001b 0B       		.uleb128 0xb
 1485 001c 03       		.uleb128 0x3
 1486 001d 0E       		.uleb128 0xe
 1487 001e 00       		.byte	0
 1488 001f 00       		.byte	0
 1489 0020 03       		.uleb128 0x3
ARM GAS  C:\Users\Robert\AppData\Local\Temp\cc0dkL6l.s 			page 37


 1490 0021 24       		.uleb128 0x24
 1491 0022 00       		.byte	0
 1492 0023 0B       		.uleb128 0xb
 1493 0024 0B       		.uleb128 0xb
 1494 0025 3E       		.uleb128 0x3e
 1495 0026 0B       		.uleb128 0xb
 1496 0027 03       		.uleb128 0x3
 1497 0028 08       		.uleb128 0x8
 1498 0029 00       		.byte	0
 1499 002a 00       		.byte	0
 1500 002b 04       		.uleb128 0x4
 1501 002c 16       		.uleb128 0x16
 1502 002d 00       		.byte	0
 1503 002e 03       		.uleb128 0x3
 1504 002f 0E       		.uleb128 0xe
 1505 0030 3A       		.uleb128 0x3a
 1506 0031 0B       		.uleb128 0xb
 1507 0032 3B       		.uleb128 0x3b
 1508 0033 0B       		.uleb128 0xb
 1509 0034 49       		.uleb128 0x49
 1510 0035 13       		.uleb128 0x13
 1511 0036 00       		.byte	0
 1512 0037 00       		.byte	0
 1513 0038 05       		.uleb128 0x5
 1514 0039 35       		.uleb128 0x35
 1515 003a 00       		.byte	0
 1516 003b 49       		.uleb128 0x49
 1517 003c 13       		.uleb128 0x13
 1518 003d 00       		.byte	0
 1519 003e 00       		.byte	0
 1520 003f 06       		.uleb128 0x6
 1521 0040 2E       		.uleb128 0x2e
 1522 0041 01       		.byte	0x1
 1523 0042 3F       		.uleb128 0x3f
 1524 0043 0C       		.uleb128 0xc
 1525 0044 03       		.uleb128 0x3
 1526 0045 0E       		.uleb128 0xe
 1527 0046 3A       		.uleb128 0x3a
 1528 0047 0B       		.uleb128 0xb
 1529 0048 3B       		.uleb128 0x3b
 1530 0049 0B       		.uleb128 0xb
 1531 004a 27       		.uleb128 0x27
 1532 004b 0C       		.uleb128 0xc
 1533 004c 11       		.uleb128 0x11
 1534 004d 01       		.uleb128 0x1
 1535 004e 12       		.uleb128 0x12
 1536 004f 01       		.uleb128 0x1
 1537 0050 40       		.uleb128 0x40
 1538 0051 06       		.uleb128 0x6
 1539 0052 9642     		.uleb128 0x2116
 1540 0054 0C       		.uleb128 0xc
 1541 0055 01       		.uleb128 0x1
 1542 0056 13       		.uleb128 0x13
 1543 0057 00       		.byte	0
 1544 0058 00       		.byte	0
 1545 0059 07       		.uleb128 0x7
 1546 005a 34       		.uleb128 0x34
ARM GAS  C:\Users\Robert\AppData\Local\Temp\cc0dkL6l.s 			page 38


 1547 005b 00       		.byte	0
 1548 005c 03       		.uleb128 0x3
 1549 005d 0E       		.uleb128 0xe
 1550 005e 3A       		.uleb128 0x3a
 1551 005f 0B       		.uleb128 0xb
 1552 0060 3B       		.uleb128 0x3b
 1553 0061 0B       		.uleb128 0xb
 1554 0062 49       		.uleb128 0x49
 1555 0063 13       		.uleb128 0x13
 1556 0064 02       		.uleb128 0x2
 1557 0065 0A       		.uleb128 0xa
 1558 0066 00       		.byte	0
 1559 0067 00       		.byte	0
 1560 0068 08       		.uleb128 0x8
 1561 0069 2E       		.uleb128 0x2e
 1562 006a 01       		.byte	0x1
 1563 006b 3F       		.uleb128 0x3f
 1564 006c 0C       		.uleb128 0xc
 1565 006d 03       		.uleb128 0x3
 1566 006e 0E       		.uleb128 0xe
 1567 006f 3A       		.uleb128 0x3a
 1568 0070 0B       		.uleb128 0xb
 1569 0071 3B       		.uleb128 0x3b
 1570 0072 0B       		.uleb128 0xb
 1571 0073 27       		.uleb128 0x27
 1572 0074 0C       		.uleb128 0xc
 1573 0075 49       		.uleb128 0x49
 1574 0076 13       		.uleb128 0x13
 1575 0077 11       		.uleb128 0x11
 1576 0078 01       		.uleb128 0x1
 1577 0079 12       		.uleb128 0x12
 1578 007a 01       		.uleb128 0x1
 1579 007b 40       		.uleb128 0x40
 1580 007c 06       		.uleb128 0x6
 1581 007d 9642     		.uleb128 0x2116
 1582 007f 0C       		.uleb128 0xc
 1583 0080 01       		.uleb128 0x1
 1584 0081 13       		.uleb128 0x13
 1585 0082 00       		.byte	0
 1586 0083 00       		.byte	0
 1587 0084 09       		.uleb128 0x9
 1588 0085 05       		.uleb128 0x5
 1589 0086 00       		.byte	0
 1590 0087 03       		.uleb128 0x3
 1591 0088 0E       		.uleb128 0xe
 1592 0089 3A       		.uleb128 0x3a
 1593 008a 0B       		.uleb128 0xb
 1594 008b 3B       		.uleb128 0x3b
 1595 008c 0B       		.uleb128 0xb
 1596 008d 49       		.uleb128 0x49
 1597 008e 13       		.uleb128 0x13
 1598 008f 02       		.uleb128 0x2
 1599 0090 0A       		.uleb128 0xa
 1600 0091 00       		.byte	0
 1601 0092 00       		.byte	0
 1602 0093 0A       		.uleb128 0xa
 1603 0094 34       		.uleb128 0x34
ARM GAS  C:\Users\Robert\AppData\Local\Temp\cc0dkL6l.s 			page 39


 1604 0095 00       		.byte	0
 1605 0096 03       		.uleb128 0x3
 1606 0097 08       		.uleb128 0x8
 1607 0098 3A       		.uleb128 0x3a
 1608 0099 0B       		.uleb128 0xb
 1609 009a 3B       		.uleb128 0x3b
 1610 009b 0B       		.uleb128 0xb
 1611 009c 49       		.uleb128 0x49
 1612 009d 13       		.uleb128 0x13
 1613 009e 02       		.uleb128 0x2
 1614 009f 0A       		.uleb128 0xa
 1615 00a0 00       		.byte	0
 1616 00a1 00       		.byte	0
 1617 00a2 0B       		.uleb128 0xb
 1618 00a3 0F       		.uleb128 0xf
 1619 00a4 00       		.byte	0
 1620 00a5 0B       		.uleb128 0xb
 1621 00a6 0B       		.uleb128 0xb
 1622 00a7 49       		.uleb128 0x49
 1623 00a8 13       		.uleb128 0x13
 1624 00a9 00       		.byte	0
 1625 00aa 00       		.byte	0
 1626 00ab 0C       		.uleb128 0xc
 1627 00ac 2E       		.uleb128 0x2e
 1628 00ad 01       		.byte	0x1
 1629 00ae 3F       		.uleb128 0x3f
 1630 00af 0C       		.uleb128 0xc
 1631 00b0 03       		.uleb128 0x3
 1632 00b1 0E       		.uleb128 0xe
 1633 00b2 3A       		.uleb128 0x3a
 1634 00b3 0B       		.uleb128 0xb
 1635 00b4 3B       		.uleb128 0x3b
 1636 00b5 0B       		.uleb128 0xb
 1637 00b6 27       		.uleb128 0x27
 1638 00b7 0C       		.uleb128 0xc
 1639 00b8 49       		.uleb128 0x49
 1640 00b9 13       		.uleb128 0x13
 1641 00ba 11       		.uleb128 0x11
 1642 00bb 01       		.uleb128 0x1
 1643 00bc 12       		.uleb128 0x12
 1644 00bd 01       		.uleb128 0x1
 1645 00be 40       		.uleb128 0x40
 1646 00bf 06       		.uleb128 0x6
 1647 00c0 9742     		.uleb128 0x2117
 1648 00c2 0C       		.uleb128 0xc
 1649 00c3 01       		.uleb128 0x1
 1650 00c4 13       		.uleb128 0x13
 1651 00c5 00       		.byte	0
 1652 00c6 00       		.byte	0
 1653 00c7 0D       		.uleb128 0xd
 1654 00c8 26       		.uleb128 0x26
 1655 00c9 00       		.byte	0
 1656 00ca 49       		.uleb128 0x49
 1657 00cb 13       		.uleb128 0x13
 1658 00cc 00       		.byte	0
 1659 00cd 00       		.byte	0
 1660 00ce 0E       		.uleb128 0xe
ARM GAS  C:\Users\Robert\AppData\Local\Temp\cc0dkL6l.s 			page 40


 1661 00cf 34       		.uleb128 0x34
 1662 00d0 00       		.byte	0
 1663 00d1 03       		.uleb128 0x3
 1664 00d2 08       		.uleb128 0x8
 1665 00d3 3A       		.uleb128 0x3a
 1666 00d4 0B       		.uleb128 0xb
 1667 00d5 3B       		.uleb128 0x3b
 1668 00d6 05       		.uleb128 0x5
 1669 00d7 49       		.uleb128 0x49
 1670 00d8 13       		.uleb128 0x13
 1671 00d9 02       		.uleb128 0x2
 1672 00da 0A       		.uleb128 0xa
 1673 00db 00       		.byte	0
 1674 00dc 00       		.byte	0
 1675 00dd 0F       		.uleb128 0xf
 1676 00de 2E       		.uleb128 0x2e
 1677 00df 01       		.byte	0x1
 1678 00e0 3F       		.uleb128 0x3f
 1679 00e1 0C       		.uleb128 0xc
 1680 00e2 03       		.uleb128 0x3
 1681 00e3 0E       		.uleb128 0xe
 1682 00e4 3A       		.uleb128 0x3a
 1683 00e5 0B       		.uleb128 0xb
 1684 00e6 3B       		.uleb128 0x3b
 1685 00e7 05       		.uleb128 0x5
 1686 00e8 27       		.uleb128 0x27
 1687 00e9 0C       		.uleb128 0xc
 1688 00ea 49       		.uleb128 0x49
 1689 00eb 13       		.uleb128 0x13
 1690 00ec 11       		.uleb128 0x11
 1691 00ed 01       		.uleb128 0x1
 1692 00ee 12       		.uleb128 0x12
 1693 00ef 01       		.uleb128 0x1
 1694 00f0 40       		.uleb128 0x40
 1695 00f1 06       		.uleb128 0x6
 1696 00f2 9742     		.uleb128 0x2117
 1697 00f4 0C       		.uleb128 0xc
 1698 00f5 01       		.uleb128 0x1
 1699 00f6 13       		.uleb128 0x13
 1700 00f7 00       		.byte	0
 1701 00f8 00       		.byte	0
 1702 00f9 10       		.uleb128 0x10
 1703 00fa 05       		.uleb128 0x5
 1704 00fb 00       		.byte	0
 1705 00fc 03       		.uleb128 0x3
 1706 00fd 0E       		.uleb128 0xe
 1707 00fe 3A       		.uleb128 0x3a
 1708 00ff 0B       		.uleb128 0xb
 1709 0100 3B       		.uleb128 0x3b
 1710 0101 05       		.uleb128 0x5
 1711 0102 49       		.uleb128 0x49
 1712 0103 13       		.uleb128 0x13
 1713 0104 02       		.uleb128 0x2
 1714 0105 0A       		.uleb128 0xa
 1715 0106 00       		.byte	0
 1716 0107 00       		.byte	0
 1717 0108 11       		.uleb128 0x11
ARM GAS  C:\Users\Robert\AppData\Local\Temp\cc0dkL6l.s 			page 41


 1718 0109 34       		.uleb128 0x34
 1719 010a 00       		.byte	0
 1720 010b 03       		.uleb128 0x3
 1721 010c 0E       		.uleb128 0xe
 1722 010d 3A       		.uleb128 0x3a
 1723 010e 0B       		.uleb128 0xb
 1724 010f 3B       		.uleb128 0x3b
 1725 0110 05       		.uleb128 0x5
 1726 0111 49       		.uleb128 0x49
 1727 0112 13       		.uleb128 0x13
 1728 0113 02       		.uleb128 0x2
 1729 0114 0A       		.uleb128 0xa
 1730 0115 00       		.byte	0
 1731 0116 00       		.byte	0
 1732 0117 12       		.uleb128 0x12
 1733 0118 2E       		.uleb128 0x2e
 1734 0119 01       		.byte	0x1
 1735 011a 3F       		.uleb128 0x3f
 1736 011b 0C       		.uleb128 0xc
 1737 011c 03       		.uleb128 0x3
 1738 011d 0E       		.uleb128 0xe
 1739 011e 3A       		.uleb128 0x3a
 1740 011f 0B       		.uleb128 0xb
 1741 0120 3B       		.uleb128 0x3b
 1742 0121 05       		.uleb128 0x5
 1743 0122 27       		.uleb128 0x27
 1744 0123 0C       		.uleb128 0xc
 1745 0124 49       		.uleb128 0x49
 1746 0125 13       		.uleb128 0x13
 1747 0126 11       		.uleb128 0x11
 1748 0127 01       		.uleb128 0x1
 1749 0128 12       		.uleb128 0x12
 1750 0129 01       		.uleb128 0x1
 1751 012a 40       		.uleb128 0x40
 1752 012b 06       		.uleb128 0x6
 1753 012c 9642     		.uleb128 0x2116
 1754 012e 0C       		.uleb128 0xc
 1755 012f 01       		.uleb128 0x1
 1756 0130 13       		.uleb128 0x13
 1757 0131 00       		.byte	0
 1758 0132 00       		.byte	0
 1759 0133 13       		.uleb128 0x13
 1760 0134 2E       		.uleb128 0x2e
 1761 0135 01       		.byte	0x1
 1762 0136 3F       		.uleb128 0x3f
 1763 0137 0C       		.uleb128 0xc
 1764 0138 03       		.uleb128 0x3
 1765 0139 0E       		.uleb128 0xe
 1766 013a 3A       		.uleb128 0x3a
 1767 013b 0B       		.uleb128 0xb
 1768 013c 3B       		.uleb128 0x3b
 1769 013d 05       		.uleb128 0x5
 1770 013e 27       		.uleb128 0x27
 1771 013f 0C       		.uleb128 0xc
 1772 0140 11       		.uleb128 0x11
 1773 0141 01       		.uleb128 0x1
 1774 0142 12       		.uleb128 0x12
ARM GAS  C:\Users\Robert\AppData\Local\Temp\cc0dkL6l.s 			page 42


 1775 0143 01       		.uleb128 0x1
 1776 0144 40       		.uleb128 0x40
 1777 0145 06       		.uleb128 0x6
 1778 0146 9642     		.uleb128 0x2116
 1779 0148 0C       		.uleb128 0xc
 1780 0149 01       		.uleb128 0x1
 1781 014a 13       		.uleb128 0x13
 1782 014b 00       		.byte	0
 1783 014c 00       		.byte	0
 1784 014d 14       		.uleb128 0x14
 1785 014e 34       		.uleb128 0x34
 1786 014f 00       		.byte	0
 1787 0150 03       		.uleb128 0x3
 1788 0151 0E       		.uleb128 0xe
 1789 0152 3A       		.uleb128 0x3a
 1790 0153 0B       		.uleb128 0xb
 1791 0154 3B       		.uleb128 0x3b
 1792 0155 0B       		.uleb128 0xb
 1793 0156 49       		.uleb128 0x49
 1794 0157 13       		.uleb128 0x13
 1795 0158 3F       		.uleb128 0x3f
 1796 0159 0C       		.uleb128 0xc
 1797 015a 02       		.uleb128 0x2
 1798 015b 0A       		.uleb128 0xa
 1799 015c 00       		.byte	0
 1800 015d 00       		.byte	0
 1801 015e 00       		.byte	0
 1802              		.section	.debug_loc,"",%progbits
 1803              	.Ldebug_loc0:
 1804              	.LLST0:
 1805 0000 00000000 		.4byte	.LFB0
 1806 0004 02000000 		.4byte	.LCFI0
 1807 0008 0200     		.2byte	0x2
 1808 000a 7D       		.byte	0x7d
 1809 000b 00       		.sleb128 0
 1810 000c 02000000 		.4byte	.LCFI0
 1811 0010 04000000 		.4byte	.LCFI1
 1812 0014 0200     		.2byte	0x2
 1813 0016 7D       		.byte	0x7d
 1814 0017 08       		.sleb128 8
 1815 0018 04000000 		.4byte	.LCFI1
 1816 001c 06000000 		.4byte	.LCFI2
 1817 0020 0200     		.2byte	0x2
 1818 0022 7D       		.byte	0x7d
 1819 0023 10       		.sleb128 16
 1820 0024 06000000 		.4byte	.LCFI2
 1821 0028 56000000 		.4byte	.LFE0
 1822 002c 0200     		.2byte	0x2
 1823 002e 77       		.byte	0x77
 1824 002f 10       		.sleb128 16
 1825 0030 00000000 		.4byte	0
 1826 0034 00000000 		.4byte	0
 1827              	.LLST1:
 1828 0038 00000000 		.4byte	.LFB1
 1829 003c 02000000 		.4byte	.LCFI3
 1830 0040 0200     		.2byte	0x2
 1831 0042 7D       		.byte	0x7d
ARM GAS  C:\Users\Robert\AppData\Local\Temp\cc0dkL6l.s 			page 43


 1832 0043 00       		.sleb128 0
 1833 0044 02000000 		.4byte	.LCFI3
 1834 0048 04000000 		.4byte	.LCFI4
 1835 004c 0200     		.2byte	0x2
 1836 004e 7D       		.byte	0x7d
 1837 004f 08       		.sleb128 8
 1838 0050 04000000 		.4byte	.LCFI4
 1839 0054 06000000 		.4byte	.LCFI5
 1840 0058 0200     		.2byte	0x2
 1841 005a 7D       		.byte	0x7d
 1842 005b 10       		.sleb128 16
 1843 005c 06000000 		.4byte	.LCFI5
 1844 0060 56000000 		.4byte	.LFE1
 1845 0064 0200     		.2byte	0x2
 1846 0066 77       		.byte	0x77
 1847 0067 10       		.sleb128 16
 1848 0068 00000000 		.4byte	0
 1849 006c 00000000 		.4byte	0
 1850              	.LLST2:
 1851 0070 00000000 		.4byte	.LFB2
 1852 0074 02000000 		.4byte	.LCFI6
 1853 0078 0200     		.2byte	0x2
 1854 007a 7D       		.byte	0x7d
 1855 007b 00       		.sleb128 0
 1856 007c 02000000 		.4byte	.LCFI6
 1857 0080 04000000 		.4byte	.LCFI7
 1858 0084 0200     		.2byte	0x2
 1859 0086 7D       		.byte	0x7d
 1860 0087 08       		.sleb128 8
 1861 0088 04000000 		.4byte	.LCFI7
 1862 008c 06000000 		.4byte	.LCFI8
 1863 0090 0200     		.2byte	0x2
 1864 0092 7D       		.byte	0x7d
 1865 0093 18       		.sleb128 24
 1866 0094 06000000 		.4byte	.LCFI8
 1867 0098 64000000 		.4byte	.LFE2
 1868 009c 0200     		.2byte	0x2
 1869 009e 77       		.byte	0x77
 1870 009f 18       		.sleb128 24
 1871 00a0 00000000 		.4byte	0
 1872 00a4 00000000 		.4byte	0
 1873              	.LLST3:
 1874 00a8 00000000 		.4byte	.LFB3
 1875 00ac 02000000 		.4byte	.LCFI9
 1876 00b0 0200     		.2byte	0x2
 1877 00b2 7D       		.byte	0x7d
 1878 00b3 00       		.sleb128 0
 1879 00b4 02000000 		.4byte	.LCFI9
 1880 00b8 04000000 		.4byte	.LCFI10
 1881 00bc 0200     		.2byte	0x2
 1882 00be 7D       		.byte	0x7d
 1883 00bf 04       		.sleb128 4
 1884 00c0 04000000 		.4byte	.LCFI10
 1885 00c4 06000000 		.4byte	.LCFI11
 1886 00c8 0200     		.2byte	0x2
 1887 00ca 7D       		.byte	0x7d
 1888 00cb 18       		.sleb128 24
ARM GAS  C:\Users\Robert\AppData\Local\Temp\cc0dkL6l.s 			page 44


 1889 00cc 06000000 		.4byte	.LCFI11
 1890 00d0 1A010000 		.4byte	.LFE3
 1891 00d4 0200     		.2byte	0x2
 1892 00d6 77       		.byte	0x77
 1893 00d7 18       		.sleb128 24
 1894 00d8 00000000 		.4byte	0
 1895 00dc 00000000 		.4byte	0
 1896              	.LLST4:
 1897 00e0 00000000 		.4byte	.LFB4
 1898 00e4 02000000 		.4byte	.LCFI12
 1899 00e8 0200     		.2byte	0x2
 1900 00ea 7D       		.byte	0x7d
 1901 00eb 00       		.sleb128 0
 1902 00ec 02000000 		.4byte	.LCFI12
 1903 00f0 04000000 		.4byte	.LCFI13
 1904 00f4 0200     		.2byte	0x2
 1905 00f6 7D       		.byte	0x7d
 1906 00f7 04       		.sleb128 4
 1907 00f8 04000000 		.4byte	.LCFI13
 1908 00fc 06000000 		.4byte	.LCFI14
 1909 0100 0200     		.2byte	0x2
 1910 0102 7D       		.byte	0x7d
 1911 0103 18       		.sleb128 24
 1912 0104 06000000 		.4byte	.LCFI14
 1913 0108 BC000000 		.4byte	.LFE4
 1914 010c 0200     		.2byte	0x2
 1915 010e 77       		.byte	0x77
 1916 010f 18       		.sleb128 24
 1917 0110 00000000 		.4byte	0
 1918 0114 00000000 		.4byte	0
 1919              	.LLST5:
 1920 0118 00000000 		.4byte	.LFB5
 1921 011c 02000000 		.4byte	.LCFI15
 1922 0120 0200     		.2byte	0x2
 1923 0122 7D       		.byte	0x7d
 1924 0123 00       		.sleb128 0
 1925 0124 02000000 		.4byte	.LCFI15
 1926 0128 04000000 		.4byte	.LCFI16
 1927 012c 0200     		.2byte	0x2
 1928 012e 7D       		.byte	0x7d
 1929 012f 04       		.sleb128 4
 1930 0130 04000000 		.4byte	.LCFI16
 1931 0134 06000000 		.4byte	.LCFI17
 1932 0138 0200     		.2byte	0x2
 1933 013a 7D       		.byte	0x7d
 1934 013b 18       		.sleb128 24
 1935 013c 06000000 		.4byte	.LCFI17
 1936 0140 CA000000 		.4byte	.LFE5
 1937 0144 0200     		.2byte	0x2
 1938 0146 77       		.byte	0x77
 1939 0147 18       		.sleb128 24
 1940 0148 00000000 		.4byte	0
 1941 014c 00000000 		.4byte	0
 1942              	.LLST6:
 1943 0150 00000000 		.4byte	.LFB6
 1944 0154 02000000 		.4byte	.LCFI18
 1945 0158 0200     		.2byte	0x2
ARM GAS  C:\Users\Robert\AppData\Local\Temp\cc0dkL6l.s 			page 45


 1946 015a 7D       		.byte	0x7d
 1947 015b 00       		.sleb128 0
 1948 015c 02000000 		.4byte	.LCFI18
 1949 0160 04000000 		.4byte	.LCFI19
 1950 0164 0200     		.2byte	0x2
 1951 0166 7D       		.byte	0x7d
 1952 0167 04       		.sleb128 4
 1953 0168 04000000 		.4byte	.LCFI19
 1954 016c 06000000 		.4byte	.LCFI20
 1955 0170 0200     		.2byte	0x2
 1956 0172 7D       		.byte	0x7d
 1957 0173 18       		.sleb128 24
 1958 0174 06000000 		.4byte	.LCFI20
 1959 0178 9C000000 		.4byte	.LFE6
 1960 017c 0200     		.2byte	0x2
 1961 017e 77       		.byte	0x77
 1962 017f 18       		.sleb128 24
 1963 0180 00000000 		.4byte	0
 1964 0184 00000000 		.4byte	0
 1965              	.LLST7:
 1966 0188 00000000 		.4byte	.LFB7
 1967 018c 02000000 		.4byte	.LCFI21
 1968 0190 0200     		.2byte	0x2
 1969 0192 7D       		.byte	0x7d
 1970 0193 00       		.sleb128 0
 1971 0194 02000000 		.4byte	.LCFI21
 1972 0198 04000000 		.4byte	.LCFI22
 1973 019c 0200     		.2byte	0x2
 1974 019e 7D       		.byte	0x7d
 1975 019f 04       		.sleb128 4
 1976 01a0 04000000 		.4byte	.LCFI22
 1977 01a4 06000000 		.4byte	.LCFI23
 1978 01a8 0200     		.2byte	0x2
 1979 01aa 7D       		.byte	0x7d
 1980 01ab 18       		.sleb128 24
 1981 01ac 06000000 		.4byte	.LCFI23
 1982 01b0 8C000000 		.4byte	.LFE7
 1983 01b4 0200     		.2byte	0x2
 1984 01b6 77       		.byte	0x77
 1985 01b7 18       		.sleb128 24
 1986 01b8 00000000 		.4byte	0
 1987 01bc 00000000 		.4byte	0
 1988              	.LLST8:
 1989 01c0 00000000 		.4byte	.LFB8
 1990 01c4 02000000 		.4byte	.LCFI24
 1991 01c8 0200     		.2byte	0x2
 1992 01ca 7D       		.byte	0x7d
 1993 01cb 00       		.sleb128 0
 1994 01cc 02000000 		.4byte	.LCFI24
 1995 01d0 04000000 		.4byte	.LCFI25
 1996 01d4 0200     		.2byte	0x2
 1997 01d6 7D       		.byte	0x7d
 1998 01d7 08       		.sleb128 8
 1999 01d8 04000000 		.4byte	.LCFI25
 2000 01dc 06000000 		.4byte	.LCFI26
 2001 01e0 0200     		.2byte	0x2
 2002 01e2 7D       		.byte	0x7d
ARM GAS  C:\Users\Robert\AppData\Local\Temp\cc0dkL6l.s 			page 46


 2003 01e3 10       		.sleb128 16
 2004 01e4 06000000 		.4byte	.LCFI26
 2005 01e8 88000000 		.4byte	.LFE8
 2006 01ec 0200     		.2byte	0x2
 2007 01ee 77       		.byte	0x77
 2008 01ef 10       		.sleb128 16
 2009 01f0 00000000 		.4byte	0
 2010 01f4 00000000 		.4byte	0
 2011              	.LLST9:
 2012 01f8 00000000 		.4byte	.LFB9
 2013 01fc 02000000 		.4byte	.LCFI27
 2014 0200 0200     		.2byte	0x2
 2015 0202 7D       		.byte	0x7d
 2016 0203 00       		.sleb128 0
 2017 0204 02000000 		.4byte	.LCFI27
 2018 0208 04000000 		.4byte	.LCFI28
 2019 020c 0200     		.2byte	0x2
 2020 020e 7D       		.byte	0x7d
 2021 020f 08       		.sleb128 8
 2022 0210 04000000 		.4byte	.LCFI28
 2023 0214 06000000 		.4byte	.LCFI29
 2024 0218 0200     		.2byte	0x2
 2025 021a 7D       		.byte	0x7d
 2026 021b 10       		.sleb128 16
 2027 021c 06000000 		.4byte	.LCFI29
 2028 0220 66000000 		.4byte	.LFE9
 2029 0224 0200     		.2byte	0x2
 2030 0226 77       		.byte	0x77
 2031 0227 10       		.sleb128 16
 2032 0228 00000000 		.4byte	0
 2033 022c 00000000 		.4byte	0
 2034              		.section	.debug_aranges,"",%progbits
 2035 0000 64000000 		.4byte	0x64
 2036 0004 0200     		.2byte	0x2
 2037 0006 00000000 		.4byte	.Ldebug_info0
 2038 000a 04       		.byte	0x4
 2039 000b 00       		.byte	0
 2040 000c 0000     		.2byte	0
 2041 000e 0000     		.2byte	0
 2042 0010 00000000 		.4byte	.LFB0
 2043 0014 56000000 		.4byte	.LFE0-.LFB0
 2044 0018 00000000 		.4byte	.LFB1
 2045 001c 56000000 		.4byte	.LFE1-.LFB1
 2046 0020 00000000 		.4byte	.LFB2
 2047 0024 64000000 		.4byte	.LFE2-.LFB2
 2048 0028 00000000 		.4byte	.LFB3
 2049 002c 1A010000 		.4byte	.LFE3-.LFB3
 2050 0030 00000000 		.4byte	.LFB4
 2051 0034 BC000000 		.4byte	.LFE4-.LFB4
 2052 0038 00000000 		.4byte	.LFB5
 2053 003c CA000000 		.4byte	.LFE5-.LFB5
 2054 0040 00000000 		.4byte	.LFB6
 2055 0044 9C000000 		.4byte	.LFE6-.LFB6
 2056 0048 00000000 		.4byte	.LFB7
 2057 004c 8C000000 		.4byte	.LFE7-.LFB7
 2058 0050 00000000 		.4byte	.LFB8
 2059 0054 88000000 		.4byte	.LFE8-.LFB8
ARM GAS  C:\Users\Robert\AppData\Local\Temp\cc0dkL6l.s 			page 47


 2060 0058 00000000 		.4byte	.LFB9
 2061 005c 66000000 		.4byte	.LFE9-.LFB9
 2062 0060 00000000 		.4byte	0
 2063 0064 00000000 		.4byte	0
 2064              		.section	.debug_ranges,"",%progbits
 2065              	.Ldebug_ranges0:
 2066 0000 00000000 		.4byte	.LFB0
 2067 0004 56000000 		.4byte	.LFE0
 2068 0008 00000000 		.4byte	.LFB1
 2069 000c 56000000 		.4byte	.LFE1
 2070 0010 00000000 		.4byte	.LFB2
 2071 0014 64000000 		.4byte	.LFE2
 2072 0018 00000000 		.4byte	.LFB3
 2073 001c 1A010000 		.4byte	.LFE3
 2074 0020 00000000 		.4byte	.LFB4
 2075 0024 BC000000 		.4byte	.LFE4
 2076 0028 00000000 		.4byte	.LFB5
 2077 002c CA000000 		.4byte	.LFE5
 2078 0030 00000000 		.4byte	.LFB6
 2079 0034 9C000000 		.4byte	.LFE6
 2080 0038 00000000 		.4byte	.LFB7
 2081 003c 8C000000 		.4byte	.LFE7
 2082 0040 00000000 		.4byte	.LFB8
 2083 0044 88000000 		.4byte	.LFE8
 2084 0048 00000000 		.4byte	.LFB9
 2085 004c 66000000 		.4byte	.LFE9
 2086 0050 00000000 		.4byte	0
 2087 0054 00000000 		.4byte	0
 2088              		.section	.debug_line,"",%progbits
 2089              	.Ldebug_line0:
 2090 0000 A3010000 		.section	.debug_str,"MS",%progbits,1
 2090      02004400 
 2090      00000201 
 2090      FB0E0D00 
 2090      01010101 
 2091              	.LASF25:
 2092 0000 43795370 		.ascii	"CySpcLoadMultiByte\000"
 2092      634C6F61 
 2092      644D756C 
 2092      74694279 
 2092      746500
 2093              	.LASF15:
 2094 0013 63797374 		.ascii	"cystatus\000"
 2094      61747573 
 2094      00
 2095              	.LASF17:
 2096 001c 72656733 		.ascii	"reg32\000"
 2096      3200
 2097              	.LASF19:
 2098 0022 43795370 		.ascii	"CySpcStart\000"
 2098      63537461 
 2098      727400
 2099              	.LASF30:
 2100 002d 43795370 		.ascii	"CySpcWriteRow\000"
 2100      63577269 
 2100      7465526F 
 2100      7700
ARM GAS  C:\Users\Robert\AppData\Local\Temp\cc0dkL6l.s 			page 48


 2101              	.LASF20:
 2102 003b 43795370 		.ascii	"CySpcStop\000"
 2102      6353746F 
 2102      7000
 2103              	.LASF41:
 2104 0045 2E5C4765 		.ascii	".\\Generated_Source\\PSoC5\\CySpc.c\000"
 2104      6E657261 
 2104      7465645F 
 2104      536F7572 
 2104      63655C50 
 2105              	.LASF3:
 2106 0066 73686F72 		.ascii	"short unsigned int\000"
 2106      7420756E 
 2106      7369676E 
 2106      65642069 
 2106      6E7400
 2107              	.LASF24:
 2108 0079 43795370 		.ascii	"CySpcReadData\000"
 2108      63526561 
 2108      64446174 
 2108      6100
 2109              	.LASF28:
 2110 0087 73746174 		.ascii	"status\000"
 2110      757300
 2111              	.LASF12:
 2112 008e 666C6F61 		.ascii	"float\000"
 2112      7400
 2113              	.LASF36:
 2114 0094 6E756D53 		.ascii	"numSamples\000"
 2114      616D706C 
 2114      657300
 2115              	.LASF23:
 2116 009f 73697A65 		.ascii	"size\000"
 2116      00
 2117              	.LASF16:
 2118 00a4 72656738 		.ascii	"reg8\000"
 2118      00
 2119              	.LASF21:
 2120 00a9 696E7465 		.ascii	"interruptState\000"
 2120      72727570 
 2120      74537461 
 2120      746500
 2121              	.LASF5:
 2122 00b8 6C6F6E67 		.ascii	"long unsigned int\000"
 2122      20756E73 
 2122      69676E65 
 2122      6420696E 
 2122      7400
 2123              	.LASF9:
 2124 00ca 75696E74 		.ascii	"uint8\000"
 2124      3800
 2125              	.LASF43:
 2126 00d0 5370634C 		.ascii	"SpcLockState\000"
 2126      6F636B53 
 2126      74617465 
 2126      00
 2127              	.LASF31:
ARM GAS  C:\Users\Robert\AppData\Local\Temp\cc0dkL6l.s 			page 49


 2128 00dd 74656D70 		.ascii	"tempPolarity\000"
 2128      506F6C61 
 2128      72697479 
 2128      00
 2129              	.LASF26:
 2130 00ea 61727261 		.ascii	"array\000"
 2130      7900
 2131              	.LASF1:
 2132 00f0 756E7369 		.ascii	"unsigned char\000"
 2132      676E6564 
 2132      20636861 
 2132      7200
 2133              	.LASF13:
 2134 00fe 646F7562 		.ascii	"double\000"
 2134      6C6500
 2135              	.LASF35:
 2136 0105 43795370 		.ascii	"CySpcGetTemp\000"
 2136      63476574 
 2136      54656D70 
 2136      00
 2137              	.LASF10:
 2138 0112 75696E74 		.ascii	"uint16\000"
 2138      313600
 2139              	.LASF37:
 2140 0119 43795370 		.ascii	"CySpcLock\000"
 2140      634C6F63 
 2140      6B00
 2141              	.LASF11:
 2142 0123 75696E74 		.ascii	"uint32\000"
 2142      333200
 2143              	.LASF8:
 2144 012a 756E7369 		.ascii	"unsigned int\000"
 2144      676E6564 
 2144      20696E74 
 2144      00
 2145              	.LASF27:
 2146 0137 61646472 		.ascii	"address\000"
 2146      65737300 
 2147              	.LASF7:
 2148 013f 6C6F6E67 		.ascii	"long long unsigned int\000"
 2148      206C6F6E 
 2148      6720756E 
 2148      7369676E 
 2148      65642069 
 2149              	.LASF32:
 2150 0156 74656D70 		.ascii	"tempMagnitude\000"
 2150      4D61676E 
 2150      69747564 
 2150      6500
 2151              	.LASF29:
 2152 0164 43795370 		.ascii	"CySpcLoadRow\000"
 2152      634C6F61 
 2152      64526F77 
 2152      00
 2153              	.LASF42:
 2154 0171 433A5C55 		.ascii	"C:\\Users\\Robert\\workspace\\embedit_git\\psoc_2_p"
 2154      73657273 
ARM GAS  C:\Users\Robert\AppData\Local\Temp\cc0dkL6l.s 			page 50


 2154      5C526F62 
 2154      6572745C 
 2154      776F726B 
 2155 019f 695C5053 		.ascii	"i\\PSoC Creator\\PSoC_2_Pi.cydsn\000"
 2155      6F432043 
 2155      72656174 
 2155      6F725C50 
 2155      536F435F 
 2156              	.LASF38:
 2157 01be 43795370 		.ascii	"CySpcUnlock\000"
 2157      63556E6C 
 2157      6F636B00 
 2158              	.LASF33:
 2159 01ca 43795370 		.ascii	"CySpcEraseSector\000"
 2159      63457261 
 2159      73655365 
 2159      63746F72 
 2159      00
 2160              	.LASF6:
 2161 01db 6C6F6E67 		.ascii	"long long int\000"
 2161      206C6F6E 
 2161      6720696E 
 2161      7400
 2162              	.LASF18:
 2163 01e9 73697A65 		.ascii	"sizetype\000"
 2163      74797065 
 2163      00
 2164              	.LASF14:
 2165 01f2 63686172 		.ascii	"char\000"
 2165      00
 2166              	.LASF2:
 2167 01f7 73686F72 		.ascii	"short int\000"
 2167      7420696E 
 2167      7400
 2168              	.LASF22:
 2169 0201 62756666 		.ascii	"buffer\000"
 2169      657200
 2170              	.LASF34:
 2171 0208 73656374 		.ascii	"sectorNumber\000"
 2171      6F724E75 
 2171      6D626572 
 2171      00
 2172              	.LASF4:
 2173 0215 6C6F6E67 		.ascii	"long int\000"
 2173      20696E74 
 2173      00
 2174              	.LASF39:
 2175 021e 73706357 		.ascii	"spcWaitPipeBypass\000"
 2175      61697450 
 2175      69706542 
 2175      79706173 
 2175      7300
 2176              	.LASF0:
 2177 0230 7369676E 		.ascii	"signed char\000"
 2177      65642063 
 2177      68617200 
 2178              	.LASF40:
ARM GAS  C:\Users\Robert\AppData\Local\Temp\cc0dkL6l.s 			page 51


 2179 023c 474E5520 		.ascii	"GNU C 4.7.3 20130312 (release) [ARM/embedded-4_7-br"
 2179      4320342E 
 2179      372E3320 
 2179      32303133 
 2179      30333132 
 2180 026f 616E6368 		.ascii	"anch revision 196615]\000"
 2180      20726576 
 2180      6973696F 
 2180      6E203139 
 2180      36363135 
 2181              		.ident	"GCC: (GNU Tools for ARM Embedded Processors) 4.7.3 20130312 (release) [ARM/embedded-4_7-br
