ARM GAS  C:\Users\Robert\AppData\Local\Temp\cc0dkL6l.s 			page 1


   1              		.syntax unified
   2              		.cpu cortex-m3
   3              		.fpu softvfp
   4              		.eabi_attribute 20, 1
   5              		.eabi_attribute 21, 1
   6              		.eabi_attribute 23, 3
   7              		.eabi_attribute 24, 1
   8              		.eabi_attribute 25, 1
   9              		.eabi_attribute 26, 1
  10              		.eabi_attribute 30, 6
  11              		.eabi_attribute 34, 1
  12              		.eabi_attribute 18, 4
  13              		.thumb
  14              		.file	"CySpc.c"
  15              		.text
  16              	.Ltext0:
  17              		.cfi_sections	.debug_frame
  18              		.global	SpcLockState
  19              		.bss
  20              		.type	SpcLockState, %object
  21              		.size	SpcLockState, 1
  22              	SpcLockState:
  23 0000 00       		.space	1
  24 0001 000000   		.align	2
  25              	spcWaitPipeBypass:
  26 0004 00000000 		.space	4
  27              		.section	.text.CySpcStart,"ax",%progbits
  28              		.align	2
  29              		.global	CySpcStart
  30              		.thumb
  31              		.thumb_func
  32              		.type	CySpcStart, %function
  33              	CySpcStart:
  34              	.LFB0:
  35              		.file 1 ".\\Generated_Source\\PSoC5\\CySpc.c"
   1:.\Generated_Source\PSoC5/CySpc.c **** /*******************************************************************************
   2:.\Generated_Source\PSoC5/CySpc.c **** * File Name: CySpc.c
   3:.\Generated_Source\PSoC5/CySpc.c **** * Version 4.10
   4:.\Generated_Source\PSoC5/CySpc.c **** *
   5:.\Generated_Source\PSoC5/CySpc.c **** *  Description:
   6:.\Generated_Source\PSoC5/CySpc.c **** *   Provides an API for the System Performance Component.
   7:.\Generated_Source\PSoC5/CySpc.c **** *   The SPC functions are not meant to be called directly by the user
   8:.\Generated_Source\PSoC5/CySpc.c **** *   application.
   9:.\Generated_Source\PSoC5/CySpc.c **** *
  10:.\Generated_Source\PSoC5/CySpc.c **** ********************************************************************************
  11:.\Generated_Source\PSoC5/CySpc.c **** * Copyright 2008-2014, Cypress Semiconductor Corporation.  All rights reserved.
  12:.\Generated_Source\PSoC5/CySpc.c **** * You may use this file only in accordance with the license, terms, conditions,
  13:.\Generated_Source\PSoC5/CySpc.c **** * disclaimers, and limitations in the end user license agreement accompanying
  14:.\Generated_Source\PSoC5/CySpc.c **** * the software package with which this file was provided.
  15:.\Generated_Source\PSoC5/CySpc.c **** *******************************************************************************/
  16:.\Generated_Source\PSoC5/CySpc.c **** 
  17:.\Generated_Source\PSoC5/CySpc.c **** #include "CySpc.h"
  18:.\Generated_Source\PSoC5/CySpc.c **** 
  19:.\Generated_Source\PSoC5/CySpc.c **** #define CY_SPC_KEY_ONE                      (0xB6u)
  20:.\Generated_Source\PSoC5/CySpc.c **** #define CY_SPC_KEY_TWO(x)                   ((uint8) (((uint16) 0xD3u) + ((uint16) (x))))
  21:.\Generated_Source\PSoC5/CySpc.c **** 
  22:.\Generated_Source\PSoC5/CySpc.c **** /* Command Codes */
ARM GAS  C:\Users\Robert\AppData\Local\Temp\cc0dkL6l.s 			page 2


  23:.\Generated_Source\PSoC5/CySpc.c **** #define CY_SPC_CMD_LD_BYTE                  (0x00u)
  24:.\Generated_Source\PSoC5/CySpc.c **** #define CY_SPC_CMD_LD_MULTI_BYTE            (0x01u)
  25:.\Generated_Source\PSoC5/CySpc.c **** #define CY_SPC_CMD_LD_ROW                   (0x02u)
  26:.\Generated_Source\PSoC5/CySpc.c **** #define CY_SPC_CMD_RD_BYTE                  (0x03u)
  27:.\Generated_Source\PSoC5/CySpc.c **** #define CY_SPC_CMD_RD_MULTI_BYTE            (0x04u)
  28:.\Generated_Source\PSoC5/CySpc.c **** #define CY_SPC_CMD_WR_ROW                   (0x05u)
  29:.\Generated_Source\PSoC5/CySpc.c **** #define CY_SPC_CMD_WR_USER_NVL              (0x06u)
  30:.\Generated_Source\PSoC5/CySpc.c **** #define CY_SPC_CMD_PRG_ROW                  (0x07u)
  31:.\Generated_Source\PSoC5/CySpc.c **** #define CY_SPC_CMD_ER_SECTOR                (0x08u)
  32:.\Generated_Source\PSoC5/CySpc.c **** #define CY_SPC_CMD_ER_ALL                   (0x09u)
  33:.\Generated_Source\PSoC5/CySpc.c **** #define CY_SPC_CMD_RD_HIDDEN                (0x0Au)
  34:.\Generated_Source\PSoC5/CySpc.c **** #define CY_SPC_CMD_PRG_PROTECT              (0x0Bu)
  35:.\Generated_Source\PSoC5/CySpc.c **** #define CY_SPC_CMD_CHECKSUM                 (0x0Cu)
  36:.\Generated_Source\PSoC5/CySpc.c **** #define CY_SPC_CMD_DWNLD_ALGORITHM          (0x0Du)
  37:.\Generated_Source\PSoC5/CySpc.c **** #define CY_SPC_CMD_GET_TEMP                 (0x0Eu)
  38:.\Generated_Source\PSoC5/CySpc.c **** #define CY_SPC_CMD_GET_ADC                  (0x0Fu)
  39:.\Generated_Source\PSoC5/CySpc.c **** #define CY_SPC_CMD_RD_NVL_VOLATILE          (0x10u)
  40:.\Generated_Source\PSoC5/CySpc.c **** #define CY_SPC_CMD_SETUP_TS                 (0x11u)
  41:.\Generated_Source\PSoC5/CySpc.c **** #define CY_SPC_CMD_DISABLE_TS               (0x12u)
  42:.\Generated_Source\PSoC5/CySpc.c **** #define CY_SPC_CMD_ER_ROW                   (0x13u)
  43:.\Generated_Source\PSoC5/CySpc.c **** 
  44:.\Generated_Source\PSoC5/CySpc.c **** /* Enable bit in Active and Alternate Active mode templates */
  45:.\Generated_Source\PSoC5/CySpc.c **** #define PM_SPC_PM_EN                        (0x08u)
  46:.\Generated_Source\PSoC5/CySpc.c **** 
  47:.\Generated_Source\PSoC5/CySpc.c **** /* Gate calls to the SPC. */
  48:.\Generated_Source\PSoC5/CySpc.c **** uint8 SpcLockState = CY_SPC_UNLOCKED;
  49:.\Generated_Source\PSoC5/CySpc.c **** 
  50:.\Generated_Source\PSoC5/CySpc.c **** 
  51:.\Generated_Source\PSoC5/CySpc.c **** #if(CY_PSOC5)
  52:.\Generated_Source\PSoC5/CySpc.c **** 
  53:.\Generated_Source\PSoC5/CySpc.c ****     /***************************************************************************
  54:.\Generated_Source\PSoC5/CySpc.c ****     * The wait-state pipeline must be enabled prior to accessing the SPC
  55:.\Generated_Source\PSoC5/CySpc.c ****     * register interface regardless of CPU frequency. The CySpcLock() saves
  56:.\Generated_Source\PSoC5/CySpc.c ****     * current wait-state pipeline state and enables it. The CySpcUnlock()
  57:.\Generated_Source\PSoC5/CySpc.c ****     * function, which must be called after SPC transaction, restores original
  58:.\Generated_Source\PSoC5/CySpc.c ****     * state.
  59:.\Generated_Source\PSoC5/CySpc.c ****     ***************************************************************************/
  60:.\Generated_Source\PSoC5/CySpc.c ****     static uint32 spcWaitPipeBypass = 0u;
  61:.\Generated_Source\PSoC5/CySpc.c **** 
  62:.\Generated_Source\PSoC5/CySpc.c **** #endif  /* (CY_PSOC5) */
  63:.\Generated_Source\PSoC5/CySpc.c **** 
  64:.\Generated_Source\PSoC5/CySpc.c **** 
  65:.\Generated_Source\PSoC5/CySpc.c **** /*******************************************************************************
  66:.\Generated_Source\PSoC5/CySpc.c **** * Function Name: CySpcStart
  67:.\Generated_Source\PSoC5/CySpc.c **** ********************************************************************************
  68:.\Generated_Source\PSoC5/CySpc.c **** * Summary:
  69:.\Generated_Source\PSoC5/CySpc.c **** *  Starts the SPC.
  70:.\Generated_Source\PSoC5/CySpc.c **** *
  71:.\Generated_Source\PSoC5/CySpc.c **** * Parameters:
  72:.\Generated_Source\PSoC5/CySpc.c **** *  None
  73:.\Generated_Source\PSoC5/CySpc.c **** *
  74:.\Generated_Source\PSoC5/CySpc.c **** * Return:
  75:.\Generated_Source\PSoC5/CySpc.c **** *  None
  76:.\Generated_Source\PSoC5/CySpc.c **** *
  77:.\Generated_Source\PSoC5/CySpc.c **** *******************************************************************************/
  78:.\Generated_Source\PSoC5/CySpc.c **** void CySpcStart(void) 
  79:.\Generated_Source\PSoC5/CySpc.c **** {
ARM GAS  C:\Users\Robert\AppData\Local\Temp\cc0dkL6l.s 			page 3


  36              		.loc 1 79 0
  37              		.cfi_startproc
  38              		@ args = 0, pretend = 0, frame = 8
  39              		@ frame_needed = 1, uses_anonymous_args = 0
  40 0000 80B5     		push	{r7, lr}
  41              	.LCFI0:
  42              		.cfi_def_cfa_offset 8
  43              		.cfi_offset 7, -8
  44              		.cfi_offset 14, -4
  45 0002 82B0     		sub	sp, sp, #8
  46              	.LCFI1:
  47              		.cfi_def_cfa_offset 16
  48 0004 00AF     		add	r7, sp, #0
  49              	.LCFI2:
  50              		.cfi_def_cfa_register 7
  80:.\Generated_Source\PSoC5/CySpc.c ****     /* Save current global interrupt enable and disable it */
  81:.\Generated_Source\PSoC5/CySpc.c ****     uint8 interruptState = CyEnterCriticalSection();
  51              		.loc 1 81 0
  52 0006 FFF7FEFF 		bl	CyEnterCriticalSection
  53 000a 0346     		mov	r3, r0
  54 000c FB71     		strb	r3, [r7, #7]
  82:.\Generated_Source\PSoC5/CySpc.c **** 
  83:.\Generated_Source\PSoC5/CySpc.c ****     CY_SPC_PM_ACT_REG  |= PM_SPC_PM_EN;
  55              		.loc 1 83 0
  56 000e 44F2A033 		movw	r3, #17312
  57 0012 C4F20003 		movt	r3, 16384
  58 0016 44F2A032 		movw	r2, #17312
  59 001a C4F20002 		movt	r2, 16384
  60 001e 1278     		ldrb	r2, [r2, #0]
  61 0020 D2B2     		uxtb	r2, r2
  62 0022 42F00802 		orr	r2, r2, #8
  63 0026 D2B2     		uxtb	r2, r2
  64 0028 1A70     		strb	r2, [r3, #0]
  84:.\Generated_Source\PSoC5/CySpc.c ****     CY_SPC_PM_STBY_REG |= PM_SPC_PM_EN;
  65              		.loc 1 84 0
  66 002a 44F2B033 		movw	r3, #17328
  67 002e C4F20003 		movt	r3, 16384
  68 0032 44F2B032 		movw	r2, #17328
  69 0036 C4F20002 		movt	r2, 16384
  70 003a 1278     		ldrb	r2, [r2, #0]
  71 003c D2B2     		uxtb	r2, r2
  72 003e 42F00802 		orr	r2, r2, #8
  73 0042 D2B2     		uxtb	r2, r2
  74 0044 1A70     		strb	r2, [r3, #0]
  85:.\Generated_Source\PSoC5/CySpc.c **** 
  86:.\Generated_Source\PSoC5/CySpc.c ****     /* Restore global interrupt enable state */
  87:.\Generated_Source\PSoC5/CySpc.c ****     CyExitCriticalSection(interruptState);
  75              		.loc 1 87 0
  76 0046 FB79     		ldrb	r3, [r7, #7]	@ zero_extendqisi2
  77 0048 1846     		mov	r0, r3
  78 004a FFF7FEFF 		bl	CyExitCriticalSection
  88:.\Generated_Source\PSoC5/CySpc.c **** }
  79              		.loc 1 88 0
  80 004e 07F10807 		add	r7, r7, #8
  81 0052 BD46     		mov	sp, r7
  82 0054 80BD     		pop	{r7, pc}
  83              		.cfi_endproc
ARM GAS  C:\Users\Robert\AppData\Local\Temp\cc0dkL6l.s 			page 4


  84              	.LFE0:
  85              		.size	CySpcStart, .-CySpcStart
  86 0056 00BF     		.section	.text.CySpcStop,"ax",%progbits
  87              		.align	2
  88              		.global	CySpcStop
  89              		.thumb
  90              		.thumb_func
  91              		.type	CySpcStop, %function
  92              	CySpcStop:
  93              	.LFB1:
  89:.\Generated_Source\PSoC5/CySpc.c **** 
  90:.\Generated_Source\PSoC5/CySpc.c **** 
  91:.\Generated_Source\PSoC5/CySpc.c **** /*******************************************************************************
  92:.\Generated_Source\PSoC5/CySpc.c **** * Function Name: CySpcStop
  93:.\Generated_Source\PSoC5/CySpc.c **** ********************************************************************************
  94:.\Generated_Source\PSoC5/CySpc.c **** * Summary:
  95:.\Generated_Source\PSoC5/CySpc.c **** *  Stops the SPC.
  96:.\Generated_Source\PSoC5/CySpc.c **** *
  97:.\Generated_Source\PSoC5/CySpc.c **** * Parameters:
  98:.\Generated_Source\PSoC5/CySpc.c **** *  None
  99:.\Generated_Source\PSoC5/CySpc.c **** *
 100:.\Generated_Source\PSoC5/CySpc.c **** * Return:
 101:.\Generated_Source\PSoC5/CySpc.c **** *  None
 102:.\Generated_Source\PSoC5/CySpc.c **** *
 103:.\Generated_Source\PSoC5/CySpc.c **** *******************************************************************************/
 104:.\Generated_Source\PSoC5/CySpc.c **** void CySpcStop(void) 
 105:.\Generated_Source\PSoC5/CySpc.c **** {
  94              		.loc 1 105 0
  95              		.cfi_startproc
  96              		@ args = 0, pretend = 0, frame = 8
  97              		@ frame_needed = 1, uses_anonymous_args = 0
  98 0000 80B5     		push	{r7, lr}
  99              	.LCFI3:
 100              		.cfi_def_cfa_offset 8
 101              		.cfi_offset 7, -8
 102              		.cfi_offset 14, -4
 103 0002 82B0     		sub	sp, sp, #8
 104              	.LCFI4:
 105              		.cfi_def_cfa_offset 16
 106 0004 00AF     		add	r7, sp, #0
 107              	.LCFI5:
 108              		.cfi_def_cfa_register 7
 106:.\Generated_Source\PSoC5/CySpc.c ****     /* Save current global interrupt enable and disable it */
 107:.\Generated_Source\PSoC5/CySpc.c ****     uint8 interruptState = CyEnterCriticalSection();
 109              		.loc 1 107 0
 110 0006 FFF7FEFF 		bl	CyEnterCriticalSection
 111 000a 0346     		mov	r3, r0
 112 000c FB71     		strb	r3, [r7, #7]
 108:.\Generated_Source\PSoC5/CySpc.c **** 
 109:.\Generated_Source\PSoC5/CySpc.c ****     CY_SPC_PM_ACT_REG  &= ((uint8)(~PM_SPC_PM_EN));
 113              		.loc 1 109 0
 114 000e 44F2A033 		movw	r3, #17312
 115 0012 C4F20003 		movt	r3, 16384
 116 0016 44F2A032 		movw	r2, #17312
 117 001a C4F20002 		movt	r2, 16384
 118 001e 1278     		ldrb	r2, [r2, #0]
 119 0020 D2B2     		uxtb	r2, r2
ARM GAS  C:\Users\Robert\AppData\Local\Temp\cc0dkL6l.s 			page 5


 120 0022 22F00802 		bic	r2, r2, #8
 121 0026 D2B2     		uxtb	r2, r2
 122 0028 1A70     		strb	r2, [r3, #0]
 110:.\Generated_Source\PSoC5/CySpc.c ****     CY_SPC_PM_STBY_REG &= ((uint8)(~PM_SPC_PM_EN));
 123              		.loc 1 110 0
 124 002a 44F2B033 		movw	r3, #17328
 125 002e C4F20003 		movt	r3, 16384
 126 0032 44F2B032 		movw	r2, #17328
 127 0036 C4F20002 		movt	r2, 16384
 128 003a 1278     		ldrb	r2, [r2, #0]
 129 003c D2B2     		uxtb	r2, r2
 130 003e 22F00802 		bic	r2, r2, #8
 131 0042 D2B2     		uxtb	r2, r2
 132 0044 1A70     		strb	r2, [r3, #0]
 111:.\Generated_Source\PSoC5/CySpc.c **** 
 112:.\Generated_Source\PSoC5/CySpc.c ****     /* Restore global interrupt enable state */
 113:.\Generated_Source\PSoC5/CySpc.c ****     CyExitCriticalSection(interruptState);
 133              		.loc 1 113 0
 134 0046 FB79     		ldrb	r3, [r7, #7]	@ zero_extendqisi2
 135 0048 1846     		mov	r0, r3
 136 004a FFF7FEFF 		bl	CyExitCriticalSection
 114:.\Generated_Source\PSoC5/CySpc.c **** }
 137              		.loc 1 114 0
 138 004e 07F10807 		add	r7, r7, #8
 139 0052 BD46     		mov	sp, r7
 140 0054 80BD     		pop	{r7, pc}
 141              		.cfi_endproc
 142              	.LFE1:
 143              		.size	CySpcStop, .-CySpcStop
 144 0056 00BF     		.section	.text.CySpcReadData,"ax",%progbits
 145              		.align	2
 146              		.global	CySpcReadData
 147              		.thumb
 148              		.thumb_func
 149              		.type	CySpcReadData, %function
 150              	CySpcReadData:
 151              	.LFB2:
 115:.\Generated_Source\PSoC5/CySpc.c **** 
 116:.\Generated_Source\PSoC5/CySpc.c **** 
 117:.\Generated_Source\PSoC5/CySpc.c **** /*******************************************************************************
 118:.\Generated_Source\PSoC5/CySpc.c **** * Function Name: CySpcReadData
 119:.\Generated_Source\PSoC5/CySpc.c **** ********************************************************************************
 120:.\Generated_Source\PSoC5/CySpc.c **** * Summary:
 121:.\Generated_Source\PSoC5/CySpc.c **** *  Reads data from the SPC.
 122:.\Generated_Source\PSoC5/CySpc.c **** *
 123:.\Generated_Source\PSoC5/CySpc.c **** * Parameters:
 124:.\Generated_Source\PSoC5/CySpc.c **** *  uint8 buffer:
 125:.\Generated_Source\PSoC5/CySpc.c **** *   Address to store data read.
 126:.\Generated_Source\PSoC5/CySpc.c **** *
 127:.\Generated_Source\PSoC5/CySpc.c **** *  uint8 size:
 128:.\Generated_Source\PSoC5/CySpc.c **** *   Number of bytes to read from the SPC.
 129:.\Generated_Source\PSoC5/CySpc.c **** *
 130:.\Generated_Source\PSoC5/CySpc.c **** * Return:
 131:.\Generated_Source\PSoC5/CySpc.c **** *  uint8:
 132:.\Generated_Source\PSoC5/CySpc.c **** *   The number of bytes read from the SPC.
 133:.\Generated_Source\PSoC5/CySpc.c **** *
 134:.\Generated_Source\PSoC5/CySpc.c **** *******************************************************************************/
ARM GAS  C:\Users\Robert\AppData\Local\Temp\cc0dkL6l.s 			page 6


 135:.\Generated_Source\PSoC5/CySpc.c **** uint8 CySpcReadData(uint8 buffer[], uint8 size) 
 136:.\Generated_Source\PSoC5/CySpc.c **** {
 152              		.loc 1 136 0
 153              		.cfi_startproc
 154              		@ args = 0, pretend = 0, frame = 16
 155              		@ frame_needed = 1, uses_anonymous_args = 0
 156 0000 80B5     		push	{r7, lr}
 157              	.LCFI6:
 158              		.cfi_def_cfa_offset 8
 159              		.cfi_offset 7, -8
 160              		.cfi_offset 14, -4
 161 0002 84B0     		sub	sp, sp, #16
 162              	.LCFI7:
 163              		.cfi_def_cfa_offset 24
 164 0004 00AF     		add	r7, sp, #0
 165              	.LCFI8:
 166              		.cfi_def_cfa_register 7
 167 0006 7860     		str	r0, [r7, #4]
 168 0008 0B46     		mov	r3, r1
 169 000a FB70     		strb	r3, [r7, #3]
 137:.\Generated_Source\PSoC5/CySpc.c ****     uint8 i;
 138:.\Generated_Source\PSoC5/CySpc.c **** 
 139:.\Generated_Source\PSoC5/CySpc.c ****     for(i = 0u; i < size; i++)
 170              		.loc 1 139 0
 171 000c 4FF00003 		mov	r3, #0
 172 0010 FB73     		strb	r3, [r7, #15]
 173 0012 1DE0     		b	.L4
 174              	.L6:
 140:.\Generated_Source\PSoC5/CySpc.c ****     {
 141:.\Generated_Source\PSoC5/CySpc.c ****         while(!CY_SPC_DATA_READY)
 142:.\Generated_Source\PSoC5/CySpc.c ****         {
 143:.\Generated_Source\PSoC5/CySpc.c ****             CyDelayUs(1u);
 175              		.loc 1 143 0
 176 0014 4FF00100 		mov	r0, #1
 177 0018 FFF7FEFF 		bl	CyDelayUs
 178 001c 00E0     		b	.L5
 179              	.L9:
 141:.\Generated_Source\PSoC5/CySpc.c ****         while(!CY_SPC_DATA_READY)
 180              		.loc 1 141 0
 181 001e 00BF     		nop
 182              	.L5:
 141:.\Generated_Source\PSoC5/CySpc.c ****         while(!CY_SPC_DATA_READY)
 183              		.loc 1 141 0 is_stmt 0 discriminator 1
 184 0020 44F22273 		movw	r3, #18210
 185 0024 C4F20003 		movt	r3, 16384
 186 0028 1B78     		ldrb	r3, [r3, #0]
 187 002a DBB2     		uxtb	r3, r3
 188 002c 03F00103 		and	r3, r3, #1
 189 0030 002B     		cmp	r3, #0
 190 0032 EFD0     		beq	.L6
 144:.\Generated_Source\PSoC5/CySpc.c ****         }
 145:.\Generated_Source\PSoC5/CySpc.c ****         buffer[i] = CY_SPC_CPU_DATA_REG;
 191              		.loc 1 145 0 is_stmt 1
 192 0034 FB7B     		ldrb	r3, [r7, #15]	@ zero_extendqisi2
 193 0036 7A68     		ldr	r2, [r7, #4]
 194 0038 D218     		adds	r2, r2, r3
 195 003a 44F22073 		movw	r3, #18208
ARM GAS  C:\Users\Robert\AppData\Local\Temp\cc0dkL6l.s 			page 7


 196 003e C4F20003 		movt	r3, 16384
 197 0042 1B78     		ldrb	r3, [r3, #0]
 198 0044 DBB2     		uxtb	r3, r3
 199 0046 1370     		strb	r3, [r2, #0]
 139:.\Generated_Source\PSoC5/CySpc.c ****     for(i = 0u; i < size; i++)
 200              		.loc 1 139 0
 201 0048 FB7B     		ldrb	r3, [r7, #15]
 202 004a 03F10103 		add	r3, r3, #1
 203 004e FB73     		strb	r3, [r7, #15]
 204              	.L4:
 139:.\Generated_Source\PSoC5/CySpc.c ****     for(i = 0u; i < size; i++)
 205              		.loc 1 139 0 is_stmt 0 discriminator 1
 206 0050 FA7B     		ldrb	r2, [r7, #15]	@ zero_extendqisi2
 207 0052 FB78     		ldrb	r3, [r7, #3]	@ zero_extendqisi2
 208 0054 9A42     		cmp	r2, r3
 209 0056 E2D3     		bcc	.L9
 146:.\Generated_Source\PSoC5/CySpc.c ****     }
 147:.\Generated_Source\PSoC5/CySpc.c **** 
 148:.\Generated_Source\PSoC5/CySpc.c ****     return(i);
 210              		.loc 1 148 0 is_stmt 1
 211 0058 FB7B     		ldrb	r3, [r7, #15]	@ zero_extendqisi2
 149:.\Generated_Source\PSoC5/CySpc.c **** }
 212              		.loc 1 149 0
 213 005a 1846     		mov	r0, r3
 214 005c 07F11007 		add	r7, r7, #16
 215 0060 BD46     		mov	sp, r7
 216 0062 80BD     		pop	{r7, pc}
 217              		.cfi_endproc
 218              	.LFE2:
 219              		.size	CySpcReadData, .-CySpcReadData
 220              		.section	.text.CySpcLoadMultiByte,"ax",%progbits
 221              		.align	2
 222              		.global	CySpcLoadMultiByte
 223              		.thumb
 224              		.thumb_func
 225              		.type	CySpcLoadMultiByte, %function
 226              	CySpcLoadMultiByte:
 227              	.LFB3:
 150:.\Generated_Source\PSoC5/CySpc.c **** 
 151:.\Generated_Source\PSoC5/CySpc.c **** 
 152:.\Generated_Source\PSoC5/CySpc.c **** /*******************************************************************************
 153:.\Generated_Source\PSoC5/CySpc.c **** * Function Name: CySpcLoadMultiByte
 154:.\Generated_Source\PSoC5/CySpc.c **** ********************************************************************************
 155:.\Generated_Source\PSoC5/CySpc.c **** * Summary:
 156:.\Generated_Source\PSoC5/CySpc.c **** *  Loads 1 to 32 bytes of data into the row latch of a Flash/EEPROM array.
 157:.\Generated_Source\PSoC5/CySpc.c **** *
 158:.\Generated_Source\PSoC5/CySpc.c **** * Parameters:
 159:.\Generated_Source\PSoC5/CySpc.c **** *  uint8 array:
 160:.\Generated_Source\PSoC5/CySpc.c **** *   Id of the array.
 161:.\Generated_Source\PSoC5/CySpc.c **** *
 162:.\Generated_Source\PSoC5/CySpc.c **** *  uint16 address:
 163:.\Generated_Source\PSoC5/CySpc.c **** *   Flash/eeprom addrress
 164:.\Generated_Source\PSoC5/CySpc.c **** *
 165:.\Generated_Source\PSoC5/CySpc.c **** *  uint8* buffer:
 166:.\Generated_Source\PSoC5/CySpc.c **** *   Data to load to the row latch
 167:.\Generated_Source\PSoC5/CySpc.c **** *
 168:.\Generated_Source\PSoC5/CySpc.c **** *  uint16 number:
ARM GAS  C:\Users\Robert\AppData\Local\Temp\cc0dkL6l.s 			page 8


 169:.\Generated_Source\PSoC5/CySpc.c **** *   Number bytes to load.
 170:.\Generated_Source\PSoC5/CySpc.c **** *
 171:.\Generated_Source\PSoC5/CySpc.c **** * Return:
 172:.\Generated_Source\PSoC5/CySpc.c **** *  CYRET_STARTED
 173:.\Generated_Source\PSoC5/CySpc.c **** *  CYRET_CANCELED
 174:.\Generated_Source\PSoC5/CySpc.c **** *  CYRET_LOCKED
 175:.\Generated_Source\PSoC5/CySpc.c **** *  CYRET_BAD_PARAM
 176:.\Generated_Source\PSoC5/CySpc.c **** *
 177:.\Generated_Source\PSoC5/CySpc.c **** *******************************************************************************/
 178:.\Generated_Source\PSoC5/CySpc.c **** cystatus CySpcLoadMultiByte(uint8 array, uint16 address, const uint8 buffer[], uint8 size)\
 179:.\Generated_Source\PSoC5/CySpc.c **** 
 180:.\Generated_Source\PSoC5/CySpc.c **** {
 228              		.loc 1 180 0
 229              		.cfi_startproc
 230              		@ args = 0, pretend = 0, frame = 16
 231              		@ frame_needed = 1, uses_anonymous_args = 0
 232              		@ link register save eliminated.
 233 0000 80B4     		push	{r7}
 234              	.LCFI9:
 235              		.cfi_def_cfa_offset 4
 236              		.cfi_offset 7, -4
 237 0002 85B0     		sub	sp, sp, #20
 238              	.LCFI10:
 239              		.cfi_def_cfa_offset 24
 240 0004 00AF     		add	r7, sp, #0
 241              	.LCFI11:
 242              		.cfi_def_cfa_register 7
 243 0006 3A60     		str	r2, [r7, #0]
 244 0008 0246     		mov	r2, r0
 245 000a FA71     		strb	r2, [r7, #7]
 246 000c 0A46     		mov	r2, r1	@ movhi
 247 000e BA80     		strh	r2, [r7, #4]	@ movhi
 248 0010 BB71     		strb	r3, [r7, #6]
 181:.\Generated_Source\PSoC5/CySpc.c ****     cystatus status = CYRET_STARTED;
 249              		.loc 1 181 0
 250 0012 4FF00703 		mov	r3, #7
 251 0016 FB60     		str	r3, [r7, #12]
 182:.\Generated_Source\PSoC5/CySpc.c ****     uint8 i;
 183:.\Generated_Source\PSoC5/CySpc.c **** 
 184:.\Generated_Source\PSoC5/CySpc.c ****     /***************************************************************************
 185:.\Generated_Source\PSoC5/CySpc.c ****     * Check if number is correct for array. Number must be less than
 186:.\Generated_Source\PSoC5/CySpc.c ****     * 32 for Flash or less than 16 for EEPROM.
 187:.\Generated_Source\PSoC5/CySpc.c ****     ***************************************************************************/
 188:.\Generated_Source\PSoC5/CySpc.c ****     if(((array < CY_SPC_LAST_FLASH_ARRAYID) && (size < 32u)) ||
 252              		.loc 1 188 0
 253 0018 FB79     		ldrb	r3, [r7, #7]	@ zero_extendqisi2
 254 001a 3E2B     		cmp	r3, #62
 255 001c 02D8     		bhi	.L11
 256              		.loc 1 188 0 is_stmt 0 discriminator 1
 257 001e BB79     		ldrb	r3, [r7, #6]	@ zero_extendqisi2
 258 0020 1F2B     		cmp	r3, #31
 259 0022 05D9     		bls	.L12
 260              	.L11:
 261              		.loc 1 188 0 discriminator 2
 262 0024 FB79     		ldrb	r3, [r7, #7]	@ zero_extendqisi2
 263 0026 3F2B     		cmp	r3, #63
 264 0028 6DD9     		bls	.L13
ARM GAS  C:\Users\Robert\AppData\Local\Temp\cc0dkL6l.s 			page 9


 189:.\Generated_Source\PSoC5/CySpc.c ****        ((array > CY_SPC_LAST_FLASH_ARRAYID) && (size < 16u)))
 265              		.loc 1 189 0 is_stmt 1
 266 002a BB79     		ldrb	r3, [r7, #6]	@ zero_extendqisi2
 267 002c 0F2B     		cmp	r3, #15
 268 002e 6AD8     		bhi	.L13
 269              	.L12:
 190:.\Generated_Source\PSoC5/CySpc.c ****     {
 191:.\Generated_Source\PSoC5/CySpc.c ****         if(CY_SPC_IDLE)
 270              		.loc 1 191 0
 271 0030 44F22273 		movw	r3, #18210
 272 0034 C4F20003 		movt	r3, 16384
 273 0038 1B78     		ldrb	r3, [r3, #0]
 274 003a DBB2     		uxtb	r3, r3
 275 003c 03F00203 		and	r3, r3, #2
 276 0040 002B     		cmp	r3, #0
 277 0042 5BD0     		beq	.L14
 192:.\Generated_Source\PSoC5/CySpc.c ****         {
 193:.\Generated_Source\PSoC5/CySpc.c ****             CY_SPC_CPU_DATA_REG = CY_SPC_KEY_ONE;
 278              		.loc 1 193 0
 279 0044 44F22073 		movw	r3, #18208
 280 0048 C4F20003 		movt	r3, 16384
 281 004c 4FF0B602 		mov	r2, #182
 282 0050 1A70     		strb	r2, [r3, #0]
 194:.\Generated_Source\PSoC5/CySpc.c ****             CY_SPC_CPU_DATA_REG = CY_SPC_KEY_TWO(CY_SPC_CMD_LD_MULTI_BYTE);
 283              		.loc 1 194 0
 284 0052 44F22073 		movw	r3, #18208
 285 0056 C4F20003 		movt	r3, 16384
 286 005a 4FF0D402 		mov	r2, #212
 287 005e 1A70     		strb	r2, [r3, #0]
 195:.\Generated_Source\PSoC5/CySpc.c ****             CY_SPC_CPU_DATA_REG = CY_SPC_CMD_LD_MULTI_BYTE;
 288              		.loc 1 195 0
 289 0060 44F22073 		movw	r3, #18208
 290 0064 C4F20003 		movt	r3, 16384
 291 0068 4FF00102 		mov	r2, #1
 292 006c 1A70     		strb	r2, [r3, #0]
 196:.\Generated_Source\PSoC5/CySpc.c **** 
 197:.\Generated_Source\PSoC5/CySpc.c ****             if(CY_SPC_BUSY)
 293              		.loc 1 197 0
 294 006e 44F22273 		movw	r3, #18210
 295 0072 C4F20003 		movt	r3, 16384
 296 0076 1B78     		ldrb	r3, [r3, #0]
 297 0078 DBB2     		uxtb	r3, r3
 298 007a 03F00203 		and	r3, r3, #2
 299 007e 002B     		cmp	r3, #0
 300 0080 38D1     		bne	.L15
 198:.\Generated_Source\PSoC5/CySpc.c ****             {
 199:.\Generated_Source\PSoC5/CySpc.c ****                 CY_SPC_CPU_DATA_REG = array;
 301              		.loc 1 199 0
 302 0082 44F22073 		movw	r3, #18208
 303 0086 C4F20003 		movt	r3, 16384
 304 008a FA79     		ldrb	r2, [r7, #7]
 305 008c 1A70     		strb	r2, [r3, #0]
 200:.\Generated_Source\PSoC5/CySpc.c ****                 CY_SPC_CPU_DATA_REG = 1u & HI8(address);
 306              		.loc 1 200 0
 307 008e 44F22073 		movw	r3, #18208
 308 0092 C4F20003 		movt	r3, 16384
 309 0096 BA88     		ldrh	r2, [r7, #4]
ARM GAS  C:\Users\Robert\AppData\Local\Temp\cc0dkL6l.s 			page 10


 310 0098 4FEA1222 		lsr	r2, r2, #8
 311 009c 92B2     		uxth	r2, r2
 312 009e D2B2     		uxtb	r2, r2
 313 00a0 02F00102 		and	r2, r2, #1
 314 00a4 D2B2     		uxtb	r2, r2
 315 00a6 1A70     		strb	r2, [r3, #0]
 201:.\Generated_Source\PSoC5/CySpc.c ****                 CY_SPC_CPU_DATA_REG = LO8(address);
 316              		.loc 1 201 0
 317 00a8 44F22073 		movw	r3, #18208
 318 00ac C4F20003 		movt	r3, 16384
 319 00b0 BA88     		ldrh	r2, [r7, #4]	@ movhi
 320 00b2 D2B2     		uxtb	r2, r2
 321 00b4 1A70     		strb	r2, [r3, #0]
 202:.\Generated_Source\PSoC5/CySpc.c ****                 CY_SPC_CPU_DATA_REG = ((uint8)(size - 1u));
 322              		.loc 1 202 0
 323 00b6 44F22073 		movw	r3, #18208
 324 00ba C4F20003 		movt	r3, 16384
 325 00be BA79     		ldrb	r2, [r7, #6]
 326 00c0 02F1FF32 		add	r2, r2, #-1
 327 00c4 D2B2     		uxtb	r2, r2
 328 00c6 1A70     		strb	r2, [r3, #0]
 203:.\Generated_Source\PSoC5/CySpc.c **** 
 204:.\Generated_Source\PSoC5/CySpc.c ****                 for(i = 0u; i < size; i++)
 329              		.loc 1 204 0
 330 00c8 4FF00003 		mov	r3, #0
 331 00cc FB72     		strb	r3, [r7, #11]
 332 00ce 0CE0     		b	.L16
 333              	.L17:
 205:.\Generated_Source\PSoC5/CySpc.c ****                 {
 206:.\Generated_Source\PSoC5/CySpc.c ****                     CY_SPC_CPU_DATA_REG = buffer[i];
 334              		.loc 1 206 0 discriminator 2
 335 00d0 44F22073 		movw	r3, #18208
 336 00d4 C4F20003 		movt	r3, 16384
 337 00d8 FA7A     		ldrb	r2, [r7, #11]	@ zero_extendqisi2
 338 00da 3968     		ldr	r1, [r7, #0]
 339 00dc 8A18     		adds	r2, r1, r2
 340 00de 1278     		ldrb	r2, [r2, #0]	@ zero_extendqisi2
 341 00e0 1A70     		strb	r2, [r3, #0]
 204:.\Generated_Source\PSoC5/CySpc.c ****                 for(i = 0u; i < size; i++)
 342              		.loc 1 204 0 discriminator 2
 343 00e2 FB7A     		ldrb	r3, [r7, #11]
 344 00e4 03F10103 		add	r3, r3, #1
 345 00e8 FB72     		strb	r3, [r7, #11]
 346              	.L16:
 204:.\Generated_Source\PSoC5/CySpc.c ****                 for(i = 0u; i < size; i++)
 347              		.loc 1 204 0 is_stmt 0 discriminator 1
 348 00ea FA7A     		ldrb	r2, [r7, #11]	@ zero_extendqisi2
 349 00ec BB79     		ldrb	r3, [r7, #6]	@ zero_extendqisi2
 350 00ee 9A42     		cmp	r2, r3
 351 00f0 EED3     		bcc	.L17
 204:.\Generated_Source\PSoC5/CySpc.c ****                 for(i = 0u; i < size; i++)
 352              		.loc 1 204 0
 353 00f2 07E0     		b	.L21
 354              	.L15:
 207:.\Generated_Source\PSoC5/CySpc.c ****                 }
 208:.\Generated_Source\PSoC5/CySpc.c ****             }
 209:.\Generated_Source\PSoC5/CySpc.c ****             else
ARM GAS  C:\Users\Robert\AppData\Local\Temp\cc0dkL6l.s 			page 11


 210:.\Generated_Source\PSoC5/CySpc.c ****             {
 211:.\Generated_Source\PSoC5/CySpc.c ****                 status = CYRET_CANCELED;
 355              		.loc 1 211 0 is_stmt 1
 356 00f4 4FF00903 		mov	r3, #9
 357 00f8 FB60     		str	r3, [r7, #12]
 191:.\Generated_Source\PSoC5/CySpc.c ****         if(CY_SPC_IDLE)
 358              		.loc 1 191 0
 359 00fa 07E0     		b	.L19
 360              	.L14:
 212:.\Generated_Source\PSoC5/CySpc.c ****             }
 213:.\Generated_Source\PSoC5/CySpc.c ****         }
 214:.\Generated_Source\PSoC5/CySpc.c ****         else
 215:.\Generated_Source\PSoC5/CySpc.c ****         {
 216:.\Generated_Source\PSoC5/CySpc.c ****             status = CYRET_LOCKED;
 361              		.loc 1 216 0
 362 00fc 4FF00403 		mov	r3, #4
 363 0100 FB60     		str	r3, [r7, #12]
 191:.\Generated_Source\PSoC5/CySpc.c ****         if(CY_SPC_IDLE)
 364              		.loc 1 191 0
 365 0102 03E0     		b	.L19
 366              	.L21:
 367 0104 02E0     		b	.L19
 368              	.L13:
 217:.\Generated_Source\PSoC5/CySpc.c ****         }
 218:.\Generated_Source\PSoC5/CySpc.c ****     }
 219:.\Generated_Source\PSoC5/CySpc.c ****     else
 220:.\Generated_Source\PSoC5/CySpc.c ****     {
 221:.\Generated_Source\PSoC5/CySpc.c ****         status = CYRET_BAD_PARAM;
 369              		.loc 1 221 0
 370 0106 4FF00103 		mov	r3, #1
 371 010a FB60     		str	r3, [r7, #12]
 372              	.L19:
 222:.\Generated_Source\PSoC5/CySpc.c ****     }
 223:.\Generated_Source\PSoC5/CySpc.c **** 
 224:.\Generated_Source\PSoC5/CySpc.c ****     return(status);
 373              		.loc 1 224 0
 374 010c FB68     		ldr	r3, [r7, #12]
 225:.\Generated_Source\PSoC5/CySpc.c **** }
 375              		.loc 1 225 0
 376 010e 1846     		mov	r0, r3
 377 0110 07F11407 		add	r7, r7, #20
 378 0114 BD46     		mov	sp, r7
 379 0116 80BC     		pop	{r7}
 380 0118 7047     		bx	lr
 381              		.cfi_endproc
 382              	.LFE3:
 383              		.size	CySpcLoadMultiByte, .-CySpcLoadMultiByte
 384 011a 00BF     		.section	.text.CySpcLoadRow,"ax",%progbits
 385              		.align	2
 386              		.global	CySpcLoadRow
 387              		.thumb
 388              		.thumb_func
 389              		.type	CySpcLoadRow, %function
 390              	CySpcLoadRow:
 391              	.LFB4:
 226:.\Generated_Source\PSoC5/CySpc.c **** 
 227:.\Generated_Source\PSoC5/CySpc.c **** 
ARM GAS  C:\Users\Robert\AppData\Local\Temp\cc0dkL6l.s 			page 12


 228:.\Generated_Source\PSoC5/CySpc.c **** /*******************************************************************************
 229:.\Generated_Source\PSoC5/CySpc.c **** * Function Name: CySpcLoadRow
 230:.\Generated_Source\PSoC5/CySpc.c **** ********************************************************************************
 231:.\Generated_Source\PSoC5/CySpc.c **** * Summary:
 232:.\Generated_Source\PSoC5/CySpc.c **** *  Loads a row of data into the row latch of a Flash/EEPROM array.
 233:.\Generated_Source\PSoC5/CySpc.c **** *
 234:.\Generated_Source\PSoC5/CySpc.c **** * Parameters:
 235:.\Generated_Source\PSoC5/CySpc.c **** *  uint8 array:
 236:.\Generated_Source\PSoC5/CySpc.c **** *   Id of the array.
 237:.\Generated_Source\PSoC5/CySpc.c **** *
 238:.\Generated_Source\PSoC5/CySpc.c **** *  uint8* buffer:
 239:.\Generated_Source\PSoC5/CySpc.c **** *   Data to be loaded to the row latch
 240:.\Generated_Source\PSoC5/CySpc.c **** *
 241:.\Generated_Source\PSoC5/CySpc.c **** *  uint8 size:
 242:.\Generated_Source\PSoC5/CySpc.c **** *   The number of data bytes that the SPC expects to be written. Depends on the
 243:.\Generated_Source\PSoC5/CySpc.c **** *   type of the array and, if the array is Flash, whether ECC is being enabled
 244:.\Generated_Source\PSoC5/CySpc.c **** *   or not. There are following values: flash row latch size with ECC enabled,
 245:.\Generated_Source\PSoC5/CySpc.c **** *   flash row latch size with ECC disabled and EEPROM row latch size.
 246:.\Generated_Source\PSoC5/CySpc.c **** *
 247:.\Generated_Source\PSoC5/CySpc.c **** * Return:
 248:.\Generated_Source\PSoC5/CySpc.c **** *  CYRET_STARTED
 249:.\Generated_Source\PSoC5/CySpc.c **** *  CYRET_CANCELED
 250:.\Generated_Source\PSoC5/CySpc.c **** *  CYRET_LOCKED
 251:.\Generated_Source\PSoC5/CySpc.c **** *
 252:.\Generated_Source\PSoC5/CySpc.c **** *******************************************************************************/
 253:.\Generated_Source\PSoC5/CySpc.c **** cystatus CySpcLoadRow(uint8 array, const uint8 buffer[], uint16 size)
 254:.\Generated_Source\PSoC5/CySpc.c **** {
 392              		.loc 1 254 0
 393              		.cfi_startproc
 394              		@ args = 0, pretend = 0, frame = 16
 395              		@ frame_needed = 1, uses_anonymous_args = 0
 396              		@ link register save eliminated.
 397 0000 80B4     		push	{r7}
 398              	.LCFI12:
 399              		.cfi_def_cfa_offset 4
 400              		.cfi_offset 7, -4
 401 0002 85B0     		sub	sp, sp, #20
 402              	.LCFI13:
 403              		.cfi_def_cfa_offset 24
 404 0004 00AF     		add	r7, sp, #0
 405              	.LCFI14:
 406              		.cfi_def_cfa_register 7
 407 0006 3960     		str	r1, [r7, #0]
 408 0008 1346     		mov	r3, r2
 409 000a 0246     		mov	r2, r0
 410 000c FA71     		strb	r2, [r7, #7]
 411 000e BB80     		strh	r3, [r7, #4]	@ movhi
 255:.\Generated_Source\PSoC5/CySpc.c ****     cystatus status = CYRET_STARTED;
 412              		.loc 1 255 0
 413 0010 4FF00703 		mov	r3, #7
 414 0014 FB60     		str	r3, [r7, #12]
 256:.\Generated_Source\PSoC5/CySpc.c ****     uint16 i;
 257:.\Generated_Source\PSoC5/CySpc.c **** 
 258:.\Generated_Source\PSoC5/CySpc.c ****     /* Make sure the SPC is ready to accept command */
 259:.\Generated_Source\PSoC5/CySpc.c ****     if(CY_SPC_IDLE)
 415              		.loc 1 259 0
 416 0016 44F22273 		movw	r3, #18210
ARM GAS  C:\Users\Robert\AppData\Local\Temp\cc0dkL6l.s 			page 13


 417 001a C4F20003 		movt	r3, 16384
 418 001e 1B78     		ldrb	r3, [r3, #0]
 419 0020 DBB2     		uxtb	r3, r3
 420 0022 03F00203 		and	r3, r3, #2
 421 0026 002B     		cmp	r3, #0
 422 0028 3ED0     		beq	.L23
 260:.\Generated_Source\PSoC5/CySpc.c ****     {
 261:.\Generated_Source\PSoC5/CySpc.c ****         CY_SPC_CPU_DATA_REG = CY_SPC_KEY_ONE;
 423              		.loc 1 261 0
 424 002a 44F22073 		movw	r3, #18208
 425 002e C4F20003 		movt	r3, 16384
 426 0032 4FF0B602 		mov	r2, #182
 427 0036 1A70     		strb	r2, [r3, #0]
 262:.\Generated_Source\PSoC5/CySpc.c ****         CY_SPC_CPU_DATA_REG = CY_SPC_KEY_TWO(CY_SPC_CMD_LD_ROW);
 428              		.loc 1 262 0
 429 0038 44F22073 		movw	r3, #18208
 430 003c C4F20003 		movt	r3, 16384
 431 0040 4FF0D502 		mov	r2, #213
 432 0044 1A70     		strb	r2, [r3, #0]
 263:.\Generated_Source\PSoC5/CySpc.c ****         CY_SPC_CPU_DATA_REG = CY_SPC_CMD_LD_ROW;
 433              		.loc 1 263 0
 434 0046 44F22073 		movw	r3, #18208
 435 004a C4F20003 		movt	r3, 16384
 436 004e 4FF00202 		mov	r2, #2
 437 0052 1A70     		strb	r2, [r3, #0]
 264:.\Generated_Source\PSoC5/CySpc.c **** 
 265:.\Generated_Source\PSoC5/CySpc.c ****         /* Make sure the command was accepted */
 266:.\Generated_Source\PSoC5/CySpc.c ****         if(CY_SPC_BUSY)
 438              		.loc 1 266 0
 439 0054 44F22273 		movw	r3, #18210
 440 0058 C4F20003 		movt	r3, 16384
 441 005c 1B78     		ldrb	r3, [r3, #0]
 442 005e DBB2     		uxtb	r3, r3
 443 0060 03F00203 		and	r3, r3, #2
 444 0064 002B     		cmp	r3, #0
 445 0066 1BD1     		bne	.L24
 267:.\Generated_Source\PSoC5/CySpc.c ****         {
 268:.\Generated_Source\PSoC5/CySpc.c ****             CY_SPC_CPU_DATA_REG = array;
 446              		.loc 1 268 0
 447 0068 44F22073 		movw	r3, #18208
 448 006c C4F20003 		movt	r3, 16384
 449 0070 FA79     		ldrb	r2, [r7, #7]
 450 0072 1A70     		strb	r2, [r3, #0]
 269:.\Generated_Source\PSoC5/CySpc.c **** 
 270:.\Generated_Source\PSoC5/CySpc.c ****             for(i = 0u; i < size; i++)
 451              		.loc 1 270 0
 452 0074 4FF00003 		mov	r3, #0
 453 0078 7B81     		strh	r3, [r7, #10]	@ movhi
 454 007a 0CE0     		b	.L25
 455              	.L26:
 271:.\Generated_Source\PSoC5/CySpc.c ****             {
 272:.\Generated_Source\PSoC5/CySpc.c ****                 CY_SPC_CPU_DATA_REG = buffer[i];
 456              		.loc 1 272 0 discriminator 2
 457 007c 44F22073 		movw	r3, #18208
 458 0080 C4F20003 		movt	r3, 16384
 459 0084 7A89     		ldrh	r2, [r7, #10]
 460 0086 3968     		ldr	r1, [r7, #0]
ARM GAS  C:\Users\Robert\AppData\Local\Temp\cc0dkL6l.s 			page 14


 461 0088 8A18     		adds	r2, r1, r2
 462 008a 1278     		ldrb	r2, [r2, #0]	@ zero_extendqisi2
 463 008c 1A70     		strb	r2, [r3, #0]
 270:.\Generated_Source\PSoC5/CySpc.c ****             for(i = 0u; i < size; i++)
 464              		.loc 1 270 0 discriminator 2
 465 008e 7B89     		ldrh	r3, [r7, #10]	@ movhi
 466 0090 03F10103 		add	r3, r3, #1
 467 0094 7B81     		strh	r3, [r7, #10]	@ movhi
 468              	.L25:
 270:.\Generated_Source\PSoC5/CySpc.c ****             for(i = 0u; i < size; i++)
 469              		.loc 1 270 0 is_stmt 0 discriminator 1
 470 0096 7A89     		ldrh	r2, [r7, #10]
 471 0098 BB88     		ldrh	r3, [r7, #4]
 472 009a 9A42     		cmp	r2, r3
 473 009c EED3     		bcc	.L26
 270:.\Generated_Source\PSoC5/CySpc.c ****             for(i = 0u; i < size; i++)
 474              		.loc 1 270 0
 475 009e 06E0     		b	.L27
 476              	.L24:
 273:.\Generated_Source\PSoC5/CySpc.c ****             }
 274:.\Generated_Source\PSoC5/CySpc.c ****         }
 275:.\Generated_Source\PSoC5/CySpc.c ****         else
 276:.\Generated_Source\PSoC5/CySpc.c ****         {
 277:.\Generated_Source\PSoC5/CySpc.c ****             status = CYRET_CANCELED;
 477              		.loc 1 277 0 is_stmt 1
 478 00a0 4FF00903 		mov	r3, #9
 479 00a4 FB60     		str	r3, [r7, #12]
 480 00a6 02E0     		b	.L27
 481              	.L23:
 278:.\Generated_Source\PSoC5/CySpc.c ****         }
 279:.\Generated_Source\PSoC5/CySpc.c ****     }
 280:.\Generated_Source\PSoC5/CySpc.c ****     else
 281:.\Generated_Source\PSoC5/CySpc.c ****     {
 282:.\Generated_Source\PSoC5/CySpc.c ****         status = CYRET_LOCKED;
 482              		.loc 1 282 0
 483 00a8 4FF00403 		mov	r3, #4
 484 00ac FB60     		str	r3, [r7, #12]
 485              	.L27:
 283:.\Generated_Source\PSoC5/CySpc.c ****     }
 284:.\Generated_Source\PSoC5/CySpc.c **** 
 285:.\Generated_Source\PSoC5/CySpc.c ****     return(status);
 486              		.loc 1 285 0
 487 00ae FB68     		ldr	r3, [r7, #12]
 286:.\Generated_Source\PSoC5/CySpc.c **** }
 488              		.loc 1 286 0
 489 00b0 1846     		mov	r0, r3
 490 00b2 07F11407 		add	r7, r7, #20
 491 00b6 BD46     		mov	sp, r7
 492 00b8 80BC     		pop	{r7}
 493 00ba 7047     		bx	lr
 494              		.cfi_endproc
 495              	.LFE4:
 496              		.size	CySpcLoadRow, .-CySpcLoadRow
 497              		.section	.text.CySpcWriteRow,"ax",%progbits
 498              		.align	2
 499              		.global	CySpcWriteRow
 500              		.thumb
ARM GAS  C:\Users\Robert\AppData\Local\Temp\cc0dkL6l.s 			page 15


 501              		.thumb_func
 502              		.type	CySpcWriteRow, %function
 503              	CySpcWriteRow:
 504              	.LFB5:
 287:.\Generated_Source\PSoC5/CySpc.c **** 
 288:.\Generated_Source\PSoC5/CySpc.c **** 
 289:.\Generated_Source\PSoC5/CySpc.c **** /*******************************************************************************
 290:.\Generated_Source\PSoC5/CySpc.c **** * Function Name: CySpcWriteRow
 291:.\Generated_Source\PSoC5/CySpc.c **** ********************************************************************************
 292:.\Generated_Source\PSoC5/CySpc.c **** * Summary:
 293:.\Generated_Source\PSoC5/CySpc.c **** *  Erases then programs a row in Flash/EEPROM with data in row latch.
 294:.\Generated_Source\PSoC5/CySpc.c **** *
 295:.\Generated_Source\PSoC5/CySpc.c **** * Parameters:
 296:.\Generated_Source\PSoC5/CySpc.c **** *  uint8 array:
 297:.\Generated_Source\PSoC5/CySpc.c **** *   Id of the array.
 298:.\Generated_Source\PSoC5/CySpc.c **** *
 299:.\Generated_Source\PSoC5/CySpc.c **** *  uint16 address:
 300:.\Generated_Source\PSoC5/CySpc.c **** *   flash/eeprom addrress
 301:.\Generated_Source\PSoC5/CySpc.c **** *
 302:.\Generated_Source\PSoC5/CySpc.c **** *  uint8 tempPolarity:
 303:.\Generated_Source\PSoC5/CySpc.c **** *   temperature polarity.
 304:.\Generated_Source\PSoC5/CySpc.c **** *   1: the Temp Magnitude is interpreted as a positive value
 305:.\Generated_Source\PSoC5/CySpc.c **** *   0: the Temp Magnitude is interpreted as a negative value
 306:.\Generated_Source\PSoC5/CySpc.c **** *
 307:.\Generated_Source\PSoC5/CySpc.c **** *  uint8 tempMagnitude:
 308:.\Generated_Source\PSoC5/CySpc.c **** *   temperature magnitude.
 309:.\Generated_Source\PSoC5/CySpc.c **** *
 310:.\Generated_Source\PSoC5/CySpc.c **** * Return:
 311:.\Generated_Source\PSoC5/CySpc.c **** *  CYRET_STARTED
 312:.\Generated_Source\PSoC5/CySpc.c **** *  CYRET_CANCELED
 313:.\Generated_Source\PSoC5/CySpc.c **** *  CYRET_LOCKED
 314:.\Generated_Source\PSoC5/CySpc.c **** *
 315:.\Generated_Source\PSoC5/CySpc.c **** *******************************************************************************/
 316:.\Generated_Source\PSoC5/CySpc.c **** cystatus CySpcWriteRow(uint8 array, uint16 address, uint8 tempPolarity, uint8 tempMagnitude)\
 317:.\Generated_Source\PSoC5/CySpc.c **** 
 318:.\Generated_Source\PSoC5/CySpc.c **** {
 505              		.loc 1 318 0
 506              		.cfi_startproc
 507              		@ args = 0, pretend = 0, frame = 16
 508              		@ frame_needed = 1, uses_anonymous_args = 0
 509              		@ link register save eliminated.
 510 0000 80B4     		push	{r7}
 511              	.LCFI15:
 512              		.cfi_def_cfa_offset 4
 513              		.cfi_offset 7, -4
 514 0002 85B0     		sub	sp, sp, #20
 515              	.LCFI16:
 516              		.cfi_def_cfa_offset 24
 517 0004 00AF     		add	r7, sp, #0
 518              	.LCFI17:
 519              		.cfi_def_cfa_register 7
 520 0006 F871     		strb	r0, [r7, #7]
 521 0008 B980     		strh	r1, [r7, #4]	@ movhi
 522 000a BA71     		strb	r2, [r7, #6]
 523 000c FB70     		strb	r3, [r7, #3]
 319:.\Generated_Source\PSoC5/CySpc.c ****     cystatus status = CYRET_STARTED;
 524              		.loc 1 319 0
ARM GAS  C:\Users\Robert\AppData\Local\Temp\cc0dkL6l.s 			page 16


 525 000e 4FF00703 		mov	r3, #7
 526 0012 FB60     		str	r3, [r7, #12]
 320:.\Generated_Source\PSoC5/CySpc.c **** 
 321:.\Generated_Source\PSoC5/CySpc.c ****     /* Make sure the SPC is ready to accept command */
 322:.\Generated_Source\PSoC5/CySpc.c ****     if(CY_SPC_IDLE)
 527              		.loc 1 322 0
 528 0014 44F22273 		movw	r3, #18210
 529 0018 C4F20003 		movt	r3, 16384
 530 001c 1B78     		ldrb	r3, [r3, #0]
 531 001e DBB2     		uxtb	r3, r3
 532 0020 03F00203 		and	r3, r3, #2
 533 0024 002B     		cmp	r3, #0
 534 0026 46D0     		beq	.L30
 323:.\Generated_Source\PSoC5/CySpc.c ****     {
 324:.\Generated_Source\PSoC5/CySpc.c ****         CY_SPC_CPU_DATA_REG = CY_SPC_KEY_ONE;
 535              		.loc 1 324 0
 536 0028 44F22073 		movw	r3, #18208
 537 002c C4F20003 		movt	r3, 16384
 538 0030 4FF0B602 		mov	r2, #182
 539 0034 1A70     		strb	r2, [r3, #0]
 325:.\Generated_Source\PSoC5/CySpc.c ****         CY_SPC_CPU_DATA_REG = CY_SPC_KEY_TWO(CY_SPC_CMD_WR_ROW);
 540              		.loc 1 325 0
 541 0036 44F22073 		movw	r3, #18208
 542 003a C4F20003 		movt	r3, 16384
 543 003e 4FF0D802 		mov	r2, #216
 544 0042 1A70     		strb	r2, [r3, #0]
 326:.\Generated_Source\PSoC5/CySpc.c ****         CY_SPC_CPU_DATA_REG = CY_SPC_CMD_WR_ROW;
 545              		.loc 1 326 0
 546 0044 44F22073 		movw	r3, #18208
 547 0048 C4F20003 		movt	r3, 16384
 548 004c 4FF00502 		mov	r2, #5
 549 0050 1A70     		strb	r2, [r3, #0]
 327:.\Generated_Source\PSoC5/CySpc.c **** 
 328:.\Generated_Source\PSoC5/CySpc.c ****         /* Make sure the command was accepted */
 329:.\Generated_Source\PSoC5/CySpc.c ****         if(CY_SPC_BUSY)
 550              		.loc 1 329 0
 551 0052 44F22273 		movw	r3, #18210
 552 0056 C4F20003 		movt	r3, 16384
 553 005a 1B78     		ldrb	r3, [r3, #0]
 554 005c DBB2     		uxtb	r3, r3
 555 005e 03F00203 		and	r3, r3, #2
 556 0062 002B     		cmp	r3, #0
 557 0064 23D1     		bne	.L31
 330:.\Generated_Source\PSoC5/CySpc.c ****         {
 331:.\Generated_Source\PSoC5/CySpc.c ****             CY_SPC_CPU_DATA_REG = array;
 558              		.loc 1 331 0
 559 0066 44F22073 		movw	r3, #18208
 560 006a C4F20003 		movt	r3, 16384
 561 006e FA79     		ldrb	r2, [r7, #7]
 562 0070 1A70     		strb	r2, [r3, #0]
 332:.\Generated_Source\PSoC5/CySpc.c ****             CY_SPC_CPU_DATA_REG = HI8(address);
 563              		.loc 1 332 0
 564 0072 44F22073 		movw	r3, #18208
 565 0076 C4F20003 		movt	r3, 16384
 566 007a BA88     		ldrh	r2, [r7, #4]
 567 007c 4FEA1222 		lsr	r2, r2, #8
 568 0080 92B2     		uxth	r2, r2
ARM GAS  C:\Users\Robert\AppData\Local\Temp\cc0dkL6l.s 			page 17


 569 0082 D2B2     		uxtb	r2, r2
 570 0084 1A70     		strb	r2, [r3, #0]
 333:.\Generated_Source\PSoC5/CySpc.c ****             CY_SPC_CPU_DATA_REG = LO8(address);
 571              		.loc 1 333 0
 572 0086 44F22073 		movw	r3, #18208
 573 008a C4F20003 		movt	r3, 16384
 574 008e BA88     		ldrh	r2, [r7, #4]	@ movhi
 575 0090 D2B2     		uxtb	r2, r2
 576 0092 1A70     		strb	r2, [r3, #0]
 334:.\Generated_Source\PSoC5/CySpc.c ****             CY_SPC_CPU_DATA_REG = tempPolarity;
 577              		.loc 1 334 0
 578 0094 44F22073 		movw	r3, #18208
 579 0098 C4F20003 		movt	r3, 16384
 580 009c BA79     		ldrb	r2, [r7, #6]
 581 009e 1A70     		strb	r2, [r3, #0]
 335:.\Generated_Source\PSoC5/CySpc.c ****             CY_SPC_CPU_DATA_REG = tempMagnitude;
 582              		.loc 1 335 0
 583 00a0 44F22073 		movw	r3, #18208
 584 00a4 C4F20003 		movt	r3, 16384
 585 00a8 FA78     		ldrb	r2, [r7, #3]
 586 00aa 1A70     		strb	r2, [r3, #0]
 587 00ac 06E0     		b	.L32
 588              	.L31:
 336:.\Generated_Source\PSoC5/CySpc.c ****         }
 337:.\Generated_Source\PSoC5/CySpc.c ****         else
 338:.\Generated_Source\PSoC5/CySpc.c ****         {
 339:.\Generated_Source\PSoC5/CySpc.c ****             status = CYRET_CANCELED;
 589              		.loc 1 339 0
 590 00ae 4FF00903 		mov	r3, #9
 591 00b2 FB60     		str	r3, [r7, #12]
 592 00b4 02E0     		b	.L32
 593              	.L30:
 340:.\Generated_Source\PSoC5/CySpc.c ****         }
 341:.\Generated_Source\PSoC5/CySpc.c ****     }
 342:.\Generated_Source\PSoC5/CySpc.c ****     else
 343:.\Generated_Source\PSoC5/CySpc.c ****     {
 344:.\Generated_Source\PSoC5/CySpc.c ****         status = CYRET_LOCKED;
 594              		.loc 1 344 0
 595 00b6 4FF00403 		mov	r3, #4
 596 00ba FB60     		str	r3, [r7, #12]
 597              	.L32:
 345:.\Generated_Source\PSoC5/CySpc.c ****     }
 346:.\Generated_Source\PSoC5/CySpc.c **** 
 347:.\Generated_Source\PSoC5/CySpc.c ****     return(status);
 598              		.loc 1 347 0
 599 00bc FB68     		ldr	r3, [r7, #12]
 348:.\Generated_Source\PSoC5/CySpc.c **** }
 600              		.loc 1 348 0
 601 00be 1846     		mov	r0, r3
 602 00c0 07F11407 		add	r7, r7, #20
 603 00c4 BD46     		mov	sp, r7
 604 00c6 80BC     		pop	{r7}
 605 00c8 7047     		bx	lr
 606              		.cfi_endproc
 607              	.LFE5:
 608              		.size	CySpcWriteRow, .-CySpcWriteRow
 609 00ca 00BF     		.section	.text.CySpcEraseSector,"ax",%progbits
ARM GAS  C:\Users\Robert\AppData\Local\Temp\cc0dkL6l.s 			page 18


 610              		.align	2
 611              		.global	CySpcEraseSector
 612              		.thumb
 613              		.thumb_func
 614              		.type	CySpcEraseSector, %function
 615              	CySpcEraseSector:
 616              	.LFB6:
 349:.\Generated_Source\PSoC5/CySpc.c **** 
 350:.\Generated_Source\PSoC5/CySpc.c **** 
 351:.\Generated_Source\PSoC5/CySpc.c **** /*******************************************************************************
 352:.\Generated_Source\PSoC5/CySpc.c **** * Function Name: CySpcEraseSector
 353:.\Generated_Source\PSoC5/CySpc.c **** ********************************************************************************
 354:.\Generated_Source\PSoC5/CySpc.c **** * Summary:
 355:.\Generated_Source\PSoC5/CySpc.c **** *  Erases all data in the addressed sector (block of 64 rows).
 356:.\Generated_Source\PSoC5/CySpc.c **** *
 357:.\Generated_Source\PSoC5/CySpc.c **** * Parameters:
 358:.\Generated_Source\PSoC5/CySpc.c **** *  uint8 array:
 359:.\Generated_Source\PSoC5/CySpc.c **** *   Id of the array.
 360:.\Generated_Source\PSoC5/CySpc.c **** *
 361:.\Generated_Source\PSoC5/CySpc.c **** *  uint8 sectorNumber:
 362:.\Generated_Source\PSoC5/CySpc.c **** *   Zero based sector number within Flash/EEPROM array
 363:.\Generated_Source\PSoC5/CySpc.c **** *
 364:.\Generated_Source\PSoC5/CySpc.c **** * Return:
 365:.\Generated_Source\PSoC5/CySpc.c **** *  CYRET_STARTED
 366:.\Generated_Source\PSoC5/CySpc.c **** *  CYRET_CANCELED
 367:.\Generated_Source\PSoC5/CySpc.c **** *  CYRET_LOCKED
 368:.\Generated_Source\PSoC5/CySpc.c **** *
 369:.\Generated_Source\PSoC5/CySpc.c **** *******************************************************************************/
 370:.\Generated_Source\PSoC5/CySpc.c **** cystatus CySpcEraseSector(uint8 array, uint8 sectorNumber)
 371:.\Generated_Source\PSoC5/CySpc.c **** {
 617              		.loc 1 371 0
 618              		.cfi_startproc
 619              		@ args = 0, pretend = 0, frame = 16
 620              		@ frame_needed = 1, uses_anonymous_args = 0
 621              		@ link register save eliminated.
 622 0000 80B4     		push	{r7}
 623              	.LCFI18:
 624              		.cfi_def_cfa_offset 4
 625              		.cfi_offset 7, -4
 626 0002 85B0     		sub	sp, sp, #20
 627              	.LCFI19:
 628              		.cfi_def_cfa_offset 24
 629 0004 00AF     		add	r7, sp, #0
 630              	.LCFI20:
 631              		.cfi_def_cfa_register 7
 632 0006 0246     		mov	r2, r0
 633 0008 0B46     		mov	r3, r1
 634 000a FA71     		strb	r2, [r7, #7]
 635 000c BB71     		strb	r3, [r7, #6]
 372:.\Generated_Source\PSoC5/CySpc.c ****     cystatus status = CYRET_STARTED;
 636              		.loc 1 372 0
 637 000e 4FF00703 		mov	r3, #7
 638 0012 FB60     		str	r3, [r7, #12]
 373:.\Generated_Source\PSoC5/CySpc.c **** 
 374:.\Generated_Source\PSoC5/CySpc.c ****     /* Make sure the SPC is ready to accept command */
 375:.\Generated_Source\PSoC5/CySpc.c ****     if(CY_SPC_IDLE)
 639              		.loc 1 375 0
ARM GAS  C:\Users\Robert\AppData\Local\Temp\cc0dkL6l.s 			page 19


 640 0014 44F22273 		movw	r3, #18210
 641 0018 C4F20003 		movt	r3, 16384
 642 001c 1B78     		ldrb	r3, [r3, #0]
 643 001e DBB2     		uxtb	r3, r3
 644 0020 03F00203 		and	r3, r3, #2
 645 0024 002B     		cmp	r3, #0
 646 0026 2FD0     		beq	.L35
 376:.\Generated_Source\PSoC5/CySpc.c ****     {
 377:.\Generated_Source\PSoC5/CySpc.c ****         CY_SPC_CPU_DATA_REG = CY_SPC_KEY_ONE;
 647              		.loc 1 377 0
 648 0028 44F22073 		movw	r3, #18208
 649 002c C4F20003 		movt	r3, 16384
 650 0030 4FF0B602 		mov	r2, #182
 651 0034 1A70     		strb	r2, [r3, #0]
 378:.\Generated_Source\PSoC5/CySpc.c ****         CY_SPC_CPU_DATA_REG = CY_SPC_KEY_TWO(CY_SPC_CMD_ER_SECTOR);
 652              		.loc 1 378 0
 653 0036 44F22073 		movw	r3, #18208
 654 003a C4F20003 		movt	r3, 16384
 655 003e 4FF0DB02 		mov	r2, #219
 656 0042 1A70     		strb	r2, [r3, #0]
 379:.\Generated_Source\PSoC5/CySpc.c ****         CY_SPC_CPU_DATA_REG = CY_SPC_CMD_ER_SECTOR;
 657              		.loc 1 379 0
 658 0044 44F22073 		movw	r3, #18208
 659 0048 C4F20003 		movt	r3, 16384
 660 004c 4FF00802 		mov	r2, #8
 661 0050 1A70     		strb	r2, [r3, #0]
 380:.\Generated_Source\PSoC5/CySpc.c **** 
 381:.\Generated_Source\PSoC5/CySpc.c ****         /* Make sure the command was accepted */
 382:.\Generated_Source\PSoC5/CySpc.c ****         if(CY_SPC_BUSY)
 662              		.loc 1 382 0
 663 0052 44F22273 		movw	r3, #18210
 664 0056 C4F20003 		movt	r3, 16384
 665 005a 1B78     		ldrb	r3, [r3, #0]
 666 005c DBB2     		uxtb	r3, r3
 667 005e 03F00203 		and	r3, r3, #2
 668 0062 002B     		cmp	r3, #0
 669 0064 0CD1     		bne	.L36
 383:.\Generated_Source\PSoC5/CySpc.c ****         {
 384:.\Generated_Source\PSoC5/CySpc.c ****             CY_SPC_CPU_DATA_REG = array;
 670              		.loc 1 384 0
 671 0066 44F22073 		movw	r3, #18208
 672 006a C4F20003 		movt	r3, 16384
 673 006e FA79     		ldrb	r2, [r7, #7]
 674 0070 1A70     		strb	r2, [r3, #0]
 385:.\Generated_Source\PSoC5/CySpc.c ****             CY_SPC_CPU_DATA_REG = sectorNumber;
 675              		.loc 1 385 0
 676 0072 44F22073 		movw	r3, #18208
 677 0076 C4F20003 		movt	r3, 16384
 678 007a BA79     		ldrb	r2, [r7, #6]
 679 007c 1A70     		strb	r2, [r3, #0]
 680 007e 06E0     		b	.L37
 681              	.L36:
 386:.\Generated_Source\PSoC5/CySpc.c ****         }
 387:.\Generated_Source\PSoC5/CySpc.c ****         else
 388:.\Generated_Source\PSoC5/CySpc.c ****         {
 389:.\Generated_Source\PSoC5/CySpc.c ****             status = CYRET_CANCELED;
 682              		.loc 1 389 0
ARM GAS  C:\Users\Robert\AppData\Local\Temp\cc0dkL6l.s 			page 20


 683 0080 4FF00903 		mov	r3, #9
 684 0084 FB60     		str	r3, [r7, #12]
 685 0086 02E0     		b	.L37
 686              	.L35:
 390:.\Generated_Source\PSoC5/CySpc.c ****         }
 391:.\Generated_Source\PSoC5/CySpc.c ****     }
 392:.\Generated_Source\PSoC5/CySpc.c ****     else
 393:.\Generated_Source\PSoC5/CySpc.c ****     {
 394:.\Generated_Source\PSoC5/CySpc.c ****         status = CYRET_LOCKED;
 687              		.loc 1 394 0
 688 0088 4FF00403 		mov	r3, #4
 689 008c FB60     		str	r3, [r7, #12]
 690              	.L37:
 395:.\Generated_Source\PSoC5/CySpc.c ****     }
 396:.\Generated_Source\PSoC5/CySpc.c **** 
 397:.\Generated_Source\PSoC5/CySpc.c ****     return(status);
 691              		.loc 1 397 0
 692 008e FB68     		ldr	r3, [r7, #12]
 398:.\Generated_Source\PSoC5/CySpc.c **** }
 693              		.loc 1 398 0
 694 0090 1846     		mov	r0, r3
 695 0092 07F11407 		add	r7, r7, #20
 696 0096 BD46     		mov	sp, r7
 697 0098 80BC     		pop	{r7}
 698 009a 7047     		bx	lr
 699              		.cfi_endproc
 700              	.LFE6:
 701              		.size	CySpcEraseSector, .-CySpcEraseSector
 702              		.section	.text.CySpcGetTemp,"ax",%progbits
 703              		.align	2
 704              		.global	CySpcGetTemp
 705              		.thumb
 706              		.thumb_func
 707              		.type	CySpcGetTemp, %function
 708              	CySpcGetTemp:
 709              	.LFB7:
 399:.\Generated_Source\PSoC5/CySpc.c **** 
 400:.\Generated_Source\PSoC5/CySpc.c **** 
 401:.\Generated_Source\PSoC5/CySpc.c **** /*******************************************************************************
 402:.\Generated_Source\PSoC5/CySpc.c **** * Function Name: CySpcGetTemp
 403:.\Generated_Source\PSoC5/CySpc.c **** ********************************************************************************
 404:.\Generated_Source\PSoC5/CySpc.c **** * Summary:
 405:.\Generated_Source\PSoC5/CySpc.c **** *  Returns the internal die temperature
 406:.\Generated_Source\PSoC5/CySpc.c **** *
 407:.\Generated_Source\PSoC5/CySpc.c **** * Parameters:
 408:.\Generated_Source\PSoC5/CySpc.c **** *  uint8 numSamples:
 409:.\Generated_Source\PSoC5/CySpc.c **** *   Number of samples. Valid values are 1-5, resulting in 2 - 32 samples
 410:.\Generated_Source\PSoC5/CySpc.c **** *   respectively.
 411:.\Generated_Source\PSoC5/CySpc.c **** *
 412:.\Generated_Source\PSoC5/CySpc.c **** * uint16 timerPeriod:
 413:.\Generated_Source\PSoC5/CySpc.c **** *   Number of ADC ACLK cycles. A valid 14 bit value is accepted, higher 2 bits
 414:.\Generated_Source\PSoC5/CySpc.c **** *   of 16 bit values are ignored.
 415:.\Generated_Source\PSoC5/CySpc.c **** *
 416:.\Generated_Source\PSoC5/CySpc.c **** * uint8 clkDivSelect:
 417:.\Generated_Source\PSoC5/CySpc.c **** *   ADC ACLK clock divide value. Valid values are 2 - 225.
 418:.\Generated_Source\PSoC5/CySpc.c **** *
 419:.\Generated_Source\PSoC5/CySpc.c **** * Return:
ARM GAS  C:\Users\Robert\AppData\Local\Temp\cc0dkL6l.s 			page 21


 420:.\Generated_Source\PSoC5/CySpc.c **** *  CYRET_STARTED
 421:.\Generated_Source\PSoC5/CySpc.c **** *  CYRET_CANCELED
 422:.\Generated_Source\PSoC5/CySpc.c **** *  CYRET_LOCKED
 423:.\Generated_Source\PSoC5/CySpc.c **** *
 424:.\Generated_Source\PSoC5/CySpc.c **** *******************************************************************************/
 425:.\Generated_Source\PSoC5/CySpc.c **** cystatus CySpcGetTemp(uint8 numSamples)
 426:.\Generated_Source\PSoC5/CySpc.c **** {
 710              		.loc 1 426 0
 711              		.cfi_startproc
 712              		@ args = 0, pretend = 0, frame = 16
 713              		@ frame_needed = 1, uses_anonymous_args = 0
 714              		@ link register save eliminated.
 715 0000 80B4     		push	{r7}
 716              	.LCFI21:
 717              		.cfi_def_cfa_offset 4
 718              		.cfi_offset 7, -4
 719 0002 85B0     		sub	sp, sp, #20
 720              	.LCFI22:
 721              		.cfi_def_cfa_offset 24
 722 0004 00AF     		add	r7, sp, #0
 723              	.LCFI23:
 724              		.cfi_def_cfa_register 7
 725 0006 0346     		mov	r3, r0
 726 0008 FB71     		strb	r3, [r7, #7]
 427:.\Generated_Source\PSoC5/CySpc.c ****     cystatus status = CYRET_STARTED;
 727              		.loc 1 427 0
 728 000a 4FF00703 		mov	r3, #7
 729 000e FB60     		str	r3, [r7, #12]
 428:.\Generated_Source\PSoC5/CySpc.c **** 
 429:.\Generated_Source\PSoC5/CySpc.c ****     /* Make sure the SPC is ready to accept command */
 430:.\Generated_Source\PSoC5/CySpc.c ****     if(CY_SPC_IDLE)
 730              		.loc 1 430 0
 731 0010 44F22273 		movw	r3, #18210
 732 0014 C4F20003 		movt	r3, 16384
 733 0018 1B78     		ldrb	r3, [r3, #0]
 734 001a DBB2     		uxtb	r3, r3
 735 001c 03F00203 		and	r3, r3, #2
 736 0020 002B     		cmp	r3, #0
 737 0022 29D0     		beq	.L40
 431:.\Generated_Source\PSoC5/CySpc.c ****     {
 432:.\Generated_Source\PSoC5/CySpc.c ****         CY_SPC_CPU_DATA_REG = CY_SPC_KEY_ONE;
 738              		.loc 1 432 0
 739 0024 44F22073 		movw	r3, #18208
 740 0028 C4F20003 		movt	r3, 16384
 741 002c 4FF0B602 		mov	r2, #182
 742 0030 1A70     		strb	r2, [r3, #0]
 433:.\Generated_Source\PSoC5/CySpc.c ****         CY_SPC_CPU_DATA_REG = CY_SPC_KEY_TWO(CY_SPC_CMD_GET_TEMP);
 743              		.loc 1 433 0
 744 0032 44F22073 		movw	r3, #18208
 745 0036 C4F20003 		movt	r3, 16384
 746 003a 4FF0E102 		mov	r2, #225
 747 003e 1A70     		strb	r2, [r3, #0]
 434:.\Generated_Source\PSoC5/CySpc.c ****         CY_SPC_CPU_DATA_REG = CY_SPC_CMD_GET_TEMP;
 748              		.loc 1 434 0
 749 0040 44F22073 		movw	r3, #18208
 750 0044 C4F20003 		movt	r3, 16384
 751 0048 4FF00E02 		mov	r2, #14
ARM GAS  C:\Users\Robert\AppData\Local\Temp\cc0dkL6l.s 			page 22


 752 004c 1A70     		strb	r2, [r3, #0]
 435:.\Generated_Source\PSoC5/CySpc.c **** 
 436:.\Generated_Source\PSoC5/CySpc.c ****         /* Make sure the command was accepted */
 437:.\Generated_Source\PSoC5/CySpc.c ****         if(CY_SPC_BUSY)
 753              		.loc 1 437 0
 754 004e 44F22273 		movw	r3, #18210
 755 0052 C4F20003 		movt	r3, 16384
 756 0056 1B78     		ldrb	r3, [r3, #0]
 757 0058 DBB2     		uxtb	r3, r3
 758 005a 03F00203 		and	r3, r3, #2
 759 005e 002B     		cmp	r3, #0
 760 0060 06D1     		bne	.L41
 438:.\Generated_Source\PSoC5/CySpc.c ****         {
 439:.\Generated_Source\PSoC5/CySpc.c ****             CY_SPC_CPU_DATA_REG = numSamples;
 761              		.loc 1 439 0
 762 0062 44F22073 		movw	r3, #18208
 763 0066 C4F20003 		movt	r3, 16384
 764 006a FA79     		ldrb	r2, [r7, #7]
 765 006c 1A70     		strb	r2, [r3, #0]
 766 006e 06E0     		b	.L42
 767              	.L41:
 440:.\Generated_Source\PSoC5/CySpc.c ****         }
 441:.\Generated_Source\PSoC5/CySpc.c ****         else
 442:.\Generated_Source\PSoC5/CySpc.c ****         {
 443:.\Generated_Source\PSoC5/CySpc.c ****             status = CYRET_CANCELED;
 768              		.loc 1 443 0
 769 0070 4FF00903 		mov	r3, #9
 770 0074 FB60     		str	r3, [r7, #12]
 771 0076 02E0     		b	.L42
 772              	.L40:
 444:.\Generated_Source\PSoC5/CySpc.c ****         }
 445:.\Generated_Source\PSoC5/CySpc.c ****     }
 446:.\Generated_Source\PSoC5/CySpc.c ****     else
 447:.\Generated_Source\PSoC5/CySpc.c ****     {
 448:.\Generated_Source\PSoC5/CySpc.c ****         status = CYRET_LOCKED;
 773              		.loc 1 448 0
 774 0078 4FF00403 		mov	r3, #4
 775 007c FB60     		str	r3, [r7, #12]
 776              	.L42:
 449:.\Generated_Source\PSoC5/CySpc.c ****     }
 450:.\Generated_Source\PSoC5/CySpc.c **** 
 451:.\Generated_Source\PSoC5/CySpc.c ****     return(status);
 777              		.loc 1 451 0
 778 007e FB68     		ldr	r3, [r7, #12]
 452:.\Generated_Source\PSoC5/CySpc.c **** }
 779              		.loc 1 452 0
 780 0080 1846     		mov	r0, r3
 781 0082 07F11407 		add	r7, r7, #20
 782 0086 BD46     		mov	sp, r7
 783 0088 80BC     		pop	{r7}
 784 008a 7047     		bx	lr
 785              		.cfi_endproc
 786              	.LFE7:
 787              		.size	CySpcGetTemp, .-CySpcGetTemp
 788              		.section	.text.CySpcLock,"ax",%progbits
 789              		.align	2
 790              		.global	CySpcLock
ARM GAS  C:\Users\Robert\AppData\Local\Temp\cc0dkL6l.s 			page 23


 791              		.thumb
 792              		.thumb_func
 793              		.type	CySpcLock, %function
 794              	CySpcLock:
 795              	.LFB8:
 453:.\Generated_Source\PSoC5/CySpc.c **** 
 454:.\Generated_Source\PSoC5/CySpc.c **** 
 455:.\Generated_Source\PSoC5/CySpc.c **** /*******************************************************************************
 456:.\Generated_Source\PSoC5/CySpc.c **** * Function Name: CySpcLock
 457:.\Generated_Source\PSoC5/CySpc.c **** ********************************************************************************
 458:.\Generated_Source\PSoC5/CySpc.c **** * Summary:
 459:.\Generated_Source\PSoC5/CySpc.c **** *  Locks the SPC so it can not be used by someone else:
 460:.\Generated_Source\PSoC5/CySpc.c **** *   - Saves wait-pipeline enable state and enable pipeline (PSoC5)
 461:.\Generated_Source\PSoC5/CySpc.c **** *
 462:.\Generated_Source\PSoC5/CySpc.c **** * Parameters:
 463:.\Generated_Source\PSoC5/CySpc.c **** *  Note
 464:.\Generated_Source\PSoC5/CySpc.c **** *
 465:.\Generated_Source\PSoC5/CySpc.c **** * Return:
 466:.\Generated_Source\PSoC5/CySpc.c **** *  CYRET_SUCCESS - if the resource was free.
 467:.\Generated_Source\PSoC5/CySpc.c **** *  CYRET_LOCKED  - if the SPC is in use.
 468:.\Generated_Source\PSoC5/CySpc.c **** *
 469:.\Generated_Source\PSoC5/CySpc.c **** *******************************************************************************/
 470:.\Generated_Source\PSoC5/CySpc.c **** cystatus CySpcLock(void)
 471:.\Generated_Source\PSoC5/CySpc.c **** {
 796              		.loc 1 471 0
 797              		.cfi_startproc
 798              		@ args = 0, pretend = 0, frame = 8
 799              		@ frame_needed = 1, uses_anonymous_args = 0
 800 0000 80B5     		push	{r7, lr}
 801              	.LCFI24:
 802              		.cfi_def_cfa_offset 8
 803              		.cfi_offset 7, -8
 804              		.cfi_offset 14, -4
 805 0002 82B0     		sub	sp, sp, #8
 806              	.LCFI25:
 807              		.cfi_def_cfa_offset 16
 808 0004 00AF     		add	r7, sp, #0
 809              	.LCFI26:
 810              		.cfi_def_cfa_register 7
 472:.\Generated_Source\PSoC5/CySpc.c ****     cystatus status = CYRET_LOCKED;
 811              		.loc 1 472 0
 812 0006 4FF00403 		mov	r3, #4
 813 000a 7B60     		str	r3, [r7, #4]
 473:.\Generated_Source\PSoC5/CySpc.c ****     uint8 interruptState;
 474:.\Generated_Source\PSoC5/CySpc.c **** 
 475:.\Generated_Source\PSoC5/CySpc.c ****     /* Enter critical section */
 476:.\Generated_Source\PSoC5/CySpc.c ****     interruptState = CyEnterCriticalSection();
 814              		.loc 1 476 0
 815 000c FFF7FEFF 		bl	CyEnterCriticalSection
 816 0010 0346     		mov	r3, r0
 817 0012 FB70     		strb	r3, [r7, #3]
 477:.\Generated_Source\PSoC5/CySpc.c **** 
 478:.\Generated_Source\PSoC5/CySpc.c ****     if(CY_SPC_UNLOCKED == SpcLockState)
 818              		.loc 1 478 0
 819 0014 40F20003 		movw	r3, #:lower16:SpcLockState
 820 0018 C0F20003 		movt	r3, #:upper16:SpcLockState
 821 001c 1B78     		ldrb	r3, [r3, #0]	@ zero_extendqisi2
ARM GAS  C:\Users\Robert\AppData\Local\Temp\cc0dkL6l.s 			page 24


 822 001e 002B     		cmp	r3, #0
 823 0020 28D1     		bne	.L45
 479:.\Generated_Source\PSoC5/CySpc.c ****     {
 480:.\Generated_Source\PSoC5/CySpc.c ****         SpcLockState = CY_SPC_LOCKED;
 824              		.loc 1 480 0
 825 0022 40F20003 		movw	r3, #:lower16:SpcLockState
 826 0026 C0F20003 		movt	r3, #:upper16:SpcLockState
 827 002a 4FF00102 		mov	r2, #1
 828 002e 1A70     		strb	r2, [r3, #0]
 481:.\Generated_Source\PSoC5/CySpc.c ****         status = CYRET_SUCCESS;
 829              		.loc 1 481 0
 830 0030 4FF00003 		mov	r3, #0
 831 0034 7B60     		str	r3, [r7, #4]
 482:.\Generated_Source\PSoC5/CySpc.c **** 
 483:.\Generated_Source\PSoC5/CySpc.c ****         #if(CY_PSOC5)
 484:.\Generated_Source\PSoC5/CySpc.c **** 
 485:.\Generated_Source\PSoC5/CySpc.c ****             if(0u != (CY_SPC_CPU_WAITPIPE_REG & CY_SPC_CPU_WAITPIPE_BYPASS))
 832              		.loc 1 485 0
 833 0036 4FF00403 		mov	r3, #4
 834 003a C4F20803 		movt	r3, 16392
 835 003e 1B68     		ldr	r3, [r3, #0]
 836 0040 03F00103 		and	r3, r3, #1
 837 0044 002B     		cmp	r3, #0
 838 0046 15D0     		beq	.L45
 486:.\Generated_Source\PSoC5/CySpc.c ****             {
 487:.\Generated_Source\PSoC5/CySpc.c ****                 /* Enable pipeline registers */
 488:.\Generated_Source\PSoC5/CySpc.c ****                 CY_SPC_CPU_WAITPIPE_REG &= ((uint32)(~CY_SPC_CPU_WAITPIPE_BYPASS));
 839              		.loc 1 488 0
 840 0048 4FF00403 		mov	r3, #4
 841 004c C4F20803 		movt	r3, 16392
 842 0050 4FF00402 		mov	r2, #4
 843 0054 C4F20802 		movt	r2, 16392
 844 0058 1268     		ldr	r2, [r2, #0]
 845 005a 22F00102 		bic	r2, r2, #1
 846 005e 1A60     		str	r2, [r3, #0]
 489:.\Generated_Source\PSoC5/CySpc.c **** 
 490:.\Generated_Source\PSoC5/CySpc.c ****                 /* At least 2 NOP instructions are recommended */
 491:.\Generated_Source\PSoC5/CySpc.c ****                 CY_NOP;
 847              		.loc 1 491 0
 848              	@ 491 ".\Generated_Source\PSoC5\CySpc.c" 1
 849 0060 00BF     		NOP
 850              	
 851              	@ 0 "" 2
 492:.\Generated_Source\PSoC5/CySpc.c ****                 CY_NOP;
 852              		.loc 1 492 0
 853              	@ 492 ".\Generated_Source\PSoC5\CySpc.c" 1
 854 0062 00BF     		NOP
 855              	
 856              	@ 0 "" 2
 493:.\Generated_Source\PSoC5/CySpc.c ****                 CY_NOP;
 857              		.loc 1 493 0
 858              	@ 493 ".\Generated_Source\PSoC5\CySpc.c" 1
 859 0064 00BF     		NOP
 860              	
 861              	@ 0 "" 2
 494:.\Generated_Source\PSoC5/CySpc.c **** 
 495:.\Generated_Source\PSoC5/CySpc.c ****                 spcWaitPipeBypass = CY_SPC_CPU_WAITPIPE_BYPASS;
ARM GAS  C:\Users\Robert\AppData\Local\Temp\cc0dkL6l.s 			page 25


 862              		.loc 1 495 0
 863              		.thumb
 864 0066 40F20003 		movw	r3, #:lower16:spcWaitPipeBypass
 865 006a C0F20003 		movt	r3, #:upper16:spcWaitPipeBypass
 866 006e 4FF00102 		mov	r2, #1
 867 0072 1A60     		str	r2, [r3, #0]
 868              	.L45:
 496:.\Generated_Source\PSoC5/CySpc.c ****             }
 497:.\Generated_Source\PSoC5/CySpc.c **** 
 498:.\Generated_Source\PSoC5/CySpc.c ****         #endif  /* (CY_PSOC5) */
 499:.\Generated_Source\PSoC5/CySpc.c ****     }
 500:.\Generated_Source\PSoC5/CySpc.c **** 
 501:.\Generated_Source\PSoC5/CySpc.c ****     /* Exit critical section */
 502:.\Generated_Source\PSoC5/CySpc.c ****     CyExitCriticalSection(interruptState);
 869              		.loc 1 502 0
 870 0074 FB78     		ldrb	r3, [r7, #3]	@ zero_extendqisi2
 871 0076 1846     		mov	r0, r3
 872 0078 FFF7FEFF 		bl	CyExitCriticalSection
 503:.\Generated_Source\PSoC5/CySpc.c **** 
 504:.\Generated_Source\PSoC5/CySpc.c ****     return(status);
 873              		.loc 1 504 0
 874 007c 7B68     		ldr	r3, [r7, #4]
 505:.\Generated_Source\PSoC5/CySpc.c **** }
 875              		.loc 1 505 0
 876 007e 1846     		mov	r0, r3
 877 0080 07F10807 		add	r7, r7, #8
 878 0084 BD46     		mov	sp, r7
 879 0086 80BD     		pop	{r7, pc}
 880              		.cfi_endproc
 881              	.LFE8:
 882              		.size	CySpcLock, .-CySpcLock
 883              		.section	.text.CySpcUnlock,"ax",%progbits
 884              		.align	2
 885              		.global	CySpcUnlock
 886              		.thumb
 887              		.thumb_func
 888              		.type	CySpcUnlock, %function
 889              	CySpcUnlock:
 890              	.LFB9:
 506:.\Generated_Source\PSoC5/CySpc.c **** 
 507:.\Generated_Source\PSoC5/CySpc.c **** 
 508:.\Generated_Source\PSoC5/CySpc.c **** /*******************************************************************************
 509:.\Generated_Source\PSoC5/CySpc.c **** * Function Name: CySpcUnlock
 510:.\Generated_Source\PSoC5/CySpc.c **** ********************************************************************************
 511:.\Generated_Source\PSoC5/CySpc.c **** * Summary:
 512:.\Generated_Source\PSoC5/CySpc.c **** *  Unlocks the SPC so it can be used by someone else:
 513:.\Generated_Source\PSoC5/CySpc.c **** *   - Restores wait-pipeline enable state (PSoC5)
 514:.\Generated_Source\PSoC5/CySpc.c **** *
 515:.\Generated_Source\PSoC5/CySpc.c **** * Parameters:
 516:.\Generated_Source\PSoC5/CySpc.c **** *  None
 517:.\Generated_Source\PSoC5/CySpc.c **** *
 518:.\Generated_Source\PSoC5/CySpc.c **** * Return:
 519:.\Generated_Source\PSoC5/CySpc.c **** *  None
 520:.\Generated_Source\PSoC5/CySpc.c **** *
 521:.\Generated_Source\PSoC5/CySpc.c **** *******************************************************************************/
 522:.\Generated_Source\PSoC5/CySpc.c **** void CySpcUnlock(void)
 523:.\Generated_Source\PSoC5/CySpc.c **** {
ARM GAS  C:\Users\Robert\AppData\Local\Temp\cc0dkL6l.s 			page 26


 891              		.loc 1 523 0
 892              		.cfi_startproc
 893              		@ args = 0, pretend = 0, frame = 8
 894              		@ frame_needed = 1, uses_anonymous_args = 0
 895 0000 80B5     		push	{r7, lr}
 896              	.LCFI27:
 897              		.cfi_def_cfa_offset 8
 898              		.cfi_offset 7, -8
 899              		.cfi_offset 14, -4
 900 0002 82B0     		sub	sp, sp, #8
 901              	.LCFI28:
 902              		.cfi_def_cfa_offset 16
 903 0004 00AF     		add	r7, sp, #0
 904              	.LCFI29:
 905              		.cfi_def_cfa_register 7
 524:.\Generated_Source\PSoC5/CySpc.c ****     uint8 interruptState;
 525:.\Generated_Source\PSoC5/CySpc.c **** 
 526:.\Generated_Source\PSoC5/CySpc.c ****     /* Enter critical section */
 527:.\Generated_Source\PSoC5/CySpc.c ****     interruptState = CyEnterCriticalSection();
 906              		.loc 1 527 0
 907 0006 FFF7FEFF 		bl	CyEnterCriticalSection
 908 000a 0346     		mov	r3, r0
 909 000c FB71     		strb	r3, [r7, #7]
 528:.\Generated_Source\PSoC5/CySpc.c **** 
 529:.\Generated_Source\PSoC5/CySpc.c ****     /* Release the SPC object */
 530:.\Generated_Source\PSoC5/CySpc.c ****     SpcLockState = CY_SPC_UNLOCKED;
 910              		.loc 1 530 0
 911 000e 40F20003 		movw	r3, #:lower16:SpcLockState
 912 0012 C0F20003 		movt	r3, #:upper16:SpcLockState
 913 0016 4FF00002 		mov	r2, #0
 914 001a 1A70     		strb	r2, [r3, #0]
 531:.\Generated_Source\PSoC5/CySpc.c **** 
 532:.\Generated_Source\PSoC5/CySpc.c ****     #if(CY_PSOC5)
 533:.\Generated_Source\PSoC5/CySpc.c **** 
 534:.\Generated_Source\PSoC5/CySpc.c ****         if(CY_SPC_CPU_WAITPIPE_BYPASS == spcWaitPipeBypass)
 915              		.loc 1 534 0
 916 001c 40F20003 		movw	r3, #:lower16:spcWaitPipeBypass
 917 0020 C0F20003 		movt	r3, #:upper16:spcWaitPipeBypass
 918 0024 1B68     		ldr	r3, [r3, #0]
 919 0026 012B     		cmp	r3, #1
 920 0028 15D1     		bne	.L48
 535:.\Generated_Source\PSoC5/CySpc.c ****         {
 536:.\Generated_Source\PSoC5/CySpc.c ****             /* Force to bypass pipeline registers */
 537:.\Generated_Source\PSoC5/CySpc.c ****             CY_SPC_CPU_WAITPIPE_REG |= CY_SPC_CPU_WAITPIPE_BYPASS;
 921              		.loc 1 537 0
 922 002a 4FF00403 		mov	r3, #4
 923 002e C4F20803 		movt	r3, 16392
 924 0032 4FF00402 		mov	r2, #4
 925 0036 C4F20802 		movt	r2, 16392
 926 003a 1268     		ldr	r2, [r2, #0]
 927 003c 42F00102 		orr	r2, r2, #1
 928 0040 1A60     		str	r2, [r3, #0]
 538:.\Generated_Source\PSoC5/CySpc.c **** 
 539:.\Generated_Source\PSoC5/CySpc.c ****             /* At least 2 NOP instructions are recommended */
 540:.\Generated_Source\PSoC5/CySpc.c ****             CY_NOP;
 929              		.loc 1 540 0
 930              	@ 540 ".\Generated_Source\PSoC5\CySpc.c" 1
ARM GAS  C:\Users\Robert\AppData\Local\Temp\cc0dkL6l.s 			page 27


 931 0042 00BF     		NOP
 932              	
 933              	@ 0 "" 2
 541:.\Generated_Source\PSoC5/CySpc.c ****             CY_NOP;
 934              		.loc 1 541 0
 935              	@ 541 ".\Generated_Source\PSoC5\CySpc.c" 1
 936 0044 00BF     		NOP
 937              	
 938              	@ 0 "" 2
 542:.\Generated_Source\PSoC5/CySpc.c ****             CY_NOP;
 939              		.loc 1 542 0
 940              	@ 542 ".\Generated_Source\PSoC5\CySpc.c" 1
 941 0046 00BF     		NOP
 942              	
 943              	@ 0 "" 2
 543:.\Generated_Source\PSoC5/CySpc.c **** 
 544:.\Generated_Source\PSoC5/CySpc.c ****             spcWaitPipeBypass = 0u;
 944              		.loc 1 544 0
 945              		.thumb
 946 0048 40F20003 		movw	r3, #:lower16:spcWaitPipeBypass
 947 004c C0F20003 		movt	r3, #:upper16:spcWaitPipeBypass
 948 0050 4FF00002 		mov	r2, #0
 949 0054 1A60     		str	r2, [r3, #0]
 950              	.L48:
 545:.\Generated_Source\PSoC5/CySpc.c ****         }
 546:.\Generated_Source\PSoC5/CySpc.c **** 
 547:.\Generated_Source\PSoC5/CySpc.c ****     #endif  /* (CY_PSOC5) */
 548:.\Generated_Source\PSoC5/CySpc.c **** 
 549:.\Generated_Source\PSoC5/CySpc.c ****     /* Exit critical section */
 550:.\Generated_Source\PSoC5/CySpc.c ****     CyExitCriticalSection(interruptState);
 951              		.loc 1 550 0
 952 0056 FB79     		ldrb	r3, [r7, #7]	@ zero_extendqisi2
 953 0058 1846     		mov	r0, r3
 954 005a FFF7FEFF 		bl	CyExitCriticalSection
 551:.\Generated_Source\PSoC5/CySpc.c **** }
 955              		.loc 1 551 0
 956 005e 07F10807 		add	r7, r7, #8
 957 0062 BD46     		mov	sp, r7
 958 0064 80BD     		pop	{r7, pc}
 959              		.cfi_endproc
 960              	.LFE9:
 961              		.size	CySpcUnlock, .-CySpcUnlock
 962 0066 00BF     		.text
 963              	.Letext0:
 964              		.file 2 ".\\Generated_Source\\PSoC5\\cytypes.h"