ARM GAS  C:\Users\Brian\AppData\Local\Temp\cc8oS3v4.s 			page 1


   1              		.syntax unified
   2              		.cpu cortex-m3
   3              		.fpu softvfp
   4              		.eabi_attribute 20, 1
   5              		.eabi_attribute 21, 1
   6              		.eabi_attribute 23, 3
   7              		.eabi_attribute 24, 1
   8              		.eabi_attribute 25, 1
   9              		.eabi_attribute 26, 1
  10              		.eabi_attribute 30, 6
  11              		.eabi_attribute 34, 1
  12              		.eabi_attribute 18, 4
  13              		.thumb
  14              		.file	"I2C_1.c"
  15              		.text
  16              	.Ltext0:
  17              		.cfi_sections	.debug_frame
  18              		.global	I2C_1_initVar
  19              		.bss
  20              		.type	I2C_1_initVar, %object
  21              		.size	I2C_1_initVar, 1
  22              	I2C_1_initVar:
  23 0000 00       		.space	1
  24              		.comm	I2C_1_state,1,1
  25              		.section	.text.I2C_1_Init,"ax",%progbits
  26              		.align	2
  27              		.global	I2C_1_Init
  28              		.thumb
  29              		.thumb_func
  30              		.type	I2C_1_Init, %function
  31              	I2C_1_Init:
  32              	.LFB0:
  33              		.file 1 ".\\Generated_Source\\PSoC5\\I2C_1.c"
   1:.\Generated_Source\PSoC5/I2C_1.c **** /*******************************************************************************
   2:.\Generated_Source\PSoC5/I2C_1.c **** * File Name: I2C_1.c
   3:.\Generated_Source\PSoC5/I2C_1.c **** * Version 3.30
   4:.\Generated_Source\PSoC5/I2C_1.c **** *
   5:.\Generated_Source\PSoC5/I2C_1.c **** * Description:
   6:.\Generated_Source\PSoC5/I2C_1.c **** *  This file provides the source code of APIs for the I2C component.
   7:.\Generated_Source\PSoC5/I2C_1.c **** *  Actual protocol and operation code resides in the interrupt service routine
   8:.\Generated_Source\PSoC5/I2C_1.c **** *  file.
   9:.\Generated_Source\PSoC5/I2C_1.c **** *
  10:.\Generated_Source\PSoC5/I2C_1.c **** * Note:
  11:.\Generated_Source\PSoC5/I2C_1.c **** *
  12:.\Generated_Source\PSoC5/I2C_1.c **** *******************************************************************************
  13:.\Generated_Source\PSoC5/I2C_1.c **** * Copyright 2008-2012, Cypress Semiconductor Corporation. All rights reserved.
  14:.\Generated_Source\PSoC5/I2C_1.c **** * You may use this file only in accordance with the license, terms, conditions,
  15:.\Generated_Source\PSoC5/I2C_1.c **** * disclaimers, and limitations in the end user license agreement accompanying
  16:.\Generated_Source\PSoC5/I2C_1.c **** * the software package with which this file was provided.
  17:.\Generated_Source\PSoC5/I2C_1.c **** *******************************************************************************/
  18:.\Generated_Source\PSoC5/I2C_1.c **** 
  19:.\Generated_Source\PSoC5/I2C_1.c **** #include "I2C_1_PVT.h"
  20:.\Generated_Source\PSoC5/I2C_1.c **** 
  21:.\Generated_Source\PSoC5/I2C_1.c **** 
  22:.\Generated_Source\PSoC5/I2C_1.c **** /**********************************
  23:.\Generated_Source\PSoC5/I2C_1.c **** *      System variables
  24:.\Generated_Source\PSoC5/I2C_1.c **** **********************************/
ARM GAS  C:\Users\Brian\AppData\Local\Temp\cc8oS3v4.s 			page 2


  25:.\Generated_Source\PSoC5/I2C_1.c **** 
  26:.\Generated_Source\PSoC5/I2C_1.c **** uint8 I2C_1_initVar = 0u;    /* Defines if component was initialized */
  27:.\Generated_Source\PSoC5/I2C_1.c **** 
  28:.\Generated_Source\PSoC5/I2C_1.c **** volatile uint8 I2C_1_state;  /* Current state of I2C FSM */
  29:.\Generated_Source\PSoC5/I2C_1.c **** 
  30:.\Generated_Source\PSoC5/I2C_1.c **** 
  31:.\Generated_Source\PSoC5/I2C_1.c **** /*******************************************************************************
  32:.\Generated_Source\PSoC5/I2C_1.c **** * Function Name: I2C_1_Init
  33:.\Generated_Source\PSoC5/I2C_1.c **** ********************************************************************************
  34:.\Generated_Source\PSoC5/I2C_1.c **** *
  35:.\Generated_Source\PSoC5/I2C_1.c **** * Summary:
  36:.\Generated_Source\PSoC5/I2C_1.c **** *  Initializes I2C registers with initial values provided from customizer.
  37:.\Generated_Source\PSoC5/I2C_1.c **** *
  38:.\Generated_Source\PSoC5/I2C_1.c **** * Parameters:
  39:.\Generated_Source\PSoC5/I2C_1.c **** *  None
  40:.\Generated_Source\PSoC5/I2C_1.c **** *
  41:.\Generated_Source\PSoC5/I2C_1.c **** * Return:
  42:.\Generated_Source\PSoC5/I2C_1.c **** *  None
  43:.\Generated_Source\PSoC5/I2C_1.c **** *
  44:.\Generated_Source\PSoC5/I2C_1.c **** * Global variables:
  45:.\Generated_Source\PSoC5/I2C_1.c **** *  None
  46:.\Generated_Source\PSoC5/I2C_1.c **** *
  47:.\Generated_Source\PSoC5/I2C_1.c **** * Reentrant:
  48:.\Generated_Source\PSoC5/I2C_1.c **** *  No
  49:.\Generated_Source\PSoC5/I2C_1.c **** *
  50:.\Generated_Source\PSoC5/I2C_1.c **** *******************************************************************************/
  51:.\Generated_Source\PSoC5/I2C_1.c **** void I2C_1_Init(void) 
  52:.\Generated_Source\PSoC5/I2C_1.c **** {
  34              		.loc 1 52 0
  35              		.cfi_startproc
  36              		@ args = 0, pretend = 0, frame = 0
  37              		@ frame_needed = 1, uses_anonymous_args = 0
  38 0000 80B5     		push	{r7, lr}
  39              	.LCFI0:
  40              		.cfi_def_cfa_offset 8
  41              		.cfi_offset 7, -8
  42              		.cfi_offset 14, -4
  43 0002 00AF     		add	r7, sp, #0
  44              	.LCFI1:
  45              		.cfi_def_cfa_register 7
  53:.\Generated_Source\PSoC5/I2C_1.c ****     #if(I2C_1_FF_IMPLEMENTED)
  54:.\Generated_Source\PSoC5/I2C_1.c ****         I2C_1_CFG_REG  = I2C_1_DEFAULT_CFG;
  46              		.loc 1 54 0
  47 0004 44F6D613 		movw	r3, #18902
  48 0008 C4F20003 		movt	r3, 16384
  49 000c 4FF00102 		mov	r2, #1
  50 0010 1A70     		strb	r2, [r3, #0]
  55:.\Generated_Source\PSoC5/I2C_1.c ****         I2C_1_XCFG_REG = I2C_1_DEFAULT_XCFG;
  51              		.loc 1 55 0
  52 0012 44F6C813 		movw	r3, #18888
  53 0016 C4F20003 		movt	r3, 16384
  54 001a 4FF08102 		mov	r2, #129
  55 001e 1A70     		strb	r2, [r3, #0]
  56:.\Generated_Source\PSoC5/I2C_1.c **** 
  57:.\Generated_Source\PSoC5/I2C_1.c ****         #if(CY_PSOC5A)
  58:.\Generated_Source\PSoC5/I2C_1.c ****             I2C_1_CLKDIV_REG  = LO8(I2C_1_DEFAULT_DIVIDE_FACTOR);
  59:.\Generated_Source\PSoC5/I2C_1.c ****         #else
ARM GAS  C:\Users\Brian\AppData\Local\Temp\cc8oS3v4.s 			page 3


  60:.\Generated_Source\PSoC5/I2C_1.c ****             I2C_1_CLKDIV1_REG = LO8(I2C_1_DEFAULT_DIVIDE_FACTOR);
  56              		.loc 1 60 0
  57 0020 44F6DB13 		movw	r3, #18907
  58 0024 C4F20003 		movt	r3, 16384
  59 0028 4FF00102 		mov	r2, #1
  60 002c 1A70     		strb	r2, [r3, #0]
  61:.\Generated_Source\PSoC5/I2C_1.c ****             I2C_1_CLKDIV2_REG = HI8(I2C_1_DEFAULT_DIVIDE_FACTOR);
  61              		.loc 1 61 0
  62 002e 44F6DC13 		movw	r3, #18908
  63 0032 C4F20003 		movt	r3, 16384
  64 0036 4FF00002 		mov	r2, #0
  65 003a 1A70     		strb	r2, [r3, #0]
  62:.\Generated_Source\PSoC5/I2C_1.c ****         #endif /* (CY_PSOC5A) */
  63:.\Generated_Source\PSoC5/I2C_1.c **** 
  64:.\Generated_Source\PSoC5/I2C_1.c ****     #else
  65:.\Generated_Source\PSoC5/I2C_1.c ****         uint8 enableInterrupts;
  66:.\Generated_Source\PSoC5/I2C_1.c **** 
  67:.\Generated_Source\PSoC5/I2C_1.c ****         I2C_1_CFG_REG      = I2C_1_DEFAULT_CFG;      /* control  */
  68:.\Generated_Source\PSoC5/I2C_1.c ****         I2C_1_INT_MASK_REG = I2C_1_DEFAULT_INT_MASK; /* int_mask */
  69:.\Generated_Source\PSoC5/I2C_1.c **** 
  70:.\Generated_Source\PSoC5/I2C_1.c ****         /* Enable interrupts from block */
  71:.\Generated_Source\PSoC5/I2C_1.c ****         enableInterrupts = CyEnterCriticalSection();
  72:.\Generated_Source\PSoC5/I2C_1.c ****         I2C_1_INT_ENABLE_REG |= I2C_1_INTR_ENABLE; /* aux_ctl */
  73:.\Generated_Source\PSoC5/I2C_1.c ****         CyExitCriticalSection(enableInterrupts);
  74:.\Generated_Source\PSoC5/I2C_1.c **** 
  75:.\Generated_Source\PSoC5/I2C_1.c ****         #if(I2C_1_MODE_MASTER_ENABLED)
  76:.\Generated_Source\PSoC5/I2C_1.c ****             I2C_1_MCLK_PRD_REG = I2C_1_DEFAULT_MCLK_PRD;
  77:.\Generated_Source\PSoC5/I2C_1.c ****             I2C_1_MCLK_CMP_REG = I2C_1_DEFAULT_MCLK_CMP;
  78:.\Generated_Source\PSoC5/I2C_1.c ****          #endif /* (I2C_1_MODE_MASTER_ENABLED) */
  79:.\Generated_Source\PSoC5/I2C_1.c **** 
  80:.\Generated_Source\PSoC5/I2C_1.c ****         #if(I2C_1_MODE_SLAVE_ENABLED)
  81:.\Generated_Source\PSoC5/I2C_1.c ****             I2C_1_PERIOD_REG = I2C_1_DEFAULT_PERIOD;
  82:.\Generated_Source\PSoC5/I2C_1.c ****         #endif  /* (I2C_1_MODE_SLAVE_ENABLED) */
  83:.\Generated_Source\PSoC5/I2C_1.c **** 
  84:.\Generated_Source\PSoC5/I2C_1.c ****     #endif /* (I2C_1_FF_IMPLEMENTED) */
  85:.\Generated_Source\PSoC5/I2C_1.c **** 
  86:.\Generated_Source\PSoC5/I2C_1.c ****     #if(I2C_1_TIMEOUT_ENABLED)
  87:.\Generated_Source\PSoC5/I2C_1.c ****         I2C_1_TimeoutInit();
  88:.\Generated_Source\PSoC5/I2C_1.c ****     #endif /* (I2C_1_TIMEOUT_ENABLED) */
  89:.\Generated_Source\PSoC5/I2C_1.c **** 
  90:.\Generated_Source\PSoC5/I2C_1.c ****     /* Disable Interrupt and set vector and priority */
  91:.\Generated_Source\PSoC5/I2C_1.c ****     CyIntDisable    (I2C_1_ISR_NUMBER);
  66              		.loc 1 91 0
  67 003c 4EF28013 		movw	r3, #57728
  68 0040 CEF20003 		movt	r3, 57344
  69 0044 4FF40042 		mov	r2, #32768
  70 0048 1A60     		str	r2, [r3, #0]
  92:.\Generated_Source\PSoC5/I2C_1.c ****     CyIntSetPriority(I2C_1_ISR_NUMBER, I2C_1_ISR_PRIORITY);
  71              		.loc 1 92 0
  72 004a 4FF00F00 		mov	r0, #15
  73 004e 4FF00701 		mov	r1, #7
  74 0052 FFF7FEFF 		bl	CyIntSetPriority
  93:.\Generated_Source\PSoC5/I2C_1.c ****     #if(I2C_1_INTERN_I2C_INTR_HANDLER)
  94:.\Generated_Source\PSoC5/I2C_1.c ****         (void) CyIntSetVector(I2C_1_ISR_NUMBER, &I2C_1_ISR);
  75              		.loc 1 94 0
  76 0056 4FF00F00 		mov	r0, #15
  77 005a 40F20001 		movw	r1, #:lower16:I2C_1_ISR
ARM GAS  C:\Users\Brian\AppData\Local\Temp\cc8oS3v4.s 			page 4


  78 005e C0F20001 		movt	r1, #:upper16:I2C_1_ISR
  79 0062 FFF7FEFF 		bl	CyIntSetVector
  95:.\Generated_Source\PSoC5/I2C_1.c ****     #endif /* (I2C_1_INTERN_I2C_INTR_HANDLER) */
  96:.\Generated_Source\PSoC5/I2C_1.c **** 
  97:.\Generated_Source\PSoC5/I2C_1.c **** 
  98:.\Generated_Source\PSoC5/I2C_1.c ****     /* Put state machine in idle state */
  99:.\Generated_Source\PSoC5/I2C_1.c ****     I2C_1_state = I2C_1_SM_IDLE;
  80              		.loc 1 99 0
  81 0066 40F20003 		movw	r3, #:lower16:I2C_1_state
  82 006a C0F20003 		movt	r3, #:upper16:I2C_1_state
  83 006e 4FF01002 		mov	r2, #16
  84 0072 1A70     		strb	r2, [r3, #0]
 100:.\Generated_Source\PSoC5/I2C_1.c **** 
 101:.\Generated_Source\PSoC5/I2C_1.c ****     #if(I2C_1_MODE_SLAVE_ENABLED)
 102:.\Generated_Source\PSoC5/I2C_1.c ****         /* Reset status and buffers index */
 103:.\Generated_Source\PSoC5/I2C_1.c ****         I2C_1_SlaveClearReadBuf();
  85              		.loc 1 103 0
  86 0074 FFF7FEFF 		bl	I2C_1_SlaveClearReadBuf
 104:.\Generated_Source\PSoC5/I2C_1.c ****         I2C_1_SlaveClearWriteBuf();
  87              		.loc 1 104 0
  88 0078 FFF7FEFF 		bl	I2C_1_SlaveClearWriteBuf
 105:.\Generated_Source\PSoC5/I2C_1.c ****         I2C_1_slStatus = 0u; /* Reset slave status */
  89              		.loc 1 105 0
  90 007c 40F20003 		movw	r3, #:lower16:I2C_1_slStatus
  91 0080 C0F20003 		movt	r3, #:upper16:I2C_1_slStatus
  92 0084 4FF00002 		mov	r2, #0
  93 0088 1A70     		strb	r2, [r3, #0]
 106:.\Generated_Source\PSoC5/I2C_1.c **** 
 107:.\Generated_Source\PSoC5/I2C_1.c ****         /* Set default address */
 108:.\Generated_Source\PSoC5/I2C_1.c ****         I2C_1_SlaveSetAddress(I2C_1_DEFAULT_ADDR);
  94              		.loc 1 108 0
  95 008a 4FF00800 		mov	r0, #8
  96 008e FFF7FEFF 		bl	I2C_1_SlaveSetAddress
 109:.\Generated_Source\PSoC5/I2C_1.c ****     #endif /* (I2C_1_MODE_SLAVE_ENABLED) */
 110:.\Generated_Source\PSoC5/I2C_1.c **** 
 111:.\Generated_Source\PSoC5/I2C_1.c ****     #if(I2C_1_MODE_MASTER_ENABLED)
 112:.\Generated_Source\PSoC5/I2C_1.c ****         /* Reset status and buffers index */
 113:.\Generated_Source\PSoC5/I2C_1.c ****         I2C_1_MasterClearReadBuf();
 114:.\Generated_Source\PSoC5/I2C_1.c ****         I2C_1_MasterClearWriteBuf();
 115:.\Generated_Source\PSoC5/I2C_1.c ****         (void) I2C_1_MasterClearStatus();
 116:.\Generated_Source\PSoC5/I2C_1.c ****     #endif /* (I2C_1_MODE_MASTER_ENABLED) */
 117:.\Generated_Source\PSoC5/I2C_1.c **** }
  97              		.loc 1 117 0
  98 0092 80BD     		pop	{r7, pc}
  99              		.cfi_endproc
 100              	.LFE0:
 101              		.size	I2C_1_Init, .-I2C_1_Init
 102              		.section	.text.I2C_1_Enable,"ax",%progbits
 103              		.align	2
 104              		.global	I2C_1_Enable
 105              		.thumb
 106              		.thumb_func
 107              		.type	I2C_1_Enable, %function
 108              	I2C_1_Enable:
 109              	.LFB1:
 118:.\Generated_Source\PSoC5/I2C_1.c **** 
 119:.\Generated_Source\PSoC5/I2C_1.c **** 
ARM GAS  C:\Users\Brian\AppData\Local\Temp\cc8oS3v4.s 			page 5


 120:.\Generated_Source\PSoC5/I2C_1.c **** /*******************************************************************************
 121:.\Generated_Source\PSoC5/I2C_1.c **** * Function Name: I2C_1_Enable
 122:.\Generated_Source\PSoC5/I2C_1.c **** ********************************************************************************
 123:.\Generated_Source\PSoC5/I2C_1.c **** *
 124:.\Generated_Source\PSoC5/I2C_1.c **** * Summary:
 125:.\Generated_Source\PSoC5/I2C_1.c **** *  Enables I2C operations.
 126:.\Generated_Source\PSoC5/I2C_1.c **** *
 127:.\Generated_Source\PSoC5/I2C_1.c **** * Parameters:
 128:.\Generated_Source\PSoC5/I2C_1.c **** *  None
 129:.\Generated_Source\PSoC5/I2C_1.c **** *
 130:.\Generated_Source\PSoC5/I2C_1.c **** * Return:
 131:.\Generated_Source\PSoC5/I2C_1.c **** *  None
 132:.\Generated_Source\PSoC5/I2C_1.c **** *
 133:.\Generated_Source\PSoC5/I2C_1.c **** * Global variables:
 134:.\Generated_Source\PSoC5/I2C_1.c **** *  None
 135:.\Generated_Source\PSoC5/I2C_1.c **** *
 136:.\Generated_Source\PSoC5/I2C_1.c **** *******************************************************************************/
 137:.\Generated_Source\PSoC5/I2C_1.c **** void I2C_1_Enable(void) 
 138:.\Generated_Source\PSoC5/I2C_1.c **** {
 110              		.loc 1 138 0
 111              		.cfi_startproc
 112              		@ args = 0, pretend = 0, frame = 8
 113              		@ frame_needed = 1, uses_anonymous_args = 0
 114 0000 80B5     		push	{r7, lr}
 115              	.LCFI2:
 116              		.cfi_def_cfa_offset 8
 117              		.cfi_offset 7, -8
 118              		.cfi_offset 14, -4
 119 0002 82B0     		sub	sp, sp, #8
 120              	.LCFI3:
 121              		.cfi_def_cfa_offset 16
 122 0004 00AF     		add	r7, sp, #0
 123              	.LCFI4:
 124              		.cfi_def_cfa_register 7
 139:.\Generated_Source\PSoC5/I2C_1.c ****     #if(I2C_1_FF_IMPLEMENTED)
 140:.\Generated_Source\PSoC5/I2C_1.c ****         uint8 enableInterrupts;
 141:.\Generated_Source\PSoC5/I2C_1.c **** 
 142:.\Generated_Source\PSoC5/I2C_1.c ****         /* Enable power to I2C FF block */
 143:.\Generated_Source\PSoC5/I2C_1.c ****         enableInterrupts = CyEnterCriticalSection();
 125              		.loc 1 143 0
 126 0006 FFF7FEFF 		bl	CyEnterCriticalSection
 127 000a 0346     		mov	r3, r0
 128 000c FB71     		strb	r3, [r7, #7]
 144:.\Generated_Source\PSoC5/I2C_1.c ****         I2C_1_ACT_PWRMGR_REG  |= I2C_1_ACT_PWR_EN;
 129              		.loc 1 144 0
 130 000e 44F2A533 		movw	r3, #17317
 131 0012 C4F20003 		movt	r3, 16384
 132 0016 44F2A532 		movw	r2, #17317
 133 001a C4F20002 		movt	r2, 16384
 134 001e 1278     		ldrb	r2, [r2, #0]
 135 0020 D2B2     		uxtb	r2, r2
 136 0022 42F00402 		orr	r2, r2, #4
 137 0026 D2B2     		uxtb	r2, r2
 138 0028 1A70     		strb	r2, [r3, #0]
 145:.\Generated_Source\PSoC5/I2C_1.c ****         I2C_1_STBY_PWRMGR_REG |= I2C_1_STBY_PWR_EN;
 139              		.loc 1 145 0
 140 002a 44F2B533 		movw	r3, #17333
ARM GAS  C:\Users\Brian\AppData\Local\Temp\cc8oS3v4.s 			page 6


 141 002e C4F20003 		movt	r3, 16384
 142 0032 44F2B532 		movw	r2, #17333
 143 0036 C4F20002 		movt	r2, 16384
 144 003a 1278     		ldrb	r2, [r2, #0]
 145 003c D2B2     		uxtb	r2, r2
 146 003e 42F00402 		orr	r2, r2, #4
 147 0042 D2B2     		uxtb	r2, r2
 148 0044 1A70     		strb	r2, [r3, #0]
 146:.\Generated_Source\PSoC5/I2C_1.c ****         CyExitCriticalSection(enableInterrupts);
 149              		.loc 1 146 0
 150 0046 FB79     		ldrb	r3, [r7, #7]	@ zero_extendqisi2
 151 0048 1846     		mov	r0, r3
 152 004a FFF7FEFF 		bl	CyExitCriticalSection
 147:.\Generated_Source\PSoC5/I2C_1.c **** 
 148:.\Generated_Source\PSoC5/I2C_1.c ****     #else
 149:.\Generated_Source\PSoC5/I2C_1.c **** 
 150:.\Generated_Source\PSoC5/I2C_1.c ****         #if(I2C_1_MODE_SLAVE_ENABLED)
 151:.\Generated_Source\PSoC5/I2C_1.c ****             uint8 enableInterrupts;
 152:.\Generated_Source\PSoC5/I2C_1.c ****         #endif /* (I2C_1_MODE_SLAVE_ENABLED) */
 153:.\Generated_Source\PSoC5/I2C_1.c **** 
 154:.\Generated_Source\PSoC5/I2C_1.c ****         #if(I2C_1_MODE_SLAVE_ENABLED)
 155:.\Generated_Source\PSoC5/I2C_1.c ****             /* Enable slave bit counter */
 156:.\Generated_Source\PSoC5/I2C_1.c ****             enableInterrupts = CyEnterCriticalSection();
 157:.\Generated_Source\PSoC5/I2C_1.c ****             I2C_1_COUNTER_AUX_CTL_REG |= I2C_1_CNT7_ENABLE;   /* aux_ctl */
 158:.\Generated_Source\PSoC5/I2C_1.c ****             CyExitCriticalSection(enableInterrupts);
 159:.\Generated_Source\PSoC5/I2C_1.c ****         #endif /* (I2C_1_MODE_SLAVE_ENABLED) */
 160:.\Generated_Source\PSoC5/I2C_1.c **** 
 161:.\Generated_Source\PSoC5/I2C_1.c ****         I2C_1_CFG_REG |= I2C_1_ENABLE_MS;
 162:.\Generated_Source\PSoC5/I2C_1.c **** 
 163:.\Generated_Source\PSoC5/I2C_1.c ****     #endif /* (I2C_1_FF_IMPLEMENTED) */
 164:.\Generated_Source\PSoC5/I2C_1.c **** 
 165:.\Generated_Source\PSoC5/I2C_1.c ****     #if(I2C_1_TIMEOUT_ENABLED)
 166:.\Generated_Source\PSoC5/I2C_1.c ****         I2C_1_TimeoutEnable();
 167:.\Generated_Source\PSoC5/I2C_1.c ****     #endif /* (I2C_1_TIMEOUT_ENABLED) */
 168:.\Generated_Source\PSoC5/I2C_1.c **** }
 153              		.loc 1 168 0
 154 004e 07F10807 		add	r7, r7, #8
 155 0052 BD46     		mov	sp, r7
 156 0054 80BD     		pop	{r7, pc}
 157              		.cfi_endproc
 158              	.LFE1:
 159              		.size	I2C_1_Enable, .-I2C_1_Enable
 160 0056 00BF     		.section	.text.I2C_1_Start,"ax",%progbits
 161              		.align	2
 162              		.global	I2C_1_Start
 163              		.thumb
 164              		.thumb_func
 165              		.type	I2C_1_Start, %function
 166              	I2C_1_Start:
 167              	.LFB2:
 169:.\Generated_Source\PSoC5/I2C_1.c **** 
 170:.\Generated_Source\PSoC5/I2C_1.c **** 
 171:.\Generated_Source\PSoC5/I2C_1.c **** /*******************************************************************************
 172:.\Generated_Source\PSoC5/I2C_1.c **** * Function Name: I2C_1_Start
 173:.\Generated_Source\PSoC5/I2C_1.c **** ********************************************************************************
 174:.\Generated_Source\PSoC5/I2C_1.c **** *
 175:.\Generated_Source\PSoC5/I2C_1.c **** * Summary:
ARM GAS  C:\Users\Brian\AppData\Local\Temp\cc8oS3v4.s 			page 7


 176:.\Generated_Source\PSoC5/I2C_1.c **** *  Starts the I2C hardware. Enables Active mode power template bits or clock
 177:.\Generated_Source\PSoC5/I2C_1.c **** *  gating as appropriate. It is required to be executed before I2C bus
 178:.\Generated_Source\PSoC5/I2C_1.c **** *  operation.
 179:.\Generated_Source\PSoC5/I2C_1.c **** *  The I2C interrupt remains disabled after this function call.
 180:.\Generated_Source\PSoC5/I2C_1.c **** *
 181:.\Generated_Source\PSoC5/I2C_1.c **** * Parameters:
 182:.\Generated_Source\PSoC5/I2C_1.c **** *  None
 183:.\Generated_Source\PSoC5/I2C_1.c **** *
 184:.\Generated_Source\PSoC5/I2C_1.c **** * Return:
 185:.\Generated_Source\PSoC5/I2C_1.c **** *  None
 186:.\Generated_Source\PSoC5/I2C_1.c **** *
 187:.\Generated_Source\PSoC5/I2C_1.c **** * Side Effects:
 188:.\Generated_Source\PSoC5/I2C_1.c **** *  This component automatically enables it's interrupt.  If I2C is enabled
 189:.\Generated_Source\PSoC5/I2C_1.c **** *  without the interrupt enabled, it could lock up the I2C bus.
 190:.\Generated_Source\PSoC5/I2C_1.c **** *
 191:.\Generated_Source\PSoC5/I2C_1.c **** * Global variables:
 192:.\Generated_Source\PSoC5/I2C_1.c **** *  I2C_1_initVar - used to check initial configuration, modified
 193:.\Generated_Source\PSoC5/I2C_1.c **** *  on first function call.
 194:.\Generated_Source\PSoC5/I2C_1.c **** *
 195:.\Generated_Source\PSoC5/I2C_1.c **** * Reentrant:
 196:.\Generated_Source\PSoC5/I2C_1.c **** *  No
 197:.\Generated_Source\PSoC5/I2C_1.c **** *
 198:.\Generated_Source\PSoC5/I2C_1.c **** *******************************************************************************/
 199:.\Generated_Source\PSoC5/I2C_1.c **** void I2C_1_Start(void) 
 200:.\Generated_Source\PSoC5/I2C_1.c **** {
 168              		.loc 1 200 0
 169              		.cfi_startproc
 170              		@ args = 0, pretend = 0, frame = 0
 171              		@ frame_needed = 1, uses_anonymous_args = 0
 172 0000 80B5     		push	{r7, lr}
 173              	.LCFI5:
 174              		.cfi_def_cfa_offset 8
 175              		.cfi_offset 7, -8
 176              		.cfi_offset 14, -4
 177 0002 00AF     		add	r7, sp, #0
 178              	.LCFI6:
 179              		.cfi_def_cfa_register 7
 201:.\Generated_Source\PSoC5/I2C_1.c ****     /* Initialize I2C registers, reset I2C buffer index and clears status */
 202:.\Generated_Source\PSoC5/I2C_1.c ****     if(0u == I2C_1_initVar)
 180              		.loc 1 202 0
 181 0004 40F20003 		movw	r3, #:lower16:I2C_1_initVar
 182 0008 C0F20003 		movt	r3, #:upper16:I2C_1_initVar
 183 000c 1B78     		ldrb	r3, [r3, #0]	@ zero_extendqisi2
 184 000e 002B     		cmp	r3, #0
 185 0010 08D1     		bne	.L4
 203:.\Generated_Source\PSoC5/I2C_1.c ****     {
 204:.\Generated_Source\PSoC5/I2C_1.c ****         I2C_1_Init();
 186              		.loc 1 204 0
 187 0012 FFF7FEFF 		bl	I2C_1_Init
 205:.\Generated_Source\PSoC5/I2C_1.c ****         I2C_1_initVar = 1u; /* Component initialized */
 188              		.loc 1 205 0
 189 0016 40F20003 		movw	r3, #:lower16:I2C_1_initVar
 190 001a C0F20003 		movt	r3, #:upper16:I2C_1_initVar
 191 001e 4FF00102 		mov	r2, #1
 192 0022 1A70     		strb	r2, [r3, #0]
 193              	.L4:
 206:.\Generated_Source\PSoC5/I2C_1.c ****     }
ARM GAS  C:\Users\Brian\AppData\Local\Temp\cc8oS3v4.s 			page 8


 207:.\Generated_Source\PSoC5/I2C_1.c **** 
 208:.\Generated_Source\PSoC5/I2C_1.c ****     I2C_1_Enable();
 194              		.loc 1 208 0
 195 0024 FFF7FEFF 		bl	I2C_1_Enable
 209:.\Generated_Source\PSoC5/I2C_1.c ****     I2C_1_EnableInt();
 196              		.loc 1 209 0
 197 0028 4FF46143 		mov	r3, #57600
 198 002c CEF20003 		movt	r3, 57344
 199 0030 4FF40042 		mov	r2, #32768
 200 0034 1A60     		str	r2, [r3, #0]
 210:.\Generated_Source\PSoC5/I2C_1.c **** }
 201              		.loc 1 210 0
 202 0036 80BD     		pop	{r7, pc}
 203              		.cfi_endproc
 204              	.LFE2:
 205              		.size	I2C_1_Start, .-I2C_1_Start
 206              		.section	.text.I2C_1_Stop,"ax",%progbits
 207              		.align	2
 208              		.global	I2C_1_Stop
 209              		.thumb
 210              		.thumb_func
 211              		.type	I2C_1_Stop, %function
 212              	I2C_1_Stop:
 213              	.LFB3:
 211:.\Generated_Source\PSoC5/I2C_1.c **** 
 212:.\Generated_Source\PSoC5/I2C_1.c **** 
 213:.\Generated_Source\PSoC5/I2C_1.c **** /*******************************************************************************
 214:.\Generated_Source\PSoC5/I2C_1.c **** * Function Name: I2C_1_Stop
 215:.\Generated_Source\PSoC5/I2C_1.c **** ********************************************************************************
 216:.\Generated_Source\PSoC5/I2C_1.c **** *
 217:.\Generated_Source\PSoC5/I2C_1.c **** * Summary:
 218:.\Generated_Source\PSoC5/I2C_1.c **** *  Disables I2C hardware and disables I2C interrupt. Disables Active mode power
 219:.\Generated_Source\PSoC5/I2C_1.c **** *  template bits or clock gating as appropriate.
 220:.\Generated_Source\PSoC5/I2C_1.c **** *
 221:.\Generated_Source\PSoC5/I2C_1.c **** * Parameters:
 222:.\Generated_Source\PSoC5/I2C_1.c **** *  None
 223:.\Generated_Source\PSoC5/I2C_1.c **** *
 224:.\Generated_Source\PSoC5/I2C_1.c **** * Return:
 225:.\Generated_Source\PSoC5/I2C_1.c **** *  None
 226:.\Generated_Source\PSoC5/I2C_1.c **** *
 227:.\Generated_Source\PSoC5/I2C_1.c **** *******************************************************************************/
 228:.\Generated_Source\PSoC5/I2C_1.c **** void I2C_1_Stop(void) 
 229:.\Generated_Source\PSoC5/I2C_1.c **** {
 214              		.loc 1 229 0
 215              		.cfi_startproc
 216              		@ args = 0, pretend = 0, frame = 8
 217              		@ frame_needed = 1, uses_anonymous_args = 0
 218 0000 80B5     		push	{r7, lr}
 219              	.LCFI7:
 220              		.cfi_def_cfa_offset 8
 221              		.cfi_offset 7, -8
 222              		.cfi_offset 14, -4
 223 0002 82B0     		sub	sp, sp, #8
 224              	.LCFI8:
 225              		.cfi_def_cfa_offset 16
 226 0004 00AF     		add	r7, sp, #0
 227              	.LCFI9:
ARM GAS  C:\Users\Brian\AppData\Local\Temp\cc8oS3v4.s 			page 9


 228              		.cfi_def_cfa_register 7
 230:.\Generated_Source\PSoC5/I2C_1.c ****     #if((I2C_1_FF_IMPLEMENTED)  || \
 231:.\Generated_Source\PSoC5/I2C_1.c ****         (I2C_1_UDB_IMPLEMENTED && I2C_1_MODE_SLAVE_ENABLED))
 232:.\Generated_Source\PSoC5/I2C_1.c ****         uint8 enableInterrupts;
 233:.\Generated_Source\PSoC5/I2C_1.c ****     #endif /* ((I2C_1_FF_IMPLEMENTED)  || \
 234:.\Generated_Source\PSoC5/I2C_1.c ****                (I2C_1_UDB_IMPLEMENTED && I2C_1_MODE_SLAVE_ENABLED)) */
 235:.\Generated_Source\PSoC5/I2C_1.c **** 
 236:.\Generated_Source\PSoC5/I2C_1.c ****     I2C_1_DisableInt();
 229              		.loc 1 236 0
 230 0006 4EF28013 		movw	r3, #57728
 231 000a CEF20003 		movt	r3, 57344
 232 000e 4FF40042 		mov	r2, #32768
 233 0012 1A60     		str	r2, [r3, #0]
 237:.\Generated_Source\PSoC5/I2C_1.c **** 
 238:.\Generated_Source\PSoC5/I2C_1.c ****     I2C_1_DISABLE_INT_ON_STOP;   /* Interrupt on Stop can be enabled by write */
 234              		.loc 1 238 0
 235 0014 44F6D613 		movw	r3, #18902
 236 0018 C4F20003 		movt	r3, 16384
 237 001c 44F6D612 		movw	r2, #18902
 238 0020 C4F20002 		movt	r2, 16384
 239 0024 1278     		ldrb	r2, [r2, #0]
 240 0026 D2B2     		uxtb	r2, r2
 241 0028 22F01002 		bic	r2, r2, #16
 242 002c D2B2     		uxtb	r2, r2
 243 002e 1A70     		strb	r2, [r3, #0]
 239:.\Generated_Source\PSoC5/I2C_1.c ****     (void) I2C_1_CSR_REG;        /* Clear CSR reg */
 244              		.loc 1 239 0
 245 0030 44F6D713 		movw	r3, #18903
 246 0034 C4F20003 		movt	r3, 16384
 247 0038 1B78     		ldrb	r3, [r3, #0]
 240:.\Generated_Source\PSoC5/I2C_1.c ****     
 241:.\Generated_Source\PSoC5/I2C_1.c ****     #if(I2C_1_TIMEOUT_ENABLED)
 242:.\Generated_Source\PSoC5/I2C_1.c ****         I2C_1_TimeoutStop();
 243:.\Generated_Source\PSoC5/I2C_1.c ****     #endif  /* End (I2C_1_TIMEOUT_ENABLED) */
 244:.\Generated_Source\PSoC5/I2C_1.c **** 
 245:.\Generated_Source\PSoC5/I2C_1.c ****     #if(I2C_1_FF_IMPLEMENTED)
 246:.\Generated_Source\PSoC5/I2C_1.c ****         #if(CY_PSOC3 || CY_PSOC5LP)
 247:.\Generated_Source\PSoC5/I2C_1.c ****             /* Store registers which are held in reset when Master and Slave bits are cleared */
 248:.\Generated_Source\PSoC5/I2C_1.c ****             #if(I2C_1_MODE_SLAVE_ENABLED)
 249:.\Generated_Source\PSoC5/I2C_1.c ****                 I2C_1_backup.addr = I2C_1_ADDR_REG;
 248              		.loc 1 249 0
 249 003a 44F6CA13 		movw	r3, #18890
 250 003e C4F20003 		movt	r3, 16384
 251 0042 1B78     		ldrb	r3, [r3, #0]
 252 0044 DAB2     		uxtb	r2, r3
 253 0046 40F20003 		movw	r3, #:lower16:I2C_1_backup
 254 004a C0F20003 		movt	r3, #:upper16:I2C_1_backup
 255 004e DA70     		strb	r2, [r3, #3]
 250:.\Generated_Source\PSoC5/I2C_1.c ****             #endif /* (I2C_1_MODE_SLAVE_ENABLED) */
 251:.\Generated_Source\PSoC5/I2C_1.c **** 
 252:.\Generated_Source\PSoC5/I2C_1.c ****             I2C_1_backup.clkDiv1  = I2C_1_CLKDIV1_REG;
 256              		.loc 1 252 0
 257 0050 44F6DB13 		movw	r3, #18907
 258 0054 C4F20003 		movt	r3, 16384
 259 0058 1B78     		ldrb	r3, [r3, #0]
 260 005a DAB2     		uxtb	r2, r3
 261 005c 40F20003 		movw	r3, #:lower16:I2C_1_backup
ARM GAS  C:\Users\Brian\AppData\Local\Temp\cc8oS3v4.s 			page 10


 262 0060 C0F20003 		movt	r3, #:upper16:I2C_1_backup
 263 0064 1A71     		strb	r2, [r3, #4]
 253:.\Generated_Source\PSoC5/I2C_1.c ****             I2C_1_backup.clkDiv2  = I2C_1_CLKDIV2_REG;
 264              		.loc 1 253 0
 265 0066 44F6DC13 		movw	r3, #18908
 266 006a C4F20003 		movt	r3, 16384
 267 006e 1B78     		ldrb	r3, [r3, #0]
 268 0070 DAB2     		uxtb	r2, r3
 269 0072 40F20003 		movw	r3, #:lower16:I2C_1_backup
 270 0076 C0F20003 		movt	r3, #:upper16:I2C_1_backup
 271 007a 5A71     		strb	r2, [r3, #5]
 254:.\Generated_Source\PSoC5/I2C_1.c **** 
 255:.\Generated_Source\PSoC5/I2C_1.c **** 
 256:.\Generated_Source\PSoC5/I2C_1.c ****             /* Reset FF block */
 257:.\Generated_Source\PSoC5/I2C_1.c ****             I2C_1_CFG_REG &= ((uint8) ~I2C_1_ENABLE_MS);
 272              		.loc 1 257 0
 273 007c 44F6D613 		movw	r3, #18902
 274 0080 C4F20003 		movt	r3, 16384
 275 0084 44F6D612 		movw	r2, #18902
 276 0088 C4F20002 		movt	r2, 16384
 277 008c 1278     		ldrb	r2, [r2, #0]
 278 008e D2B2     		uxtb	r2, r2
 279 0090 22F00102 		bic	r2, r2, #1
 280 0094 D2B2     		uxtb	r2, r2
 281 0096 1A70     		strb	r2, [r3, #0]
 258:.\Generated_Source\PSoC5/I2C_1.c ****             CyDelayUs(I2C_1_FF_RESET_DELAY);
 282              		.loc 1 258 0
 283 0098 4FF00200 		mov	r0, #2
 284 009c FFF7FEFF 		bl	CyDelayUs
 259:.\Generated_Source\PSoC5/I2C_1.c ****             I2C_1_CFG_REG |= ((uint8)  I2C_1_ENABLE_MS);
 285              		.loc 1 259 0
 286 00a0 44F6D613 		movw	r3, #18902
 287 00a4 C4F20003 		movt	r3, 16384
 288 00a8 44F6D612 		movw	r2, #18902
 289 00ac C4F20002 		movt	r2, 16384
 290 00b0 1278     		ldrb	r2, [r2, #0]
 291 00b2 D2B2     		uxtb	r2, r2
 292 00b4 42F00102 		orr	r2, r2, #1
 293 00b8 D2B2     		uxtb	r2, r2
 294 00ba 1A70     		strb	r2, [r3, #0]
 260:.\Generated_Source\PSoC5/I2C_1.c **** 
 261:.\Generated_Source\PSoC5/I2C_1.c **** 
 262:.\Generated_Source\PSoC5/I2C_1.c ****             /* Restore registers */
 263:.\Generated_Source\PSoC5/I2C_1.c ****             #if(I2C_1_MODE_SLAVE_ENABLED)
 264:.\Generated_Source\PSoC5/I2C_1.c ****                 I2C_1_ADDR_REG = I2C_1_backup.addr;
 295              		.loc 1 264 0
 296 00bc 44F6CA13 		movw	r3, #18890
 297 00c0 C4F20003 		movt	r3, 16384
 298 00c4 40F20002 		movw	r2, #:lower16:I2C_1_backup
 299 00c8 C0F20002 		movt	r2, #:upper16:I2C_1_backup
 300 00cc D278     		ldrb	r2, [r2, #3]	@ zero_extendqisi2
 301 00ce 1A70     		strb	r2, [r3, #0]
 265:.\Generated_Source\PSoC5/I2C_1.c ****             #endif /* (I2C_1_MODE_SLAVE_ENABLED) */
 266:.\Generated_Source\PSoC5/I2C_1.c **** 
 267:.\Generated_Source\PSoC5/I2C_1.c ****             I2C_1_CLKDIV1_REG = I2C_1_backup.clkDiv1;
 302              		.loc 1 267 0
 303 00d0 44F6DB13 		movw	r3, #18907
ARM GAS  C:\Users\Brian\AppData\Local\Temp\cc8oS3v4.s 			page 11


 304 00d4 C4F20003 		movt	r3, 16384
 305 00d8 40F20002 		movw	r2, #:lower16:I2C_1_backup
 306 00dc C0F20002 		movt	r2, #:upper16:I2C_1_backup
 307 00e0 1279     		ldrb	r2, [r2, #4]	@ zero_extendqisi2
 308 00e2 1A70     		strb	r2, [r3, #0]
 268:.\Generated_Source\PSoC5/I2C_1.c ****             I2C_1_CLKDIV2_REG = I2C_1_backup.clkDiv2;
 309              		.loc 1 268 0
 310 00e4 44F6DC13 		movw	r3, #18908
 311 00e8 C4F20003 		movt	r3, 16384
 312 00ec 40F20002 		movw	r2, #:lower16:I2C_1_backup
 313 00f0 C0F20002 		movt	r2, #:upper16:I2C_1_backup
 314 00f4 5279     		ldrb	r2, [r2, #5]	@ zero_extendqisi2
 315 00f6 1A70     		strb	r2, [r3, #0]
 269:.\Generated_Source\PSoC5/I2C_1.c **** 
 270:.\Generated_Source\PSoC5/I2C_1.c ****         #endif /* (CY_PSOC3 || CY_PSOC5LP) */
 271:.\Generated_Source\PSoC5/I2C_1.c **** 
 272:.\Generated_Source\PSoC5/I2C_1.c ****         /* Disable power to I2C block */
 273:.\Generated_Source\PSoC5/I2C_1.c ****         enableInterrupts = CyEnterCriticalSection();
 316              		.loc 1 273 0
 317 00f8 FFF7FEFF 		bl	CyEnterCriticalSection
 318 00fc 0346     		mov	r3, r0
 319 00fe FB71     		strb	r3, [r7, #7]
 274:.\Generated_Source\PSoC5/I2C_1.c ****         I2C_1_ACT_PWRMGR_REG  &= ((uint8) ~I2C_1_ACT_PWR_EN);
 320              		.loc 1 274 0
 321 0100 44F2A533 		movw	r3, #17317
 322 0104 C4F20003 		movt	r3, 16384
 323 0108 44F2A532 		movw	r2, #17317
 324 010c C4F20002 		movt	r2, 16384
 325 0110 1278     		ldrb	r2, [r2, #0]
 326 0112 D2B2     		uxtb	r2, r2
 327 0114 22F00402 		bic	r2, r2, #4
 328 0118 D2B2     		uxtb	r2, r2
 329 011a 1A70     		strb	r2, [r3, #0]
 275:.\Generated_Source\PSoC5/I2C_1.c ****         I2C_1_STBY_PWRMGR_REG &= ((uint8) ~I2C_1_STBY_PWR_EN);
 330              		.loc 1 275 0
 331 011c 44F2B533 		movw	r3, #17333
 332 0120 C4F20003 		movt	r3, 16384
 333 0124 44F2B532 		movw	r2, #17333
 334 0128 C4F20002 		movt	r2, 16384
 335 012c 1278     		ldrb	r2, [r2, #0]
 336 012e D2B2     		uxtb	r2, r2
 337 0130 22F00402 		bic	r2, r2, #4
 338 0134 D2B2     		uxtb	r2, r2
 339 0136 1A70     		strb	r2, [r3, #0]
 276:.\Generated_Source\PSoC5/I2C_1.c ****         CyExitCriticalSection(enableInterrupts);
 340              		.loc 1 276 0
 341 0138 FB79     		ldrb	r3, [r7, #7]	@ zero_extendqisi2
 342 013a 1846     		mov	r0, r3
 343 013c FFF7FEFF 		bl	CyExitCriticalSection
 277:.\Generated_Source\PSoC5/I2C_1.c **** 
 278:.\Generated_Source\PSoC5/I2C_1.c ****     #else
 279:.\Generated_Source\PSoC5/I2C_1.c **** 
 280:.\Generated_Source\PSoC5/I2C_1.c ****         #if(I2C_1_MODE_SLAVE_ENABLED)
 281:.\Generated_Source\PSoC5/I2C_1.c ****             /* Disable slave bit counter */
 282:.\Generated_Source\PSoC5/I2C_1.c ****             enableInterrupts = CyEnterCriticalSection();
 283:.\Generated_Source\PSoC5/I2C_1.c ****             I2C_1_COUNTER_AUX_CTL_REG &= ((uint8) ~I2C_1_CNT7_ENABLE);
 284:.\Generated_Source\PSoC5/I2C_1.c ****             CyExitCriticalSection(enableInterrupts);
ARM GAS  C:\Users\Brian\AppData\Local\Temp\cc8oS3v4.s 			page 12


 285:.\Generated_Source\PSoC5/I2C_1.c ****         #endif /* (I2C_1_MODE_SLAVE_ENABLED) */
 286:.\Generated_Source\PSoC5/I2C_1.c **** 
 287:.\Generated_Source\PSoC5/I2C_1.c ****         I2C_1_CFG_REG &= ((uint8) ~I2C_1_ENABLE_MS);
 288:.\Generated_Source\PSoC5/I2C_1.c **** 
 289:.\Generated_Source\PSoC5/I2C_1.c ****     #endif /* (I2C_1_FF_IMPLEMENTED) */
 290:.\Generated_Source\PSoC5/I2C_1.c **** 
 291:.\Generated_Source\PSoC5/I2C_1.c ****     I2C_1_ClearPendingInt();  /* Clear interrupt triggers on reset */
 344              		.loc 1 291 0
 345 0140 4EF28023 		movw	r3, #57984
 346 0144 CEF20003 		movt	r3, 57344
 347 0148 4FF40042 		mov	r2, #32768
 348 014c 1A60     		str	r2, [r3, #0]
 292:.\Generated_Source\PSoC5/I2C_1.c **** 
 293:.\Generated_Source\PSoC5/I2C_1.c ****     I2C_1_state = I2C_1_SM_IDLE;  /* Reset software FSM */
 349              		.loc 1 293 0
 350 014e 40F20003 		movw	r3, #:lower16:I2C_1_state
 351 0152 C0F20003 		movt	r3, #:upper16:I2C_1_state
 352 0156 4FF01002 		mov	r2, #16
 353 015a 1A70     		strb	r2, [r3, #0]
 294:.\Generated_Source\PSoC5/I2C_1.c **** }
 354              		.loc 1 294 0
 355 015c 07F10807 		add	r7, r7, #8
 356 0160 BD46     		mov	sp, r7
 357 0162 80BD     		pop	{r7, pc}
 358              		.cfi_endproc
 359              	.LFE3:
 360              		.size	I2C_1_Stop, .-I2C_1_Stop
 361              		.text
 362              	.Letext0:
 363              		.file 2 ".\\Generated_Source\\PSoC5\\cytypes.h"
 364              		.file 3 ".\\Generated_Source\\PSoC5\\I2C_1.h"
 365              		.file 4 ".\\Generated_Source\\PSoC5\\I2C_1_PVT.h"