ARM GAS  C:\Users\Robert\AppData\Local\Temp\ccEB72Xs.s 			page 1


   1              		.syntax unified
   2              		.cpu cortex-m3
   3              		.fpu softvfp
   4              		.eabi_attribute 20, 1
   5              		.eabi_attribute 21, 1
   6              		.eabi_attribute 23, 3
   7              		.eabi_attribute 24, 1
   8              		.eabi_attribute 25, 1
   9              		.eabi_attribute 26, 1
  10              		.eabi_attribute 30, 6
  11              		.eabi_attribute 34, 1
  12              		.eabi_attribute 18, 4
  13              		.thumb
  14              		.file	"I2C_1_PM.c"
  15              		.text
  16              	.Ltext0:
  17              		.cfi_sections	.debug_frame
  18              		.global	I2C_1_backup
  19              		.data
  20              		.align	2
  21              		.type	I2C_1_backup, %object
  22              		.size	I2C_1_backup, 6
  23              	I2C_1_backup:
  24 0000 00       		.byte	0
  25 0001 81       		.byte	-127
  26 0002 01       		.byte	1
  27 0003 08       		.byte	8
  28 0004 01       		.byte	1
  29 0005 00       		.byte	0
  30 0006 0000     		.section	.text.I2C_1_SaveConfig,"ax",%progbits
  31              		.align	2
  32              		.global	I2C_1_SaveConfig
  33              		.thumb
  34              		.thumb_func
  35              		.type	I2C_1_SaveConfig, %function
  36              	I2C_1_SaveConfig:
  37              	.LFB0:
  38              		.file 1 ".\\Generated_Source\\PSoC5\\I2C_1_PM.c"
   1:.\Generated_Source\PSoC5/I2C_1_PM.c **** /*******************************************************************************
   2:.\Generated_Source\PSoC5/I2C_1_PM.c **** * File Name: I2C_1_PM.c
   3:.\Generated_Source\PSoC5/I2C_1_PM.c **** * Version 3.30
   4:.\Generated_Source\PSoC5/I2C_1_PM.c **** *
   5:.\Generated_Source\PSoC5/I2C_1_PM.c **** * Description:
   6:.\Generated_Source\PSoC5/I2C_1_PM.c **** *  This file provides Low power mode APIs for I2C component.
   7:.\Generated_Source\PSoC5/I2C_1_PM.c **** *
   8:.\Generated_Source\PSoC5/I2C_1_PM.c **** * Note:
   9:.\Generated_Source\PSoC5/I2C_1_PM.c **** *  None
  10:.\Generated_Source\PSoC5/I2C_1_PM.c **** *
  11:.\Generated_Source\PSoC5/I2C_1_PM.c **** ********************************************************************************
  12:.\Generated_Source\PSoC5/I2C_1_PM.c **** * Copyright 2008-2012, Cypress Semiconductor Corporation.  All rights reserved.
  13:.\Generated_Source\PSoC5/I2C_1_PM.c **** * You may use this file only in accordance with the license, terms, conditions,
  14:.\Generated_Source\PSoC5/I2C_1_PM.c **** * disclaimers, and limitations in the end user license agreement accompanying
  15:.\Generated_Source\PSoC5/I2C_1_PM.c **** * the software package with which this file was provided.
  16:.\Generated_Source\PSoC5/I2C_1_PM.c **** *******************************************************************************/
  17:.\Generated_Source\PSoC5/I2C_1_PM.c **** 
  18:.\Generated_Source\PSoC5/I2C_1_PM.c **** #include "I2C_1_PVT.h"
  19:.\Generated_Source\PSoC5/I2C_1_PM.c **** 
ARM GAS  C:\Users\Robert\AppData\Local\Temp\ccEB72Xs.s 			page 2


  20:.\Generated_Source\PSoC5/I2C_1_PM.c **** I2C_1_BACKUP_STRUCT I2C_1_backup =
  21:.\Generated_Source\PSoC5/I2C_1_PM.c **** {
  22:.\Generated_Source\PSoC5/I2C_1_PM.c ****     I2C_1_DISABLE, /* enableState */
  23:.\Generated_Source\PSoC5/I2C_1_PM.c **** 
  24:.\Generated_Source\PSoC5/I2C_1_PM.c ****     #if(I2C_1_FF_IMPLEMENTED)
  25:.\Generated_Source\PSoC5/I2C_1_PM.c ****         I2C_1_DEFAULT_XCFG,  /* xcfg */
  26:.\Generated_Source\PSoC5/I2C_1_PM.c ****         I2C_1_DEFAULT_CFG,   /* cfg  */
  27:.\Generated_Source\PSoC5/I2C_1_PM.c **** 
  28:.\Generated_Source\PSoC5/I2C_1_PM.c ****         #if(I2C_1_MODE_SLAVE_ENABLED)
  29:.\Generated_Source\PSoC5/I2C_1_PM.c ****             I2C_1_DEFAULT_ADDR, /* addr */
  30:.\Generated_Source\PSoC5/I2C_1_PM.c ****         #endif /* (I2C_1_MODE_SLAVE_ENABLED) */
  31:.\Generated_Source\PSoC5/I2C_1_PM.c **** 
  32:.\Generated_Source\PSoC5/I2C_1_PM.c ****         #if(CY_PSOC5A)
  33:.\Generated_Source\PSoC5/I2C_1_PM.c ****             LO8(I2C_1_DEFAULT_DIVIDE_FACTOR),  /* div */
  34:.\Generated_Source\PSoC5/I2C_1_PM.c ****         #else
  35:.\Generated_Source\PSoC5/I2C_1_PM.c ****             LO8(I2C_1_DEFAULT_DIVIDE_FACTOR), /* div1 */
  36:.\Generated_Source\PSoC5/I2C_1_PM.c ****             HI8(I2C_1_DEFAULT_DIVIDE_FACTOR), /* div2 */
  37:.\Generated_Source\PSoC5/I2C_1_PM.c ****         #endif /* (CY_PSOC5A) */
  38:.\Generated_Source\PSoC5/I2C_1_PM.c **** 
  39:.\Generated_Source\PSoC5/I2C_1_PM.c ****     #else  /* (I2C_1_UDB_IMPLEMENTED) */
  40:.\Generated_Source\PSoC5/I2C_1_PM.c ****         I2C_1_DEFAULT_CFG,    /* control */
  41:.\Generated_Source\PSoC5/I2C_1_PM.c **** 
  42:.\Generated_Source\PSoC5/I2C_1_PM.c ****         #if(CY_UDB_V0)
  43:.\Generated_Source\PSoC5/I2C_1_PM.c ****             I2C_1_INT_ENABLE_MASK, /* aux_ctl */
  44:.\Generated_Source\PSoC5/I2C_1_PM.c **** 
  45:.\Generated_Source\PSoC5/I2C_1_PM.c ****             #if(I2C_1_MODE_SLAVE_ENABLED)
  46:.\Generated_Source\PSoC5/I2C_1_PM.c ****                 I2C_1_DEFAULT_ADDR, /* addr_d0 */
  47:.\Generated_Source\PSoC5/I2C_1_PM.c ****             #endif /* (I2C_1_MODE_SLAVE_ENABLED) */
  48:.\Generated_Source\PSoC5/I2C_1_PM.c ****         #endif /* (CY_UDB_V0) */
  49:.\Generated_Source\PSoC5/I2C_1_PM.c ****     #endif /* (I2C_1_FF_IMPLEMENTED) */
  50:.\Generated_Source\PSoC5/I2C_1_PM.c **** 
  51:.\Generated_Source\PSoC5/I2C_1_PM.c ****     #if(I2C_1_TIMEOUT_ENABLED)
  52:.\Generated_Source\PSoC5/I2C_1_PM.c ****         I2C_1_DEFAULT_TMOUT_PERIOD,
  53:.\Generated_Source\PSoC5/I2C_1_PM.c ****         I2C_1_DEFAULT_TMOUT_INTR_MASK,
  54:.\Generated_Source\PSoC5/I2C_1_PM.c **** 
  55:.\Generated_Source\PSoC5/I2C_1_PM.c ****         #if(I2C_1_TIMEOUT_PRESCALER_ENABLED && CY_UDB_V0)
  56:.\Generated_Source\PSoC5/I2C_1_PM.c ****             I2C_1_DEFAULT_TMOUT_PRESCALER_PRD,
  57:.\Generated_Source\PSoC5/I2C_1_PM.c ****         #endif /* (I2C_1_TIMEOUT_PRESCALER_ENABLED) */
  58:.\Generated_Source\PSoC5/I2C_1_PM.c **** 
  59:.\Generated_Source\PSoC5/I2C_1_PM.c ****     #endif /* (I2C_1_TIMEOUT_ENABLED) */
  60:.\Generated_Source\PSoC5/I2C_1_PM.c **** };
  61:.\Generated_Source\PSoC5/I2C_1_PM.c **** 
  62:.\Generated_Source\PSoC5/I2C_1_PM.c **** #if((I2C_1_FF_IMPLEMENTED) && (I2C_1_WAKEUP_ENABLED))
  63:.\Generated_Source\PSoC5/I2C_1_PM.c ****     volatile uint8 I2C_1_wakeupSource;
  64:.\Generated_Source\PSoC5/I2C_1_PM.c **** #endif /* ((I2C_1_FF_IMPLEMENTED) && (I2C_1_WAKEUP_ENABLED)) */
  65:.\Generated_Source\PSoC5/I2C_1_PM.c **** 
  66:.\Generated_Source\PSoC5/I2C_1_PM.c **** 
  67:.\Generated_Source\PSoC5/I2C_1_PM.c **** /*******************************************************************************
  68:.\Generated_Source\PSoC5/I2C_1_PM.c **** * Function Name: I2C_1_SaveConfig
  69:.\Generated_Source\PSoC5/I2C_1_PM.c **** ********************************************************************************
  70:.\Generated_Source\PSoC5/I2C_1_PM.c **** *
  71:.\Generated_Source\PSoC5/I2C_1_PM.c **** * Summary:
  72:.\Generated_Source\PSoC5/I2C_1_PM.c **** *  Wakeup on address match enabled: disables I2C Master(if was enabled before go
  73:.\Generated_Source\PSoC5/I2C_1_PM.c **** *  to sleep), enables I2C backup regulator. Waits while on-going transaction be
  74:.\Generated_Source\PSoC5/I2C_1_PM.c **** *  will completed and I2C will be ready go to sleep. All incoming transaction
  75:.\Generated_Source\PSoC5/I2C_1_PM.c **** *  will be NACKed till power down will be asserted. The address match event
  76:.\Generated_Source\PSoC5/I2C_1_PM.c **** *  wakes up the chip.
ARM GAS  C:\Users\Robert\AppData\Local\Temp\ccEB72Xs.s 			page 3


  77:.\Generated_Source\PSoC5/I2C_1_PM.c **** *  Wakeup on address match disabled: saves I2C configuration and non-retention
  78:.\Generated_Source\PSoC5/I2C_1_PM.c **** *  register values.
  79:.\Generated_Source\PSoC5/I2C_1_PM.c **** *
  80:.\Generated_Source\PSoC5/I2C_1_PM.c **** * Parameters:
  81:.\Generated_Source\PSoC5/I2C_1_PM.c **** *  None
  82:.\Generated_Source\PSoC5/I2C_1_PM.c **** *
  83:.\Generated_Source\PSoC5/I2C_1_PM.c **** * Return:
  84:.\Generated_Source\PSoC5/I2C_1_PM.c **** *  None
  85:.\Generated_Source\PSoC5/I2C_1_PM.c **** *
  86:.\Generated_Source\PSoC5/I2C_1_PM.c **** * Global Variables:
  87:.\Generated_Source\PSoC5/I2C_1_PM.c **** *  I2C_1_backup - used to save component configuration and
  88:.\Generated_Source\PSoC5/I2C_1_PM.c **** *       none-retention registers before enter sleep mode.
  89:.\Generated_Source\PSoC5/I2C_1_PM.c **** *
  90:.\Generated_Source\PSoC5/I2C_1_PM.c **** * Reentrant:
  91:.\Generated_Source\PSoC5/I2C_1_PM.c **** *  No
  92:.\Generated_Source\PSoC5/I2C_1_PM.c **** *
  93:.\Generated_Source\PSoC5/I2C_1_PM.c **** *******************************************************************************/
  94:.\Generated_Source\PSoC5/I2C_1_PM.c **** void I2C_1_SaveConfig(void) 
  95:.\Generated_Source\PSoC5/I2C_1_PM.c **** {
  39              		.loc 1 95 0
  40              		.cfi_startproc
  41              		@ args = 0, pretend = 0, frame = 0
  42              		@ frame_needed = 1, uses_anonymous_args = 0
  43              		@ link register save eliminated.
  44 0000 80B4     		push	{r7}
  45              	.LCFI0:
  46              		.cfi_def_cfa_offset 4
  47              		.cfi_offset 7, -4
  48 0002 00AF     		add	r7, sp, #0
  49              	.LCFI1:
  50              		.cfi_def_cfa_register 7
  96:.\Generated_Source\PSoC5/I2C_1_PM.c ****     #if(I2C_1_FF_IMPLEMENTED)
  97:.\Generated_Source\PSoC5/I2C_1_PM.c ****         #if(I2C_1_WAKEUP_ENABLED)
  98:.\Generated_Source\PSoC5/I2C_1_PM.c ****             uint8 enableInterrupts;
  99:.\Generated_Source\PSoC5/I2C_1_PM.c ****         #endif /* (I2C_1_WAKEUP_ENABLED) */
 100:.\Generated_Source\PSoC5/I2C_1_PM.c **** 
 101:.\Generated_Source\PSoC5/I2C_1_PM.c ****         /* Store regiters in either Sleep mode */
 102:.\Generated_Source\PSoC5/I2C_1_PM.c ****         I2C_1_backup.cfg  = I2C_1_CFG_REG;
  51              		.loc 1 102 0
  52 0004 44F6D613 		movw	r3, #18902
  53 0008 C4F20003 		movt	r3, 16384
  54 000c 1B78     		ldrb	r3, [r3, #0]
  55 000e DAB2     		uxtb	r2, r3
  56 0010 40F20003 		movw	r3, #:lower16:I2C_1_backup
  57 0014 C0F20003 		movt	r3, #:upper16:I2C_1_backup
  58 0018 9A70     		strb	r2, [r3, #2]
 103:.\Generated_Source\PSoC5/I2C_1_PM.c ****         I2C_1_backup.xcfg = I2C_1_XCFG_REG;
  59              		.loc 1 103 0
  60 001a 44F6C813 		movw	r3, #18888
  61 001e C4F20003 		movt	r3, 16384
  62 0022 1B78     		ldrb	r3, [r3, #0]
  63 0024 DAB2     		uxtb	r2, r3
  64 0026 40F20003 		movw	r3, #:lower16:I2C_1_backup
  65 002a C0F20003 		movt	r3, #:upper16:I2C_1_backup
  66 002e 5A70     		strb	r2, [r3, #1]
 104:.\Generated_Source\PSoC5/I2C_1_PM.c **** 
 105:.\Generated_Source\PSoC5/I2C_1_PM.c ****         #if(I2C_1_MODE_SLAVE_ENABLED)
ARM GAS  C:\Users\Robert\AppData\Local\Temp\ccEB72Xs.s 			page 4


 106:.\Generated_Source\PSoC5/I2C_1_PM.c ****             I2C_1_backup.addr = I2C_1_ADDR_REG;
  67              		.loc 1 106 0
  68 0030 44F6CA13 		movw	r3, #18890
  69 0034 C4F20003 		movt	r3, 16384
  70 0038 1B78     		ldrb	r3, [r3, #0]
  71 003a DAB2     		uxtb	r2, r3
  72 003c 40F20003 		movw	r3, #:lower16:I2C_1_backup
  73 0040 C0F20003 		movt	r3, #:upper16:I2C_1_backup
  74 0044 DA70     		strb	r2, [r3, #3]
 107:.\Generated_Source\PSoC5/I2C_1_PM.c ****         #endif /* (I2C_1_MODE_SLAVE_ENABLED) */
 108:.\Generated_Source\PSoC5/I2C_1_PM.c **** 
 109:.\Generated_Source\PSoC5/I2C_1_PM.c ****         #if(CY_PSOC5A)
 110:.\Generated_Source\PSoC5/I2C_1_PM.c ****             I2C_1_backup.clkDiv   = I2C_1_CLKDIV_REG;
 111:.\Generated_Source\PSoC5/I2C_1_PM.c ****         #else
 112:.\Generated_Source\PSoC5/I2C_1_PM.c ****             I2C_1_backup.clkDiv1  = I2C_1_CLKDIV1_REG;
  75              		.loc 1 112 0
  76 0046 44F6DB13 		movw	r3, #18907
  77 004a C4F20003 		movt	r3, 16384
  78 004e 1B78     		ldrb	r3, [r3, #0]
  79 0050 DAB2     		uxtb	r2, r3
  80 0052 40F20003 		movw	r3, #:lower16:I2C_1_backup
  81 0056 C0F20003 		movt	r3, #:upper16:I2C_1_backup
  82 005a 1A71     		strb	r2, [r3, #4]
 113:.\Generated_Source\PSoC5/I2C_1_PM.c ****             I2C_1_backup.clkDiv2  = I2C_1_CLKDIV2_REG;
  83              		.loc 1 113 0
  84 005c 44F6DC13 		movw	r3, #18908
  85 0060 C4F20003 		movt	r3, 16384
  86 0064 1B78     		ldrb	r3, [r3, #0]
  87 0066 DAB2     		uxtb	r2, r3
  88 0068 40F20003 		movw	r3, #:lower16:I2C_1_backup
  89 006c C0F20003 		movt	r3, #:upper16:I2C_1_backup
  90 0070 5A71     		strb	r2, [r3, #5]
 114:.\Generated_Source\PSoC5/I2C_1_PM.c ****         #endif /* (CY_PSOC5A) */
 115:.\Generated_Source\PSoC5/I2C_1_PM.c **** 
 116:.\Generated_Source\PSoC5/I2C_1_PM.c ****         #if(I2C_1_WAKEUP_ENABLED)
 117:.\Generated_Source\PSoC5/I2C_1_PM.c ****             /* Need to disable Master */
 118:.\Generated_Source\PSoC5/I2C_1_PM.c ****             I2C_1_CFG_REG &= ((uint8) ~I2C_1_ENABLE_MASTER);
 119:.\Generated_Source\PSoC5/I2C_1_PM.c **** 
 120:.\Generated_Source\PSoC5/I2C_1_PM.c ****             /* Enable the I2C regulator backup */
 121:.\Generated_Source\PSoC5/I2C_1_PM.c ****             enableInterrupts = CyEnterCriticalSection();
 122:.\Generated_Source\PSoC5/I2C_1_PM.c ****             I2C_1_PWRSYS_CR1_REG |= I2C_1_PWRSYS_CR1_I2C_REG_BACKUP;
 123:.\Generated_Source\PSoC5/I2C_1_PM.c ****             CyExitCriticalSection(enableInterrupts);
 124:.\Generated_Source\PSoC5/I2C_1_PM.c **** 
 125:.\Generated_Source\PSoC5/I2C_1_PM.c ****             /* 1) Set force NACK to ignore I2C transactions
 126:.\Generated_Source\PSoC5/I2C_1_PM.c ****                2) Wait while I2C will be ready go to Sleep
 127:.\Generated_Source\PSoC5/I2C_1_PM.c ****                3) These bits are cleared on wake up */
 128:.\Generated_Source\PSoC5/I2C_1_PM.c ****             I2C_1_XCFG_REG |= I2C_1_XCFG_FORCE_NACK;
 129:.\Generated_Source\PSoC5/I2C_1_PM.c ****             while(0u == (I2C_1_XCFG_REG & I2C_1_XCFG_RDY_TO_SLEEP))
 130:.\Generated_Source\PSoC5/I2C_1_PM.c ****             {
 131:.\Generated_Source\PSoC5/I2C_1_PM.c ****                 ; /* Wait when block is ready to Sleep */
 132:.\Generated_Source\PSoC5/I2C_1_PM.c ****             }
 133:.\Generated_Source\PSoC5/I2C_1_PM.c **** 
 134:.\Generated_Source\PSoC5/I2C_1_PM.c ****             /* Setup wakeup interrupt */
 135:.\Generated_Source\PSoC5/I2C_1_PM.c ****             I2C_1_DisableInt();
 136:.\Generated_Source\PSoC5/I2C_1_PM.c ****             (void) CyIntSetVector(I2C_1_ISR_NUMBER, &I2C_1_WAKEUP_ISR);
 137:.\Generated_Source\PSoC5/I2C_1_PM.c ****             I2C_1_wakeupSource = 0u;
 138:.\Generated_Source\PSoC5/I2C_1_PM.c ****             I2C_1_EnableInt();
ARM GAS  C:\Users\Robert\AppData\Local\Temp\ccEB72Xs.s 			page 5


 139:.\Generated_Source\PSoC5/I2C_1_PM.c **** 
 140:.\Generated_Source\PSoC5/I2C_1_PM.c ****         #endif /* (I2C_1_WAKEUP_ENABLED) */
 141:.\Generated_Source\PSoC5/I2C_1_PM.c **** 
 142:.\Generated_Source\PSoC5/I2C_1_PM.c ****     #else
 143:.\Generated_Source\PSoC5/I2C_1_PM.c ****         /* Store only address match bit */
 144:.\Generated_Source\PSoC5/I2C_1_PM.c ****         I2C_1_backup.control = (I2C_1_CFG_REG & I2C_1_CTRL_ANY_ADDRESS_MASK);
 145:.\Generated_Source\PSoC5/I2C_1_PM.c **** 
 146:.\Generated_Source\PSoC5/I2C_1_PM.c ****         #if(CY_UDB_V0)
 147:.\Generated_Source\PSoC5/I2C_1_PM.c ****             /* Store interrupt mask bits */
 148:.\Generated_Source\PSoC5/I2C_1_PM.c ****             I2C_1_backup.intMask = I2C_1_INT_MASK_REG;
 149:.\Generated_Source\PSoC5/I2C_1_PM.c **** 
 150:.\Generated_Source\PSoC5/I2C_1_PM.c ****             #if(I2C_1_MODE & I2C_1_MODE_SLAVE)
 151:.\Generated_Source\PSoC5/I2C_1_PM.c ****                 I2C_1_backup.addr = I2C_1_ADDR_REG;
 152:.\Generated_Source\PSoC5/I2C_1_PM.c ****             #endif /* (I2C_1_MODE & I2C_1_MODE_SLAVE) */
 153:.\Generated_Source\PSoC5/I2C_1_PM.c **** 
 154:.\Generated_Source\PSoC5/I2C_1_PM.c ****         #endif /* (CY_UDB_V0) */
 155:.\Generated_Source\PSoC5/I2C_1_PM.c **** 
 156:.\Generated_Source\PSoC5/I2C_1_PM.c ****     #endif /* (I2C_1_FF_IMPLEMENTED) */
 157:.\Generated_Source\PSoC5/I2C_1_PM.c **** 
 158:.\Generated_Source\PSoC5/I2C_1_PM.c ****     #if(I2C_1_TIMEOUT_ENABLED)
 159:.\Generated_Source\PSoC5/I2C_1_PM.c ****         I2C_1_TimeoutSaveConfig();   /* Save Timeout config */
 160:.\Generated_Source\PSoC5/I2C_1_PM.c ****     #endif /* (I2C_1_TIMEOUT_ENABLED) */
 161:.\Generated_Source\PSoC5/I2C_1_PM.c **** }
  91              		.loc 1 161 0
  92 0072 BD46     		mov	sp, r7
  93 0074 80BC     		pop	{r7}
  94 0076 7047     		bx	lr
  95              		.cfi_endproc
  96              	.LFE0:
  97              		.size	I2C_1_SaveConfig, .-I2C_1_SaveConfig
  98              		.section	.text.I2C_1_Sleep,"ax",%progbits
  99              		.align	2
 100              		.global	I2C_1_Sleep
 101              		.thumb
 102              		.thumb_func
 103              		.type	I2C_1_Sleep, %function
 104              	I2C_1_Sleep:
 105              	.LFB1:
 162:.\Generated_Source\PSoC5/I2C_1_PM.c **** 
 163:.\Generated_Source\PSoC5/I2C_1_PM.c **** 
 164:.\Generated_Source\PSoC5/I2C_1_PM.c **** /*******************************************************************************
 165:.\Generated_Source\PSoC5/I2C_1_PM.c **** * Function Name: I2C_1_Sleep
 166:.\Generated_Source\PSoC5/I2C_1_PM.c **** ********************************************************************************
 167:.\Generated_Source\PSoC5/I2C_1_PM.c **** *
 168:.\Generated_Source\PSoC5/I2C_1_PM.c **** * Summary:
 169:.\Generated_Source\PSoC5/I2C_1_PM.c **** *  Wakeup on address match enabled: All incoming transaction will be NACKed till
 170:.\Generated_Source\PSoC5/I2C_1_PM.c **** *  power down will be asserted. The address match event wakes up the chip.
 171:.\Generated_Source\PSoC5/I2C_1_PM.c **** *  Wakeup on address match disabled: Disables active mode power template bits or
 172:.\Generated_Source\PSoC5/I2C_1_PM.c **** *  clock gating as appropriate. Saves I2C configuration and non-retention
 173:.\Generated_Source\PSoC5/I2C_1_PM.c **** *  register values.
 174:.\Generated_Source\PSoC5/I2C_1_PM.c **** *  Disables I2C interrupt.
 175:.\Generated_Source\PSoC5/I2C_1_PM.c **** *
 176:.\Generated_Source\PSoC5/I2C_1_PM.c **** * Parameters:
 177:.\Generated_Source\PSoC5/I2C_1_PM.c **** *  None
 178:.\Generated_Source\PSoC5/I2C_1_PM.c **** *
 179:.\Generated_Source\PSoC5/I2C_1_PM.c **** * Return:
 180:.\Generated_Source\PSoC5/I2C_1_PM.c **** *  None
ARM GAS  C:\Users\Robert\AppData\Local\Temp\ccEB72Xs.s 			page 6


 181:.\Generated_Source\PSoC5/I2C_1_PM.c **** *
 182:.\Generated_Source\PSoC5/I2C_1_PM.c **** * Reentrant:
 183:.\Generated_Source\PSoC5/I2C_1_PM.c **** *  No
 184:.\Generated_Source\PSoC5/I2C_1_PM.c **** *
 185:.\Generated_Source\PSoC5/I2C_1_PM.c **** *******************************************************************************/
 186:.\Generated_Source\PSoC5/I2C_1_PM.c **** void I2C_1_Sleep(void) 
 187:.\Generated_Source\PSoC5/I2C_1_PM.c **** {
 106              		.loc 1 187 0
 107              		.cfi_startproc
 108              		@ args = 0, pretend = 0, frame = 0
 109              		@ frame_needed = 1, uses_anonymous_args = 0
 110 0000 80B5     		push	{r7, lr}
 111              	.LCFI2:
 112              		.cfi_def_cfa_offset 8
 113              		.cfi_offset 7, -8
 114              		.cfi_offset 14, -4
 115 0002 00AF     		add	r7, sp, #0
 116              	.LCFI3:
 117              		.cfi_def_cfa_register 7
 188:.\Generated_Source\PSoC5/I2C_1_PM.c ****     #if(I2C_1_WAKEUP_ENABLED)
 189:.\Generated_Source\PSoC5/I2C_1_PM.c ****         /* The I2C block should be always enabled if used as wakeup source */
 190:.\Generated_Source\PSoC5/I2C_1_PM.c ****         I2C_1_backup.enableState = I2C_1_DISABLE;
 191:.\Generated_Source\PSoC5/I2C_1_PM.c **** 
 192:.\Generated_Source\PSoC5/I2C_1_PM.c ****         #if(I2C_1_TIMEOUT_ENABLED)
 193:.\Generated_Source\PSoC5/I2C_1_PM.c ****             I2C_1_TimeoutStop();
 194:.\Generated_Source\PSoC5/I2C_1_PM.c ****         #endif /* (I2C_1_TIMEOUT_ENABLED) */
 195:.\Generated_Source\PSoC5/I2C_1_PM.c **** 
 196:.\Generated_Source\PSoC5/I2C_1_PM.c ****     #else
 197:.\Generated_Source\PSoC5/I2C_1_PM.c **** 
 198:.\Generated_Source\PSoC5/I2C_1_PM.c ****         I2C_1_backup.enableState = ((uint8) I2C_1_IS_ENABLED);
 118              		.loc 1 198 0
 119 0004 44F2A533 		movw	r3, #17317
 120 0008 C4F20003 		movt	r3, 16384
 121 000c 1B78     		ldrb	r3, [r3, #0]
 122 000e DBB2     		uxtb	r3, r3
 123 0010 03F00403 		and	r3, r3, #4
 124 0014 002B     		cmp	r3, #0
 125 0016 0CBF     		ite	eq
 126 0018 0023     		moveq	r3, #0
 127 001a 0123     		movne	r3, #1
 128 001c DBB2     		uxtb	r3, r3
 129 001e 1A46     		mov	r2, r3
 130 0020 40F20003 		movw	r3, #:lower16:I2C_1_backup
 131 0024 C0F20003 		movt	r3, #:upper16:I2C_1_backup
 132 0028 1A70     		strb	r2, [r3, #0]
 199:.\Generated_Source\PSoC5/I2C_1_PM.c **** 
 200:.\Generated_Source\PSoC5/I2C_1_PM.c ****         if(I2C_1_IS_ENABLED)
 133              		.loc 1 200 0
 134 002a 44F2A533 		movw	r3, #17317
 135 002e C4F20003 		movt	r3, 16384
 136 0032 1B78     		ldrb	r3, [r3, #0]
 137 0034 DBB2     		uxtb	r3, r3
 138 0036 03F00403 		and	r3, r3, #4
 139 003a 002B     		cmp	r3, #0
 140 003c 01D0     		beq	.L3
 201:.\Generated_Source\PSoC5/I2C_1_PM.c ****         {
 202:.\Generated_Source\PSoC5/I2C_1_PM.c ****             I2C_1_Stop();
ARM GAS  C:\Users\Robert\AppData\Local\Temp\ccEB72Xs.s 			page 7


 141              		.loc 1 202 0
 142 003e FFF7FEFF 		bl	I2C_1_Stop
 143              	.L3:
 203:.\Generated_Source\PSoC5/I2C_1_PM.c ****         }
 204:.\Generated_Source\PSoC5/I2C_1_PM.c ****     #endif /* (I2C_1_WAKEUP_ENABLED) */
 205:.\Generated_Source\PSoC5/I2C_1_PM.c **** 
 206:.\Generated_Source\PSoC5/I2C_1_PM.c ****     I2C_1_SaveConfig();
 144              		.loc 1 206 0
 145 0042 FFF7FEFF 		bl	I2C_1_SaveConfig
 207:.\Generated_Source\PSoC5/I2C_1_PM.c **** }
 146              		.loc 1 207 0
 147 0046 80BD     		pop	{r7, pc}
 148              		.cfi_endproc
 149              	.LFE1:
 150              		.size	I2C_1_Sleep, .-I2C_1_Sleep
 151              		.section	.text.I2C_1_RestoreConfig,"ax",%progbits
 152              		.align	2
 153              		.global	I2C_1_RestoreConfig
 154              		.thumb
 155              		.thumb_func
 156              		.type	I2C_1_RestoreConfig, %function
 157              	I2C_1_RestoreConfig:
 158              	.LFB2:
 208:.\Generated_Source\PSoC5/I2C_1_PM.c **** 
 209:.\Generated_Source\PSoC5/I2C_1_PM.c **** 
 210:.\Generated_Source\PSoC5/I2C_1_PM.c **** /*******************************************************************************
 211:.\Generated_Source\PSoC5/I2C_1_PM.c **** * Function Name: I2C_1_RestoreConfig
 212:.\Generated_Source\PSoC5/I2C_1_PM.c **** ********************************************************************************
 213:.\Generated_Source\PSoC5/I2C_1_PM.c **** *
 214:.\Generated_Source\PSoC5/I2C_1_PM.c **** * Summary:
 215:.\Generated_Source\PSoC5/I2C_1_PM.c **** *  Wakeup on address match enabled: enables I2C Master (if was enabled before go
 216:.\Generated_Source\PSoC5/I2C_1_PM.c **** *  to sleep), disables I2C backup regulator.
 217:.\Generated_Source\PSoC5/I2C_1_PM.c **** *  Wakeup on address match disabled: Restores I2C configuration and
 218:.\Generated_Source\PSoC5/I2C_1_PM.c **** *  non-retention register values.
 219:.\Generated_Source\PSoC5/I2C_1_PM.c **** *
 220:.\Generated_Source\PSoC5/I2C_1_PM.c **** * Parameters:
 221:.\Generated_Source\PSoC5/I2C_1_PM.c **** *  None
 222:.\Generated_Source\PSoC5/I2C_1_PM.c **** *
 223:.\Generated_Source\PSoC5/I2C_1_PM.c **** * Return:
 224:.\Generated_Source\PSoC5/I2C_1_PM.c **** *  None
 225:.\Generated_Source\PSoC5/I2C_1_PM.c **** *
 226:.\Generated_Source\PSoC5/I2C_1_PM.c **** * Global Variables:
 227:.\Generated_Source\PSoC5/I2C_1_PM.c **** *  I2C_1_backup - used to save component configuration and
 228:.\Generated_Source\PSoC5/I2C_1_PM.c **** *  none-retention registers before exit sleep mode.
 229:.\Generated_Source\PSoC5/I2C_1_PM.c **** *
 230:.\Generated_Source\PSoC5/I2C_1_PM.c **** *******************************************************************************/
 231:.\Generated_Source\PSoC5/I2C_1_PM.c **** void I2C_1_RestoreConfig(void) 
 232:.\Generated_Source\PSoC5/I2C_1_PM.c **** {
 159              		.loc 1 232 0
 160              		.cfi_startproc
 161              		@ args = 0, pretend = 0, frame = 8
 162              		@ frame_needed = 1, uses_anonymous_args = 0
 163 0000 80B5     		push	{r7, lr}
 164              	.LCFI4:
 165              		.cfi_def_cfa_offset 8
 166              		.cfi_offset 7, -8
 167              		.cfi_offset 14, -4
ARM GAS  C:\Users\Robert\AppData\Local\Temp\ccEB72Xs.s 			page 8


 168 0002 82B0     		sub	sp, sp, #8
 169              	.LCFI5:
 170              		.cfi_def_cfa_offset 16
 171 0004 00AF     		add	r7, sp, #0
 172              	.LCFI6:
 173              		.cfi_def_cfa_register 7
 233:.\Generated_Source\PSoC5/I2C_1_PM.c ****     #if(I2C_1_FF_IMPLEMENTED)
 234:.\Generated_Source\PSoC5/I2C_1_PM.c ****         uint8 enableInterrupts;
 235:.\Generated_Source\PSoC5/I2C_1_PM.c **** 
 236:.\Generated_Source\PSoC5/I2C_1_PM.c ****         if(I2C_1_CHECK_PWRSYS_I2C_BACKUP)    /* Enabled if was in Sleep */
 174              		.loc 1 236 0
 175 0006 44F23133 		movw	r3, #17201
 176 000a C4F20003 		movt	r3, 16384
 177 000e 1B78     		ldrb	r3, [r3, #0]
 178 0010 DBB2     		uxtb	r3, r3
 179 0012 03F00403 		and	r3, r3, #4
 180 0016 DBB2     		uxtb	r3, r3
 181 0018 002B     		cmp	r3, #0
 182 001a 20D0     		beq	.L5
 237:.\Generated_Source\PSoC5/I2C_1_PM.c ****         {
 238:.\Generated_Source\PSoC5/I2C_1_PM.c ****             /* Disable back-up regulator */
 239:.\Generated_Source\PSoC5/I2C_1_PM.c ****             enableInterrupts = CyEnterCriticalSection();
 183              		.loc 1 239 0
 184 001c FFF7FEFF 		bl	CyEnterCriticalSection
 185 0020 0346     		mov	r3, r0
 186 0022 FB71     		strb	r3, [r7, #7]
 240:.\Generated_Source\PSoC5/I2C_1_PM.c ****             I2C_1_PWRSYS_CR1_REG &= ((uint8) ~I2C_1_PWRSYS_CR1_I2C_REG_BACKUP);
 187              		.loc 1 240 0
 188 0024 44F23133 		movw	r3, #17201
 189 0028 C4F20003 		movt	r3, 16384
 190 002c 44F23132 		movw	r2, #17201
 191 0030 C4F20002 		movt	r2, 16384
 192 0034 1278     		ldrb	r2, [r2, #0]
 193 0036 D2B2     		uxtb	r2, r2
 194 0038 22F00402 		bic	r2, r2, #4
 195 003c D2B2     		uxtb	r2, r2
 196 003e 1A70     		strb	r2, [r3, #0]
 241:.\Generated_Source\PSoC5/I2C_1_PM.c ****             CyExitCriticalSection(enableInterrupts);
 197              		.loc 1 241 0
 198 0040 FB79     		ldrb	r3, [r7, #7]	@ zero_extendqisi2
 199 0042 1846     		mov	r0, r3
 200 0044 FFF7FEFF 		bl	CyExitCriticalSection
 242:.\Generated_Source\PSoC5/I2C_1_PM.c **** 
 243:.\Generated_Source\PSoC5/I2C_1_PM.c ****             /* Re-enable Master */
 244:.\Generated_Source\PSoC5/I2C_1_PM.c ****             I2C_1_CFG_REG = I2C_1_backup.cfg;
 201              		.loc 1 244 0
 202 0048 44F6D613 		movw	r3, #18902
 203 004c C4F20003 		movt	r3, 16384
 204 0050 40F20002 		movw	r2, #:lower16:I2C_1_backup
 205 0054 C0F20002 		movt	r2, #:upper16:I2C_1_backup
 206 0058 9278     		ldrb	r2, [r2, #2]	@ zero_extendqisi2
 207 005a 1A70     		strb	r2, [r3, #0]
 208 005c 31E0     		b	.L4
 209              	.L5:
 245:.\Generated_Source\PSoC5/I2C_1_PM.c ****         }
 246:.\Generated_Source\PSoC5/I2C_1_PM.c ****         else /* The I2C_REG_BACKUP was cleaned by PM API: it means Hibernate or wake-up not set */
 247:.\Generated_Source\PSoC5/I2C_1_PM.c ****         {
ARM GAS  C:\Users\Robert\AppData\Local\Temp\ccEB72Xs.s 			page 9


 248:.\Generated_Source\PSoC5/I2C_1_PM.c ****             #if(I2C_1_WAKEUP_ENABLED)
 249:.\Generated_Source\PSoC5/I2C_1_PM.c ****                 /* Disable power to I2C block before register restore */
 250:.\Generated_Source\PSoC5/I2C_1_PM.c ****                 enableInterrupts = CyEnterCriticalSection();
 251:.\Generated_Source\PSoC5/I2C_1_PM.c ****                 I2C_1_ACT_PWRMGR_REG  &= ((uint8) ~I2C_1_ACT_PWR_EN);
 252:.\Generated_Source\PSoC5/I2C_1_PM.c ****                 I2C_1_STBY_PWRMGR_REG &= ((uint8) ~I2C_1_STBY_PWR_EN);
 253:.\Generated_Source\PSoC5/I2C_1_PM.c ****                 CyExitCriticalSection(enableInterrupts);
 254:.\Generated_Source\PSoC5/I2C_1_PM.c **** 
 255:.\Generated_Source\PSoC5/I2C_1_PM.c ****                 /* Enable component after restore complete */
 256:.\Generated_Source\PSoC5/I2C_1_PM.c ****                 I2C_1_backup.enableState = I2C_1_ENABLE;
 257:.\Generated_Source\PSoC5/I2C_1_PM.c ****             #endif /* (I2C_1_WAKEUP_ENABLED) */
 258:.\Generated_Source\PSoC5/I2C_1_PM.c **** 
 259:.\Generated_Source\PSoC5/I2C_1_PM.c ****             /* Restore component registers: Hibernate disable power */
 260:.\Generated_Source\PSoC5/I2C_1_PM.c ****             I2C_1_XCFG_REG = I2C_1_backup.xcfg;
 210              		.loc 1 260 0
 211 005e 44F6C813 		movw	r3, #18888
 212 0062 C4F20003 		movt	r3, 16384
 213 0066 40F20002 		movw	r2, #:lower16:I2C_1_backup
 214 006a C0F20002 		movt	r2, #:upper16:I2C_1_backup
 215 006e 5278     		ldrb	r2, [r2, #1]	@ zero_extendqisi2
 216 0070 1A70     		strb	r2, [r3, #0]
 261:.\Generated_Source\PSoC5/I2C_1_PM.c ****             I2C_1_CFG_REG  = I2C_1_backup.cfg;
 217              		.loc 1 261 0
 218 0072 44F6D613 		movw	r3, #18902
 219 0076 C4F20003 		movt	r3, 16384
 220 007a 40F20002 		movw	r2, #:lower16:I2C_1_backup
 221 007e C0F20002 		movt	r2, #:upper16:I2C_1_backup
 222 0082 9278     		ldrb	r2, [r2, #2]	@ zero_extendqisi2
 223 0084 1A70     		strb	r2, [r3, #0]
 262:.\Generated_Source\PSoC5/I2C_1_PM.c **** 
 263:.\Generated_Source\PSoC5/I2C_1_PM.c ****             #if(I2C_1_MODE_SLAVE_ENABLED)
 264:.\Generated_Source\PSoC5/I2C_1_PM.c ****                 I2C_1_ADDR_REG = I2C_1_backup.addr;
 224              		.loc 1 264 0
 225 0086 44F6CA13 		movw	r3, #18890
 226 008a C4F20003 		movt	r3, 16384
 227 008e 40F20002 		movw	r2, #:lower16:I2C_1_backup
 228 0092 C0F20002 		movt	r2, #:upper16:I2C_1_backup
 229 0096 D278     		ldrb	r2, [r2, #3]	@ zero_extendqisi2
 230 0098 1A70     		strb	r2, [r3, #0]
 265:.\Generated_Source\PSoC5/I2C_1_PM.c ****             #endif /* (I2C_1_MODE_SLAVE_ENABLED) */
 266:.\Generated_Source\PSoC5/I2C_1_PM.c **** 
 267:.\Generated_Source\PSoC5/I2C_1_PM.c ****             #if(CY_PSOC5A)
 268:.\Generated_Source\PSoC5/I2C_1_PM.c ****                 I2C_1_CLKDIV_REG  = I2C_1_backup.clkDiv;
 269:.\Generated_Source\PSoC5/I2C_1_PM.c ****             #else
 270:.\Generated_Source\PSoC5/I2C_1_PM.c ****                 I2C_1_CLKDIV1_REG = I2C_1_backup.clkDiv1;
 231              		.loc 1 270 0
 232 009a 44F6DB13 		movw	r3, #18907
 233 009e C4F20003 		movt	r3, 16384
 234 00a2 40F20002 		movw	r2, #:lower16:I2C_1_backup
 235 00a6 C0F20002 		movt	r2, #:upper16:I2C_1_backup
 236 00aa 1279     		ldrb	r2, [r2, #4]	@ zero_extendqisi2
 237 00ac 1A70     		strb	r2, [r3, #0]
 271:.\Generated_Source\PSoC5/I2C_1_PM.c ****                 I2C_1_CLKDIV2_REG = I2C_1_backup.clkDiv2;
 238              		.loc 1 271 0
 239 00ae 44F6DC13 		movw	r3, #18908
 240 00b2 C4F20003 		movt	r3, 16384
 241 00b6 40F20002 		movw	r2, #:lower16:I2C_1_backup
 242 00ba C0F20002 		movt	r2, #:upper16:I2C_1_backup
ARM GAS  C:\Users\Robert\AppData\Local\Temp\ccEB72Xs.s 			page 10


 243 00be 5279     		ldrb	r2, [r2, #5]	@ zero_extendqisi2
 244 00c0 1A70     		strb	r2, [r3, #0]
 245              	.L4:
 272:.\Generated_Source\PSoC5/I2C_1_PM.c ****             #endif /* (CY_PSOC5A) */
 273:.\Generated_Source\PSoC5/I2C_1_PM.c ****         }
 274:.\Generated_Source\PSoC5/I2C_1_PM.c **** 
 275:.\Generated_Source\PSoC5/I2C_1_PM.c ****         #if(I2C_1_WAKEUP_ENABLED)
 276:.\Generated_Source\PSoC5/I2C_1_PM.c ****             I2C_1_DisableInt();
 277:.\Generated_Source\PSoC5/I2C_1_PM.c ****             (void) CyIntSetVector(I2C_1_ISR_NUMBER, &I2C_1_ISR);
 278:.\Generated_Source\PSoC5/I2C_1_PM.c ****             if(0u != I2C_1_wakeupSource)
 279:.\Generated_Source\PSoC5/I2C_1_PM.c ****             {
 280:.\Generated_Source\PSoC5/I2C_1_PM.c ****                 I2C_1_SetPendingInt();   /* Generate interrupt to process incomming transcation */
 281:.\Generated_Source\PSoC5/I2C_1_PM.c ****             }
 282:.\Generated_Source\PSoC5/I2C_1_PM.c ****             I2C_1_EnableInt();
 283:.\Generated_Source\PSoC5/I2C_1_PM.c ****         #endif /* (I2C_1_WAKEUP_ENABLED) */
 284:.\Generated_Source\PSoC5/I2C_1_PM.c **** 
 285:.\Generated_Source\PSoC5/I2C_1_PM.c ****     #else
 286:.\Generated_Source\PSoC5/I2C_1_PM.c **** 
 287:.\Generated_Source\PSoC5/I2C_1_PM.c ****         #if(CY_UDB_V0)
 288:.\Generated_Source\PSoC5/I2C_1_PM.c ****             uint8 enableInterrupts;
 289:.\Generated_Source\PSoC5/I2C_1_PM.c **** 
 290:.\Generated_Source\PSoC5/I2C_1_PM.c ****             I2C_1_INT_MASK_REG |= I2C_1_backup.intMask;
 291:.\Generated_Source\PSoC5/I2C_1_PM.c **** 
 292:.\Generated_Source\PSoC5/I2C_1_PM.c ****             enableInterrupts = CyEnterCriticalSection();
 293:.\Generated_Source\PSoC5/I2C_1_PM.c ****             I2C_1_INT_ENABLE_REG |= I2C_1_INT_ENABLE_MASK;
 294:.\Generated_Source\PSoC5/I2C_1_PM.c ****             CyExitCriticalSection(enableInterrupts);
 295:.\Generated_Source\PSoC5/I2C_1_PM.c **** 
 296:.\Generated_Source\PSoC5/I2C_1_PM.c ****             #if(I2C_1_MODE_MASTER_ENABLED)
 297:.\Generated_Source\PSoC5/I2C_1_PM.c ****                 /* Restore Master Clock generator */
 298:.\Generated_Source\PSoC5/I2C_1_PM.c ****                 I2C_1_MCLK_PRD_REG = I2C_1_DEFAULT_MCLK_PRD;
 299:.\Generated_Source\PSoC5/I2C_1_PM.c ****                 I2C_1_MCLK_CMP_REG = I2C_1_DEFAULT_MCLK_CMP;
 300:.\Generated_Source\PSoC5/I2C_1_PM.c ****             #endif /* (I2C_1_MODE_MASTER_ENABLED) */
 301:.\Generated_Source\PSoC5/I2C_1_PM.c **** 
 302:.\Generated_Source\PSoC5/I2C_1_PM.c ****             #if(I2C_1_MODE_SLAVE_ENABLED)
 303:.\Generated_Source\PSoC5/I2C_1_PM.c ****                 I2C_1_ADDR_REG = I2C_1_backup.addr;
 304:.\Generated_Source\PSoC5/I2C_1_PM.c **** 
 305:.\Generated_Source\PSoC5/I2C_1_PM.c ****                 /* Restore slave bit counter period */
 306:.\Generated_Source\PSoC5/I2C_1_PM.c ****                 I2C_1_PERIOD_REG = I2C_1_DEFAULT_PERIOD;
 307:.\Generated_Source\PSoC5/I2C_1_PM.c ****             #endif /* (I2C_1_MODE_SLAVE_ENABLED) */
 308:.\Generated_Source\PSoC5/I2C_1_PM.c **** 
 309:.\Generated_Source\PSoC5/I2C_1_PM.c ****         #endif /* (CY_UDB_V0) */
 310:.\Generated_Source\PSoC5/I2C_1_PM.c **** 
 311:.\Generated_Source\PSoC5/I2C_1_PM.c ****         I2C_1_CFG_REG = I2C_1_backup.control;
 312:.\Generated_Source\PSoC5/I2C_1_PM.c **** 
 313:.\Generated_Source\PSoC5/I2C_1_PM.c ****     #endif /* (I2C_1_FF_IMPLEMENTED) */
 314:.\Generated_Source\PSoC5/I2C_1_PM.c **** 
 315:.\Generated_Source\PSoC5/I2C_1_PM.c ****     #if(I2C_1_TIMEOUT_ENABLED)
 316:.\Generated_Source\PSoC5/I2C_1_PM.c ****         I2C_1_TimeoutRestoreConfig();
 317:.\Generated_Source\PSoC5/I2C_1_PM.c ****     #endif /* (I2C_1_TIMEOUT_ENABLED) */
 318:.\Generated_Source\PSoC5/I2C_1_PM.c **** }
 246              		.loc 1 318 0
 247 00c2 07F10807 		add	r7, r7, #8
 248 00c6 BD46     		mov	sp, r7
 249 00c8 80BD     		pop	{r7, pc}
 250              		.cfi_endproc
 251              	.LFE2:
 252              		.size	I2C_1_RestoreConfig, .-I2C_1_RestoreConfig
ARM GAS  C:\Users\Robert\AppData\Local\Temp\ccEB72Xs.s 			page 11


 253 00ca 00BF     		.section	.text.I2C_1_Wakeup,"ax",%progbits
 254              		.align	2
 255              		.global	I2C_1_Wakeup
 256              		.thumb
 257              		.thumb_func
 258              		.type	I2C_1_Wakeup, %function
 259              	I2C_1_Wakeup:
 260              	.LFB3:
 319:.\Generated_Source\PSoC5/I2C_1_PM.c **** 
 320:.\Generated_Source\PSoC5/I2C_1_PM.c **** 
 321:.\Generated_Source\PSoC5/I2C_1_PM.c **** /*******************************************************************************
 322:.\Generated_Source\PSoC5/I2C_1_PM.c **** * Function Name: I2C_1_Wakeup
 323:.\Generated_Source\PSoC5/I2C_1_PM.c **** ********************************************************************************
 324:.\Generated_Source\PSoC5/I2C_1_PM.c **** *
 325:.\Generated_Source\PSoC5/I2C_1_PM.c **** * Summary:
 326:.\Generated_Source\PSoC5/I2C_1_PM.c **** *  Wakeup on address match enabled: enables I2C Master (if was enabled before go
 327:.\Generated_Source\PSoC5/I2C_1_PM.c **** *  to sleep) and disables I2C backup regulator.
 328:.\Generated_Source\PSoC5/I2C_1_PM.c **** *  Wakeup on address match disabled: Restores I2C configuration and
 329:.\Generated_Source\PSoC5/I2C_1_PM.c **** *  non-retention register values. Restores Active mode power template bits or
 330:.\Generated_Source\PSoC5/I2C_1_PM.c **** *  clock gating as appropriate.
 331:.\Generated_Source\PSoC5/I2C_1_PM.c **** *  The I2C interrupt remains disabled after function call.
 332:.\Generated_Source\PSoC5/I2C_1_PM.c **** *
 333:.\Generated_Source\PSoC5/I2C_1_PM.c **** * Parameters:
 334:.\Generated_Source\PSoC5/I2C_1_PM.c **** *  None
 335:.\Generated_Source\PSoC5/I2C_1_PM.c **** *
 336:.\Generated_Source\PSoC5/I2C_1_PM.c **** * Return:
 337:.\Generated_Source\PSoC5/I2C_1_PM.c **** *  None
 338:.\Generated_Source\PSoC5/I2C_1_PM.c **** *
 339:.\Generated_Source\PSoC5/I2C_1_PM.c **** * Reentrant:
 340:.\Generated_Source\PSoC5/I2C_1_PM.c **** *  No
 341:.\Generated_Source\PSoC5/I2C_1_PM.c **** *
 342:.\Generated_Source\PSoC5/I2C_1_PM.c **** *******************************************************************************/
 343:.\Generated_Source\PSoC5/I2C_1_PM.c **** void I2C_1_Wakeup(void) 
 344:.\Generated_Source\PSoC5/I2C_1_PM.c **** {
 261              		.loc 1 344 0
 262              		.cfi_startproc
 263              		@ args = 0, pretend = 0, frame = 0
 264              		@ frame_needed = 1, uses_anonymous_args = 0
 265 0000 80B5     		push	{r7, lr}
 266              	.LCFI7:
 267              		.cfi_def_cfa_offset 8
 268              		.cfi_offset 7, -8
 269              		.cfi_offset 14, -4
 270 0002 00AF     		add	r7, sp, #0
 271              	.LCFI8:
 272              		.cfi_def_cfa_register 7
 345:.\Generated_Source\PSoC5/I2C_1_PM.c ****     I2C_1_RestoreConfig();   /* Restore I2C register settings */
 273              		.loc 1 345 0
 274 0004 FFF7FEFF 		bl	I2C_1_RestoreConfig
 346:.\Generated_Source\PSoC5/I2C_1_PM.c **** 
 347:.\Generated_Source\PSoC5/I2C_1_PM.c ****     /* Restore component enable state */
 348:.\Generated_Source\PSoC5/I2C_1_PM.c ****     if(0u != I2C_1_backup.enableState)
 275              		.loc 1 348 0
 276 0008 40F20003 		movw	r3, #:lower16:I2C_1_backup
 277 000c C0F20003 		movt	r3, #:upper16:I2C_1_backup
 278 0010 1B78     		ldrb	r3, [r3, #0]	@ zero_extendqisi2
 279 0012 002B     		cmp	r3, #0
ARM GAS  C:\Users\Robert\AppData\Local\Temp\ccEB72Xs.s 			page 12


 280 0014 08D0     		beq	.L7
 349:.\Generated_Source\PSoC5/I2C_1_PM.c ****     {
 350:.\Generated_Source\PSoC5/I2C_1_PM.c ****         I2C_1_Enable();
 281              		.loc 1 350 0
 282 0016 FFF7FEFF 		bl	I2C_1_Enable
 351:.\Generated_Source\PSoC5/I2C_1_PM.c ****         I2C_1_EnableInt();
 283              		.loc 1 351 0
 284 001a 4FF46143 		mov	r3, #57600
 285 001e CEF20003 		movt	r3, 57344
 286 0022 4FF40042 		mov	r2, #32768
 287 0026 1A60     		str	r2, [r3, #0]
 288              	.L7:
 352:.\Generated_Source\PSoC5/I2C_1_PM.c ****     }
 353:.\Generated_Source\PSoC5/I2C_1_PM.c ****     else
 354:.\Generated_Source\PSoC5/I2C_1_PM.c ****     {
 355:.\Generated_Source\PSoC5/I2C_1_PM.c ****         #if(I2C_1_TIMEOUT_ENABLED)
 356:.\Generated_Source\PSoC5/I2C_1_PM.c ****             I2C_1_TimeoutEnable();
 357:.\Generated_Source\PSoC5/I2C_1_PM.c ****         #endif /* (I2C_1_TIMEOUT_ENABLED) */
 358:.\Generated_Source\PSoC5/I2C_1_PM.c ****     }
 359:.\Generated_Source\PSoC5/I2C_1_PM.c **** }
 289              		.loc 1 359 0
 290 0028 80BD     		pop	{r7, pc}
 291              		.cfi_endproc
 292              	.LFE3:
 293              		.size	I2C_1_Wakeup, .-I2C_1_Wakeup
 294 002a 00BF     		.text
 295              	.Letext0:
 296              		.file 2 ".\\Generated_Source\\PSoC5\\cytypes.h"
 297              		.file 3 ".\\Generated_Source\\PSoC5\\I2C_1.h"