ARM GAS  C:\Users\Brian\AppData\Local\Temp\cc8oS3v4.s 			page 1


   1              		.syntax unified
   2              		.cpu cortex-m3
   3              		.fpu softvfp
   4              		.eabi_attribute 20, 1
   5              		.eabi_attribute 21, 1
   6              		.eabi_attribute 23, 3
   7              		.eabi_attribute 24, 1
   8              		.eabi_attribute 25, 1
   9              		.eabi_attribute 26, 1
  10              		.eabi_attribute 30, 6
  11              		.eabi_attribute 34, 1
  12              		.eabi_attribute 18, 4
  13              		.thumb
  14              		.file	"I2C_1.c"
  15              		.text
  16              	.Ltext0:
  17              		.cfi_sections	.debug_frame
  18              		.global	I2C_1_initVar
  19              		.bss
  20              		.type	I2C_1_initVar, %object
  21              		.size	I2C_1_initVar, 1
  22              	I2C_1_initVar:
  23 0000 00       		.space	1
  24              		.comm	I2C_1_state,1,1
  25              		.section	.text.I2C_1_Init,"ax",%progbits
  26              		.align	2
  27              		.global	I2C_1_Init
  28              		.thumb
  29              		.thumb_func
  30              		.type	I2C_1_Init, %function
  31              	I2C_1_Init:
  32              	.LFB0:
  33              		.file 1 ".\\Generated_Source\\PSoC5\\I2C_1.c"
   1:.\Generated_Source\PSoC5/I2C_1.c **** /*******************************************************************************
   2:.\Generated_Source\PSoC5/I2C_1.c **** * File Name: I2C_1.c
   3:.\Generated_Source\PSoC5/I2C_1.c **** * Version 3.30
   4:.\Generated_Source\PSoC5/I2C_1.c **** *
   5:.\Generated_Source\PSoC5/I2C_1.c **** * Description:
   6:.\Generated_Source\PSoC5/I2C_1.c **** *  This file provides the source code of APIs for the I2C component.
   7:.\Generated_Source\PSoC5/I2C_1.c **** *  Actual protocol and operation code resides in the interrupt service routine
   8:.\Generated_Source\PSoC5/I2C_1.c **** *  file.
   9:.\Generated_Source\PSoC5/I2C_1.c **** *
  10:.\Generated_Source\PSoC5/I2C_1.c **** * Note:
  11:.\Generated_Source\PSoC5/I2C_1.c **** *
  12:.\Generated_Source\PSoC5/I2C_1.c **** *******************************************************************************
  13:.\Generated_Source\PSoC5/I2C_1.c **** * Copyright 2008-2012, Cypress Semiconductor Corporation. All rights reserved.
  14:.\Generated_Source\PSoC5/I2C_1.c **** * You may use this file only in accordance with the license, terms, conditions,
  15:.\Generated_Source\PSoC5/I2C_1.c **** * disclaimers, and limitations in the end user license agreement accompanying
  16:.\Generated_Source\PSoC5/I2C_1.c **** * the software package with which this file was provided.
  17:.\Generated_Source\PSoC5/I2C_1.c **** *******************************************************************************/
  18:.\Generated_Source\PSoC5/I2C_1.c **** 
  19:.\Generated_Source\PSoC5/I2C_1.c **** #include "I2C_1_PVT.h"
  20:.\Generated_Source\PSoC5/I2C_1.c **** 
  21:.\Generated_Source\PSoC5/I2C_1.c **** 
  22:.\Generated_Source\PSoC5/I2C_1.c **** /**********************************
  23:.\Generated_Source\PSoC5/I2C_1.c **** *      System variables
  24:.\Generated_Source\PSoC5/I2C_1.c **** **********************************/
ARM GAS  C:\Users\Brian\AppData\Local\Temp\cc8oS3v4.s 			page 2


  25:.\Generated_Source\PSoC5/I2C_1.c **** 
  26:.\Generated_Source\PSoC5/I2C_1.c **** uint8 I2C_1_initVar = 0u;    /* Defines if component was initialized */
  27:.\Generated_Source\PSoC5/I2C_1.c **** 
  28:.\Generated_Source\PSoC5/I2C_1.c **** volatile uint8 I2C_1_state;  /* Current state of I2C FSM */
  29:.\Generated_Source\PSoC5/I2C_1.c **** 
  30:.\Generated_Source\PSoC5/I2C_1.c **** 
  31:.\Generated_Source\PSoC5/I2C_1.c **** /*******************************************************************************
  32:.\Generated_Source\PSoC5/I2C_1.c **** * Function Name: I2C_1_Init
  33:.\Generated_Source\PSoC5/I2C_1.c **** ********************************************************************************
  34:.\Generated_Source\PSoC5/I2C_1.c **** *
  35:.\Generated_Source\PSoC5/I2C_1.c **** * Summary:
  36:.\Generated_Source\PSoC5/I2C_1.c **** *  Initializes I2C registers with initial values provided from customizer.
  37:.\Generated_Source\PSoC5/I2C_1.c **** *
  38:.\Generated_Source\PSoC5/I2C_1.c **** * Parameters:
  39:.\Generated_Source\PSoC5/I2C_1.c **** *  None
  40:.\Generated_Source\PSoC5/I2C_1.c **** *
  41:.\Generated_Source\PSoC5/I2C_1.c **** * Return:
  42:.\Generated_Source\PSoC5/I2C_1.c **** *  None
  43:.\Generated_Source\PSoC5/I2C_1.c **** *
  44:.\Generated_Source\PSoC5/I2C_1.c **** * Global variables:
  45:.\Generated_Source\PSoC5/I2C_1.c **** *  None
  46:.\Generated_Source\PSoC5/I2C_1.c **** *
  47:.\Generated_Source\PSoC5/I2C_1.c **** * Reentrant:
  48:.\Generated_Source\PSoC5/I2C_1.c **** *  No
  49:.\Generated_Source\PSoC5/I2C_1.c **** *
  50:.\Generated_Source\PSoC5/I2C_1.c **** *******************************************************************************/
  51:.\Generated_Source\PSoC5/I2C_1.c **** void I2C_1_Init(void) 
  52:.\Generated_Source\PSoC5/I2C_1.c **** {
  34              		.loc 1 52 0
  35              		.cfi_startproc
  36              		@ args = 0, pretend = 0, frame = 0
  37              		@ frame_needed = 1, uses_anonymous_args = 0
  38 0000 80B5     		push	{r7, lr}
  39              	.LCFI0:
  40              		.cfi_def_cfa_offset 8
  41              		.cfi_offset 7, -8
  42              		.cfi_offset 14, -4
  43 0002 00AF     		add	r7, sp, #0
  44              	.LCFI1:
  45              		.cfi_def_cfa_register 7
  53:.\Generated_Source\PSoC5/I2C_1.c ****     #if(I2C_1_FF_IMPLEMENTED)
  54:.\Generated_Source\PSoC5/I2C_1.c ****         I2C_1_CFG_REG  = I2C_1_DEFAULT_CFG;
  46              		.loc 1 54 0
  47 0004 44F6D613 		movw	r3, #18902
  48 0008 C4F20003 		movt	r3, 16384
  49 000c 4FF00102 		mov	r2, #1
  50 0010 1A70     		strb	r2, [r3, #0]
  55:.\Generated_Source\PSoC5/I2C_1.c ****         I2C_1_XCFG_REG = I2C_1_DEFAULT_XCFG;
  51              		.loc 1 55 0
  52 0012 44F6C813 		movw	r3, #18888
  53 0016 C4F20003 		movt	r3, 16384
  54 001a 4FF08102 		mov	r2, #129
  55 001e 1A70     		strb	r2, [r3, #0]
  56:.\Generated_Source\PSoC5/I2C_1.c **** 
  57:.\Generated_Source\PSoC5/I2C_1.c ****         #if(CY_PSOC5A)
  58:.\Generated_Source\PSoC5/I2C_1.c ****             I2C_1_CLKDIV_REG  = LO8(I2C_1_DEFAULT_DIVIDE_FACTOR);
  59:.\Generated_Source\PSoC5/I2C_1.c ****         #else
ARM GAS  C:\Users\Brian\AppData\Local\Temp\cc8oS3v4.s 			page 3


  60:.\Generated_Source\PSoC5/I2C_1.c ****             I2C_1_CLKDIV1_REG = LO8(I2C_1_DEFAULT_DIVIDE_FACTOR);
  56              		.loc 1 60 0
  57 0020 44F6DB13 		movw	r3, #18907
  58 0024 C4F20003 		movt	r3, 16384
  59 0028 4FF00102 		mov	r2, #1
  60 002c 1A70     		strb	r2, [r3, #0]
  61:.\Generated_Source\PSoC5/I2C_1.c ****             I2C_1_CLKDIV2_REG = HI8(I2C_1_DEFAULT_DIVIDE_FACTOR);
  61              		.loc 1 61 0
  62 002e 44F6DC13 		movw	r3, #18908
  63 0032 C4F20003 		movt	r3, 16384
  64 0036 4FF00002 		mov	r2, #0
  65 003a 1A70     		strb	r2, [r3, #0]
  62:.\Generated_Source\PSoC5/I2C_1.c ****         #endif /* (CY_PSOC5A) */
  63:.\Generated_Source\PSoC5/I2C_1.c **** 
  64:.\Generated_Source\PSoC5/I2C_1.c ****     #else
  65:.\Generated_Source\PSoC5/I2C_1.c ****         uint8 enableInterrupts;
  66:.\Generated_Source\PSoC5/I2C_1.c **** 
  67:.\Generated_Source\PSoC5/I2C_1.c ****         I2C_1_CFG_REG      = I2C_1_DEFAULT_CFG;      /* control  */
  68:.\Generated_Source\PSoC5/I2C_1.c ****         I2C_1_INT_MASK_REG = I2C_1_DEFAULT_INT_MASK; /* int_mask */
  69:.\Generated_Source\PSoC5/I2C_1.c **** 
  70:.\Generated_Source\PSoC5/I2C_1.c ****         /* Enable interrupts from block */
  71:.\Generated_Source\PSoC5/I2C_1.c ****         enableInterrupts = CyEnterCriticalSection();
  72:.\Generated_Source\PSoC5/I2C_1.c ****         I2C_1_INT_ENABLE_REG |= I2C_1_INTR_ENABLE; /* aux_ctl */
  73:.\Generated_Source\PSoC5/I2C_1.c ****         CyExitCriticalSection(enableInterrupts);
  74:.\Generated_Source\PSoC5/I2C_1.c **** 
  75:.\Generated_Source\PSoC5/I2C_1.c ****         #if(I2C_1_MODE_MASTER_ENABLED)
  76:.\Generated_Source\PSoC5/I2C_1.c ****             I2C_1_MCLK_PRD_REG = I2C_1_DEFAULT_MCLK_PRD;
  77:.\Generated_Source\PSoC5/I2C_1.c ****             I2C_1_MCLK_CMP_REG = I2C_1_DEFAULT_MCLK_CMP;
  78:.\Generated_Source\PSoC5/I2C_1.c ****          #endif /* (I2C_1_MODE_MASTER_ENABLED) */
  79:.\Generated_Source\PSoC5/I2C_1.c **** 
  80:.\Generated_Source\PSoC5/I2C_1.c ****         #if(I2C_1_MODE_SLAVE_ENABLED)
  81:.\Generated_Source\PSoC5/I2C_1.c ****             I2C_1_PERIOD_REG = I2C_1_DEFAULT_PERIOD;
  82:.\Generated_Source\PSoC5/I2C_1.c ****         #endif  /* (I2C_1_MODE_SLAVE_ENABLED) */
  83:.\Generated_Source\PSoC5/I2C_1.c **** 
  84:.\Generated_Source\PSoC5/I2C_1.c ****     #endif /* (I2C_1_FF_IMPLEMENTED) */
  85:.\Generated_Source\PSoC5/I2C_1.c **** 
  86:.\Generated_Source\PSoC5/I2C_1.c ****     #if(I2C_1_TIMEOUT_ENABLED)
  87:.\Generated_Source\PSoC5/I2C_1.c ****         I2C_1_TimeoutInit();
  88:.\Generated_Source\PSoC5/I2C_1.c ****     #endif /* (I2C_1_TIMEOUT_ENABLED) */
  89:.\Generated_Source\PSoC5/I2C_1.c **** 
  90:.\Generated_Source\PSoC5/I2C_1.c ****     /* Disable Interrupt and set vector and priority */
  91:.\Generated_Source\PSoC5/I2C_1.c ****     CyIntDisable    (I2C_1_ISR_NUMBER);
  66              		.loc 1 91 0
  67 003c 4EF28013 		movw	r3, #57728
  68 0040 CEF20003 		movt	r3, 57344
  69 0044 4FF40042 		mov	r2, #32768
  70 0048 1A60     		str	r2, [r3, #0]
  92:.\Generated_Source\PSoC5/I2C_1.c ****     CyIntSetPriority(I2C_1_ISR_NUMBER, I2C_1_ISR_PRIORITY);
  71              		.loc 1 92 0
  72 004a 4FF00F00 		mov	r0, #15
  73 004e 4FF00701 		mov	r1, #7
  74 0052 FFF7FEFF 		bl	CyIntSetPriority
  93:.\Generated_Source\PSoC5/I2C_1.c ****     #if(I2C_1_INTERN_I2C_INTR_HANDLER)
  94:.\Generated_Source\PSoC5/I2C_1.c ****         (void) CyIntSetVector(I2C_1_ISR_NUMBER, &I2C_1_ISR);
  75              		.loc 1 94 0
  76 0056 4FF00F00 		mov	r0, #15
  77 005a 40F20001 		movw	r1, #:lower16:I2C_1_ISR
ARM GAS  C:\Users\Brian\AppData\Local\Temp\cc8oS3v4.s 			page 4


  78 005e C0F20001 		movt	r1, #:upper16:I2C_1_ISR
  79 0062 FFF7FEFF 		bl	CyIntSetVector
  95:.\Generated_Source\PSoC5/I2C_1.c ****     #endif /* (I2C_1_INTERN_I2C_INTR_HANDLER) */
  96:.\Generated_Source\PSoC5/I2C_1.c **** 
  97:.\Generated_Source\PSoC5/I2C_1.c **** 
  98:.\Generated_Source\PSoC5/I2C_1.c ****     /* Put state machine in idle state */
  99:.\Generated_Source\PSoC5/I2C_1.c ****     I2C_1_state = I2C_1_SM_IDLE;
  80              		.loc 1 99 0
  81 0066 40F20003 		movw	r3, #:lower16:I2C_1_state
  82 006a C0F20003 		movt	r3, #:upper16:I2C_1_state
  83 006e 4FF01002 		mov	r2, #16
  84 0072 1A70     		strb	r2, [r3, #0]
 100:.\Generated_Source\PSoC5/I2C_1.c **** 
 101:.\Generated_Source\PSoC5/I2C_1.c ****     #if(I2C_1_MODE_SLAVE_ENABLED)
 102:.\Generated_Source\PSoC5/I2C_1.c ****         /* Reset status and buffers index */
 103:.\Generated_Source\PSoC5/I2C_1.c ****         I2C_1_SlaveClearReadBuf();
  85              		.loc 1 103 0
  86 0074 FFF7FEFF 		bl	I2C_1_SlaveClearReadBuf
 104:.\Generated_Source\PSoC5/I2C_1.c ****         I2C_1_SlaveClearWriteBuf();
  87              		.loc 1 104 0
  88 0078 FFF7FEFF 		bl	I2C_1_SlaveClearWriteBuf
 105:.\Generated_Source\PSoC5/I2C_1.c ****         I2C_1_slStatus = 0u; /* Reset slave status */
  89              		.loc 1 105 0
  90 007c 40F20003 		movw	r3, #:lower16:I2C_1_slStatus
  91 0080 C0F20003 		movt	r3, #:upper16:I2C_1_slStatus
  92 0084 4FF00002 		mov	r2, #0
  93 0088 1A70     		strb	r2, [r3, #0]
 106:.\Generated_Source\PSoC5/I2C_1.c **** 
 107:.\Generated_Source\PSoC5/I2C_1.c ****         /* Set default address */
 108:.\Generated_Source\PSoC5/I2C_1.c ****         I2C_1_SlaveSetAddress(I2C_1_DEFAULT_ADDR);
  94              		.loc 1 108 0
  95 008a 4FF00800 		mov	r0, #8
  96 008e FFF7FEFF 		bl	I2C_1_SlaveSetAddress
 109:.\Generated_Source\PSoC5/I2C_1.c ****     #endif /* (I2C_1_MODE_SLAVE_ENABLED) */
 110:.\Generated_Source\PSoC5/I2C_1.c **** 
 111:.\Generated_Source\PSoC5/I2C_1.c ****     #if(I2C_1_MODE_MASTER_ENABLED)
 112:.\Generated_Source\PSoC5/I2C_1.c ****         /* Reset status and buffers index */
 113:.\Generated_Source\PSoC5/I2C_1.c ****         I2C_1_MasterClearReadBuf();
 114:.\Generated_Source\PSoC5/I2C_1.c ****         I2C_1_MasterClearWriteBuf();
 115:.\Generated_Source\PSoC5/I2C_1.c ****         (void) I2C_1_MasterClearStatus();
 116:.\Generated_Source\PSoC5/I2C_1.c ****     #endif /* (I2C_1_MODE_MASTER_ENABLED) */
 117:.\Generated_Source\PSoC5/I2C_1.c **** }
  97              		.loc 1 117 0
  98 0092 80BD     		pop	{r7, pc}
  99              		.cfi_endproc
 100              	.LFE0:
 101              		.size	I2C_1_Init, .-I2C_1_Init
 102              		.section	.text.I2C_1_Enable,"ax",%progbits
 103              		.align	2
 104              		.global	I2C_1_Enable
 105              		.thumb
 106              		.thumb_func
 107              		.type	I2C_1_Enable, %function
 108              	I2C_1_Enable:
 109              	.LFB1:
 118:.\Generated_Source\PSoC5/I2C_1.c **** 
 119:.\Generated_Source\PSoC5/I2C_1.c **** 
ARM GAS  C:\Users\Brian\AppData\Local\Temp\cc8oS3v4.s 			page 5


 120:.\Generated_Source\PSoC5/I2C_1.c **** /*******************************************************************************
 121:.\Generated_Source\PSoC5/I2C_1.c **** * Function Name: I2C_1_Enable
 122:.\Generated_Source\PSoC5/I2C_1.c **** ********************************************************************************
 123:.\Generated_Source\PSoC5/I2C_1.c **** *
 124:.\Generated_Source\PSoC5/I2C_1.c **** * Summary:
 125:.\Generated_Source\PSoC5/I2C_1.c **** *  Enables I2C operations.
 126:.\Generated_Source\PSoC5/I2C_1.c **** *
 127:.\Generated_Source\PSoC5/I2C_1.c **** * Parameters:
 128:.\Generated_Source\PSoC5/I2C_1.c **** *  None
 129:.\Generated_Source\PSoC5/I2C_1.c **** *
 130:.\Generated_Source\PSoC5/I2C_1.c **** * Return:
 131:.\Generated_Source\PSoC5/I2C_1.c **** *  None
 132:.\Generated_Source\PSoC5/I2C_1.c **** *
 133:.\Generated_Source\PSoC5/I2C_1.c **** * Global variables:
 134:.\Generated_Source\PSoC5/I2C_1.c **** *  None
 135:.\Generated_Source\PSoC5/I2C_1.c **** *
 136:.\Generated_Source\PSoC5/I2C_1.c **** *******************************************************************************/
 137:.\Generated_Source\PSoC5/I2C_1.c **** void I2C_1_Enable(void) 
 138:.\Generated_Source\PSoC5/I2C_1.c **** {
 110              		.loc 1 138 0
 111              		.cfi_startproc
 112              		@ args = 0, pretend = 0, frame = 8
 113              		@ frame_needed = 1, uses_anonymous_args = 0
 114 0000 80B5     		push	{r7, lr}
 115              	.LCFI2:
 116              		.cfi_def_cfa_offset 8
 117              		.cfi_offset 7, -8
 118              		.cfi_offset 14, -4
 119 0002 82B0     		sub	sp, sp, #8
 120              	.LCFI3:
 121              		.cfi_def_cfa_offset 16
 122 0004 00AF     		add	r7, sp, #0
 123              	.LCFI4:
 124              		.cfi_def_cfa_register 7
 139:.\Generated_Source\PSoC5/I2C_1.c ****     #if(I2C_1_FF_IMPLEMENTED)
 140:.\Generated_Source\PSoC5/I2C_1.c ****         uint8 enableInterrupts;
 141:.\Generated_Source\PSoC5/I2C_1.c **** 
 142:.\Generated_Source\PSoC5/I2C_1.c ****         /* Enable power to I2C FF block */
 143:.\Generated_Source\PSoC5/I2C_1.c ****         enableInterrupts = CyEnterCriticalSection();
 125              		.loc 1 143 0
 126 0006 FFF7FEFF 		bl	CyEnterCriticalSection
 127 000a 0346     		mov	r3, r0
 128 000c FB71     		strb	r3, [r7, #7]
 144:.\Generated_Source\PSoC5/I2C_1.c ****         I2C_1_ACT_PWRMGR_REG  |= I2C_1_ACT_PWR_EN;
 129              		.loc 1 144 0
 130 000e 44F2A533 		movw	r3, #17317
 131 0012 C4F20003 		movt	r3, 16384
 132 0016 44F2A532 		movw	r2, #17317
 133 001a C4F20002 		movt	r2, 16384
 134 001e 1278     		ldrb	r2, [r2, #0]
 135 0020 D2B2     		uxtb	r2, r2
 136 0022 42F00402 		orr	r2, r2, #4
 137 0026 D2B2     		uxtb	r2, r2
 138 0028 1A70     		strb	r2, [r3, #0]
 145:.\Generated_Source\PSoC5/I2C_1.c ****         I2C_1_STBY_PWRMGR_REG |= I2C_1_STBY_PWR_EN;
 139              		.loc 1 145 0
 140 002a 44F2B533 		movw	r3, #17333
ARM GAS  C:\Users\Brian\AppData\Local\Temp\cc8oS3v4.s 			page 6


 141 002e C4F20003 		movt	r3, 16384
 142 0032 44F2B532 		movw	r2, #17333
 143 0036 C4F20002 		movt	r2, 16384
 144 003a 1278     		ldrb	r2, [r2, #0]
 145 003c D2B2     		uxtb	r2, r2
 146 003e 42F00402 		orr	r2, r2, #4
 147 0042 D2B2     		uxtb	r2, r2
 148 0044 1A70     		strb	r2, [r3, #0]
 146:.\Generated_Source\PSoC5/I2C_1.c ****         CyExitCriticalSection(enableInterrupts);
 149              		.loc 1 146 0
 150 0046 FB79     		ldrb	r3, [r7, #7]	@ zero_extendqisi2
 151 0048 1846     		mov	r0, r3
 152 004a FFF7FEFF 		bl	CyExitCriticalSection
 147:.\Generated_Source\PSoC5/I2C_1.c **** 
 148:.\Generated_Source\PSoC5/I2C_1.c ****     #else
 149:.\Generated_Source\PSoC5/I2C_1.c **** 
 150:.\Generated_Source\PSoC5/I2C_1.c ****         #if(I2C_1_MODE_SLAVE_ENABLED)
 151:.\Generated_Source\PSoC5/I2C_1.c ****             uint8 enableInterrupts;
 152:.\Generated_Source\PSoC5/I2C_1.c ****         #endif /* (I2C_1_MODE_SLAVE_ENABLED) */
 153:.\Generated_Source\PSoC5/I2C_1.c **** 
 154:.\Generated_Source\PSoC5/I2C_1.c ****         #if(I2C_1_MODE_SLAVE_ENABLED)
 155:.\Generated_Source\PSoC5/I2C_1.c ****             /* Enable slave bit counter */
 156:.\Generated_Source\PSoC5/I2C_1.c ****             enableInterrupts = CyEnterCriticalSection();
 157:.\Generated_Source\PSoC5/I2C_1.c ****             I2C_1_COUNTER_AUX_CTL_REG |= I2C_1_CNT7_ENABLE;   /* aux_ctl */
 158:.\Generated_Source\PSoC5/I2C_1.c ****             CyExitCriticalSection(enableInterrupts);
 159:.\Generated_Source\PSoC5/I2C_1.c ****         #endif /* (I2C_1_MODE_SLAVE_ENABLED) */
 160:.\Generated_Source\PSoC5/I2C_1.c **** 
 161:.\Generated_Source\PSoC5/I2C_1.c ****         I2C_1_CFG_REG |= I2C_1_ENABLE_MS;
 162:.\Generated_Source\PSoC5/I2C_1.c **** 
 163:.\Generated_Source\PSoC5/I2C_1.c ****     #endif /* (I2C_1_FF_IMPLEMENTED) */
 164:.\Generated_Source\PSoC5/I2C_1.c **** 
 165:.\Generated_Source\PSoC5/I2C_1.c ****     #if(I2C_1_TIMEOUT_ENABLED)
 166:.\Generated_Source\PSoC5/I2C_1.c ****         I2C_1_TimeoutEnable();
 167:.\Generated_Source\PSoC5/I2C_1.c ****     #endif /* (I2C_1_TIMEOUT_ENABLED) */
 168:.\Generated_Source\PSoC5/I2C_1.c **** }
 153              		.loc 1 168 0
 154 004e 07F10807 		add	r7, r7, #8
 155 0052 BD46     		mov	sp, r7
 156 0054 80BD     		pop	{r7, pc}
 157              		.cfi_endproc
 158              	.LFE1:
 159              		.size	I2C_1_Enable, .-I2C_1_Enable
 160 0056 00BF     		.section	.text.I2C_1_Start,"ax",%progbits
 161              		.align	2
 162              		.global	I2C_1_Start
 163              		.thumb
 164              		.thumb_func
 165              		.type	I2C_1_Start, %function
 166              	I2C_1_Start:
 167              	.LFB2:
 169:.\Generated_Source\PSoC5/I2C_1.c **** 
 170:.\Generated_Source\PSoC5/I2C_1.c **** 
 171:.\Generated_Source\PSoC5/I2C_1.c **** /*******************************************************************************
 172:.\Generated_Source\PSoC5/I2C_1.c **** * Function Name: I2C_1_Start
 173:.\Generated_Source\PSoC5/I2C_1.c **** ********************************************************************************
 174:.\Generated_Source\PSoC5/I2C_1.c **** *
 175:.\Generated_Source\PSoC5/I2C_1.c **** * Summary:
ARM GAS  C:\Users\Brian\AppData\Local\Temp\cc8oS3v4.s 			page 7


 176:.\Generated_Source\PSoC5/I2C_1.c **** *  Starts the I2C hardware. Enables Active mode power template bits or clock
 177:.\Generated_Source\PSoC5/I2C_1.c **** *  gating as appropriate. It is required to be executed before I2C bus
 178:.\Generated_Source\PSoC5/I2C_1.c **** *  operation.
 179:.\Generated_Source\PSoC5/I2C_1.c **** *  The I2C interrupt remains disabled after this function call.
 180:.\Generated_Source\PSoC5/I2C_1.c **** *
 181:.\Generated_Source\PSoC5/I2C_1.c **** * Parameters:
 182:.\Generated_Source\PSoC5/I2C_1.c **** *  None
 183:.\Generated_Source\PSoC5/I2C_1.c **** *
 184:.\Generated_Source\PSoC5/I2C_1.c **** * Return:
 185:.\Generated_Source\PSoC5/I2C_1.c **** *  None
 186:.\Generated_Source\PSoC5/I2C_1.c **** *
 187:.\Generated_Source\PSoC5/I2C_1.c **** * Side Effects:
 188:.\Generated_Source\PSoC5/I2C_1.c **** *  This component automatically enables it's interrupt.  If I2C is enabled
 189:.\Generated_Source\PSoC5/I2C_1.c **** *  without the interrupt enabled, it could lock up the I2C bus.
 190:.\Generated_Source\PSoC5/I2C_1.c **** *
 191:.\Generated_Source\PSoC5/I2C_1.c **** * Global variables:
 192:.\Generated_Source\PSoC5/I2C_1.c **** *  I2C_1_initVar - used to check initial configuration, modified
 193:.\Generated_Source\PSoC5/I2C_1.c **** *  on first function call.
 194:.\Generated_Source\PSoC5/I2C_1.c **** *
 195:.\Generated_Source\PSoC5/I2C_1.c **** * Reentrant:
 196:.\Generated_Source\PSoC5/I2C_1.c **** *  No
 197:.\Generated_Source\PSoC5/I2C_1.c **** *
 198:.\Generated_Source\PSoC5/I2C_1.c **** *******************************************************************************/
 199:.\Generated_Source\PSoC5/I2C_1.c **** void I2C_1_Start(void) 
 200:.\Generated_Source\PSoC5/I2C_1.c **** {
 168              		.loc 1 200 0
 169              		.cfi_startproc
 170              		@ args = 0, pretend = 0, frame = 0
 171              		@ frame_needed = 1, uses_anonymous_args = 0
 172 0000 80B5     		push	{r7, lr}
 173              	.LCFI5:
 174              		.cfi_def_cfa_offset 8
 175              		.cfi_offset 7, -8
 176              		.cfi_offset 14, -4
 177 0002 00AF     		add	r7, sp, #0
 178              	.LCFI6:
 179              		.cfi_def_cfa_register 7
 201:.\Generated_Source\PSoC5/I2C_1.c ****     /* Initialize I2C registers, reset I2C buffer index and clears status */
 202:.\Generated_Source\PSoC5/I2C_1.c ****     if(0u == I2C_1_initVar)
 180              		.loc 1 202 0
 181 0004 40F20003 		movw	r3, #:lower16:I2C_1_initVar
 182 0008 C0F20003 		movt	r3, #:upper16:I2C_1_initVar
 183 000c 1B78     		ldrb	r3, [r3, #0]	@ zero_extendqisi2
 184 000e 002B     		cmp	r3, #0
 185 0010 08D1     		bne	.L4
 203:.\Generated_Source\PSoC5/I2C_1.c ****     {
 204:.\Generated_Source\PSoC5/I2C_1.c ****         I2C_1_Init();
 186              		.loc 1 204 0
 187 0012 FFF7FEFF 		bl	I2C_1_Init
 205:.\Generated_Source\PSoC5/I2C_1.c ****         I2C_1_initVar = 1u; /* Component initialized */
 188              		.loc 1 205 0
 189 0016 40F20003 		movw	r3, #:lower16:I2C_1_initVar
 190 001a C0F20003 		movt	r3, #:upper16:I2C_1_initVar
 191 001e 4FF00102 		mov	r2, #1
 192 0022 1A70     		strb	r2, [r3, #0]
 193              	.L4:
 206:.\Generated_Source\PSoC5/I2C_1.c ****     }
ARM GAS  C:\Users\Brian\AppData\Local\Temp\cc8oS3v4.s 			page 8


 207:.\Generated_Source\PSoC5/I2C_1.c **** 
 208:.\Generated_Source\PSoC5/I2C_1.c ****     I2C_1_Enable();
 194              		.loc 1 208 0
 195 0024 FFF7FEFF 		bl	I2C_1_Enable
 209:.\Generated_Source\PSoC5/I2C_1.c ****     I2C_1_EnableInt();
 196              		.loc 1 209 0
 197 0028 4FF46143 		mov	r3, #57600
 198 002c CEF20003 		movt	r3, 57344
 199 0030 4FF40042 		mov	r2, #32768
 200 0034 1A60     		str	r2, [r3, #0]
 210:.\Generated_Source\PSoC5/I2C_1.c **** }
 201              		.loc 1 210 0
 202 0036 80BD     		pop	{r7, pc}
 203              		.cfi_endproc
 204              	.LFE2:
 205              		.size	I2C_1_Start, .-I2C_1_Start
 206              		.section	.text.I2C_1_Stop,"ax",%progbits
 207              		.align	2
 208              		.global	I2C_1_Stop
 209              		.thumb
 210              		.thumb_func
 211              		.type	I2C_1_Stop, %function
 212              	I2C_1_Stop:
 213              	.LFB3:
 211:.\Generated_Source\PSoC5/I2C_1.c **** 
 212:.\Generated_Source\PSoC5/I2C_1.c **** 
 213:.\Generated_Source\PSoC5/I2C_1.c **** /*******************************************************************************
 214:.\Generated_Source\PSoC5/I2C_1.c **** * Function Name: I2C_1_Stop
 215:.\Generated_Source\PSoC5/I2C_1.c **** ********************************************************************************
 216:.\Generated_Source\PSoC5/I2C_1.c **** *
 217:.\Generated_Source\PSoC5/I2C_1.c **** * Summary:
 218:.\Generated_Source\PSoC5/I2C_1.c **** *  Disables I2C hardware and disables I2C interrupt. Disables Active mode power
 219:.\Generated_Source\PSoC5/I2C_1.c **** *  template bits or clock gating as appropriate.
 220:.\Generated_Source\PSoC5/I2C_1.c **** *
 221:.\Generated_Source\PSoC5/I2C_1.c **** * Parameters:
 222:.\Generated_Source\PSoC5/I2C_1.c **** *  None
 223:.\Generated_Source\PSoC5/I2C_1.c **** *
 224:.\Generated_Source\PSoC5/I2C_1.c **** * Return:
 225:.\Generated_Source\PSoC5/I2C_1.c **** *  None
 226:.\Generated_Source\PSoC5/I2C_1.c **** *
 227:.\Generated_Source\PSoC5/I2C_1.c **** *******************************************************************************/
 228:.\Generated_Source\PSoC5/I2C_1.c **** void I2C_1_Stop(void) 
 229:.\Generated_Source\PSoC5/I2C_1.c **** {
 214              		.loc 1 229 0
 215              		.cfi_startproc
 216              		@ args = 0, pretend = 0, frame = 8
 217              		@ frame_needed = 1, uses_anonymous_args = 0
 218 0000 80B5     		push	{r7, lr}
 219              	.LCFI7:
 220              		.cfi_def_cfa_offset 8
 221              		.cfi_offset 7, -8
 222              		.cfi_offset 14, -4
 223 0002 82B0     		sub	sp, sp, #8
 224              	.LCFI8:
 225              		.cfi_def_cfa_offset 16
 226 0004 00AF     		add	r7, sp, #0
 227              	.LCFI9:
ARM GAS  C:\Users\Brian\AppData\Local\Temp\cc8oS3v4.s 			page 9


 228              		.cfi_def_cfa_register 7
 230:.\Generated_Source\PSoC5/I2C_1.c ****     #if((I2C_1_FF_IMPLEMENTED)  || \
 231:.\Generated_Source\PSoC5/I2C_1.c ****         (I2C_1_UDB_IMPLEMENTED && I2C_1_MODE_SLAVE_ENABLED))
 232:.\Generated_Source\PSoC5/I2C_1.c ****         uint8 enableInterrupts;
 233:.\Generated_Source\PSoC5/I2C_1.c ****     #endif /* ((I2C_1_FF_IMPLEMENTED)  || \
 234:.\Generated_Source\PSoC5/I2C_1.c ****                (I2C_1_UDB_IMPLEMENTED && I2C_1_MODE_SLAVE_ENABLED)) */
 235:.\Generated_Source\PSoC5/I2C_1.c **** 
 236:.\Generated_Source\PSoC5/I2C_1.c ****     I2C_1_DisableInt();
 229              		.loc 1 236 0
 230 0006 4EF28013 		movw	r3, #57728
 231 000a CEF20003 		movt	r3, 57344
 232 000e 4FF40042 		mov	r2, #32768
 233 0012 1A60     		str	r2, [r3, #0]
 237:.\Generated_Source\PSoC5/I2C_1.c **** 
 238:.\Generated_Source\PSoC5/I2C_1.c ****     I2C_1_DISABLE_INT_ON_STOP;   /* Interrupt on Stop can be enabled by write */
 234              		.loc 1 238 0
 235 0014 44F6D613 		movw	r3, #18902
 236 0018 C4F20003 		movt	r3, 16384
 237 001c 44F6D612 		movw	r2, #18902
 238 0020 C4F20002 		movt	r2, 16384
 239 0024 1278     		ldrb	r2, [r2, #0]
 240 0026 D2B2     		uxtb	r2, r2
 241 0028 22F01002 		bic	r2, r2, #16
 242 002c D2B2     		uxtb	r2, r2
 243 002e 1A70     		strb	r2, [r3, #0]
 239:.\Generated_Source\PSoC5/I2C_1.c ****     (void) I2C_1_CSR_REG;        /* Clear CSR reg */
 244              		.loc 1 239 0
 245 0030 44F6D713 		movw	r3, #18903
 246 0034 C4F20003 		movt	r3, 16384
 247 0038 1B78     		ldrb	r3, [r3, #0]
 240:.\Generated_Source\PSoC5/I2C_1.c ****     
 241:.\Generated_Source\PSoC5/I2C_1.c ****     #if(I2C_1_TIMEOUT_ENABLED)
 242:.\Generated_Source\PSoC5/I2C_1.c ****         I2C_1_TimeoutStop();
 243:.\Generated_Source\PSoC5/I2C_1.c ****     #endif  /* End (I2C_1_TIMEOUT_ENABLED) */
 244:.\Generated_Source\PSoC5/I2C_1.c **** 
 245:.\Generated_Source\PSoC5/I2C_1.c ****     #if(I2C_1_FF_IMPLEMENTED)
 246:.\Generated_Source\PSoC5/I2C_1.c ****         #if(CY_PSOC3 || CY_PSOC5LP)
 247:.\Generated_Source\PSoC5/I2C_1.c ****             /* Store registers which are held in reset when Master and Slave bits are cleared */
 248:.\Generated_Source\PSoC5/I2C_1.c ****             #if(I2C_1_MODE_SLAVE_ENABLED)
 249:.\Generated_Source\PSoC5/I2C_1.c ****                 I2C_1_backup.addr = I2C_1_ADDR_REG;
 248              		.loc 1 249 0
 249 003a 44F6CA13 		movw	r3, #18890
 250 003e C4F20003 		movt	r3, 16384
 251 0042 1B78     		ldrb	r3, [r3, #0]
 252 0044 DAB2     		uxtb	r2, r3
 253 0046 40F20003 		movw	r3, #:lower16:I2C_1_backup
 254 004a C0F20003 		movt	r3, #:upper16:I2C_1_backup
 255 004e DA70     		strb	r2, [r3, #3]
 250:.\Generated_Source\PSoC5/I2C_1.c ****             #endif /* (I2C_1_MODE_SLAVE_ENABLED) */
 251:.\Generated_Source\PSoC5/I2C_1.c **** 
 252:.\Generated_Source\PSoC5/I2C_1.c ****             I2C_1_backup.clkDiv1  = I2C_1_CLKDIV1_REG;
 256              		.loc 1 252 0
 257 0050 44F6DB13 		movw	r3, #18907
 258 0054 C4F20003 		movt	r3, 16384
 259 0058 1B78     		ldrb	r3, [r3, #0]
 260 005a DAB2     		uxtb	r2, r3
 261 005c 40F20003 		movw	r3, #:lower16:I2C_1_backup
ARM GAS  C:\Users\Brian\AppData\Local\Temp\cc8oS3v4.s 			page 10


 262 0060 C0F20003 		movt	r3, #:upper16:I2C_1_backup
 263 0064 1A71     		strb	r2, [r3, #4]
 253:.\Generated_Source\PSoC5/I2C_1.c ****             I2C_1_backup.clkDiv2  = I2C_1_CLKDIV2_REG;
 264              		.loc 1 253 0
 265 0066 44F6DC13 		movw	r3, #18908
 266 006a C4F20003 		movt	r3, 16384
 267 006e 1B78     		ldrb	r3, [r3, #0]
 268 0070 DAB2     		uxtb	r2, r3
 269 0072 40F20003 		movw	r3, #:lower16:I2C_1_backup
 270 0076 C0F20003 		movt	r3, #:upper16:I2C_1_backup
 271 007a 5A71     		strb	r2, [r3, #5]
 254:.\Generated_Source\PSoC5/I2C_1.c **** 
 255:.\Generated_Source\PSoC5/I2C_1.c **** 
 256:.\Generated_Source\PSoC5/I2C_1.c ****             /* Reset FF block */
 257:.\Generated_Source\PSoC5/I2C_1.c ****             I2C_1_CFG_REG &= ((uint8) ~I2C_1_ENABLE_MS);
 272              		.loc 1 257 0
 273 007c 44F6D613 		movw	r3, #18902
 274 0080 C4F20003 		movt	r3, 16384
 275 0084 44F6D612 		movw	r2, #18902
 276 0088 C4F20002 		movt	r2, 16384
 277 008c 1278     		ldrb	r2, [r2, #0]
 278 008e D2B2     		uxtb	r2, r2
 279 0090 22F00102 		bic	r2, r2, #1
 280 0094 D2B2     		uxtb	r2, r2
 281 0096 1A70     		strb	r2, [r3, #0]
 258:.\Generated_Source\PSoC5/I2C_1.c ****             CyDelayUs(I2C_1_FF_RESET_DELAY);
 282              		.loc 1 258 0
 283 0098 4FF00200 		mov	r0, #2
 284 009c FFF7FEFF 		bl	CyDelayUs
 259:.\Generated_Source\PSoC5/I2C_1.c ****             I2C_1_CFG_REG |= ((uint8)  I2C_1_ENABLE_MS);
 285              		.loc 1 259 0
 286 00a0 44F6D613 		movw	r3, #18902
 287 00a4 C4F20003 		movt	r3, 16384
 288 00a8 44F6D612 		movw	r2, #18902
 289 00ac C4F20002 		movt	r2, 16384
 290 00b0 1278     		ldrb	r2, [r2, #0]
 291 00b2 D2B2     		uxtb	r2, r2
 292 00b4 42F00102 		orr	r2, r2, #1
 293 00b8 D2B2     		uxtb	r2, r2
 294 00ba 1A70     		strb	r2, [r3, #0]
 260:.\Generated_Source\PSoC5/I2C_1.c **** 
 261:.\Generated_Source\PSoC5/I2C_1.c **** 
 262:.\Generated_Source\PSoC5/I2C_1.c ****             /* Restore registers */
 263:.\Generated_Source\PSoC5/I2C_1.c ****             #if(I2C_1_MODE_SLAVE_ENABLED)
 264:.\Generated_Source\PSoC5/I2C_1.c ****                 I2C_1_ADDR_REG = I2C_1_backup.addr;
 295              		.loc 1 264 0
 296 00bc 44F6CA13 		movw	r3, #18890
 297 00c0 C4F20003 		movt	r3, 16384
 298 00c4 40F20002 		movw	r2, #:lower16:I2C_1_backup
 299 00c8 C0F20002 		movt	r2, #:upper16:I2C_1_backup
 300 00cc D278     		ldrb	r2, [r2, #3]	@ zero_extendqisi2
 301 00ce 1A70     		strb	r2, [r3, #0]
 265:.\Generated_Source\PSoC5/I2C_1.c ****             #endif /* (I2C_1_MODE_SLAVE_ENABLED) */
 266:.\Generated_Source\PSoC5/I2C_1.c **** 
 267:.\Generated_Source\PSoC5/I2C_1.c ****             I2C_1_CLKDIV1_REG = I2C_1_backup.clkDiv1;
 302              		.loc 1 267 0
 303 00d0 44F6DB13 		movw	r3, #18907
ARM GAS  C:\Users\Brian\AppData\Local\Temp\cc8oS3v4.s 			page 11


 304 00d4 C4F20003 		movt	r3, 16384
 305 00d8 40F20002 		movw	r2, #:lower16:I2C_1_backup
 306 00dc C0F20002 		movt	r2, #:upper16:I2C_1_backup
 307 00e0 1279     		ldrb	r2, [r2, #4]	@ zero_extendqisi2
 308 00e2 1A70     		strb	r2, [r3, #0]
 268:.\Generated_Source\PSoC5/I2C_1.c ****             I2C_1_CLKDIV2_REG = I2C_1_backup.clkDiv2;
 309              		.loc 1 268 0
 310 00e4 44F6DC13 		movw	r3, #18908
 311 00e8 C4F20003 		movt	r3, 16384
 312 00ec 40F20002 		movw	r2, #:lower16:I2C_1_backup
 313 00f0 C0F20002 		movt	r2, #:upper16:I2C_1_backup
 314 00f4 5279     		ldrb	r2, [r2, #5]	@ zero_extendqisi2
 315 00f6 1A70     		strb	r2, [r3, #0]
 269:.\Generated_Source\PSoC5/I2C_1.c **** 
 270:.\Generated_Source\PSoC5/I2C_1.c ****         #endif /* (CY_PSOC3 || CY_PSOC5LP) */
 271:.\Generated_Source\PSoC5/I2C_1.c **** 
 272:.\Generated_Source\PSoC5/I2C_1.c ****         /* Disable power to I2C block */
 273:.\Generated_Source\PSoC5/I2C_1.c ****         enableInterrupts = CyEnterCriticalSection();
 316              		.loc 1 273 0
 317 00f8 FFF7FEFF 		bl	CyEnterCriticalSection
 318 00fc 0346     		mov	r3, r0
 319 00fe FB71     		strb	r3, [r7, #7]
 274:.\Generated_Source\PSoC5/I2C_1.c ****         I2C_1_ACT_PWRMGR_REG  &= ((uint8) ~I2C_1_ACT_PWR_EN);
 320              		.loc 1 274 0
 321 0100 44F2A533 		movw	r3, #17317
 322 0104 C4F20003 		movt	r3, 16384
 323 0108 44F2A532 		movw	r2, #17317
 324 010c C4F20002 		movt	r2, 16384
 325 0110 1278     		ldrb	r2, [r2, #0]
 326 0112 D2B2     		uxtb	r2, r2
 327 0114 22F00402 		bic	r2, r2, #4
 328 0118 D2B2     		uxtb	r2, r2
 329 011a 1A70     		strb	r2, [r3, #0]
 275:.\Generated_Source\PSoC5/I2C_1.c ****         I2C_1_STBY_PWRMGR_REG &= ((uint8) ~I2C_1_STBY_PWR_EN);
 330              		.loc 1 275 0
 331 011c 44F2B533 		movw	r3, #17333
 332 0120 C4F20003 		movt	r3, 16384
 333 0124 44F2B532 		movw	r2, #17333
 334 0128 C4F20002 		movt	r2, 16384
 335 012c 1278     		ldrb	r2, [r2, #0]
 336 012e D2B2     		uxtb	r2, r2
 337 0130 22F00402 		bic	r2, r2, #4
 338 0134 D2B2     		uxtb	r2, r2
 339 0136 1A70     		strb	r2, [r3, #0]
 276:.\Generated_Source\PSoC5/I2C_1.c ****         CyExitCriticalSection(enableInterrupts);
 340              		.loc 1 276 0
 341 0138 FB79     		ldrb	r3, [r7, #7]	@ zero_extendqisi2
 342 013a 1846     		mov	r0, r3
 343 013c FFF7FEFF 		bl	CyExitCriticalSection
 277:.\Generated_Source\PSoC5/I2C_1.c **** 
 278:.\Generated_Source\PSoC5/I2C_1.c ****     #else
 279:.\Generated_Source\PSoC5/I2C_1.c **** 
 280:.\Generated_Source\PSoC5/I2C_1.c ****         #if(I2C_1_MODE_SLAVE_ENABLED)
 281:.\Generated_Source\PSoC5/I2C_1.c ****             /* Disable slave bit counter */
 282:.\Generated_Source\PSoC5/I2C_1.c ****             enableInterrupts = CyEnterCriticalSection();
 283:.\Generated_Source\PSoC5/I2C_1.c ****             I2C_1_COUNTER_AUX_CTL_REG &= ((uint8) ~I2C_1_CNT7_ENABLE);
 284:.\Generated_Source\PSoC5/I2C_1.c ****             CyExitCriticalSection(enableInterrupts);
ARM GAS  C:\Users\Brian\AppData\Local\Temp\cc8oS3v4.s 			page 12


 285:.\Generated_Source\PSoC5/I2C_1.c ****         #endif /* (I2C_1_MODE_SLAVE_ENABLED) */
 286:.\Generated_Source\PSoC5/I2C_1.c **** 
 287:.\Generated_Source\PSoC5/I2C_1.c ****         I2C_1_CFG_REG &= ((uint8) ~I2C_1_ENABLE_MS);
 288:.\Generated_Source\PSoC5/I2C_1.c **** 
 289:.\Generated_Source\PSoC5/I2C_1.c ****     #endif /* (I2C_1_FF_IMPLEMENTED) */
 290:.\Generated_Source\PSoC5/I2C_1.c **** 
 291:.\Generated_Source\PSoC5/I2C_1.c ****     I2C_1_ClearPendingInt();  /* Clear interrupt triggers on reset */
 344              		.loc 1 291 0
 345 0140 4EF28023 		movw	r3, #57984
 346 0144 CEF20003 		movt	r3, 57344
 347 0148 4FF40042 		mov	r2, #32768
 348 014c 1A60     		str	r2, [r3, #0]
 292:.\Generated_Source\PSoC5/I2C_1.c **** 
 293:.\Generated_Source\PSoC5/I2C_1.c ****     I2C_1_state = I2C_1_SM_IDLE;  /* Reset software FSM */
 349              		.loc 1 293 0
 350 014e 40F20003 		movw	r3, #:lower16:I2C_1_state
 351 0152 C0F20003 		movt	r3, #:upper16:I2C_1_state
 352 0156 4FF01002 		mov	r2, #16
 353 015a 1A70     		strb	r2, [r3, #0]
 294:.\Generated_Source\PSoC5/I2C_1.c **** }
 354              		.loc 1 294 0
 355 015c 07F10807 		add	r7, r7, #8
 356 0160 BD46     		mov	sp, r7
 357 0162 80BD     		pop	{r7, pc}
 358              		.cfi_endproc
 359              	.LFE3:
 360              		.size	I2C_1_Stop, .-I2C_1_Stop
 361              		.text
 362              	.Letext0:
 363              		.file 2 ".\\Generated_Source\\PSoC5\\cytypes.h"
 364              		.file 3 ".\\Generated_Source\\PSoC5\\I2C_1.h"
 365              		.file 4 ".\\Generated_Source\\PSoC5\\I2C_1_PVT.h"
 366              		.section	.debug_info,"",%progbits
 367              	.Ldebug_info0:
 368 0000 ED010000 		.4byte	0x1ed
 369 0004 0200     		.2byte	0x2
 370 0006 00000000 		.4byte	.Ldebug_abbrev0
 371 000a 04       		.byte	0x4
 372 000b 01       		.uleb128 0x1
 373 000c B1010000 		.4byte	.LASF33
 374 0010 01       		.byte	0x1
 375 0011 5D010000 		.4byte	.LASF34
 376 0015 49000000 		.4byte	.LASF35
 377 0019 00000000 		.4byte	.Ldebug_ranges0+0
 378 001d 00000000 		.4byte	0
 379 0021 00000000 		.4byte	0
 380 0025 00000000 		.4byte	.Ldebug_line0
 381 0029 02       		.uleb128 0x2
 382 002a 01       		.byte	0x1
 383 002b 06       		.byte	0x6
 384 002c 1A020000 		.4byte	.LASF0
 385 0030 02       		.uleb128 0x2
 386 0031 01       		.byte	0x1
 387 0032 08       		.byte	0x8
 388 0033 9D000000 		.4byte	.LASF1
 389 0037 02       		.uleb128 0x2
 390 0038 02       		.byte	0x2
ARM GAS  C:\Users\Brian\AppData\Local\Temp\cc8oS3v4.s 			page 13


 391 0039 05       		.byte	0x5
 392 003a A1010000 		.4byte	.LASF2
 393 003e 02       		.uleb128 0x2
 394 003f 02       		.byte	0x2
 395 0040 07       		.byte	0x7
 396 0041 36000000 		.4byte	.LASF3
 397 0045 02       		.uleb128 0x2
 398 0046 04       		.byte	0x4
 399 0047 05       		.byte	0x5
 400 0048 FA010000 		.4byte	.LASF4
 401 004c 02       		.uleb128 0x2
 402 004d 04       		.byte	0x4
 403 004e 07       		.byte	0x7
 404 004f B0000000 		.4byte	.LASF5
 405 0053 02       		.uleb128 0x2
 406 0054 08       		.byte	0x8
 407 0055 05       		.byte	0x5
 408 0056 4F010000 		.4byte	.LASF6
 409 005a 02       		.uleb128 0x2
 410 005b 08       		.byte	0x8
 411 005c 07       		.byte	0x7
 412 005d 1F010000 		.4byte	.LASF7
 413 0061 03       		.uleb128 0x3
 414 0062 04       		.byte	0x4
 415 0063 05       		.byte	0x5
 416 0064 696E7400 		.ascii	"int\000"
 417 0068 02       		.uleb128 0x2
 418 0069 04       		.byte	0x4
 419 006a 07       		.byte	0x7
 420 006b 12010000 		.4byte	.LASF8
 421 006f 04       		.uleb128 0x4
 422 0070 AB010000 		.4byte	.LASF9
 423 0074 02       		.byte	0x2
 424 0075 5B       		.byte	0x5b
 425 0076 30000000 		.4byte	0x30
 426 007a 04       		.uleb128 0x4
 427 007b F8000000 		.4byte	.LASF10
 428 007f 02       		.byte	0x2
 429 0080 5C       		.byte	0x5c
 430 0081 3E000000 		.4byte	0x3e
 431 0085 04       		.uleb128 0x4
 432 0086 FF000000 		.4byte	.LASF11
 433 008a 02       		.byte	0x2
 434 008b 5D       		.byte	0x5d
 435 008c 4C000000 		.4byte	0x4c
 436 0090 02       		.uleb128 0x2
 437 0091 04       		.byte	0x4
 438 0092 04       		.byte	0x4
 439 0093 97000000 		.4byte	.LASF12
 440 0097 02       		.uleb128 0x2
 441 0098 08       		.byte	0x8
 442 0099 04       		.byte	0x4
 443 009a E6000000 		.4byte	.LASF13
 444 009e 02       		.uleb128 0x2
 445 009f 01       		.byte	0x1
 446 00a0 08       		.byte	0x8
 447 00a1 7E010000 		.4byte	.LASF14
ARM GAS  C:\Users\Brian\AppData\Local\Temp\cc8oS3v4.s 			page 14


 448 00a5 04       		.uleb128 0x4
 449 00a6 AB000000 		.4byte	.LASF15
 450 00aa 02       		.byte	0x2
 451 00ab F0       		.byte	0xf0
 452 00ac B0000000 		.4byte	0xb0
 453 00b0 05       		.uleb128 0x5
 454 00b1 6F000000 		.4byte	0x6f
 455 00b5 04       		.uleb128 0x4
 456 00b6 00000000 		.4byte	.LASF16
 457 00ba 02       		.byte	0x2
 458 00bb F2       		.byte	0xf2
 459 00bc C0000000 		.4byte	0xc0
 460 00c0 05       		.uleb128 0x5
 461 00c1 85000000 		.4byte	0x85
 462 00c5 02       		.uleb128 0x2
 463 00c6 04       		.byte	0x4
 464 00c7 07       		.byte	0x7
 465 00c8 46010000 		.4byte	.LASF17
 466 00cc 06       		.uleb128 0x6
 467 00cd 06       		.byte	0x6
 468 00ce 03       		.byte	0x3
 469 00cf 78       		.byte	0x78
 470 00d0 29010000 		.4byte	0x129
 471 00d4 07       		.uleb128 0x7
 472 00d5 03020000 		.4byte	.LASF18
 473 00d9 03       		.byte	0x3
 474 00da 7A       		.byte	0x7a
 475 00db 6F000000 		.4byte	0x6f
 476 00df 02       		.byte	0x2
 477 00e0 23       		.byte	0x23
 478 00e1 00       		.uleb128 0
 479 00e2 07       		.uleb128 0x7
 480 00e3 90010000 		.4byte	.LASF19
 481 00e7 03       		.byte	0x3
 482 00e8 7D       		.byte	0x7d
 483 00e9 6F000000 		.4byte	0x6f
 484 00ed 02       		.byte	0x2
 485 00ee 23       		.byte	0x23
 486 00ef 01       		.uleb128 0x1
 487 00f0 08       		.uleb128 0x8
 488 00f1 63666700 		.ascii	"cfg\000"
 489 00f5 03       		.byte	0x3
 490 00f6 7E       		.byte	0x7e
 491 00f7 6F000000 		.4byte	0x6f
 492 00fb 02       		.byte	0x2
 493 00fc 23       		.byte	0x23
 494 00fd 02       		.uleb128 0x2
 495 00fe 07       		.uleb128 0x7
 496 00ff C2000000 		.4byte	.LASF20
 497 0103 03       		.byte	0x3
 498 0104 81       		.byte	0x81
 499 0105 6F000000 		.4byte	0x6f
 500 0109 02       		.byte	0x2
 501 010a 23       		.byte	0x23
 502 010b 03       		.uleb128 0x3
 503 010c 07       		.uleb128 0x7
 504 010d 36010000 		.4byte	.LASF21
ARM GAS  C:\Users\Brian\AppData\Local\Temp\cc8oS3v4.s 			page 15


 505 0111 03       		.byte	0x3
 506 0112 87       		.byte	0x87
 507 0113 6F000000 		.4byte	0x6f
 508 0117 02       		.byte	0x2
 509 0118 23       		.byte	0x23
 510 0119 04       		.uleb128 0x4
 511 011a 07       		.uleb128 0x7
 512 011b 3E010000 		.4byte	.LASF22
 513 011f 03       		.byte	0x3
 514 0120 88       		.byte	0x88
 515 0121 6F000000 		.4byte	0x6f
 516 0125 02       		.byte	0x2
 517 0126 23       		.byte	0x23
 518 0127 05       		.uleb128 0x5
 519 0128 00       		.byte	0
 520 0129 04       		.uleb128 0x4
 521 012a 06000000 		.4byte	.LASF23
 522 012e 03       		.byte	0x3
 523 012f A2       		.byte	0xa2
 524 0130 CC000000 		.4byte	0xcc
 525 0134 09       		.uleb128 0x9
 526 0135 01       		.byte	0x1
 527 0136 0F020000 		.4byte	.LASF24
 528 013a 01       		.byte	0x1
 529 013b 33       		.byte	0x33
 530 013c 01       		.byte	0x1
 531 013d 00000000 		.4byte	.LFB0
 532 0141 94000000 		.4byte	.LFE0
 533 0145 00000000 		.4byte	.LLST0
 534 0149 01       		.byte	0x1
 535 014a 0A       		.uleb128 0xa
 536 014b 01       		.byte	0x1
 537 014c 83010000 		.4byte	.LASF26
 538 0150 01       		.byte	0x1
 539 0151 89       		.byte	0x89
 540 0152 01       		.byte	0x1
 541 0153 00000000 		.4byte	.LFB1
 542 0157 56000000 		.4byte	.LFE1
 543 015b 2C000000 		.4byte	.LLST1
 544 015f 01       		.byte	0x1
 545 0160 73010000 		.4byte	0x173
 546 0164 0B       		.uleb128 0xb
 547 0165 C7000000 		.4byte	.LASF28
 548 0169 01       		.byte	0x1
 549 016a 8C       		.byte	0x8c
 550 016b 6F000000 		.4byte	0x6f
 551 016f 02       		.byte	0x2
 552 0170 91       		.byte	0x91
 553 0171 77       		.sleb128 -9
 554 0172 00       		.byte	0
 555 0173 09       		.uleb128 0x9
 556 0174 01       		.byte	0x1
 557 0175 95010000 		.4byte	.LASF25
 558 0179 01       		.byte	0x1
 559 017a C7       		.byte	0xc7
 560 017b 01       		.byte	0x1
 561 017c 00000000 		.4byte	.LFB2
ARM GAS  C:\Users\Brian\AppData\Local\Temp\cc8oS3v4.s 			page 16


 562 0180 38000000 		.4byte	.LFE2
 563 0184 64000000 		.4byte	.LLST2
 564 0188 01       		.byte	0x1
 565 0189 0A       		.uleb128 0xa
 566 018a 01       		.byte	0x1
 567 018b ED000000 		.4byte	.LASF27
 568 018f 01       		.byte	0x1
 569 0190 E4       		.byte	0xe4
 570 0191 01       		.byte	0x1
 571 0192 00000000 		.4byte	.LFB3
 572 0196 64010000 		.4byte	.LFE3
 573 019a 90000000 		.4byte	.LLST3
 574 019e 01       		.byte	0x1
 575 019f B2010000 		.4byte	0x1b2
 576 01a3 0B       		.uleb128 0xb
 577 01a4 C7000000 		.4byte	.LASF28
 578 01a8 01       		.byte	0x1
 579 01a9 E8       		.byte	0xe8
 580 01aa 6F000000 		.4byte	0x6f
 581 01ae 02       		.byte	0x2
 582 01af 91       		.byte	0x91
 583 01b0 77       		.sleb128 -9
 584 01b1 00       		.byte	0
 585 01b2 0C       		.uleb128 0xc
 586 01b3 D8000000 		.4byte	.LASF29
 587 01b7 01       		.byte	0x1
 588 01b8 1A       		.byte	0x1a
 589 01b9 6F000000 		.4byte	0x6f
 590 01bd 01       		.byte	0x1
 591 01be 05       		.byte	0x5
 592 01bf 03       		.byte	0x3
 593 01c0 00000000 		.4byte	I2C_1_initVar
 594 01c4 0D       		.uleb128 0xd
 595 01c5 29000000 		.4byte	.LASF30
 596 01c9 04       		.byte	0x4
 597 01ca 21       		.byte	0x21
 598 01cb 29010000 		.4byte	0x129
 599 01cf 01       		.byte	0x1
 600 01d0 01       		.byte	0x1
 601 01d1 0C       		.uleb128 0xc
 602 01d2 06010000 		.4byte	.LASF31
 603 01d6 01       		.byte	0x1
 604 01d7 1C       		.byte	0x1c
 605 01d8 B0000000 		.4byte	0xb0
 606 01dc 01       		.byte	0x1
 607 01dd 05       		.byte	0x5
 608 01de 03       		.byte	0x3
 609 01df 00000000 		.4byte	I2C_1_state
 610 01e3 0D       		.uleb128 0xd
 611 01e4 1A000000 		.4byte	.LASF32
 612 01e8 04       		.byte	0x4
 613 01e9 38       		.byte	0x38
 614 01ea B0000000 		.4byte	0xb0
 615 01ee 01       		.byte	0x1
 616 01ef 01       		.byte	0x1
 617 01f0 00       		.byte	0
 618              		.section	.debug_abbrev,"",%progbits
ARM GAS  C:\Users\Brian\AppData\Local\Temp\cc8oS3v4.s 			page 17


 619              	.Ldebug_abbrev0:
 620 0000 01       		.uleb128 0x1
 621 0001 11       		.uleb128 0x11
 622 0002 01       		.byte	0x1
 623 0003 25       		.uleb128 0x25
 624 0004 0E       		.uleb128 0xe
 625 0005 13       		.uleb128 0x13
 626 0006 0B       		.uleb128 0xb
 627 0007 03       		.uleb128 0x3
 628 0008 0E       		.uleb128 0xe
 629 0009 1B       		.uleb128 0x1b
 630 000a 0E       		.uleb128 0xe
 631 000b 55       		.uleb128 0x55
 632 000c 06       		.uleb128 0x6
 633 000d 11       		.uleb128 0x11
 634 000e 01       		.uleb128 0x1
 635 000f 52       		.uleb128 0x52
 636 0010 01       		.uleb128 0x1
 637 0011 10       		.uleb128 0x10
 638 0012 06       		.uleb128 0x6
 639 0013 00       		.byte	0
 640 0014 00       		.byte	0
 641 0015 02       		.uleb128 0x2
 642 0016 24       		.uleb128 0x24
 643 0017 00       		.byte	0
 644 0018 0B       		.uleb128 0xb
 645 0019 0B       		.uleb128 0xb
 646 001a 3E       		.uleb128 0x3e
 647 001b 0B       		.uleb128 0xb
 648 001c 03       		.uleb128 0x3
 649 001d 0E       		.uleb128 0xe
 650 001e 00       		.byte	0
 651 001f 00       		.byte	0
 652 0020 03       		.uleb128 0x3
 653 0021 24       		.uleb128 0x24
 654 0022 00       		.byte	0
 655 0023 0B       		.uleb128 0xb
 656 0024 0B       		.uleb128 0xb
 657 0025 3E       		.uleb128 0x3e
 658 0026 0B       		.uleb128 0xb
 659 0027 03       		.uleb128 0x3
 660 0028 08       		.uleb128 0x8
 661 0029 00       		.byte	0
 662 002a 00       		.byte	0
 663 002b 04       		.uleb128 0x4
 664 002c 16       		.uleb128 0x16
 665 002d 00       		.byte	0
 666 002e 03       		.uleb128 0x3
 667 002f 0E       		.uleb128 0xe
 668 0030 3A       		.uleb128 0x3a
 669 0031 0B       		.uleb128 0xb
 670 0032 3B       		.uleb128 0x3b
 671 0033 0B       		.uleb128 0xb
 672 0034 49       		.uleb128 0x49
 673 0035 13       		.uleb128 0x13
 674 0036 00       		.byte	0
 675 0037 00       		.byte	0
ARM GAS  C:\Users\Brian\AppData\Local\Temp\cc8oS3v4.s 			page 18


 676 0038 05       		.uleb128 0x5
 677 0039 35       		.uleb128 0x35
 678 003a 00       		.byte	0
 679 003b 49       		.uleb128 0x49
 680 003c 13       		.uleb128 0x13
 681 003d 00       		.byte	0
 682 003e 00       		.byte	0
 683 003f 06       		.uleb128 0x6
 684 0040 13       		.uleb128 0x13
 685 0041 01       		.byte	0x1
 686 0042 0B       		.uleb128 0xb
 687 0043 0B       		.uleb128 0xb
 688 0044 3A       		.uleb128 0x3a
 689 0045 0B       		.uleb128 0xb
 690 0046 3B       		.uleb128 0x3b
 691 0047 0B       		.uleb128 0xb
 692 0048 01       		.uleb128 0x1
 693 0049 13       		.uleb128 0x13
 694 004a 00       		.byte	0
 695 004b 00       		.byte	0
 696 004c 07       		.uleb128 0x7
 697 004d 0D       		.uleb128 0xd
 698 004e 00       		.byte	0
 699 004f 03       		.uleb128 0x3
 700 0050 0E       		.uleb128 0xe
 701 0051 3A       		.uleb128 0x3a
 702 0052 0B       		.uleb128 0xb
 703 0053 3B       		.uleb128 0x3b
 704 0054 0B       		.uleb128 0xb
 705 0055 49       		.uleb128 0x49
 706 0056 13       		.uleb128 0x13
 707 0057 38       		.uleb128 0x38
 708 0058 0A       		.uleb128 0xa
 709 0059 00       		.byte	0
 710 005a 00       		.byte	0
 711 005b 08       		.uleb128 0x8
 712 005c 0D       		.uleb128 0xd
 713 005d 00       		.byte	0
 714 005e 03       		.uleb128 0x3
 715 005f 08       		.uleb128 0x8
 716 0060 3A       		.uleb128 0x3a
 717 0061 0B       		.uleb128 0xb
 718 0062 3B       		.uleb128 0x3b
 719 0063 0B       		.uleb128 0xb
 720 0064 49       		.uleb128 0x49
 721 0065 13       		.uleb128 0x13
 722 0066 38       		.uleb128 0x38
 723 0067 0A       		.uleb128 0xa
 724 0068 00       		.byte	0
 725 0069 00       		.byte	0
 726 006a 09       		.uleb128 0x9
 727 006b 2E       		.uleb128 0x2e
 728 006c 00       		.byte	0
 729 006d 3F       		.uleb128 0x3f
 730 006e 0C       		.uleb128 0xc
 731 006f 03       		.uleb128 0x3
 732 0070 0E       		.uleb128 0xe
ARM GAS  C:\Users\Brian\AppData\Local\Temp\cc8oS3v4.s 			page 19


 733 0071 3A       		.uleb128 0x3a
 734 0072 0B       		.uleb128 0xb
 735 0073 3B       		.uleb128 0x3b
 736 0074 0B       		.uleb128 0xb
 737 0075 27       		.uleb128 0x27
 738 0076 0C       		.uleb128 0xc
 739 0077 11       		.uleb128 0x11
 740 0078 01       		.uleb128 0x1
 741 0079 12       		.uleb128 0x12
 742 007a 01       		.uleb128 0x1
 743 007b 40       		.uleb128 0x40
 744 007c 06       		.uleb128 0x6
 745 007d 9642     		.uleb128 0x2116
 746 007f 0C       		.uleb128 0xc
 747 0080 00       		.byte	0
 748 0081 00       		.byte	0
 749 0082 0A       		.uleb128 0xa
 750 0083 2E       		.uleb128 0x2e
 751 0084 01       		.byte	0x1
 752 0085 3F       		.uleb128 0x3f
 753 0086 0C       		.uleb128 0xc
 754 0087 03       		.uleb128 0x3
 755 0088 0E       		.uleb128 0xe
 756 0089 3A       		.uleb128 0x3a
 757 008a 0B       		.uleb128 0xb
 758 008b 3B       		.uleb128 0x3b
 759 008c 0B       		.uleb128 0xb
 760 008d 27       		.uleb128 0x27
 761 008e 0C       		.uleb128 0xc
 762 008f 11       		.uleb128 0x11
 763 0090 01       		.uleb128 0x1
 764 0091 12       		.uleb128 0x12
 765 0092 01       		.uleb128 0x1
 766 0093 40       		.uleb128 0x40
 767 0094 06       		.uleb128 0x6
 768 0095 9642     		.uleb128 0x2116
 769 0097 0C       		.uleb128 0xc
 770 0098 01       		.uleb128 0x1
 771 0099 13       		.uleb128 0x13
 772 009a 00       		.byte	0
 773 009b 00       		.byte	0
 774 009c 0B       		.uleb128 0xb
 775 009d 34       		.uleb128 0x34
 776 009e 00       		.byte	0
 777 009f 03       		.uleb128 0x3
 778 00a0 0E       		.uleb128 0xe
 779 00a1 3A       		.uleb128 0x3a
 780 00a2 0B       		.uleb128 0xb
 781 00a3 3B       		.uleb128 0x3b
 782 00a4 0B       		.uleb128 0xb
 783 00a5 49       		.uleb128 0x49
 784 00a6 13       		.uleb128 0x13
 785 00a7 02       		.uleb128 0x2
 786 00a8 0A       		.uleb128 0xa
 787 00a9 00       		.byte	0
 788 00aa 00       		.byte	0
 789 00ab 0C       		.uleb128 0xc
ARM GAS  C:\Users\Brian\AppData\Local\Temp\cc8oS3v4.s 			page 20


 790 00ac 34       		.uleb128 0x34
 791 00ad 00       		.byte	0
 792 00ae 03       		.uleb128 0x3
 793 00af 0E       		.uleb128 0xe
 794 00b0 3A       		.uleb128 0x3a
 795 00b1 0B       		.uleb128 0xb
 796 00b2 3B       		.uleb128 0x3b
 797 00b3 0B       		.uleb128 0xb
 798 00b4 49       		.uleb128 0x49
 799 00b5 13       		.uleb128 0x13
 800 00b6 3F       		.uleb128 0x3f
 801 00b7 0C       		.uleb128 0xc
 802 00b8 02       		.uleb128 0x2
 803 00b9 0A       		.uleb128 0xa
 804 00ba 00       		.byte	0
 805 00bb 00       		.byte	0
 806 00bc 0D       		.uleb128 0xd
 807 00bd 34       		.uleb128 0x34
 808 00be 00       		.byte	0
 809 00bf 03       		.uleb128 0x3
 810 00c0 0E       		.uleb128 0xe
 811 00c1 3A       		.uleb128 0x3a
 812 00c2 0B       		.uleb128 0xb
 813 00c3 3B       		.uleb128 0x3b
 814 00c4 0B       		.uleb128 0xb
 815 00c5 49       		.uleb128 0x49
 816 00c6 13       		.uleb128 0x13
 817 00c7 3F       		.uleb128 0x3f
 818 00c8 0C       		.uleb128 0xc
 819 00c9 3C       		.uleb128 0x3c
 820 00ca 0C       		.uleb128 0xc
 821 00cb 00       		.byte	0
 822 00cc 00       		.byte	0
 823 00cd 00       		.byte	0
 824              		.section	.debug_loc,"",%progbits
 825              	.Ldebug_loc0:
 826              	.LLST0:
 827 0000 00000000 		.4byte	.LFB0
 828 0004 02000000 		.4byte	.LCFI0
 829 0008 0200     		.2byte	0x2
 830 000a 7D       		.byte	0x7d
 831 000b 00       		.sleb128 0
 832 000c 02000000 		.4byte	.LCFI0
 833 0010 04000000 		.4byte	.LCFI1
 834 0014 0200     		.2byte	0x2
 835 0016 7D       		.byte	0x7d
 836 0017 08       		.sleb128 8
 837 0018 04000000 		.4byte	.LCFI1
 838 001c 94000000 		.4byte	.LFE0
 839 0020 0200     		.2byte	0x2
 840 0022 77       		.byte	0x77
 841 0023 08       		.sleb128 8
 842 0024 00000000 		.4byte	0
 843 0028 00000000 		.4byte	0
 844              	.LLST1:
 845 002c 00000000 		.4byte	.LFB1
 846 0030 02000000 		.4byte	.LCFI2
ARM GAS  C:\Users\Brian\AppData\Local\Temp\cc8oS3v4.s 			page 21


 847 0034 0200     		.2byte	0x2
 848 0036 7D       		.byte	0x7d
 849 0037 00       		.sleb128 0
 850 0038 02000000 		.4byte	.LCFI2
 851 003c 04000000 		.4byte	.LCFI3
 852 0040 0200     		.2byte	0x2
 853 0042 7D       		.byte	0x7d
 854 0043 08       		.sleb128 8
 855 0044 04000000 		.4byte	.LCFI3
 856 0048 06000000 		.4byte	.LCFI4
 857 004c 0200     		.2byte	0x2
 858 004e 7D       		.byte	0x7d
 859 004f 10       		.sleb128 16
 860 0050 06000000 		.4byte	.LCFI4
 861 0054 56000000 		.4byte	.LFE1
 862 0058 0200     		.2byte	0x2
 863 005a 77       		.byte	0x77
 864 005b 10       		.sleb128 16
 865 005c 00000000 		.4byte	0
 866 0060 00000000 		.4byte	0
 867              	.LLST2:
 868 0064 00000000 		.4byte	.LFB2
 869 0068 02000000 		.4byte	.LCFI5
 870 006c 0200     		.2byte	0x2
 871 006e 7D       		.byte	0x7d
 872 006f 00       		.sleb128 0
 873 0070 02000000 		.4byte	.LCFI5
 874 0074 04000000 		.4byte	.LCFI6
 875 0078 0200     		.2byte	0x2
 876 007a 7D       		.byte	0x7d
 877 007b 08       		.sleb128 8
 878 007c 04000000 		.4byte	.LCFI6
 879 0080 38000000 		.4byte	.LFE2
 880 0084 0200     		.2byte	0x2
 881 0086 77       		.byte	0x77
 882 0087 08       		.sleb128 8
 883 0088 00000000 		.4byte	0
 884 008c 00000000 		.4byte	0
 885              	.LLST3:
 886 0090 00000000 		.4byte	.LFB3
 887 0094 02000000 		.4byte	.LCFI7
 888 0098 0200     		.2byte	0x2
 889 009a 7D       		.byte	0x7d
 890 009b 00       		.sleb128 0
 891 009c 02000000 		.4byte	.LCFI7
 892 00a0 04000000 		.4byte	.LCFI8
 893 00a4 0200     		.2byte	0x2
 894 00a6 7D       		.byte	0x7d
 895 00a7 08       		.sleb128 8
 896 00a8 04000000 		.4byte	.LCFI8
 897 00ac 06000000 		.4byte	.LCFI9
 898 00b0 0200     		.2byte	0x2
 899 00b2 7D       		.byte	0x7d
 900 00b3 10       		.sleb128 16
 901 00b4 06000000 		.4byte	.LCFI9
 902 00b8 64010000 		.4byte	.LFE3
 903 00bc 0200     		.2byte	0x2
ARM GAS  C:\Users\Brian\AppData\Local\Temp\cc8oS3v4.s 			page 22


 904 00be 77       		.byte	0x77
 905 00bf 10       		.sleb128 16
 906 00c0 00000000 		.4byte	0
 907 00c4 00000000 		.4byte	0
 908              		.section	.debug_aranges,"",%progbits
 909 0000 34000000 		.4byte	0x34
 910 0004 0200     		.2byte	0x2
 911 0006 00000000 		.4byte	.Ldebug_info0
 912 000a 04       		.byte	0x4
 913 000b 00       		.byte	0
 914 000c 0000     		.2byte	0
 915 000e 0000     		.2byte	0
 916 0010 00000000 		.4byte	.LFB0
 917 0014 94000000 		.4byte	.LFE0-.LFB0
 918 0018 00000000 		.4byte	.LFB1
 919 001c 56000000 		.4byte	.LFE1-.LFB1
 920 0020 00000000 		.4byte	.LFB2
 921 0024 38000000 		.4byte	.LFE2-.LFB2
 922 0028 00000000 		.4byte	.LFB3
 923 002c 64010000 		.4byte	.LFE3-.LFB3
 924 0030 00000000 		.4byte	0
 925 0034 00000000 		.4byte	0
 926              		.section	.debug_ranges,"",%progbits
 927              	.Ldebug_ranges0:
 928 0000 00000000 		.4byte	.LFB0
 929 0004 94000000 		.4byte	.LFE0
 930 0008 00000000 		.4byte	.LFB1
 931 000c 56000000 		.4byte	.LFE1
 932 0010 00000000 		.4byte	.LFB2
 933 0014 38000000 		.4byte	.LFE2
 934 0018 00000000 		.4byte	.LFB3
 935 001c 64010000 		.4byte	.LFE3
 936 0020 00000000 		.4byte	0
 937 0024 00000000 		.4byte	0
 938              		.section	.debug_line,"",%progbits
 939              	.Ldebug_line0:
 940 0000 D8000000 		.section	.debug_str,"MS",%progbits,1
 940      02005E00 
 940      00000201 
 940      FB0E0D00 
 940      01010101 
 941              	.LASF16:
 942 0000 72656733 		.ascii	"reg32\000"
 942      3200
 943              	.LASF23:
 944 0006 4932435F 		.ascii	"I2C_1_BACKUP_STRUCT\000"
 944      315F4241 
 944      434B5550 
 944      5F535452 
 944      55435400 
 945              	.LASF32:
 946 001a 4932435F 		.ascii	"I2C_1_slStatus\000"
 946      315F736C 
 946      53746174 
 946      757300
 947              	.LASF30:
 948 0029 4932435F 		.ascii	"I2C_1_backup\000"
ARM GAS  C:\Users\Brian\AppData\Local\Temp\cc8oS3v4.s 			page 23


 948      315F6261 
 948      636B7570 
 948      00
 949              	.LASF3:
 950 0036 73686F72 		.ascii	"short unsigned int\000"
 950      7420756E 
 950      7369676E 
 950      65642069 
 950      6E7400
 951              	.LASF35:
 952 0049 433A5C55 		.ascii	"C:\\Users\\Brian\\Dropbox\\RPiSoC\\Projects\\PSoC_2"
 952      73657273 
 952      5C427269 
 952      616E5C44 
 952      726F7062 
 953 0076 5F50695C 		.ascii	"_Pi\\PSoC Creator\\PSoC_2_Pi.cydsn\000"
 953      50536F43 
 953      20437265 
 953      61746F72 
 953      5C50536F 
 954              	.LASF12:
 955 0097 666C6F61 		.ascii	"float\000"
 955      7400
 956              	.LASF1:
 957 009d 756E7369 		.ascii	"unsigned char\000"
 957      676E6564 
 957      20636861 
 957      7200
 958              	.LASF15:
 959 00ab 72656738 		.ascii	"reg8\000"
 959      00
 960              	.LASF5:
 961 00b0 6C6F6E67 		.ascii	"long unsigned int\000"
 961      20756E73 
 961      69676E65 
 961      6420696E 
 961      7400
 962              	.LASF20:
 963 00c2 61646472 		.ascii	"addr\000"
 963      00
 964              	.LASF28:
 965 00c7 656E6162 		.ascii	"enableInterrupts\000"
 965      6C65496E 
 965      74657272 
 965      75707473 
 965      00
 966              	.LASF29:
 967 00d8 4932435F 		.ascii	"I2C_1_initVar\000"
 967      315F696E 
 967      69745661 
 967      7200
 968              	.LASF13:
 969 00e6 646F7562 		.ascii	"double\000"
 969      6C6500
 970              	.LASF27:
 971 00ed 4932435F 		.ascii	"I2C_1_Stop\000"
 971      315F5374 
ARM GAS  C:\Users\Brian\AppData\Local\Temp\cc8oS3v4.s 			page 24


 971      6F7000
 972              	.LASF10:
 973 00f8 75696E74 		.ascii	"uint16\000"
 973      313600
 974              	.LASF11:
 975 00ff 75696E74 		.ascii	"uint32\000"
 975      333200
 976              	.LASF31:
 977 0106 4932435F 		.ascii	"I2C_1_state\000"
 977      315F7374 
 977      61746500 
 978              	.LASF8:
 979 0112 756E7369 		.ascii	"unsigned int\000"
 979      676E6564 
 979      20696E74 
 979      00
 980              	.LASF7:
 981 011f 6C6F6E67 		.ascii	"long long unsigned int\000"
 981      206C6F6E 
 981      6720756E 
 981      7369676E 
 981      65642069 
 982              	.LASF21:
 983 0136 636C6B44 		.ascii	"clkDiv1\000"
 983      69763100 
 984              	.LASF22:
 985 013e 636C6B44 		.ascii	"clkDiv2\000"
 985      69763200 
 986              	.LASF17:
 987 0146 73697A65 		.ascii	"sizetype\000"
 987      74797065 
 987      00
 988              	.LASF6:
 989 014f 6C6F6E67 		.ascii	"long long int\000"
 989      206C6F6E 
 989      6720696E 
 989      7400
 990              	.LASF34:
 991 015d 2E5C4765 		.ascii	".\\Generated_Source\\PSoC5\\I2C_1.c\000"
 991      6E657261 
 991      7465645F 
 991      536F7572 
 991      63655C50 
 992              	.LASF14:
 993 017e 63686172 		.ascii	"char\000"
 993      00
 994              	.LASF26:
 995 0183 4932435F 		.ascii	"I2C_1_Enable\000"
 995      315F456E 
 995      61626C65 
 995      00
 996              	.LASF19:
 997 0190 78636667 		.ascii	"xcfg\000"
 997      00
 998              	.LASF25:
 999 0195 4932435F 		.ascii	"I2C_1_Start\000"
 999      315F5374 
ARM GAS  C:\Users\Brian\AppData\Local\Temp\cc8oS3v4.s 			page 25


 999      61727400 
 1000              	.LASF2:
 1001 01a1 73686F72 		.ascii	"short int\000"
 1001      7420696E 
 1001      7400
 1002              	.LASF9:
 1003 01ab 75696E74 		.ascii	"uint8\000"
 1003      3800
 1004              	.LASF33:
 1005 01b1 474E5520 		.ascii	"GNU C 4.7.3 20130312 (release) [ARM/embedded-4_7-br"
 1005      4320342E 
 1005      372E3320 
 1005      32303133 
 1005      30333132 
 1006 01e4 616E6368 		.ascii	"anch revision 196615]\000"
 1006      20726576 
 1006      6973696F 
 1006      6E203139 
 1006      36363135 
 1007              	.LASF4:
 1008 01fa 6C6F6E67 		.ascii	"long int\000"
 1008      20696E74 
 1008      00
 1009              	.LASF18:
 1010 0203 656E6162 		.ascii	"enableState\000"
 1010      6C655374 
 1010      61746500 
 1011              	.LASF24:
 1012 020f 4932435F 		.ascii	"I2C_1_Init\000"
 1012      315F496E 
 1012      697400
 1013              	.LASF0:
 1014 021a 7369676E 		.ascii	"signed char\000"
 1014      65642063 
 1014      68617200 
 1015              		.ident	"GCC: (GNU Tools for ARM Embedded Processors) 4.7.3 20130312 (release) [ARM/embedded-4_7-br
