ARM GAS  C:\Users\Brian\AppData\Local\Temp\ccSkCJiN.s 			page 1


   1              		.syntax unified
   2              		.cpu cortex-m3
   3              		.fpu softvfp
   4              		.eabi_attribute 20, 1
   5              		.eabi_attribute 21, 1
   6              		.eabi_attribute 23, 3
   7              		.eabi_attribute 24, 1
   8              		.eabi_attribute 25, 1
   9              		.eabi_attribute 26, 1
  10              		.eabi_attribute 30, 6
  11              		.eabi_attribute 34, 1
  12              		.eabi_attribute 18, 4
  13              		.thumb
  14              		.file	"IDAC8_1_PM.c"
  15              		.text
  16              	.Ltext0:
  17              		.cfi_sections	.debug_frame
  18              		.bss
  19              		.align	2
  20              	IDAC8_1_backup:
  21 0000 0000     		.space	2
  22 0002 0000     		.section	.text.IDAC8_1_SaveConfig,"ax",%progbits
  23              		.align	2
  24              		.global	IDAC8_1_SaveConfig
  25              		.thumb
  26              		.thumb_func
  27              		.type	IDAC8_1_SaveConfig, %function
  28              	IDAC8_1_SaveConfig:
  29              	.LFB0:
  30              		.file 1 ".\\Generated_Source\\PSoC5\\IDAC8_1_PM.c"
   1:.\Generated_Source\PSoC5/IDAC8_1_PM.c **** /*******************************************************************************
   2:.\Generated_Source\PSoC5/IDAC8_1_PM.c **** * File Name: IDAC8_1.c
   3:.\Generated_Source\PSoC5/IDAC8_1_PM.c **** * Version 2.0
   4:.\Generated_Source\PSoC5/IDAC8_1_PM.c **** *
   5:.\Generated_Source\PSoC5/IDAC8_1_PM.c **** * Description:
   6:.\Generated_Source\PSoC5/IDAC8_1_PM.c **** *  This file provides the power management source code to API for the
   7:.\Generated_Source\PSoC5/IDAC8_1_PM.c **** *  IDAC8.
   8:.\Generated_Source\PSoC5/IDAC8_1_PM.c **** *
   9:.\Generated_Source\PSoC5/IDAC8_1_PM.c **** * Note:
  10:.\Generated_Source\PSoC5/IDAC8_1_PM.c **** *  None
  11:.\Generated_Source\PSoC5/IDAC8_1_PM.c **** *
  12:.\Generated_Source\PSoC5/IDAC8_1_PM.c **** ********************************************************************************
  13:.\Generated_Source\PSoC5/IDAC8_1_PM.c **** * Copyright 2008-2012, Cypress Semiconductor Corporation.  All rights reserved.
  14:.\Generated_Source\PSoC5/IDAC8_1_PM.c **** * You may use this file only in accordance with the license, terms, conditions, 
  15:.\Generated_Source\PSoC5/IDAC8_1_PM.c **** * disclaimers, and limitations in the end user license agreement accompanying 
  16:.\Generated_Source\PSoC5/IDAC8_1_PM.c **** * the software package with which this file was provided.
  17:.\Generated_Source\PSoC5/IDAC8_1_PM.c **** *******************************************************************************/
  18:.\Generated_Source\PSoC5/IDAC8_1_PM.c **** 
  19:.\Generated_Source\PSoC5/IDAC8_1_PM.c **** 
  20:.\Generated_Source\PSoC5/IDAC8_1_PM.c **** #include "IDAC8_1.h"
  21:.\Generated_Source\PSoC5/IDAC8_1_PM.c **** 
  22:.\Generated_Source\PSoC5/IDAC8_1_PM.c **** static IDAC8_1_backupStruct IDAC8_1_backup;
  23:.\Generated_Source\PSoC5/IDAC8_1_PM.c **** 
  24:.\Generated_Source\PSoC5/IDAC8_1_PM.c **** 
  25:.\Generated_Source\PSoC5/IDAC8_1_PM.c **** /*******************************************************************************
  26:.\Generated_Source\PSoC5/IDAC8_1_PM.c **** * Function Name: IDAC8_1_SaveConfig
  27:.\Generated_Source\PSoC5/IDAC8_1_PM.c **** ********************************************************************************
ARM GAS  C:\Users\Brian\AppData\Local\Temp\ccSkCJiN.s 			page 2


  28:.\Generated_Source\PSoC5/IDAC8_1_PM.c **** * Summary:
  29:.\Generated_Source\PSoC5/IDAC8_1_PM.c **** *  Save the current user configuration
  30:.\Generated_Source\PSoC5/IDAC8_1_PM.c **** *
  31:.\Generated_Source\PSoC5/IDAC8_1_PM.c **** * Parameters:
  32:.\Generated_Source\PSoC5/IDAC8_1_PM.c **** *  void
  33:.\Generated_Source\PSoC5/IDAC8_1_PM.c **** *
  34:.\Generated_Source\PSoC5/IDAC8_1_PM.c **** * Return:
  35:.\Generated_Source\PSoC5/IDAC8_1_PM.c **** *  void
  36:.\Generated_Source\PSoC5/IDAC8_1_PM.c **** *
  37:.\Generated_Source\PSoC5/IDAC8_1_PM.c **** *******************************************************************************/
  38:.\Generated_Source\PSoC5/IDAC8_1_PM.c **** void IDAC8_1_SaveConfig(void) 
  39:.\Generated_Source\PSoC5/IDAC8_1_PM.c **** {
  31              		.loc 1 39 0
  32              		.cfi_startproc
  33              		@ args = 0, pretend = 0, frame = 0
  34              		@ frame_needed = 1, uses_anonymous_args = 0
  35              		@ link register save eliminated.
  36 0000 80B4     		push	{r7}
  37              	.LCFI0:
  38              		.cfi_def_cfa_offset 4
  39              		.cfi_offset 7, -4
  40 0002 00AF     		add	r7, sp, #0
  41              	.LCFI1:
  42              		.cfi_def_cfa_register 7
  40:.\Generated_Source\PSoC5/IDAC8_1_PM.c ****     if (!((IDAC8_1_CR1 & IDAC8_1_SRC_MASK) == IDAC8_1_SRC_UDB))
  43              		.loc 1 40 0
  44 0004 45F62103 		movw	r3, #22561
  45 0008 C4F20003 		movt	r3, 16384
  46 000c 1B78     		ldrb	r3, [r3, #0]
  47 000e DBB2     		uxtb	r3, r3
  48 0010 03F02003 		and	r3, r3, #32
  49 0014 002B     		cmp	r3, #0
  50 0016 0AD1     		bne	.L1
  41:.\Generated_Source\PSoC5/IDAC8_1_PM.c ****     {
  42:.\Generated_Source\PSoC5/IDAC8_1_PM.c ****         IDAC8_1_backup.data_value = IDAC8_1_Data;
  51              		.loc 1 42 0
  52 0018 4FF4B743 		mov	r3, #23424
  53 001c C4F20003 		movt	r3, 16384
  54 0020 1B78     		ldrb	r3, [r3, #0]
  55 0022 DAB2     		uxtb	r2, r3
  56 0024 40F20003 		movw	r3, #:lower16:IDAC8_1_backup
  57 0028 C0F20003 		movt	r3, #:upper16:IDAC8_1_backup
  58 002c 5A70     		strb	r2, [r3, #1]
  59              	.L1:
  43:.\Generated_Source\PSoC5/IDAC8_1_PM.c ****     }
  44:.\Generated_Source\PSoC5/IDAC8_1_PM.c **** }
  60              		.loc 1 44 0
  61 002e BD46     		mov	sp, r7
  62 0030 80BC     		pop	{r7}
  63 0032 7047     		bx	lr
  64              		.cfi_endproc
  65              	.LFE0:
  66              		.size	IDAC8_1_SaveConfig, .-IDAC8_1_SaveConfig
  67              		.section	.text.IDAC8_1_RestoreConfig,"ax",%progbits
  68              		.align	2
  69              		.global	IDAC8_1_RestoreConfig
  70              		.thumb
ARM GAS  C:\Users\Brian\AppData\Local\Temp\ccSkCJiN.s 			page 3


  71              		.thumb_func
  72              		.type	IDAC8_1_RestoreConfig, %function
  73              	IDAC8_1_RestoreConfig:
  74              	.LFB1:
  45:.\Generated_Source\PSoC5/IDAC8_1_PM.c **** 
  46:.\Generated_Source\PSoC5/IDAC8_1_PM.c **** 
  47:.\Generated_Source\PSoC5/IDAC8_1_PM.c **** /*******************************************************************************
  48:.\Generated_Source\PSoC5/IDAC8_1_PM.c **** * Function Name: IDAC8_1_RestoreConfig
  49:.\Generated_Source\PSoC5/IDAC8_1_PM.c **** ********************************************************************************
  50:.\Generated_Source\PSoC5/IDAC8_1_PM.c **** *
  51:.\Generated_Source\PSoC5/IDAC8_1_PM.c **** * Summary:
  52:.\Generated_Source\PSoC5/IDAC8_1_PM.c **** *  Restores the current user configuration.
  53:.\Generated_Source\PSoC5/IDAC8_1_PM.c **** *
  54:.\Generated_Source\PSoC5/IDAC8_1_PM.c **** * Parameters:
  55:.\Generated_Source\PSoC5/IDAC8_1_PM.c **** *  void
  56:.\Generated_Source\PSoC5/IDAC8_1_PM.c **** *
  57:.\Generated_Source\PSoC5/IDAC8_1_PM.c **** * Return:
  58:.\Generated_Source\PSoC5/IDAC8_1_PM.c **** *  void
  59:.\Generated_Source\PSoC5/IDAC8_1_PM.c **** *
  60:.\Generated_Source\PSoC5/IDAC8_1_PM.c **** *******************************************************************************/
  61:.\Generated_Source\PSoC5/IDAC8_1_PM.c **** void IDAC8_1_RestoreConfig(void) 
  62:.\Generated_Source\PSoC5/IDAC8_1_PM.c **** {
  75              		.loc 1 62 0
  76              		.cfi_startproc
  77              		@ args = 0, pretend = 0, frame = 0
  78              		@ frame_needed = 1, uses_anonymous_args = 0
  79              		@ link register save eliminated.
  80 0000 80B4     		push	{r7}
  81              	.LCFI2:
  82              		.cfi_def_cfa_offset 4
  83              		.cfi_offset 7, -4
  84 0002 00AF     		add	r7, sp, #0
  85              	.LCFI3:
  86              		.cfi_def_cfa_register 7
  63:.\Generated_Source\PSoC5/IDAC8_1_PM.c ****     if (!((IDAC8_1_CR1 & IDAC8_1_SRC_MASK) == IDAC8_1_SRC_UDB))
  87              		.loc 1 63 0
  88 0004 45F62103 		movw	r3, #22561
  89 0008 C4F20003 		movt	r3, 16384
  90 000c 1B78     		ldrb	r3, [r3, #0]
  91 000e DBB2     		uxtb	r3, r3
  92 0010 03F02003 		and	r3, r3, #32
  93 0014 002B     		cmp	r3, #0
  94 0016 3AD1     		bne	.L3
  64:.\Generated_Source\PSoC5/IDAC8_1_PM.c ****     {
  65:.\Generated_Source\PSoC5/IDAC8_1_PM.c ****         if((IDAC8_1_Strobe & IDAC8_1_STRB_MASK) == IDAC8_1_STRB_EN)
  95              		.loc 1 65 0
  96 0018 45F68723 		movw	r3, #23175
  97 001c C4F20003 		movt	r3, 16384
  98 0020 1B78     		ldrb	r3, [r3, #0]
  99 0022 DBB2     		uxtb	r3, r3
 100 0024 03F00803 		and	r3, r3, #8
 101 0028 002B     		cmp	r3, #0
 102 002a 26D0     		beq	.L5
  66:.\Generated_Source\PSoC5/IDAC8_1_PM.c ****         {
  67:.\Generated_Source\PSoC5/IDAC8_1_PM.c ****             IDAC8_1_Strobe &= (uint8)(~IDAC8_1_STRB_MASK);
 103              		.loc 1 67 0
 104 002c 45F68723 		movw	r3, #23175
ARM GAS  C:\Users\Brian\AppData\Local\Temp\ccSkCJiN.s 			page 4


 105 0030 C4F20003 		movt	r3, 16384
 106 0034 45F68722 		movw	r2, #23175
 107 0038 C4F20002 		movt	r2, 16384
 108 003c 1278     		ldrb	r2, [r2, #0]
 109 003e D2B2     		uxtb	r2, r2
 110 0040 22F00802 		bic	r2, r2, #8
 111 0044 D2B2     		uxtb	r2, r2
 112 0046 1A70     		strb	r2, [r3, #0]
  68:.\Generated_Source\PSoC5/IDAC8_1_PM.c ****             IDAC8_1_Data = IDAC8_1_backup.data_value;
 113              		.loc 1 68 0
 114 0048 4FF4B743 		mov	r3, #23424
 115 004c C4F20003 		movt	r3, 16384
 116 0050 40F20002 		movw	r2, #:lower16:IDAC8_1_backup
 117 0054 C0F20002 		movt	r2, #:upper16:IDAC8_1_backup
 118 0058 5278     		ldrb	r2, [r2, #1]	@ zero_extendqisi2
 119 005a 1A70     		strb	r2, [r3, #0]
  69:.\Generated_Source\PSoC5/IDAC8_1_PM.c ****             IDAC8_1_Strobe |= IDAC8_1_STRB_EN;
 120              		.loc 1 69 0
 121 005c 45F68723 		movw	r3, #23175
 122 0060 C4F20003 		movt	r3, 16384
 123 0064 45F68722 		movw	r2, #23175
 124 0068 C4F20002 		movt	r2, 16384
 125 006c 1278     		ldrb	r2, [r2, #0]
 126 006e D2B2     		uxtb	r2, r2
 127 0070 42F00802 		orr	r2, r2, #8
 128 0074 D2B2     		uxtb	r2, r2
 129 0076 1A70     		strb	r2, [r3, #0]
 130 0078 09E0     		b	.L3
 131              	.L5:
  70:.\Generated_Source\PSoC5/IDAC8_1_PM.c ****         }
  71:.\Generated_Source\PSoC5/IDAC8_1_PM.c ****         else
  72:.\Generated_Source\PSoC5/IDAC8_1_PM.c ****         {
  73:.\Generated_Source\PSoC5/IDAC8_1_PM.c ****             IDAC8_1_Data = IDAC8_1_backup.data_value;
 132              		.loc 1 73 0
 133 007a 4FF4B743 		mov	r3, #23424
 134 007e C4F20003 		movt	r3, 16384
 135 0082 40F20002 		movw	r2, #:lower16:IDAC8_1_backup
 136 0086 C0F20002 		movt	r2, #:upper16:IDAC8_1_backup
 137 008a 5278     		ldrb	r2, [r2, #1]	@ zero_extendqisi2
 138 008c 1A70     		strb	r2, [r3, #0]
 139              	.L3:
  74:.\Generated_Source\PSoC5/IDAC8_1_PM.c ****         }
  75:.\Generated_Source\PSoC5/IDAC8_1_PM.c ****     }
  76:.\Generated_Source\PSoC5/IDAC8_1_PM.c **** }
 140              		.loc 1 76 0
 141 008e BD46     		mov	sp, r7
 142 0090 80BC     		pop	{r7}
 143 0092 7047     		bx	lr
 144              		.cfi_endproc
 145              	.LFE1:
 146              		.size	IDAC8_1_RestoreConfig, .-IDAC8_1_RestoreConfig
 147              		.section	.text.IDAC8_1_Sleep,"ax",%progbits
 148              		.align	2
 149              		.global	IDAC8_1_Sleep
 150              		.thumb
 151              		.thumb_func
 152              		.type	IDAC8_1_Sleep, %function
ARM GAS  C:\Users\Brian\AppData\Local\Temp\ccSkCJiN.s 			page 5


 153              	IDAC8_1_Sleep:
 154              	.LFB2:
  77:.\Generated_Source\PSoC5/IDAC8_1_PM.c **** 
  78:.\Generated_Source\PSoC5/IDAC8_1_PM.c **** 
  79:.\Generated_Source\PSoC5/IDAC8_1_PM.c **** /*******************************************************************************
  80:.\Generated_Source\PSoC5/IDAC8_1_PM.c **** * Function Name: IDAC8_1_Sleep
  81:.\Generated_Source\PSoC5/IDAC8_1_PM.c **** ********************************************************************************
  82:.\Generated_Source\PSoC5/IDAC8_1_PM.c **** * Summary:
  83:.\Generated_Source\PSoC5/IDAC8_1_PM.c **** *  Stop and Save the user configuration
  84:.\Generated_Source\PSoC5/IDAC8_1_PM.c **** *
  85:.\Generated_Source\PSoC5/IDAC8_1_PM.c **** * Parameters:
  86:.\Generated_Source\PSoC5/IDAC8_1_PM.c **** *  void:
  87:.\Generated_Source\PSoC5/IDAC8_1_PM.c **** *
  88:.\Generated_Source\PSoC5/IDAC8_1_PM.c **** * Return:
  89:.\Generated_Source\PSoC5/IDAC8_1_PM.c **** *  void
  90:.\Generated_Source\PSoC5/IDAC8_1_PM.c **** *
  91:.\Generated_Source\PSoC5/IDAC8_1_PM.c **** * Global variables:
  92:.\Generated_Source\PSoC5/IDAC8_1_PM.c **** *  IDAC8_1_backup.enableState: Is modified depending on the enable 
  93:.\Generated_Source\PSoC5/IDAC8_1_PM.c **** *  state of the block before entering sleep mode.
  94:.\Generated_Source\PSoC5/IDAC8_1_PM.c **** *
  95:.\Generated_Source\PSoC5/IDAC8_1_PM.c **** *******************************************************************************/
  96:.\Generated_Source\PSoC5/IDAC8_1_PM.c **** void IDAC8_1_Sleep(void) 
  97:.\Generated_Source\PSoC5/IDAC8_1_PM.c **** {
 155              		.loc 1 97 0
 156              		.cfi_startproc
 157              		@ args = 0, pretend = 0, frame = 0
 158              		@ frame_needed = 1, uses_anonymous_args = 0
 159 0000 80B5     		push	{r7, lr}
 160              	.LCFI4:
 161              		.cfi_def_cfa_offset 8
 162              		.cfi_offset 7, -8
 163              		.cfi_offset 14, -4
 164 0002 00AF     		add	r7, sp, #0
 165              	.LCFI5:
 166              		.cfi_def_cfa_register 7
  98:.\Generated_Source\PSoC5/IDAC8_1_PM.c ****     if(IDAC8_1_ACT_PWR_EN == (IDAC8_1_PWRMGR & IDAC8_1_ACT_PWR_EN))
 167              		.loc 1 98 0
 168 0004 44F2A833 		movw	r3, #17320
 169 0008 C4F20003 		movt	r3, 16384
 170 000c 1B78     		ldrb	r3, [r3, #0]
 171 000e DBB2     		uxtb	r3, r3
 172 0010 03F00103 		and	r3, r3, #1
 173 0014 002B     		cmp	r3, #0
 174 0016 07D0     		beq	.L7
  99:.\Generated_Source\PSoC5/IDAC8_1_PM.c ****     {
 100:.\Generated_Source\PSoC5/IDAC8_1_PM.c ****         /* IDAC8 is enabled */
 101:.\Generated_Source\PSoC5/IDAC8_1_PM.c ****         IDAC8_1_backup.enableState = 1u;
 175              		.loc 1 101 0
 176 0018 40F20003 		movw	r3, #:lower16:IDAC8_1_backup
 177 001c C0F20003 		movt	r3, #:upper16:IDAC8_1_backup
 178 0020 4FF00102 		mov	r2, #1
 179 0024 1A70     		strb	r2, [r3, #0]
 180 0026 06E0     		b	.L8
 181              	.L7:
 102:.\Generated_Source\PSoC5/IDAC8_1_PM.c ****     }
 103:.\Generated_Source\PSoC5/IDAC8_1_PM.c ****     else
 104:.\Generated_Source\PSoC5/IDAC8_1_PM.c ****     {
ARM GAS  C:\Users\Brian\AppData\Local\Temp\ccSkCJiN.s 			page 6


 105:.\Generated_Source\PSoC5/IDAC8_1_PM.c ****         /* IDAC8 is disabled */
 106:.\Generated_Source\PSoC5/IDAC8_1_PM.c ****         IDAC8_1_backup.enableState = 0u;
 182              		.loc 1 106 0
 183 0028 40F20003 		movw	r3, #:lower16:IDAC8_1_backup
 184 002c C0F20003 		movt	r3, #:upper16:IDAC8_1_backup
 185 0030 4FF00002 		mov	r2, #0
 186 0034 1A70     		strb	r2, [r3, #0]
 187              	.L8:
 107:.\Generated_Source\PSoC5/IDAC8_1_PM.c ****     }
 108:.\Generated_Source\PSoC5/IDAC8_1_PM.c **** 
 109:.\Generated_Source\PSoC5/IDAC8_1_PM.c ****     IDAC8_1_Stop();
 188              		.loc 1 109 0
 189 0036 FFF7FEFF 		bl	IDAC8_1_Stop
 110:.\Generated_Source\PSoC5/IDAC8_1_PM.c ****     IDAC8_1_SaveConfig();
 190              		.loc 1 110 0
 191 003a FFF7FEFF 		bl	IDAC8_1_SaveConfig
 111:.\Generated_Source\PSoC5/IDAC8_1_PM.c **** }
 192              		.loc 1 111 0
 193 003e 80BD     		pop	{r7, pc}
 194              		.cfi_endproc
 195              	.LFE2:
 196              		.size	IDAC8_1_Sleep, .-IDAC8_1_Sleep
 197              		.section	.text.IDAC8_1_Wakeup,"ax",%progbits
 198              		.align	2
 199              		.global	IDAC8_1_Wakeup
 200              		.thumb
 201              		.thumb_func
 202              		.type	IDAC8_1_Wakeup, %function
 203              	IDAC8_1_Wakeup:
 204              	.LFB3:
 112:.\Generated_Source\PSoC5/IDAC8_1_PM.c **** 
 113:.\Generated_Source\PSoC5/IDAC8_1_PM.c **** 
 114:.\Generated_Source\PSoC5/IDAC8_1_PM.c **** /*******************************************************************************
 115:.\Generated_Source\PSoC5/IDAC8_1_PM.c **** * Function Name: IDAC8_1_Wakeup
 116:.\Generated_Source\PSoC5/IDAC8_1_PM.c **** ********************************************************************************
 117:.\Generated_Source\PSoC5/IDAC8_1_PM.c **** *
 118:.\Generated_Source\PSoC5/IDAC8_1_PM.c **** * Summary:
 119:.\Generated_Source\PSoC5/IDAC8_1_PM.c **** *  Restores and enables the user configuration
 120:.\Generated_Source\PSoC5/IDAC8_1_PM.c **** *  
 121:.\Generated_Source\PSoC5/IDAC8_1_PM.c **** * Parameters:
 122:.\Generated_Source\PSoC5/IDAC8_1_PM.c **** *  void
 123:.\Generated_Source\PSoC5/IDAC8_1_PM.c **** *
 124:.\Generated_Source\PSoC5/IDAC8_1_PM.c **** * Return:
 125:.\Generated_Source\PSoC5/IDAC8_1_PM.c **** *  void
 126:.\Generated_Source\PSoC5/IDAC8_1_PM.c **** *
 127:.\Generated_Source\PSoC5/IDAC8_1_PM.c **** * Global variables:
 128:.\Generated_Source\PSoC5/IDAC8_1_PM.c **** *  IDAC8_1_backup.enableState: Is used to restore the enable state of 
 129:.\Generated_Source\PSoC5/IDAC8_1_PM.c **** *  block on wakeup from sleep mode.
 130:.\Generated_Source\PSoC5/IDAC8_1_PM.c **** *
 131:.\Generated_Source\PSoC5/IDAC8_1_PM.c **** *******************************************************************************/
 132:.\Generated_Source\PSoC5/IDAC8_1_PM.c **** void IDAC8_1_Wakeup(void) 
 133:.\Generated_Source\PSoC5/IDAC8_1_PM.c **** {
 205              		.loc 1 133 0
 206              		.cfi_startproc
 207              		@ args = 0, pretend = 0, frame = 0
 208              		@ frame_needed = 1, uses_anonymous_args = 0
 209 0000 80B5     		push	{r7, lr}
ARM GAS  C:\Users\Brian\AppData\Local\Temp\ccSkCJiN.s 			page 7


 210              	.LCFI6:
 211              		.cfi_def_cfa_offset 8
 212              		.cfi_offset 7, -8
 213              		.cfi_offset 14, -4
 214 0002 00AF     		add	r7, sp, #0
 215              	.LCFI7:
 216              		.cfi_def_cfa_register 7
 134:.\Generated_Source\PSoC5/IDAC8_1_PM.c ****     IDAC8_1_RestoreConfig();
 217              		.loc 1 134 0
 218 0004 FFF7FEFF 		bl	IDAC8_1_RestoreConfig
 135:.\Generated_Source\PSoC5/IDAC8_1_PM.c ****     
 136:.\Generated_Source\PSoC5/IDAC8_1_PM.c ****     if(IDAC8_1_backup.enableState == 1u)
 219              		.loc 1 136 0
 220 0008 40F20003 		movw	r3, #:lower16:IDAC8_1_backup
 221 000c C0F20003 		movt	r3, #:upper16:IDAC8_1_backup
 222 0010 1B78     		ldrb	r3, [r3, #0]	@ zero_extendqisi2
 223 0012 012B     		cmp	r3, #1
 224 0014 0AD1     		bne	.L9
 137:.\Generated_Source\PSoC5/IDAC8_1_PM.c ****     {
 138:.\Generated_Source\PSoC5/IDAC8_1_PM.c ****         /* Enable IDAC8's operation */
 139:.\Generated_Source\PSoC5/IDAC8_1_PM.c ****         IDAC8_1_Enable();
 225              		.loc 1 139 0
 226 0016 FFF7FEFF 		bl	IDAC8_1_Enable
 140:.\Generated_Source\PSoC5/IDAC8_1_PM.c ****         
 141:.\Generated_Source\PSoC5/IDAC8_1_PM.c ****         /* Set the data register */
 142:.\Generated_Source\PSoC5/IDAC8_1_PM.c ****         IDAC8_1_SetValue(IDAC8_1_Data);
 227              		.loc 1 142 0
 228 001a 4FF4B743 		mov	r3, #23424
 229 001e C4F20003 		movt	r3, 16384
 230 0022 1B78     		ldrb	r3, [r3, #0]
 231 0024 DBB2     		uxtb	r3, r3
 232 0026 1846     		mov	r0, r3
 233 0028 FFF7FEFF 		bl	IDAC8_1_SetValue
 234              	.L9:
 143:.\Generated_Source\PSoC5/IDAC8_1_PM.c ****     } /* Do nothing if IDAC8 was disabled before */    
 144:.\Generated_Source\PSoC5/IDAC8_1_PM.c **** }
 235              		.loc 1 144 0
 236 002c 80BD     		pop	{r7, pc}
 237              		.cfi_endproc
 238              	.LFE3:
 239              		.size	IDAC8_1_Wakeup, .-IDAC8_1_Wakeup
 240 002e 00BF     		.text
 241              	.Letext0:
 242              		.file 2 ".\\Generated_Source\\PSoC5\\cytypes.h"
 243              		.file 3 ".\\Generated_Source\\PSoC5\\IDAC8_1.h"