ARM GAS  C:\Users\Robert\AppData\Local\Temp\ccuq6WQh.s 			page 1


   1              		.syntax unified
   2              		.cpu cortex-m3
   3              		.fpu softvfp
   4              		.eabi_attribute 20, 1
   5              		.eabi_attribute 21, 1
   6              		.eabi_attribute 23, 3
   7              		.eabi_attribute 24, 1
   8              		.eabi_attribute 25, 1
   9              		.eabi_attribute 26, 1
  10              		.eabi_attribute 30, 6
  11              		.eabi_attribute 34, 1
  12              		.eabi_attribute 18, 4
  13              		.thumb
  14              		.file	"main.c"
  15              		.text
  16              	.Ltext0:
  17              		.cfi_sections	.debug_frame
  18              		.comm	WR_buf,4,4
  19              		.global	RD_buf
  20              		.bss
  21              		.align	2
  22              		.type	RD_buf, %object
  23              		.size	RD_buf, 4
  24              	RD_buf:
  25 0000 00000000 		.space	4
  26              		.section	.text.main,"ax",%progbits
  27              		.align	2
  28              		.global	main
  29              		.thumb
  30              		.thumb_func
  31              		.type	main, %function
  32              	main:
  33              	.LFB56:
  34              		.file 1 ".\\main.c"
   1:.\main.c      **** /**
   2:.\main.c      **** * \file main.c
   3:.\main.c      **** * \brief This file will receive data from an SPI Master device, and pass it along 
   4:.\main.c      **** *   to mem1.c where data will be returned to the SPI Master when applicable
   5:.\main.c      **** *   
   6:.\main.c      **** *
   7:.\main.c      **** * Version 1.1
   8:.\main.c      **** *
   9:.\main.c      **** * \author Brian Bradley
  10:.\main.c      **** *
  11:.\main.c      **** * \bug No known bugs, but I2C is untested
  12:.\main.c      **** *
  13:.\main.c      **** * 
  14:.\main.c      **** *
  15:.\main.c      **** * Copyright Embedit Electronics
  16:.\main.c      **** * 
  17:.\main.c      **** */
  18:.\main.c      **** #include <project.h>
  19:.\main.c      **** //#include <device.h>
  20:.\main.c      **** #include <stdio.h>
  21:.\main.c      **** #include <mem1.h>
  22:.\main.c      **** 
  23:.\main.c      **** #ifdef CY_I2C_I2C_1_H
ARM GAS  C:\Users\Robert\AppData\Local\Temp\ccuq6WQh.s 			page 2


  24:.\main.c      ****     uint8 WR_buf[I2C_BUFFER_SIZE]; 
  25:.\main.c      ****     uint8 RD_buf[I2C_BUFFER_SIZE] = {0,0,0,0};
  26:.\main.c      **** #endif
  27:.\main.c      **** 
  28:.\main.c      **** int main()
  29:.\main.c      **** {
  35              		.loc 1 29 0
  36              		.cfi_startproc
  37              		@ args = 0, pretend = 0, frame = 16
  38              		@ frame_needed = 1, uses_anonymous_args = 0
  39 0000 80B5     		push	{r7, lr}
  40              	.LCFI0:
  41              		.cfi_def_cfa_offset 8
  42              		.cfi_offset 7, -8
  43              		.cfi_offset 14, -4
  44 0002 84B0     		sub	sp, sp, #16
  45              	.LCFI1:
  46              		.cfi_def_cfa_offset 24
  47 0004 00AF     		add	r7, sp, #0
  48              	.LCFI2:
  49              		.cfi_def_cfa_register 7
  30:.\main.c      ****     /* Place your initialization/startup code here (e.g. MyInst_Start()) */
  31:.\main.c      ****     #ifdef CY_SPIS_SPIS_1_H
  32:.\main.c      ****         SPIS_1_Start();
  33:.\main.c      ****         SPIS_1_ClearFIFO();
  34:.\main.c      ****         SPIS_1_ClearRxBuffer();
  35:.\main.c      ****         SPIS_1_ClearTxBuffer();
  36:.\main.c      ****     #endif
  37:.\main.c      **** 
  38:.\main.c      ****     #ifdef CY_I2C_I2C_1_H
  39:.\main.c      ****         I2C_1_SlaveInitReadBuf(RD_buf,  I2C_BUFFER_SIZE);
  50              		.loc 1 39 0
  51 0006 40F20000 		movw	r0, #:lower16:RD_buf
  52 000a C0F20000 		movt	r0, #:upper16:RD_buf
  53 000e 4FF00401 		mov	r1, #4
  54 0012 FFF7FEFF 		bl	I2C_1_SlaveInitReadBuf
  40:.\main.c      ****         I2C_1_SlaveInitWriteBuf(WR_buf,  I2C_BUFFER_SIZE);
  55              		.loc 1 40 0
  56 0016 40F20000 		movw	r0, #:lower16:WR_buf
  57 001a C0F20000 		movt	r0, #:upper16:WR_buf
  58 001e 4FF00401 		mov	r1, #4
  59 0022 FFF7FEFF 		bl	I2C_1_SlaveInitWriteBuf
  41:.\main.c      ****         I2C_1_Start();
  60              		.loc 1 41 0
  61 0026 FFF7FEFF 		bl	I2C_1_Start
  42:.\main.c      ****     #endif
  43:.\main.c      ****     
  44:.\main.c      ****     CyGlobalIntEnable;  /* enable global interrupts. */
  62              		.loc 1 44 0
  63              	@ 44 ".\main.c" 1
  64 002a 62B6     		CPSIE   i
  65              	@ 0 "" 2
  66              		.thumb
  67              	.L2:
  68              	.LBB2:
  45:.\main.c      ****     
  46:.\main.c      ****     /* Gets data from the Pi and send it to mem1.c*/
ARM GAS  C:\Users\Robert\AppData\Local\Temp\ccuq6WQh.s 			page 3


  47:.\main.c      ****     for(;;)
  48:.\main.c      ****     {
  49:.\main.c      ****       
  50:.\main.c      ****         uint32 input = ReadFrom_Pi();
  69              		.loc 1 50 0 discriminator 1
  70 002c FFF7FEFF 		bl	ReadFrom_Pi
  71 0030 F860     		str	r0, [r7, #12]
  51:.\main.c      ****         
  52:.\main.c      ****         uint8 addr = (input & 0xFF000000)>>24;
  72              		.loc 1 52 0 discriminator 1
  73 0032 FB68     		ldr	r3, [r7, #12]
  74 0034 4FEA1363 		lsr	r3, r3, #24
  75 0038 FB72     		strb	r3, [r7, #11]
  53:.\main.c      ****         uint8 cmd = (input & 0x00FF0000)>>16;
  76              		.loc 1 53 0 discriminator 1
  77 003a FB68     		ldr	r3, [r7, #12]
  78 003c 03F47F03 		and	r3, r3, #16711680
  79 0040 4FEA1343 		lsr	r3, r3, #16
  80 0044 BB72     		strb	r3, [r7, #10]
  54:.\main.c      ****         uint8 dat_lo = (input & 0x0000FF00)>>8;
  81              		.loc 1 54 0 discriminator 1
  82 0046 FB68     		ldr	r3, [r7, #12]
  83 0048 03F47F43 		and	r3, r3, #65280
  84 004c 4FEA1323 		lsr	r3, r3, #8
  85 0050 7B72     		strb	r3, [r7, #9]
  55:.\main.c      ****         uint8 dat_hi = input & 0x000000FF;
  86              		.loc 1 55 0 discriminator 1
  87 0052 FB68     		ldr	r3, [r7, #12]
  88 0054 3B72     		strb	r3, [r7, #8]
  56:.\main.c      ****         uint16 dat = (dat_hi<<8) | dat_lo;
  89              		.loc 1 56 0 discriminator 1
  90 0056 3B7A     		ldrb	r3, [r7, #8]	@ zero_extendqisi2
  91 0058 4FEA0323 		lsl	r3, r3, #8
  92 005c 9AB2     		uxth	r2, r3
  93 005e 7B7A     		ldrb	r3, [r7, #9]	@ zero_extendqisi2
  94 0060 9BB2     		uxth	r3, r3
  95 0062 1343     		orrs	r3, r3, r2
  96 0064 9BB2     		uxth	r3, r3
  97 0066 FB80     		strh	r3, [r7, #6]	@ movhi
  57:.\main.c      ****         
  58:.\main.c      ****         readData(addr,cmd,dat); 
  98              		.loc 1 58 0 discriminator 1
  99 0068 F97A     		ldrb	r1, [r7, #11]	@ zero_extendqisi2
 100 006a BA7A     		ldrb	r2, [r7, #10]	@ zero_extendqisi2
 101 006c FB88     		ldrh	r3, [r7, #6]
 102 006e 0846     		mov	r0, r1
 103 0070 1146     		mov	r1, r2
 104 0072 1A46     		mov	r2, r3
 105 0074 FFF7FEFF 		bl	readData
 106              	.LBE2:
  59:.\main.c      ****         
  60:.\main.c      ****         /*          Add your code here            */
  61:.\main.c      ****         
  62:.\main.c      ****     }
 107              		.loc 1 62 0 discriminator 1
 108 0078 D8E7     		b	.L2
 109              		.cfi_endproc
ARM GAS  C:\Users\Robert\AppData\Local\Temp\ccuq6WQh.s 			page 4


 110              	.LFE56:
 111              		.size	main, .-main
 112 007a 00BF     		.section	.text.ReadFrom_Pi,"ax",%progbits
 113              		.align	2
 114              		.global	ReadFrom_Pi
 115              		.thumb
 116              		.thumb_func
 117              		.type	ReadFrom_Pi, %function
 118              	ReadFrom_Pi:
 119              	.LFB57:
  63:.\main.c      **** }
  64:.\main.c      **** 
  65:.\main.c      ****    
  66:.\main.c      **** 
  67:.\main.c      **** 
  68:.\main.c      **** 
  69:.\main.c      **** 
  70:.\main.c      **** 
  71:.\main.c      **** 
  72:.\main.c      **** 
  73:.\main.c      **** 
  74:.\main.c      **** 
  75:.\main.c      **** /****************************************************************************************//**
  76:.\main.c      **** *  @brief receives 4 bytes of data from a Master Device, merges them into a 32 bit number, and
  77:.\main.c      **** *         returns the result
  78:.\main.c      **** *
  79:.\main.c      **** *  @return: 32-bit number which contains all 4 bytes of transferred data, where the MSB is the 
  80:.\main.c      ****             first item received.
  81:.\main.c      **** *
  82:.\main.c      **** *********************************************************************************************/
  83:.\main.c      ****     
  84:.\main.c      ****     uint32 ReadFrom_Pi(void)
  85:.\main.c      ****     {   
 120              		.loc 1 85 0
 121              		.cfi_startproc
 122              		@ args = 0, pretend = 0, frame = 16
 123              		@ frame_needed = 1, uses_anonymous_args = 0
 124 0000 80B5     		push	{r7, lr}
 125              	.LCFI3:
 126              		.cfi_def_cfa_offset 8
 127              		.cfi_offset 7, -8
 128              		.cfi_offset 14, -4
 129 0002 84B0     		sub	sp, sp, #16
 130              	.LCFI4:
 131              		.cfi_def_cfa_offset 24
 132 0004 00AF     		add	r7, sp, #0
 133              	.LCFI5:
 134              		.cfi_def_cfa_register 7
  86:.\main.c      ****         uint8 addr = 0;
 135              		.loc 1 86 0
 136 0006 4FF00003 		mov	r3, #0
 137 000a FB73     		strb	r3, [r7, #15]
  87:.\main.c      ****         uint8 cmd = 0;
 138              		.loc 1 87 0
 139 000c 4FF00003 		mov	r3, #0
 140 0010 BB73     		strb	r3, [r7, #14]
  88:.\main.c      ****         uint8 dat_lo = 0;
ARM GAS  C:\Users\Robert\AppData\Local\Temp\ccuq6WQh.s 			page 5


 141              		.loc 1 88 0
 142 0012 4FF00003 		mov	r3, #0
 143 0016 7B73     		strb	r3, [r7, #13]
  89:.\main.c      ****         uint8 dat_hi = 0;
 144              		.loc 1 89 0
 145 0018 4FF00003 		mov	r3, #0
 146 001c 3B73     		strb	r3, [r7, #12]
  90:.\main.c      ****         
  91:.\main.c      ****         /* SPI READ HANDLER */
  92:.\main.c      ****         #ifdef CY_SPIS_SPIS_1_H
  93:.\main.c      ****             while(!SPIS_1_GetRxBufferSize()){/* Wait until the Rx buffer isn't empty */}
  94:.\main.c      ****                 addr = SPIS_1_ReadRxData();
  95:.\main.c      ****     	    while(!SPIS_1_GetRxBufferSize()){/* Wait until the Rx buffer isn't empty */}
  96:.\main.c      ****     	        cmd = SPIS_1_ReadRxData();
  97:.\main.c      ****     	    while(!SPIS_1_GetRxBufferSize()){/* Wait until the Rx buffer isn't empty */}
  98:.\main.c      ****     	        dat_lo = SPIS_1_ReadRxData();
  99:.\main.c      ****             while(!SPIS_1_GetRxBufferSize()){/* Wait until the Rx buffer isn't empty */}
 100:.\main.c      ****     	        dat_hi = SPIS_1_ReadRxData();
 101:.\main.c      ****         #endif
 102:.\main.c      ****       
 103:.\main.c      ****         /* I2C READ HANDLER */
 104:.\main.c      ****         #ifdef CY_I2C_I2C_1_H
 105:.\main.c      ****             while (!I2C_1_SlaveGetWriteBufSize()){}
 147              		.loc 1 105 0
 148 001e 00BF     		nop
 149              	.L4:
 150              		.loc 1 105 0 is_stmt 0 discriminator 1
 151 0020 FFF7FEFF 		bl	I2C_1_SlaveGetWriteBufSize
 152 0024 0346     		mov	r3, r0
 153 0026 002B     		cmp	r3, #0
 154 0028 FAD0     		beq	.L4
 106:.\main.c      ****             /* wait until I2C master is not writing or reading from the Buffer */
 107:.\main.c      ****             while (!(I2C_1_SlaveStatus() & I2C_1_SSTAT_WR_CMPLT)){}         
 155              		.loc 1 107 0 is_stmt 1
 156 002a 00BF     		nop
 157              	.L5:
 158              		.loc 1 107 0 is_stmt 0 discriminator 1
 159 002c FFF7FEFF 		bl	I2C_1_SlaveStatus
 160 0030 0346     		mov	r3, r0
 161 0032 03F01003 		and	r3, r3, #16
 162 0036 002B     		cmp	r3, #0
 163 0038 F8D0     		beq	.L5
 108:.\main.c      ****                 uint8 byteCount = I2C_1_SlaveGetWriteBufSize(); 
 164              		.loc 1 108 0 is_stmt 1
 165 003a FFF7FEFF 		bl	I2C_1_SlaveGetWriteBufSize
 166 003e 0346     		mov	r3, r0
 167 0040 FB72     		strb	r3, [r7, #11]
 109:.\main.c      ****            
 110:.\main.c      ****                 addr = WR_buf[0];
 168              		.loc 1 110 0
 169 0042 40F20003 		movw	r3, #:lower16:WR_buf
 170 0046 C0F20003 		movt	r3, #:upper16:WR_buf
 171 004a 1B78     		ldrb	r3, [r3, #0]
 172 004c FB73     		strb	r3, [r7, #15]
 111:.\main.c      ****                 cmd = WR_buf[1];
 173              		.loc 1 111 0
 174 004e 40F20003 		movw	r3, #:lower16:WR_buf
ARM GAS  C:\Users\Robert\AppData\Local\Temp\ccuq6WQh.s 			page 6


 175 0052 C0F20003 		movt	r3, #:upper16:WR_buf
 176 0056 5B78     		ldrb	r3, [r3, #1]
 177 0058 BB73     		strb	r3, [r7, #14]
 112:.\main.c      ****                 dat_lo = WR_buf[2];
 178              		.loc 1 112 0
 179 005a 40F20003 		movw	r3, #:lower16:WR_buf
 180 005e C0F20003 		movt	r3, #:upper16:WR_buf
 181 0062 9B78     		ldrb	r3, [r3, #2]
 182 0064 7B73     		strb	r3, [r7, #13]
 113:.\main.c      ****                 dat_hi = WR_buf[3];
 183              		.loc 1 113 0
 184 0066 40F20003 		movw	r3, #:lower16:WR_buf
 185 006a C0F20003 		movt	r3, #:upper16:WR_buf
 186 006e DB78     		ldrb	r3, [r3, #3]
 187 0070 3B73     		strb	r3, [r7, #12]
 114:.\main.c      ****                 
 115:.\main.c      ****                 I2C_1_SlaveClearWriteStatus();
 188              		.loc 1 115 0
 189 0072 FFF7FEFF 		bl	I2C_1_SlaveClearWriteStatus
 116:.\main.c      ****                 I2C_1_SlaveClearWriteBuf();
 190              		.loc 1 116 0
 191 0076 FFF7FEFF 		bl	I2C_1_SlaveClearWriteBuf
 117:.\main.c      ****                 
 118:.\main.c      ****         #endif
 119:.\main.c      ****   
 120:.\main.c      ****         
 121:.\main.c      ****         uint32 input = (((addr<<24)|(cmd<<16))|(dat_lo<<8))|(dat_hi);
 192              		.loc 1 121 0
 193 007a FB7B     		ldrb	r3, [r7, #15]	@ zero_extendqisi2
 194 007c 4FEA0362 		lsl	r2, r3, #24
 195 0080 BB7B     		ldrb	r3, [r7, #14]	@ zero_extendqisi2
 196 0082 4FEA0343 		lsl	r3, r3, #16
 197 0086 1A43     		orrs	r2, r2, r3
 198 0088 7B7B     		ldrb	r3, [r7, #13]	@ zero_extendqisi2
 199 008a 4FEA0323 		lsl	r3, r3, #8
 200 008e 1A43     		orrs	r2, r2, r3
 201 0090 3B7B     		ldrb	r3, [r7, #12]	@ zero_extendqisi2
 202 0092 1343     		orrs	r3, r3, r2
 203 0094 7B60     		str	r3, [r7, #4]
 122:.\main.c      ****         return input;
 204              		.loc 1 122 0
 205 0096 7B68     		ldr	r3, [r7, #4]
 123:.\main.c      ****     }
 206              		.loc 1 123 0
 207 0098 1846     		mov	r0, r3
 208 009a 07F11007 		add	r7, r7, #16
 209 009e BD46     		mov	sp, r7
 210 00a0 80BD     		pop	{r7, pc}
 211              		.cfi_endproc
 212              	.LFE57:
 213              		.size	ReadFrom_Pi, .-ReadFrom_Pi
 214 00a2 00BF     		.section	.text.WriteTo_Pi,"ax",%progbits
 215              		.align	2
 216              		.global	WriteTo_Pi
 217              		.thumb
 218              		.thumb_func
 219              		.type	WriteTo_Pi, %function
ARM GAS  C:\Users\Robert\AppData\Local\Temp\ccuq6WQh.s 			page 7


 220              	WriteTo_Pi:
 221              	.LFB58:
 124:.\main.c      ****     
 125:.\main.c      **** /****************************************************************************************//**
 126:.\main.c      **** *  @brief Writes data back to the Master device when appropriate. 
 127:.\main.c      **** *
 128:.\main.c      **** *  @param dat: 32-bit number which is to be sent to the Master device. It is split into 4
 129:.\main.c      **** *              individual bytes, and transferred one at a time starting with the lowest byte
 130:.\main.c      **** *
 131:.\main.c      **** *********************************************************************************************/
 132:.\main.c      ****     
 133:.\main.c      ****     void WriteTo_Pi(uint32 dat)
 134:.\main.c      ****     {
 222              		.loc 1 134 0
 223              		.cfi_startproc
 224              		@ args = 0, pretend = 0, frame = 16
 225              		@ frame_needed = 1, uses_anonymous_args = 0
 226 0000 80B5     		push	{r7, lr}
 227              	.LCFI6:
 228              		.cfi_def_cfa_offset 8
 229              		.cfi_offset 7, -8
 230              		.cfi_offset 14, -4
 231 0002 84B0     		sub	sp, sp, #16
 232              	.LCFI7:
 233              		.cfi_def_cfa_offset 24
 234 0004 00AF     		add	r7, sp, #0
 235              	.LCFI8:
 236              		.cfi_def_cfa_register 7
 237 0006 7860     		str	r0, [r7, #4]
 135:.\main.c      ****         
 136:.\main.c      ****         
 137:.\main.c      ****             uint8 out_hi = (dat & 0xFF000000)>>24;
 238              		.loc 1 137 0
 239 0008 7B68     		ldr	r3, [r7, #4]
 240 000a 4FEA1363 		lsr	r3, r3, #24
 241 000e FB73     		strb	r3, [r7, #15]
 138:.\main.c      ****             uint8 out_mid_hi = (dat & 0x00FF0000)>>16;
 242              		.loc 1 138 0
 243 0010 7B68     		ldr	r3, [r7, #4]
 244 0012 03F47F03 		and	r3, r3, #16711680
 245 0016 4FEA1343 		lsr	r3, r3, #16
 246 001a BB73     		strb	r3, [r7, #14]
 139:.\main.c      ****             uint8 out_mid_lo = (dat & 0x0000FF00)>>8;
 247              		.loc 1 139 0
 248 001c 7B68     		ldr	r3, [r7, #4]
 249 001e 03F47F43 		and	r3, r3, #65280
 250 0022 4FEA1323 		lsr	r3, r3, #8
 251 0026 7B73     		strb	r3, [r7, #13]
 140:.\main.c      ****             uint8 out_lo = dat & 0x000000FF;
 252              		.loc 1 140 0
 253 0028 7B68     		ldr	r3, [r7, #4]
 254 002a 3B73     		strb	r3, [r7, #12]
 141:.\main.c      ****         
 142:.\main.c      ****         /* SPI WRITE HANDLER */
 143:.\main.c      ****         #ifdef CY_SPIS_SPIS_1_H
 144:.\main.c      ****             SPIS_1_ClearTxBuffer();
 145:.\main.c      ****             SPIS_1_ClearFIFO();    //Clear the SPI buffers
ARM GAS  C:\Users\Robert\AppData\Local\Temp\ccuq6WQh.s 			page 8


 146:.\main.c      ****             SPIS_1_ClearRxBuffer();
 147:.\main.c      ****             
 148:.\main.c      ****             uint8 SPI_buffer[3] = {out_mid_lo, out_mid_hi, out_hi};
 149:.\main.c      ****             SPIS_1_WriteTxDataZero(out_lo);
 150:.\main.c      ****             SPIS_1_PutArray(SPI_buffer, 3);
 151:.\main.c      ****            
 152:.\main.c      ****             while(!(SPIS_1_ReadTxStatus() & SPIS_1_STS_SPI_DONE)); //Wait until Tx buffer empties  
 153:.\main.c      ****         #endif
 154:.\main.c      ****         
 155:.\main.c      ****         /* I2C WRITE HANDLER */
 156:.\main.c      ****         #ifdef CY_I2C_I2C_1_H
 157:.\main.c      ****             while (I2C_1_SlaveGetReadBufSize()){}
 255              		.loc 1 157 0
 256 002c 00BF     		nop
 257              	.L8:
 258              		.loc 1 157 0 is_stmt 0 discriminator 1
 259 002e FFF7FEFF 		bl	I2C_1_SlaveGetReadBufSize
 260 0032 0346     		mov	r3, r0
 261 0034 002B     		cmp	r3, #0
 262 0036 FAD1     		bne	.L8
 158:.\main.c      ****             RD_buf[0] = out_lo;
 263              		.loc 1 158 0 is_stmt 1
 264 0038 40F20003 		movw	r3, #:lower16:RD_buf
 265 003c C0F20003 		movt	r3, #:upper16:RD_buf
 266 0040 3A7B     		ldrb	r2, [r7, #12]
 267 0042 1A70     		strb	r2, [r3, #0]
 159:.\main.c      ****             RD_buf[1] = out_mid_lo;
 268              		.loc 1 159 0
 269 0044 40F20003 		movw	r3, #:lower16:RD_buf
 270 0048 C0F20003 		movt	r3, #:upper16:RD_buf
 271 004c 7A7B     		ldrb	r2, [r7, #13]
 272 004e 5A70     		strb	r2, [r3, #1]
 160:.\main.c      ****             RD_buf[2] = out_mid_hi;
 273              		.loc 1 160 0
 274 0050 40F20003 		movw	r3, #:lower16:RD_buf
 275 0054 C0F20003 		movt	r3, #:upper16:RD_buf
 276 0058 BA7B     		ldrb	r2, [r7, #14]
 277 005a 9A70     		strb	r2, [r3, #2]
 161:.\main.c      ****             RD_buf[3] = out_hi;
 278              		.loc 1 161 0
 279 005c 40F20003 		movw	r3, #:lower16:RD_buf
 280 0060 C0F20003 		movt	r3, #:upper16:RD_buf
 281 0064 FA7B     		ldrb	r2, [r7, #15]
 282 0066 DA70     		strb	r2, [r3, #3]
 162:.\main.c      ****             
 163:.\main.c      ****             /*Wait until read is complete*/
 164:.\main.c      ****             while (0u == (I2C_1_SlaveStatus() & I2C_1_SSTAT_RD_CMPLT)){}
 283              		.loc 1 164 0
 284 0068 00BF     		nop
 285              	.L9:
 286              		.loc 1 164 0 is_stmt 0 discriminator 1
 287 006a FFF7FEFF 		bl	I2C_1_SlaveStatus
 288 006e 0346     		mov	r3, r0
 289 0070 03F00103 		and	r3, r3, #1
 290 0074 002B     		cmp	r3, #0
 291 0076 F8D0     		beq	.L9
 165:.\main.c      ****                 I2C_1_SlaveClearReadBuf();          /* Clear slave read buffer and status */
ARM GAS  C:\Users\Robert\AppData\Local\Temp\ccuq6WQh.s 			page 9


 292              		.loc 1 165 0 is_stmt 1
 293 0078 FFF7FEFF 		bl	I2C_1_SlaveClearReadBuf
 166:.\main.c      ****                 (void) I2C_1_SlaveClearReadStatus();
 294              		.loc 1 166 0
 295 007c FFF7FEFF 		bl	I2C_1_SlaveClearReadStatus
 167:.\main.c      ****         #endif
 168:.\main.c      ****         
 169:.\main.c      ****     }
 296              		.loc 1 169 0
 297 0080 07F11007 		add	r7, r7, #16
 298 0084 BD46     		mov	sp, r7
 299 0086 80BD     		pop	{r7, pc}
 300              		.cfi_endproc
 301              	.LFE58:
 302              		.size	WriteTo_Pi, .-WriteTo_Pi
 303              		.text
 304              	.Letext0:
 305              		.file 2 "c:\\program files (x86)\\cypress\\psoc creator\\3.0\\psoc creator\\import\\gnu_cs\\arm\\4
 306              		.file 3 "./Generated_Source/PSoC5/cytypes.h"
 307              		.file 4 "./Generated_Source/PSoC5/core_cm3.h"