ARM GAS  C:\Users\Brian\AppData\Local\Temp\ccHjPWqd.s 			page 1


   1              		.syntax unified
   2              		.cpu cortex-m3
   3              		.fpu softvfp
   4              		.eabi_attribute 20, 1
   5              		.eabi_attribute 21, 1
   6              		.eabi_attribute 23, 3
   7              		.eabi_attribute 24, 1
   8              		.eabi_attribute 25, 1
   9              		.eabi_attribute 26, 1
  10              		.eabi_attribute 30, 6
  11              		.eabi_attribute 34, 1
  12              		.eabi_attribute 18, 4
  13              		.thumb
  14              		.file	"mem1.c"
  15              		.text
  16              	.Ltext0:
  17              		.cfi_sections	.debug_frame
  18              		.section	.text.readData,"ax",%progbits
  19              		.align	2
  20              		.global	readData
  21              		.thumb
  22              		.thumb_func
  23              		.type	readData, %function
  24              	readData:
  25              	.LFB56:
  26              		.file 1 ".\\mem1.c"
   1:.\mem1.c      **** /**
   2:.\mem1.c      **** * \file mem1.c
   3:.\mem1.c      **** * \brief This file contains the source code for access or manipulation of 
   4:.\mem1.c      **** *        all components included in the build. It will do so according to
   5:.\mem1.c      **** *        sets of instructions provided by a Master Device.
   6:.\mem1.c      **** *
   7:.\mem1.c      **** * Version 1.0.5
   8:.\mem1.c      **** *
   9:.\mem1.c      **** * \author Brian Bradley
  10:.\mem1.c      **** *
  11:.\mem1.c      **** * \bug No known bugs, but the VDAC's and IDAC's are currently untested.
  12:.\mem1.c      **** *
  13:.\mem1.c      **** *
  14:.\mem1.c      **** * Copyright Embedit Electronics
  15:.\mem1.c      **** * 
  16:.\mem1.c      **** */
  17:.\mem1.c      **** 
  18:.\mem1.c      **** #ifndef MEM1_H
  19:.\mem1.c      ****     #include "mem1.h"
  20:.\mem1.c      **** #endif
  21:.\mem1.c      **** 
  22:.\mem1.c      **** #include <project.h>
  23:.\mem1.c      **** #include <stdbool.h>
  24:.\mem1.c      **** 
  25:.\mem1.c      **** /*************************************************************************************************/
  26:.\mem1.c      **** *  @brief This function organizes each component of the build, and gives the 
  27:.\mem1.c      **** *         applicable information to the appropriate address for use.
  28:.\mem1.c      **** *
  29:.\mem1.c      **** *  @param addr: 8-bit number describing the address of the component being accessed
  30:.\mem1.c      **** *  @param cmd: 8-bit number describing a desired usage of a function associated with that component
  31:.\mem1.c      **** *  @param dat: 16-bit number containing a value that is to be written to that function, if applicab
ARM GAS  C:\Users\Brian\AppData\Local\Temp\ccHjPWqd.s 			page 2


  32:.\mem1.c      **** *
  33:.\mem1.c      **** ***************************************************************************************************
  34:.\mem1.c      **** 
  35:.\mem1.c      **** void readData(uint8 addr, uint8 cmd, uint16 dat)
  36:.\mem1.c      **** {
  27              		.loc 1 36 0
  28              		.cfi_startproc
  29              		@ args = 0, pretend = 0, frame = 8
  30              		@ frame_needed = 1, uses_anonymous_args = 0
  31 0000 80B5     		push	{r7, lr}
  32              	.LCFI0:
  33              		.cfi_def_cfa_offset 8
  34              		.cfi_offset 7, -8
  35              		.cfi_offset 14, -4
  36 0002 82B0     		sub	sp, sp, #8
  37              	.LCFI1:
  38              		.cfi_def_cfa_offset 16
  39 0004 00AF     		add	r7, sp, #0
  40              	.LCFI2:
  41              		.cfi_def_cfa_register 7
  42 0006 1346     		mov	r3, r2
  43 0008 0246     		mov	r2, r0
  44 000a FA71     		strb	r2, [r7, #7]
  45 000c 0A46     		mov	r2, r1
  46 000e BA71     		strb	r2, [r7, #6]
  47 0010 BB80     		strh	r3, [r7, #4]	@ movhi
  37:.\mem1.c      ****     switch(addr)
  48              		.loc 1 37 0
  49 0012 FB79     		ldrb	r3, [r7, #7]	@ zero_extendqisi2
  50 0014 0B2B     		cmp	r3, #11
  51 0016 62D0     		beq	.L11
  52 0018 0B2B     		cmp	r3, #11
  53 001a 16DC     		bgt	.L20
  54 001c 052B     		cmp	r3, #5
  55 001e 3BD0     		beq	.L6
  56 0020 052B     		cmp	r3, #5
  57 0022 06DC     		bgt	.L21
  58 0024 022B     		cmp	r3, #2
  59 0026 29D0     		beq	.L4
  60 0028 042B     		cmp	r3, #4
  61 002a 2ED0     		beq	.L5
  62 002c 012B     		cmp	r3, #1
  63 002e 1ED0     		beq	.L3
  64 0030 90E0     		b	.L1
  65              	.L21:
  66 0032 082B     		cmp	r3, #8
  67 0034 3ED0     		beq	.L8
  68 0036 082B     		cmp	r3, #8
  69 0038 02DC     		bgt	.L22
  70 003a 062B     		cmp	r3, #6
  71 003c 33D0     		beq	.L7
  72 003e 89E0     		b	.L1
  73              	.L22:
  74 0040 092B     		cmp	r3, #9
  75 0042 3ED0     		beq	.L9
  76 0044 0A2B     		cmp	r3, #10
  77 0046 43D0     		beq	.L10
ARM GAS  C:\Users\Brian\AppData\Local\Temp\ccHjPWqd.s 			page 3


  78 0048 84E0     		b	.L1
  79              	.L20:
  80 004a 0F2B     		cmp	r3, #15
  81 004c 63D0     		beq	.L15
  82 004e 0F2B     		cmp	r3, #15
  83 0050 04DC     		bgt	.L23
  84 0052 0D2B     		cmp	r3, #13
  85 0054 51D0     		beq	.L13
  86 0056 0D2B     		cmp	r3, #13
  87 0058 56DC     		bgt	.L14
  88 005a 47E0     		b	.L24
  89              	.L23:
  90 005c 112B     		cmp	r3, #17
  91 005e 6FD0     		beq	.L17
  92 0060 112B     		cmp	r3, #17
  93 0062 5FDB     		blt	.L16
  94 0064 122B     		cmp	r3, #18
  95 0066 64D0     		beq	.L18
  96 0068 FF2B     		cmp	r3, #255
  97 006a 70D0     		beq	.L19
  98 006c 72E0     		b	.L1
  99              	.L3:
  38:.\mem1.c      ****     {
  39:.\mem1.c      ****         //delsig_adc
  40:.\mem1.c      ****         #ifdef CY_ADC_DELSIG_ADC_DelSig_1_H
  41:.\mem1.c      ****             case DELSIG_ADC_CONTROL: DELSIG_ADC_Control(cmd,dat); break;
 100              		.loc 1 41 0
 101 006e BA79     		ldrb	r2, [r7, #6]	@ zero_extendqisi2
 102 0070 BB88     		ldrh	r3, [r7, #4]
 103 0072 1046     		mov	r0, r2
 104 0074 1946     		mov	r1, r3
 105 0076 FFF7FEFF 		bl	DELSIG_ADC_Control
 106 007a 6BE0     		b	.L1
 107              	.L4:
  42:.\mem1.c      ****         #endif
  43:.\mem1.c      ****         
  44:.\mem1.c      ****         //sar adc 1
  45:.\mem1.c      ****         #ifdef CY_ADC_SAR_ADC_SAR_1_H 
  46:.\mem1.c      ****             case SAR_ADC0_CONTROL: SAR0_ADC_Control(cmd, dat); break;
 108              		.loc 1 46 0
 109 007c BA79     		ldrb	r2, [r7, #6]	@ zero_extendqisi2
 110 007e BB88     		ldrh	r3, [r7, #4]
 111 0080 1046     		mov	r0, r2
 112 0082 1946     		mov	r1, r3
 113 0084 FFF7FEFF 		bl	SAR0_ADC_Control
 114 0088 64E0     		b	.L1
 115              	.L5:
  47:.\mem1.c      ****         #endif
  48:.\mem1.c      ****         
  49:.\mem1.c      ****         //sar adc 2
  50:.\mem1.c      ****         #ifdef CY_ADC_SAR_ADC_SAR_2_H 
  51:.\mem1.c      ****             case SAR_ADC1_CONTROL: SAR1_ADC_Control(cmd, dat); break;
  52:.\mem1.c      ****         #endif
  53:.\mem1.c      ****         
  54:.\mem1.c      ****         //VDAC1
  55:.\mem1.c      ****         #ifdef CY_VDAC8_VDAC8_1_H
  56:.\mem1.c      ****             case VDAC0_CONTROL: VDAC0_Control(cmd, dat); break;        
ARM GAS  C:\Users\Brian\AppData\Local\Temp\ccHjPWqd.s 			page 4


 116              		.loc 1 56 0
 117 008a BA79     		ldrb	r2, [r7, #6]	@ zero_extendqisi2
 118 008c BB88     		ldrh	r3, [r7, #4]
 119 008e 1046     		mov	r0, r2
 120 0090 1946     		mov	r1, r3
 121 0092 FFF7FEFF 		bl	VDAC0_Control
 122 0096 5DE0     		b	.L1
 123              	.L6:
  57:.\mem1.c      ****         #endif
  58:.\mem1.c      ****         
  59:.\mem1.c      ****         //VDAC2
  60:.\mem1.c      ****         #ifdef CY_VDAC8_VDAC8_2_H
  61:.\mem1.c      ****             case VDAC1_CONTROL: VDAC1_Control(cmd, dat); break;
 124              		.loc 1 61 0
 125 0098 BA79     		ldrb	r2, [r7, #6]	@ zero_extendqisi2
 126 009a BB88     		ldrh	r3, [r7, #4]
 127 009c 1046     		mov	r0, r2
 128 009e 1946     		mov	r1, r3
 129 00a0 FFF7FEFF 		bl	VDAC1_Control
 130 00a4 56E0     		b	.L1
 131              	.L7:
  62:.\mem1.c      ****         #endif
  63:.\mem1.c      ****         
  64:.\mem1.c      ****         //IDAC1
  65:.\mem1.c      ****         #ifdef CY_IDAC8_IDAC8_1_H
  66:.\mem1.c      ****             case IDAC0_CONTROL: IDAC0_Control(cmd,dat); break;     
 132              		.loc 1 66 0
 133 00a6 BA79     		ldrb	r2, [r7, #6]	@ zero_extendqisi2
 134 00a8 BB88     		ldrh	r3, [r7, #4]
 135 00aa 1046     		mov	r0, r2
 136 00ac 1946     		mov	r1, r3
 137 00ae FFF7FEFF 		bl	IDAC0_Control
 138 00b2 4FE0     		b	.L1
 139              	.L8:
  67:.\mem1.c      ****         #endif
  68:.\mem1.c      ****         
  69:.\mem1.c      ****         //IDAC2
  70:.\mem1.c      ****         #ifdef CY_IDAC8_IDAC8_2_H
  71:.\mem1.c      ****             case IDAC1_CONTROL: IDAC1_Control(cmd, dat); break;     
  72:.\mem1.c      ****         #endif
  73:.\mem1.c      ****         
  74:.\mem1.c      ****         //Wave DAC
  75:.\mem1.c      ****         #ifdef CY_WaveDAC8_WaveDAC8_1_H
  76:.\mem1.c      ****             case WAVEDAC_CONTROL: WAVEDAC_Control(cmd,dat); break;      
 140              		.loc 1 76 0
 141 00b4 BA79     		ldrb	r2, [r7, #6]	@ zero_extendqisi2
 142 00b6 BB88     		ldrh	r3, [r7, #4]
 143 00b8 1046     		mov	r0, r2
 144 00ba 1946     		mov	r1, r3
 145 00bc FFF7FEFF 		bl	WAVEDAC_Control
 146 00c0 48E0     		b	.L1
 147              	.L9:
  77:.\mem1.c      ****         #endif
  78:.\mem1.c      ****         
  79:.\mem1.c      ****         //first PWM
  80:.\mem1.c      ****         #ifdef CY_PWM_PWM_1_H
  81:.\mem1.c      ****             case PWM_REGISTER0: PWM_Control_0(cmd, dat); break;
ARM GAS  C:\Users\Brian\AppData\Local\Temp\ccHjPWqd.s 			page 5


 148              		.loc 1 81 0
 149 00c2 BA79     		ldrb	r2, [r7, #6]	@ zero_extendqisi2
 150 00c4 BB88     		ldrh	r3, [r7, #4]
 151 00c6 1046     		mov	r0, r2
 152 00c8 1946     		mov	r1, r3
 153 00ca FFF7FEFF 		bl	PWM_Control_0
 154 00ce 41E0     		b	.L1
 155              	.L10:
  82:.\mem1.c      ****         #endif
  83:.\mem1.c      ****         
  84:.\mem1.c      ****         //second PWM
  85:.\mem1.c      ****         #ifdef CY_PWM_PWM_2_H
  86:.\mem1.c      ****             case PWM_REGISTER1: PWM_Control_1(cmd, dat); break;
 156              		.loc 1 86 0
 157 00d0 BA79     		ldrb	r2, [r7, #6]	@ zero_extendqisi2
 158 00d2 BB88     		ldrh	r3, [r7, #4]
 159 00d4 1046     		mov	r0, r2
 160 00d6 1946     		mov	r1, r3
 161 00d8 FFF7FEFF 		bl	PWM_Control_1
 162 00dc 3AE0     		b	.L1
 163              	.L11:
  87:.\mem1.c      ****         #endif
  88:.\mem1.c      ****         
  89:.\mem1.c      ****         //third PWM
  90:.\mem1.c      ****         #ifdef CY_PWM_PWM_3_H
  91:.\mem1.c      ****             case PWM_REGISTER2: PWM_Control_2(cmd, dat); break;
 164              		.loc 1 91 0
 165 00de BA79     		ldrb	r2, [r7, #6]	@ zero_extendqisi2
 166 00e0 BB88     		ldrh	r3, [r7, #4]
 167 00e2 1046     		mov	r0, r2
 168 00e4 1946     		mov	r1, r3
 169 00e6 FFF7FEFF 		bl	PWM_Control_2
 170 00ea 33E0     		b	.L1
 171              	.L24:
  92:.\mem1.c      ****         #endif
  93:.\mem1.c      ****         
  94:.\mem1.c      ****         //fourth PWM
  95:.\mem1.c      ****         #ifdef CY_PWM_PWM_4_H
  96:.\mem1.c      ****             case PWM_REGISTER3: PWM_Control_3(cmd, dat); break;  
 172              		.loc 1 96 0
 173 00ec BA79     		ldrb	r2, [r7, #6]	@ zero_extendqisi2
 174 00ee BB88     		ldrh	r3, [r7, #4]
 175 00f0 1046     		mov	r0, r2
 176 00f2 1946     		mov	r1, r3
 177 00f4 FFF7FEFF 		bl	PWM_Control_3
 178 00f8 2CE0     		b	.L1
 179              	.L13:
  97:.\mem1.c      ****         #endif
  98:.\mem1.c      ****         
  99:.\mem1.c      ****         //fifth PWM
 100:.\mem1.c      ****         #ifdef CY_PWM_PWM_5_H
 101:.\mem1.c      ****             case PWM_REGISTER4: PWM_Control_4(cmd, dat); break;
 180              		.loc 1 101 0
 181 00fa BA79     		ldrb	r2, [r7, #6]	@ zero_extendqisi2
 182 00fc BB88     		ldrh	r3, [r7, #4]
 183 00fe 1046     		mov	r0, r2
 184 0100 1946     		mov	r1, r3
ARM GAS  C:\Users\Brian\AppData\Local\Temp\ccHjPWqd.s 			page 6


 185 0102 FFF7FEFF 		bl	PWM_Control_4
 186 0106 25E0     		b	.L1
 187              	.L14:
 102:.\mem1.c      ****         #endif
 103:.\mem1.c      ****         
 104:.\mem1.c      ****         //sixth PWM
 105:.\mem1.c      ****         #ifdef CY_PWM_PWM_6_H
 106:.\mem1.c      ****             case PWM_REGISTER5: PWM_Control_5(cmd, dat); break;  
 188              		.loc 1 106 0
 189 0108 BA79     		ldrb	r2, [r7, #6]	@ zero_extendqisi2
 190 010a BB88     		ldrh	r3, [r7, #4]
 191 010c 1046     		mov	r0, r2
 192 010e 1946     		mov	r1, r3
 193 0110 FFF7FEFF 		bl	PWM_Control_5
 194 0114 1EE0     		b	.L1
 195              	.L15:
 107:.\mem1.c      ****         #endif
 108:.\mem1.c      ****         
 109:.\mem1.c      ****         //seventh PWM
 110:.\mem1.c      ****         #ifdef CY_PWM_PWM_7_H
 111:.\mem1.c      ****             case PWM_REGISTER6: PWM_Control_6(cmd, dat); break;
 196              		.loc 1 111 0
 197 0116 BA79     		ldrb	r2, [r7, #6]	@ zero_extendqisi2
 198 0118 BB88     		ldrh	r3, [r7, #4]
 199 011a 1046     		mov	r0, r2
 200 011c 1946     		mov	r1, r3
 201 011e FFF7FEFF 		bl	PWM_Control_6
 202 0122 17E0     		b	.L1
 203              	.L16:
 112:.\mem1.c      ****         #endif
 113:.\mem1.c      ****         
 114:.\mem1.c      ****         //eighth PWM
 115:.\mem1.c      ****         #ifdef CY_PWM_PWM_8_H
 116:.\mem1.c      ****             case PWM_REGISTER7: PWM_Control_7(cmd, dat); break;
 204              		.loc 1 116 0
 205 0124 BA79     		ldrb	r2, [r7, #6]	@ zero_extendqisi2
 206 0126 BB88     		ldrh	r3, [r7, #4]
 207 0128 1046     		mov	r0, r2
 208 012a 1946     		mov	r1, r3
 209 012c FFF7FEFF 		bl	PWM_Control_7
 210 0130 10E0     		b	.L1
 211              	.L18:
 117:.\mem1.c      ****         #endif
 118:.\mem1.c      ****         
 119:.\mem1.c      ****         #ifdef CY_ADC_SAR_Seq_1_H
 120:.\mem1.c      ****             case ANALOG_IN_REGISTER: Analog_Read(cmd, dat); break;
 212              		.loc 1 120 0
 213 0132 BA79     		ldrb	r2, [r7, #6]	@ zero_extendqisi2
 214 0134 BB88     		ldrh	r3, [r7, #4]
 215 0136 1046     		mov	r0, r2
 216 0138 1946     		mov	r1, r3
 217 013a FFF7FEFF 		bl	Analog_Read
 218 013e 09E0     		b	.L1
 219              	.L17:
 121:.\mem1.c      ****         #endif
 122:.\mem1.c      ****         
 123:.\mem1.c      ****         case GPIO_REGISTER: GPIO_Control(cmd,dat); break;
ARM GAS  C:\Users\Brian\AppData\Local\Temp\ccHjPWqd.s 			page 7


 220              		.loc 1 123 0
 221 0140 BA79     		ldrb	r2, [r7, #6]	@ zero_extendqisi2
 222 0142 BB88     		ldrh	r3, [r7, #4]
 223 0144 1046     		mov	r0, r2
 224 0146 1946     		mov	r1, r3
 225 0148 FFF7FEFF 		bl	GPIO_Control
 226 014c 02E0     		b	.L1
 227              	.L19:
 124:.\mem1.c      ****         
 125:.\mem1.c      ****         case RESET_ADDRESS: CySoftwareReset(); break;
 228              		.loc 1 125 0
 229 014e FFF7FEFF 		bl	CySoftwareReset
 230 0152 00BF     		nop
 231              	.L1:
 126:.\mem1.c      ****         
 127:.\mem1.c      ****     }    
 128:.\mem1.c      **** }
 232              		.loc 1 128 0
 233 0154 07F10807 		add	r7, r7, #8
 234 0158 BD46     		mov	sp, r7
 235 015a 80BD     		pop	{r7, pc}
 236              		.cfi_endproc
 237              	.LFE56:
 238              		.size	readData, .-readData
 239              		.section	.text.DELSIG_ADC_Control,"ax",%progbits
 240              		.align	2
 241              		.global	DELSIG_ADC_Control
 242              		.thumb
 243              		.thumb_func
 244              		.type	DELSIG_ADC_Control, %function
 245              	DELSIG_ADC_Control:
 246              	.LFB57:
 129:.\mem1.c      **** 
 130:.\mem1.c      **** /****************************************************************************************//**
 131:.\mem1.c      **** *  @brief Contains usage scenarios of the DELSIG ADC for use by a Master device. 
 132:.\mem1.c      **** *
 133:.\mem1.c      **** *  @param cmd: 8-bit number describing a desired usage of a function associated 
 134:.\mem1.c      **** *              with the DELSIG ADC
 135:.\mem1.c      **** *  @param val: 16-bit number containing a value that is to be written to that 
 136:.\mem1.c      **** *              function, or modify the component's operation, if applicable.
 137:.\mem1.c      **** *
 138:.\mem1.c      **** *********************************************************************************************/
 139:.\mem1.c      **** 
 140:.\mem1.c      ****     #ifdef CY_ADC_DELSIG_ADC_DelSig_1_H
 141:.\mem1.c      ****         void DELSIG_ADC_Control(uint8 cmd, uint16 val)
 142:.\mem1.c      ****         {
 247              		.loc 1 142 0
 248              		.cfi_startproc
 249              		@ args = 0, pretend = 0, frame = 16
 250              		@ frame_needed = 1, uses_anonymous_args = 0
 251 0000 80B5     		push	{r7, lr}
 252              	.LCFI3:
 253              		.cfi_def_cfa_offset 8
 254              		.cfi_offset 7, -8
 255              		.cfi_offset 14, -4
 256 0002 84B0     		sub	sp, sp, #16
 257              	.LCFI4:
ARM GAS  C:\Users\Brian\AppData\Local\Temp\ccHjPWqd.s 			page 8


 258              		.cfi_def_cfa_offset 24
 259 0004 00AF     		add	r7, sp, #0
 260              	.LCFI5:
 261              		.cfi_def_cfa_register 7
 262 0006 0246     		mov	r2, r0
 263 0008 0B46     		mov	r3, r1
 264 000a FA71     		strb	r2, [r7, #7]
 265 000c BB80     		strh	r3, [r7, #4]	@ movhi
 143:.\mem1.c      ****             uint32 result = MAX_32;
 266              		.loc 1 143 0
 267 000e 4FF0FF33 		mov	r3, #-1
 268 0012 FB60     		str	r3, [r7, #12]
 144:.\mem1.c      ****             bool return_flag = 0;
 269              		.loc 1 144 0
 270 0014 4FF00003 		mov	r3, #0
 271 0018 FB72     		strb	r3, [r7, #11]
 145:.\mem1.c      ****            
 146:.\mem1.c      ****             switch(cmd)
 272              		.loc 1 146 0
 273 001a FB79     		ldrb	r3, [r7, #7]	@ zero_extendqisi2
 274 001c 152B     		cmp	r3, #21
 275 001e 00F29D80 		bhi	.L26
 276 0022 01A2     		adr	r2, .L40
 277 0024 52F823F0 		ldr	pc, [r2, r3, lsl #2]
 278              		.align	2
 279              	.L40:
 280 0028 81000000 		.word	.L27+1
 281 002c 87000000 		.word	.L28+1
 282 0030 8D000000 		.word	.L29+1
 283 0034 E7000000 		.word	.L30+1
 284 0038 ED000000 		.word	.L31+1
 285 003c 5D010000 		.word	.L26+1
 286 0040 5D010000 		.word	.L26+1
 287 0044 F3000000 		.word	.L32+1
 288 0048 5D010000 		.word	.L26+1
 289 004c 5D010000 		.word	.L26+1
 290 0050 07010000 		.word	.L33+1
 291 0054 5D010000 		.word	.L26+1
 292 0058 5D010000 		.word	.L26+1
 293 005c 17010000 		.word	.L34+1
 294 0060 27010000 		.word	.L35+1
 295 0064 31010000 		.word	.L36+1
 296 0068 3B010000 		.word	.L37+1
 297 006c 5D010000 		.word	.L26+1
 298 0070 5D010000 		.word	.L26+1
 299 0074 5D010000 		.word	.L26+1
 300 0078 4F010000 		.word	.L38+1
 301 007c 55010000 		.word	.L39+1
 302              	.L27:
 147:.\mem1.c      ****             {
 148:.\mem1.c      ****                 //start_adc
 149:.\mem1.c      ****                 case 0x00: ADC_DelSig_1_Start();break;
 303              		.loc 1 149 0
 304 0080 FFF7FEFF 		bl	ADC_DelSig_1_Start
 305 0084 6AE0     		b	.L26
 306              	.L28:
 150:.\mem1.c      ****                 case 0x01: ADC_DelSig_1_Stop(); break;
ARM GAS  C:\Users\Brian\AppData\Local\Temp\ccHjPWqd.s 			page 9


 307              		.loc 1 150 0
 308 0086 FFF7FEFF 		bl	ADC_DelSig_1_Stop
 309 008a 67E0     		b	.L26
 310              	.L29:
 151:.\mem1.c      ****                 case 0x02: 
 152:.\mem1.c      ****                     switch(val)
 311              		.loc 1 152 0
 312 008c BB88     		ldrh	r3, [r7, #4]
 313 008e 03F1FF33 		add	r3, r3, #-1
 314 0092 072B     		cmp	r3, #7
 315 0094 61D8     		bhi	.L48
 316 0096 01A2     		adr	r2, .L46
 317 0098 52F823F0 		ldr	pc, [r2, r3, lsl #2]
 318              		.align	2
 319              	.L46:
 320 009c BD000000 		.word	.L42+1
 321 00a0 C7000000 		.word	.L43+1
 322 00a4 5B010000 		.word	.L48+1
 323 00a8 D1000000 		.word	.L44+1
 324 00ac 5B010000 		.word	.L48+1
 325 00b0 5B010000 		.word	.L48+1
 326 00b4 5B010000 		.word	.L48+1
 327 00b8 DB000000 		.word	.L45+1
 328              	.L42:
 153:.\mem1.c      ****                     {
 154:.\mem1.c      ****                         case 1: ADC_DelSig_1_SetBufferGain(ADC_DelSig_1_BUF_GAIN_1X); break;
 329              		.loc 1 154 0
 330 00bc 4FF00000 		mov	r0, #0
 331 00c0 FFF7FEFF 		bl	ADC_DelSig_1_SetBufferGain
 332 00c4 0EE0     		b	.L41
 333              	.L43:
 155:.\mem1.c      ****                         case 2: ADC_DelSig_1_SetBufferGain(ADC_DelSig_1_BUF_GAIN_2X); break;
 334              		.loc 1 155 0
 335 00c6 4FF00100 		mov	r0, #1
 336 00ca FFF7FEFF 		bl	ADC_DelSig_1_SetBufferGain
 337 00ce 09E0     		b	.L41
 338              	.L44:
 156:.\mem1.c      ****                         case 4: ADC_DelSig_1_SetBufferGain(ADC_DelSig_1_BUF_GAIN_4X); break;
 339              		.loc 1 156 0
 340 00d0 4FF00200 		mov	r0, #2
 341 00d4 FFF7FEFF 		bl	ADC_DelSig_1_SetBufferGain
 342 00d8 04E0     		b	.L41
 343              	.L45:
 157:.\mem1.c      ****                         case 8: ADC_DelSig_1_SetBufferGain(ADC_DelSig_1_BUF_GAIN_8X); break;
 344              		.loc 1 157 0
 345 00da 4FF00300 		mov	r0, #3
 346 00de FFF7FEFF 		bl	ADC_DelSig_1_SetBufferGain
 347 00e2 00BF     		nop
 348              	.L41:
 158:.\mem1.c      ****                     }
 159:.\mem1.c      ****                     break;
 349              		.loc 1 159 0
 350 00e4 39E0     		b	.L48
 351              	.L30:
 160:.\mem1.c      ****                 case 0x03: ADC_DelSig_1_StartConvert(); break;
 352              		.loc 1 160 0
 353 00e6 FFF7FEFF 		bl	ADC_DelSig_1_StartConvert
ARM GAS  C:\Users\Brian\AppData\Local\Temp\ccHjPWqd.s 			page 10


 354 00ea 37E0     		b	.L26
 355              	.L31:
 161:.\mem1.c      ****                 case 0x04: ADC_DelSig_1_StopConvert(); break;
 356              		.loc 1 161 0
 357 00ec FFF7FEFF 		bl	ADC_DelSig_1_StopConvert
 358 00f0 34E0     		b	.L26
 359              	.L32:
 162:.\mem1.c      ****                 case 0x07: result = ADC_DelSig_1_IsEndConversion(ADC_DelSig_1_RETURN_STATUS); retur
 360              		.loc 1 162 0
 361 00f2 4FF00100 		mov	r0, #1
 362 00f6 FFF7FEFF 		bl	ADC_DelSig_1_IsEndConversion
 363 00fa 0346     		mov	r3, r0
 364 00fc FB60     		str	r3, [r7, #12]
 365 00fe 4FF00103 		mov	r3, #1
 366 0102 FB72     		strb	r3, [r7, #11]
 367 0104 2AE0     		b	.L26
 368              	.L33:
 163:.\mem1.c      ****                 case 0x0A: result = ADC_DelSig_1_GetResult32(); return_flag = 1; break;
 369              		.loc 1 163 0
 370 0106 FFF7FEFF 		bl	ADC_DelSig_1_GetResult32
 371 010a 0346     		mov	r3, r0
 372 010c FB60     		str	r3, [r7, #12]
 373 010e 4FF00103 		mov	r3, #1
 374 0112 FB72     		strb	r3, [r7, #11]
 375 0114 22E0     		b	.L26
 376              	.L34:
 164:.\mem1.c      ****                 case 0x0D: result = ADC_DelSig_1_Read32(); return_flag = 1; break;
 377              		.loc 1 164 0
 378 0116 FFF7FEFF 		bl	ADC_DelSig_1_Read32
 379 011a 0346     		mov	r3, r0
 380 011c FB60     		str	r3, [r7, #12]
 381 011e 4FF00103 		mov	r3, #1
 382 0122 FB72     		strb	r3, [r7, #11]
 383 0124 1AE0     		b	.L26
 384              	.L35:
 165:.\mem1.c      ****                 case 0x0E: ADC_DelSig_1_SetOffset(val); break;
 385              		.loc 1 165 0
 386 0126 BB88     		ldrh	r3, [r7, #4]
 387 0128 1846     		mov	r0, r3
 388 012a FFF7FEFF 		bl	ADC_DelSig_1_SetOffset
 389 012e 15E0     		b	.L26
 390              	.L36:
 166:.\mem1.c      ****                 case 0x0F: ADC_DelSig_1_SetGain(val); break;
 391              		.loc 1 166 0
 392 0130 BB88     		ldrh	r3, [r7, #4]
 393 0132 1846     		mov	r0, r3
 394 0134 FFF7FEFF 		bl	ADC_DelSig_1_SetGain
 395 0138 10E0     		b	.L26
 396              	.L37:
 167:.\mem1.c      ****                 case 0x10: result = ADC_DelSig_1_CountsTo_uVolts(val); return_flag = 1; break;
 397              		.loc 1 167 0
 398 013a BB88     		ldrh	r3, [r7, #4]
 399 013c 1846     		mov	r0, r3
 400 013e FFF7FEFF 		bl	ADC_DelSig_1_CountsTo_uVolts
 401 0142 0346     		mov	r3, r0
 402 0144 FB60     		str	r3, [r7, #12]
 403 0146 4FF00103 		mov	r3, #1
ARM GAS  C:\Users\Brian\AppData\Local\Temp\ccHjPWqd.s 			page 11


 404 014a FB72     		strb	r3, [r7, #11]
 405 014c 06E0     		b	.L26
 406              	.L38:
 168:.\mem1.c      ****                 case 0x14: ADC_DelSig_1_Sleep(); break;
 407              		.loc 1 168 0
 408 014e FFF7FEFF 		bl	ADC_DelSig_1_Sleep
 409 0152 03E0     		b	.L26
 410              	.L39:
 169:.\mem1.c      ****                 case 0x15: ADC_DelSig_1_Wakeup(); break;
 411              		.loc 1 169 0
 412 0154 FFF7FEFF 		bl	ADC_DelSig_1_Wakeup
 413 0158 00E0     		b	.L26
 414              	.L48:
 159:.\mem1.c      ****                     break;
 415              		.loc 1 159 0
 416 015a 00BF     		nop
 417              	.L26:
 170:.\mem1.c      ****                     
 171:.\mem1.c      ****                         
 172:.\mem1.c      ****             }
 173:.\mem1.c      ****             
 174:.\mem1.c      ****             if (return_flag)
 418              		.loc 1 174 0
 419 015c FB7A     		ldrb	r3, [r7, #11]	@ zero_extendqisi2
 420 015e 002B     		cmp	r3, #0
 421 0160 02D0     		beq	.L25
 175:.\mem1.c      ****             {
 176:.\mem1.c      ****                 WriteTo_Pi(result);
 422              		.loc 1 176 0
 423 0162 F868     		ldr	r0, [r7, #12]
 424 0164 FFF7FEFF 		bl	WriteTo_Pi
 425              	.L25:
 177:.\mem1.c      ****             }
 178:.\mem1.c      ****         }
 426              		.loc 1 178 0
 427 0168 07F11007 		add	r7, r7, #16
 428 016c BD46     		mov	sp, r7
 429 016e 80BD     		pop	{r7, pc}
 430              		.cfi_endproc
 431              	.LFE57:
 432              		.size	DELSIG_ADC_Control, .-DELSIG_ADC_Control
 433              		.section	.text.SAR0_ADC_Control,"ax",%progbits
 434              		.align	2
 435              		.global	SAR0_ADC_Control
 436              		.thumb
 437              		.thumb_func
 438              		.type	SAR0_ADC_Control, %function
 439              	SAR0_ADC_Control:
 440              	.LFB58:
 179:.\mem1.c      ****     #endif
 180:.\mem1.c      ****     
 181:.\mem1.c      **** /****************************************************************************************//**
 182:.\mem1.c      **** *  @brief Contains usage scenarios of the first SAR ADC for use by a Master device. 
 183:.\mem1.c      **** *
 184:.\mem1.c      **** *  @param cmd: 8-bit number describing a desired usage of a function associated 
 185:.\mem1.c      **** *              with the first SAR ADC
 186:.\mem1.c      **** *  @param val: 16-bit number containing a value that is to be written to that 
ARM GAS  C:\Users\Brian\AppData\Local\Temp\ccHjPWqd.s 			page 12


 187:.\mem1.c      **** *              function, or modify the component's operation, if applicable.
 188:.\mem1.c      **** *
 189:.\mem1.c      **** *********************************************************************************************/
 190:.\mem1.c      ****     
 191:.\mem1.c      ****     #ifdef CY_ADC_SAR_ADC_SAR_1_H
 192:.\mem1.c      ****         void SAR0_ADC_Control(uint8 cmd, uint16 val)
 193:.\mem1.c      ****         {
 441              		.loc 1 193 0
 442              		.cfi_startproc
 443              		@ args = 0, pretend = 0, frame = 16
 444              		@ frame_needed = 1, uses_anonymous_args = 0
 445 0000 80B5     		push	{r7, lr}
 446              	.LCFI6:
 447              		.cfi_def_cfa_offset 8
 448              		.cfi_offset 7, -8
 449              		.cfi_offset 14, -4
 450 0002 84B0     		sub	sp, sp, #16
 451              	.LCFI7:
 452              		.cfi_def_cfa_offset 24
 453 0004 00AF     		add	r7, sp, #0
 454              	.LCFI8:
 455              		.cfi_def_cfa_register 7
 456 0006 0246     		mov	r2, r0
 457 0008 0B46     		mov	r3, r1
 458 000a FA71     		strb	r2, [r7, #7]
 459 000c BB80     		strh	r3, [r7, #4]	@ movhi
 194:.\mem1.c      ****             uint32 result = MAX_32;
 460              		.loc 1 194 0
 461 000e 4FF0FF33 		mov	r3, #-1
 462 0012 FB60     		str	r3, [r7, #12]
 195:.\mem1.c      ****             bool return_flag = 0;
 463              		.loc 1 195 0
 464 0014 4FF00003 		mov	r3, #0
 465 0018 FB72     		strb	r3, [r7, #11]
 196:.\mem1.c      ****             switch(cmd)
 466              		.loc 1 196 0
 467 001a FB79     		ldrb	r3, [r7, #7]	@ zero_extendqisi2
 468 001c 112B     		cmp	r3, #17
 469 001e 79D8     		bhi	.L50
 470 0020 01A2     		adr	r2, .L63
 471 0022 52F823F0 		ldr	pc, [r2, r3, lsl #2]
 472 0026 00BF     		.align	2
 473              	.L63:
 474 0028 71000000 		.word	.L51+1
 475 002c 77000000 		.word	.L52+1
 476 0030 15010000 		.word	.L50+1
 477 0034 7D000000 		.word	.L53+1
 478 0038 AB000000 		.word	.L54+1
 479 003c B1000000 		.word	.L55+1
 480 0040 15010000 		.word	.L50+1
 481 0044 15010000 		.word	.L50+1
 482 0048 B7000000 		.word	.L56+1
 483 004c 15010000 		.word	.L50+1
 484 0050 CB000000 		.word	.L57+1
 485 0054 DB000000 		.word	.L58+1
 486 0058 E7000000 		.word	.L59+1
 487 005c F3000000 		.word	.L60+1
ARM GAS  C:\Users\Brian\AppData\Local\Temp\ccHjPWqd.s 			page 13


 488 0060 15010000 		.word	.L50+1
 489 0064 15010000 		.word	.L50+1
 490 0068 09010000 		.word	.L61+1
 491 006c 0F010000 		.word	.L62+1
 492              	.L51:
 197:.\mem1.c      ****             {
 198:.\mem1.c      ****                 //start_adc
 199:.\mem1.c      ****                 case 0x00: ADC_SAR_1_Start(); break;
 493              		.loc 1 199 0
 494 0070 FFF7FEFF 		bl	ADC_SAR_1_Start
 495 0074 4EE0     		b	.L50
 496              	.L52:
 200:.\mem1.c      ****                 case 0x01: ADC_SAR_1_Stop(); break;
 497              		.loc 1 200 0
 498 0076 FFF7FEFF 		bl	ADC_SAR_1_Stop
 499 007a 4BE0     		b	.L50
 500              	.L53:
 201:.\mem1.c      ****                 case 0x03: 
 202:.\mem1.c      ****                     switch(val)
 501              		.loc 1 202 0
 502 007c BB88     		ldrh	r3, [r7, #4]
 503 007e 0A2B     		cmp	r3, #10
 504 0080 08D0     		beq	.L66
 505 0082 0C2B     		cmp	r3, #12
 506 0084 0BD0     		beq	.L67
 507 0086 082B     		cmp	r3, #8
 508 0088 0ED1     		bne	.L64
 509              	.L65:
 203:.\mem1.c      ****                     {
 204:.\mem1.c      ****                         case 8: ADC_SAR_1_SetResolution(ADC_SAR_1__BITS_8); break;
 510              		.loc 1 204 0
 511 008a 4FF00800 		mov	r0, #8
 512 008e FFF7FEFF 		bl	ADC_SAR_1_SetResolution
 513 0092 09E0     		b	.L64
 514              	.L66:
 205:.\mem1.c      ****                         case 10: ADC_SAR_1_SetResolution(ADC_SAR_1__BITS_10); break;
 515              		.loc 1 205 0
 516 0094 4FF00A00 		mov	r0, #10
 517 0098 FFF7FEFF 		bl	ADC_SAR_1_SetResolution
 518 009c 04E0     		b	.L64
 519              	.L67:
 206:.\mem1.c      ****                         case 12: ADC_SAR_1_SetResolution(ADC_SAR_1__BITS_12); break;
 520              		.loc 1 206 0
 521 009e 4FF00C00 		mov	r0, #12
 522 00a2 FFF7FEFF 		bl	ADC_SAR_1_SetResolution
 523 00a6 00BF     		nop
 524              	.L64:
 207:.\mem1.c      ****                     }
 208:.\mem1.c      ****                     break;
 525              		.loc 1 208 0
 526 00a8 34E0     		b	.L50
 527              	.L54:
 209:.\mem1.c      ****                 case 0x04: ADC_SAR_1_StartConvert(); break;
 528              		.loc 1 209 0
 529 00aa FFF7FEFF 		bl	ADC_SAR_1_StartConvert
 530 00ae 31E0     		b	.L50
 531              	.L55:
ARM GAS  C:\Users\Brian\AppData\Local\Temp\ccHjPWqd.s 			page 14


 210:.\mem1.c      ****                 case 0x05: ADC_SAR_1_StopConvert(); break;
 532              		.loc 1 210 0
 533 00b0 FFF7FEFF 		bl	ADC_SAR_1_StopConvert
 534 00b4 2EE0     		b	.L50
 535              	.L56:
 211:.\mem1.c      ****                 case 0x08: result = ADC_SAR_1_IsEndConversion(ADC_SAR_1_RETURN_STATUS); return_flag
 536              		.loc 1 211 0
 537 00b6 4FF00100 		mov	r0, #1
 538 00ba FFF7FEFF 		bl	ADC_SAR_1_IsEndConversion
 539 00be 0346     		mov	r3, r0
 540 00c0 FB60     		str	r3, [r7, #12]
 541 00c2 4FF00103 		mov	r3, #1
 542 00c6 FB72     		strb	r3, [r7, #11]
 543 00c8 24E0     		b	.L50
 544              	.L57:
 212:.\mem1.c      ****                 case 0x0A: result = ADC_SAR_1_GetResult16(); return_flag = 1; break;
 545              		.loc 1 212 0
 546 00ca FFF7FEFF 		bl	ADC_SAR_1_GetResult16
 547 00ce 0346     		mov	r3, r0
 548 00d0 FB60     		str	r3, [r7, #12]
 549 00d2 4FF00103 		mov	r3, #1
 550 00d6 FB72     		strb	r3, [r7, #11]
 551 00d8 1CE0     		b	.L50
 552              	.L58:
 213:.\mem1.c      ****                 case 0x0B: ADC_SAR_1_SetOffset(val); break;
 553              		.loc 1 213 0
 554 00da BB88     		ldrh	r3, [r7, #4]
 555 00dc 1BB2     		sxth	r3, r3
 556 00de 1846     		mov	r0, r3
 557 00e0 FFF7FEFF 		bl	ADC_SAR_1_SetOffset
 558 00e4 16E0     		b	.L50
 559              	.L59:
 214:.\mem1.c      ****                 case 0x0C: ADC_SAR_1_SetGain(val); break;
 560              		.loc 1 214 0
 561 00e6 BB88     		ldrh	r3, [r7, #4]
 562 00e8 1BB2     		sxth	r3, r3
 563 00ea 1846     		mov	r0, r3
 564 00ec FFF7FEFF 		bl	ADC_SAR_1_SetGain
 565 00f0 10E0     		b	.L50
 566              	.L60:
 215:.\mem1.c      ****                 case 0x0D: result = ADC_SAR_1_CountsTo_uVolts(val); return_flag = 1; break;
 567              		.loc 1 215 0
 568 00f2 BB88     		ldrh	r3, [r7, #4]
 569 00f4 1BB2     		sxth	r3, r3
 570 00f6 1846     		mov	r0, r3
 571 00f8 FFF7FEFF 		bl	ADC_SAR_1_CountsTo_uVolts
 572 00fc 0346     		mov	r3, r0
 573 00fe FB60     		str	r3, [r7, #12]
 574 0100 4FF00103 		mov	r3, #1
 575 0104 FB72     		strb	r3, [r7, #11]
 576 0106 05E0     		b	.L50
 577              	.L61:
 216:.\mem1.c      ****                 case 0x10: ADC_SAR_1_Sleep(); break;
 578              		.loc 1 216 0
 579 0108 FFF7FEFF 		bl	ADC_SAR_1_Sleep
 580 010c 02E0     		b	.L50
 581              	.L62:
ARM GAS  C:\Users\Brian\AppData\Local\Temp\ccHjPWqd.s 			page 15


 217:.\mem1.c      ****                 case 0x11: ADC_SAR_1_Wakeup(); break;       
 582              		.loc 1 217 0
 583 010e FFF7FEFF 		bl	ADC_SAR_1_Wakeup
 584 0112 00BF     		nop
 585              	.L50:
 218:.\mem1.c      ****             }
 219:.\mem1.c      ****             
 220:.\mem1.c      ****             if (return_flag)
 586              		.loc 1 220 0
 587 0114 FB7A     		ldrb	r3, [r7, #11]	@ zero_extendqisi2
 588 0116 002B     		cmp	r3, #0
 589 0118 02D0     		beq	.L49
 221:.\mem1.c      ****             {
 222:.\mem1.c      ****                 WriteTo_Pi(result);   
 590              		.loc 1 222 0
 591 011a F868     		ldr	r0, [r7, #12]
 592 011c FFF7FEFF 		bl	WriteTo_Pi
 593              	.L49:
 223:.\mem1.c      ****             }
 224:.\mem1.c      ****         }
 594              		.loc 1 224 0
 595 0120 07F11007 		add	r7, r7, #16
 596 0124 BD46     		mov	sp, r7
 597 0126 80BD     		pop	{r7, pc}
 598              		.cfi_endproc
 599              	.LFE58:
 600              		.size	SAR0_ADC_Control, .-SAR0_ADC_Control
 601              		.section	.text.VDAC0_Control,"ax",%progbits
 602              		.align	2
 603              		.global	VDAC0_Control
 604              		.thumb
 605              		.thumb_func
 606              		.type	VDAC0_Control, %function
 607              	VDAC0_Control:
 608              	.LFB59:
 225:.\mem1.c      ****      #endif
 226:.\mem1.c      **** /****************************************************************************************//**
 227:.\mem1.c      **** *  @brief Contains usage scenarios of the second SAR ADC for use by a Master device. 
 228:.\mem1.c      **** *
 229:.\mem1.c      **** *  @param cmd: 8-bit number describing a desired usage of a function associated 
 230:.\mem1.c      **** *              with the second SAR ADC
 231:.\mem1.c      **** *  @param val: 16-bit number containing a value that is to be written to that 
 232:.\mem1.c      **** *              function, or modify the component's operation, if applicable.
 233:.\mem1.c      **** *
 234:.\mem1.c      **** *********************************************************************************************/
 235:.\mem1.c      ****     #ifdef CY_ADC_SAR_ADC_SAR_2_H
 236:.\mem1.c      ****          void SAR1_ADC_Control(uint8 cmd, uint16 val)
 237:.\mem1.c      ****         {
 238:.\mem1.c      ****             uint32 result = MAX_32;
 239:.\mem1.c      ****             bool return_flag = 0;
 240:.\mem1.c      ****             switch(cmd)
 241:.\mem1.c      ****             {
 242:.\mem1.c      ****                 case 0x00: ADC_SAR_2_Start(); break;
 243:.\mem1.c      ****                 case 0x01: ADC_SAR_2_Stop(); break;
 244:.\mem1.c      ****                 case 0x03: 
 245:.\mem1.c      ****                     switch(val)
 246:.\mem1.c      ****                     {
ARM GAS  C:\Users\Brian\AppData\Local\Temp\ccHjPWqd.s 			page 16


 247:.\mem1.c      ****                         case 8: ADC_SAR_2_SetResolution(ADC_SAR_2__BITS_8); break;
 248:.\mem1.c      ****                         case 10: ADC_SAR_2_SetResolution(ADC_SAR_2__BITS_10); break;
 249:.\mem1.c      ****                         case 12: ADC_SAR_2_SetResolution(ADC_SAR_2__BITS_12); break;
 250:.\mem1.c      ****                     }
 251:.\mem1.c      ****                     break;
 252:.\mem1.c      ****                 case 0x04: ADC_SAR_2_StartConvert(); break;
 253:.\mem1.c      ****                 case 0x05: ADC_SAR_2_StopConvert(); break;
 254:.\mem1.c      ****                 case 0x08: result = ADC_SAR_2_IsEndConversion(ADC_SAR_2_RETURN_STATUS); return_flag
 255:.\mem1.c      ****                 case 0x0A: result = ADC_SAR_2_GetResult16(); return_flag = 1; break;
 256:.\mem1.c      ****                 case 0x0B: ADC_SAR_2_SetOffset(val); break;
 257:.\mem1.c      ****                 case 0x0C: ADC_SAR_2_SetGain(val); break;
 258:.\mem1.c      ****                 case 0x0D: result = ADC_SAR_2_CountsTo_uVolts(val); return_flag = 1; break;//Change
 259:.\mem1.c      ****                 case 0x10: ADC_SAR_2_Sleep(); break;
 260:.\mem1.c      ****                 case 0x11: ADC_SAR_2_Wakeup(); break;     
 261:.\mem1.c      ****                 
 262:.\mem1.c      ****             }
 263:.\mem1.c      ****             if (return_flag)
 264:.\mem1.c      ****             {
 265:.\mem1.c      ****                 WriteTo_Pi(result);
 266:.\mem1.c      ****             }
 267:.\mem1.c      ****         }
 268:.\mem1.c      ****     #endif
 269:.\mem1.c      ****     
 270:.\mem1.c      **** /****************************************************************************************//**
 271:.\mem1.c      **** *  @brief Contains usage scenarios of the first VDAC for use by a Master device. 
 272:.\mem1.c      **** *
 273:.\mem1.c      **** *  @param cmd: 8-bit number describing a desired usage of a function associated 
 274:.\mem1.c      **** *              with the first VDAC
 275:.\mem1.c      **** *  @param val: 16-bit number containing a value that is to be written to that 
 276:.\mem1.c      **** *              function, or modify the component's operation, if applicable.
 277:.\mem1.c      **** *
 278:.\mem1.c      **** *********************************************************************************************/
 279:.\mem1.c      ****     
 280:.\mem1.c      ****     #ifdef CY_VDAC8_VDAC8_1_H
 281:.\mem1.c      ****         void VDAC0_Control(uint8 cmd, uint16 val)
 282:.\mem1.c      ****         {
 609              		.loc 1 282 0
 610              		.cfi_startproc
 611              		@ args = 0, pretend = 0, frame = 16
 612              		@ frame_needed = 1, uses_anonymous_args = 0
 613 0000 80B5     		push	{r7, lr}
 614              	.LCFI9:
 615              		.cfi_def_cfa_offset 8
 616              		.cfi_offset 7, -8
 617              		.cfi_offset 14, -4
 618 0002 84B0     		sub	sp, sp, #16
 619              	.LCFI10:
 620              		.cfi_def_cfa_offset 24
 621 0004 00AF     		add	r7, sp, #0
 622              	.LCFI11:
 623              		.cfi_def_cfa_register 7
 624 0006 0246     		mov	r2, r0
 625 0008 0B46     		mov	r3, r1
 626 000a FA71     		strb	r2, [r7, #7]
 627 000c BB80     		strh	r3, [r7, #4]	@ movhi
 283:.\mem1.c      ****             uint32 result = MAX_32;
 628              		.loc 1 283 0
ARM GAS  C:\Users\Brian\AppData\Local\Temp\ccHjPWqd.s 			page 17


 629 000e 4FF0FF33 		mov	r3, #-1
 630 0012 FB60     		str	r3, [r7, #12]
 284:.\mem1.c      ****             bool return_flag = 0;
 631              		.loc 1 284 0
 632 0014 4FF00003 		mov	r3, #0
 633 0018 FB72     		strb	r3, [r7, #11]
 285:.\mem1.c      ****                 switch(cmd)
 634              		.loc 1 285 0
 635 001a FB79     		ldrb	r3, [r7, #7]	@ zero_extendqisi2
 636 001c 062B     		cmp	r3, #6
 637 001e 45D8     		bhi	.L70
 638 0020 01A2     		adr	r2, .L78
 639 0022 52F823F0 		ldr	pc, [r2, r3, lsl #2]
 640 0026 00BF     		.align	2
 641              	.L78:
 642 0028 45000000 		.word	.L71+1
 643 002c 4B000000 		.word	.L72+1
 644 0030 51000000 		.word	.L73+1
 645 0034 73000000 		.word	.L74+1
 646 0038 95000000 		.word	.L75+1
 647 003c A1000000 		.word	.L76+1
 648 0040 A7000000 		.word	.L77+1
 649              	.L71:
 286:.\mem1.c      ****                 {
 287:.\mem1.c      ****                     case 0x00: VDAC8_1_Start(); break;
 650              		.loc 1 287 0
 651 0044 FFF7FEFF 		bl	VDAC8_1_Start
 652 0048 30E0     		b	.L70
 653              	.L72:
 288:.\mem1.c      ****                     case 0x01: VDAC8_1_Stop(); break;
 654              		.loc 1 288 0
 655 004a FFF7FEFF 		bl	VDAC8_1_Stop
 656 004e 2DE0     		b	.L70
 657              	.L73:
 289:.\mem1.c      ****                     case 0x02: 
 290:.\mem1.c      ****                         switch(val)
 658              		.loc 1 290 0
 659 0050 BB88     		ldrh	r3, [r7, #4]
 660 0052 002B     		cmp	r3, #0
 661 0054 02D0     		beq	.L80
 662 0056 012B     		cmp	r3, #1
 663 0058 05D0     		beq	.L81
 664 005a 09E0     		b	.L79
 665              	.L80:
 291:.\mem1.c      ****                         {
 292:.\mem1.c      ****                         case 0: VDAC8_1_SetSpeed(VDAC8_1_LOWSPEED); break;
 666              		.loc 1 292 0
 667 005c 4FF00000 		mov	r0, #0
 668 0060 FFF7FEFF 		bl	VDAC8_1_SetSpeed
 669 0064 04E0     		b	.L79
 670              	.L81:
 293:.\mem1.c      ****                         case 1: VDAC8_1_SetSpeed(VDAC8_1_HIGHSPEED); break;
 671              		.loc 1 293 0
 672 0066 4FF00200 		mov	r0, #2
 673 006a FFF7FEFF 		bl	VDAC8_1_SetSpeed
 674 006e 00BF     		nop
 675              	.L79:
ARM GAS  C:\Users\Brian\AppData\Local\Temp\ccHjPWqd.s 			page 18


 294:.\mem1.c      ****                         }
 295:.\mem1.c      ****                         break;
 676              		.loc 1 295 0
 677 0070 1CE0     		b	.L70
 678              	.L74:
 296:.\mem1.c      ****                     case 0x03:
 297:.\mem1.c      ****                         switch(val)
 679              		.loc 1 297 0
 680 0072 BB88     		ldrh	r3, [r7, #4]
 681 0074 002B     		cmp	r3, #0
 682 0076 02D0     		beq	.L83
 683 0078 012B     		cmp	r3, #1
 684 007a 05D0     		beq	.L84
 685 007c 09E0     		b	.L82
 686              	.L83:
 298:.\mem1.c      ****                         {
 299:.\mem1.c      ****                         case 0: VDAC8_1_SetRange(VDAC8_1_RANGE_1V); break;
 687              		.loc 1 299 0
 688 007e 4FF00000 		mov	r0, #0
 689 0082 FFF7FEFF 		bl	VDAC8_1_SetRange
 690 0086 04E0     		b	.L82
 691              	.L84:
 300:.\mem1.c      ****                         case 1: VDAC8_1_SetRange(VDAC8_1_RANGE_4V); break;
 692              		.loc 1 300 0
 693 0088 4FF00400 		mov	r0, #4
 694 008c FFF7FEFF 		bl	VDAC8_1_SetRange
 695 0090 00BF     		nop
 696              	.L82:
 301:.\mem1.c      ****                         }
 302:.\mem1.c      ****                         break;
 697              		.loc 1 302 0
 698 0092 0BE0     		b	.L70
 699              	.L75:
 303:.\mem1.c      ****                     case 0x04: VDAC8_1_SetValue(val); break; 
 700              		.loc 1 303 0
 701 0094 BB88     		ldrh	r3, [r7, #4]	@ movhi
 702 0096 DBB2     		uxtb	r3, r3
 703 0098 1846     		mov	r0, r3
 704 009a FFF7FEFF 		bl	VDAC8_1_SetValue
 705 009e 05E0     		b	.L70
 706              	.L76:
 304:.\mem1.c      ****                     case 0x05: VDAC8_1_Sleep(); break;
 707              		.loc 1 304 0
 708 00a0 FFF7FEFF 		bl	VDAC8_1_Sleep
 709 00a4 02E0     		b	.L70
 710              	.L77:
 305:.\mem1.c      ****                     case 0x06: VDAC8_1_Wakeup(); break;     
 711              		.loc 1 305 0
 712 00a6 FFF7FEFF 		bl	VDAC8_1_Wakeup
 713 00aa 00BF     		nop
 714              	.L70:
 306:.\mem1.c      ****                     
 307:.\mem1.c      ****                 }
 308:.\mem1.c      ****                 if (return_flag)
 715              		.loc 1 308 0
 716 00ac FB7A     		ldrb	r3, [r7, #11]	@ zero_extendqisi2
 717 00ae 002B     		cmp	r3, #0
ARM GAS  C:\Users\Brian\AppData\Local\Temp\ccHjPWqd.s 			page 19


 718 00b0 02D0     		beq	.L69
 309:.\mem1.c      ****             {
 310:.\mem1.c      ****                 WriteTo_Pi(result);
 719              		.loc 1 310 0
 720 00b2 F868     		ldr	r0, [r7, #12]
 721 00b4 FFF7FEFF 		bl	WriteTo_Pi
 722              	.L69:
 311:.\mem1.c      ****             }
 312:.\mem1.c      ****         }
 723              		.loc 1 312 0
 724 00b8 07F11007 		add	r7, r7, #16
 725 00bc BD46     		mov	sp, r7
 726 00be 80BD     		pop	{r7, pc}
 727              		.cfi_endproc
 728              	.LFE59:
 729              		.size	VDAC0_Control, .-VDAC0_Control
 730              		.section	.text.VDAC1_Control,"ax",%progbits
 731              		.align	2
 732              		.global	VDAC1_Control
 733              		.thumb
 734              		.thumb_func
 735              		.type	VDAC1_Control, %function
 736              	VDAC1_Control:
 737              	.LFB60:
 313:.\mem1.c      ****     #endif
 314:.\mem1.c      ****     
 315:.\mem1.c      **** /****************************************************************************************//**
 316:.\mem1.c      **** *  @brief Contains usage scenarios of the second VDAC for use by a Master device. 
 317:.\mem1.c      **** *
 318:.\mem1.c      **** *  @param cmd: 8-bit number describing a desired usage of a function associated 
 319:.\mem1.c      **** *              with the second VDAC
 320:.\mem1.c      **** *  @param val: 16-bit number containing a value that is to be written to that 
 321:.\mem1.c      **** *              function, or modify the component's operation, if applicable.
 322:.\mem1.c      **** *
 323:.\mem1.c      **** *********************************************************************************************/
 324:.\mem1.c      ****     #ifdef CY_VDAC8_VDAC8_2_H
 325:.\mem1.c      ****         void VDAC1_Control(uint8 cmd, uint16 val)
 326:.\mem1.c      ****         {
 738              		.loc 1 326 0
 739              		.cfi_startproc
 740              		@ args = 0, pretend = 0, frame = 16
 741              		@ frame_needed = 1, uses_anonymous_args = 0
 742 0000 80B5     		push	{r7, lr}
 743              	.LCFI12:
 744              		.cfi_def_cfa_offset 8
 745              		.cfi_offset 7, -8
 746              		.cfi_offset 14, -4
 747 0002 84B0     		sub	sp, sp, #16
 748              	.LCFI13:
 749              		.cfi_def_cfa_offset 24
 750 0004 00AF     		add	r7, sp, #0
 751              	.LCFI14:
 752              		.cfi_def_cfa_register 7
 753 0006 0246     		mov	r2, r0
 754 0008 0B46     		mov	r3, r1
 755 000a FA71     		strb	r2, [r7, #7]
 756 000c BB80     		strh	r3, [r7, #4]	@ movhi
ARM GAS  C:\Users\Brian\AppData\Local\Temp\ccHjPWqd.s 			page 20


 327:.\mem1.c      ****             uint32 result = MAX_32;
 757              		.loc 1 327 0
 758 000e 4FF0FF33 		mov	r3, #-1
 759 0012 FB60     		str	r3, [r7, #12]
 328:.\mem1.c      ****             bool return_flag = 0;
 760              		.loc 1 328 0
 761 0014 4FF00003 		mov	r3, #0
 762 0018 FB72     		strb	r3, [r7, #11]
 329:.\mem1.c      ****                 switch(cmd)
 763              		.loc 1 329 0
 764 001a FB79     		ldrb	r3, [r7, #7]	@ zero_extendqisi2
 765 001c 062B     		cmp	r3, #6
 766 001e 45D8     		bhi	.L87
 767 0020 01A2     		adr	r2, .L95
 768 0022 52F823F0 		ldr	pc, [r2, r3, lsl #2]
 769 0026 00BF     		.align	2
 770              	.L95:
 771 0028 45000000 		.word	.L88+1
 772 002c 4B000000 		.word	.L89+1
 773 0030 51000000 		.word	.L90+1
 774 0034 73000000 		.word	.L91+1
 775 0038 95000000 		.word	.L92+1
 776 003c A1000000 		.word	.L93+1
 777 0040 A7000000 		.word	.L94+1
 778              	.L88:
 330:.\mem1.c      ****                 {
 331:.\mem1.c      ****                     case 0x00: VDAC8_2_Start(); break;
 779              		.loc 1 331 0
 780 0044 FFF7FEFF 		bl	VDAC8_2_Start
 781 0048 30E0     		b	.L87
 782              	.L89:
 332:.\mem1.c      ****                     case 0x01: VDAC8_2_Stop(); break;
 783              		.loc 1 332 0
 784 004a FFF7FEFF 		bl	VDAC8_2_Stop
 785 004e 2DE0     		b	.L87
 786              	.L90:
 333:.\mem1.c      ****                     case 0x02: 
 334:.\mem1.c      ****                         switch(val)
 787              		.loc 1 334 0
 788 0050 BB88     		ldrh	r3, [r7, #4]
 789 0052 002B     		cmp	r3, #0
 790 0054 02D0     		beq	.L97
 791 0056 012B     		cmp	r3, #1
 792 0058 05D0     		beq	.L98
 793 005a 09E0     		b	.L96
 794              	.L97:
 335:.\mem1.c      ****                         {
 336:.\mem1.c      ****                         case 0: VDAC8_2_SetSpeed(VDAC8_2_LOWSPEED); break;
 795              		.loc 1 336 0
 796 005c 4FF00000 		mov	r0, #0
 797 0060 FFF7FEFF 		bl	VDAC8_2_SetSpeed
 798 0064 04E0     		b	.L96
 799              	.L98:
 337:.\mem1.c      ****                         case 1: VDAC8_2_SetSpeed(VDAC8_2_HIGHSPEED); break;
 800              		.loc 1 337 0
 801 0066 4FF00200 		mov	r0, #2
 802 006a FFF7FEFF 		bl	VDAC8_2_SetSpeed
ARM GAS  C:\Users\Brian\AppData\Local\Temp\ccHjPWqd.s 			page 21


 803 006e 00BF     		nop
 804              	.L96:
 338:.\mem1.c      ****                         }
 339:.\mem1.c      ****                         break;
 805              		.loc 1 339 0
 806 0070 1CE0     		b	.L87
 807              	.L91:
 340:.\mem1.c      ****                     case 0x03:
 341:.\mem1.c      ****                         switch(val)
 808              		.loc 1 341 0
 809 0072 BB88     		ldrh	r3, [r7, #4]
 810 0074 002B     		cmp	r3, #0
 811 0076 02D0     		beq	.L100
 812 0078 012B     		cmp	r3, #1
 813 007a 05D0     		beq	.L101
 814 007c 09E0     		b	.L99
 815              	.L100:
 342:.\mem1.c      ****                         {
 343:.\mem1.c      ****                         case 0: VDAC8_2_SetRange(VDAC8_2_RANGE_1V); break;
 816              		.loc 1 343 0
 817 007e 4FF00000 		mov	r0, #0
 818 0082 FFF7FEFF 		bl	VDAC8_2_SetRange
 819 0086 04E0     		b	.L99
 820              	.L101:
 344:.\mem1.c      ****                         case 1: VDAC8_2_SetRange(VDAC8_2_RANGE_4V); break;
 821              		.loc 1 344 0
 822 0088 4FF00400 		mov	r0, #4
 823 008c FFF7FEFF 		bl	VDAC8_2_SetRange
 824 0090 00BF     		nop
 825              	.L99:
 345:.\mem1.c      ****                         }
 346:.\mem1.c      ****                         break;
 826              		.loc 1 346 0
 827 0092 0BE0     		b	.L87
 828              	.L92:
 347:.\mem1.c      ****                     case 0x04: VDAC8_2_SetValue(val); break; 
 829              		.loc 1 347 0
 830 0094 BB88     		ldrh	r3, [r7, #4]	@ movhi
 831 0096 DBB2     		uxtb	r3, r3
 832 0098 1846     		mov	r0, r3
 833 009a FFF7FEFF 		bl	VDAC8_2_SetValue
 834 009e 05E0     		b	.L87
 835              	.L93:
 348:.\mem1.c      ****                     case 0x05: VDAC8_2_Sleep(); break;
 836              		.loc 1 348 0
 837 00a0 FFF7FEFF 		bl	VDAC8_2_Sleep
 838 00a4 02E0     		b	.L87
 839              	.L94:
 349:.\mem1.c      ****                     case 0x06: VDAC8_2_Wakeup(); break;     
 840              		.loc 1 349 0
 841 00a6 FFF7FEFF 		bl	VDAC8_2_Wakeup
 842 00aa 00BF     		nop
 843              	.L87:
 350:.\mem1.c      ****                     
 351:.\mem1.c      ****                 }
 352:.\mem1.c      ****             if (return_flag)
 844              		.loc 1 352 0
ARM GAS  C:\Users\Brian\AppData\Local\Temp\ccHjPWqd.s 			page 22


 845 00ac FB7A     		ldrb	r3, [r7, #11]	@ zero_extendqisi2
 846 00ae 002B     		cmp	r3, #0
 847 00b0 02D0     		beq	.L86
 353:.\mem1.c      ****             {
 354:.\mem1.c      ****                 WriteTo_Pi(result);
 848              		.loc 1 354 0
 849 00b2 F868     		ldr	r0, [r7, #12]
 850 00b4 FFF7FEFF 		bl	WriteTo_Pi
 851              	.L86:
 355:.\mem1.c      ****             }
 356:.\mem1.c      ****         }
 852              		.loc 1 356 0
 853 00b8 07F11007 		add	r7, r7, #16
 854 00bc BD46     		mov	sp, r7
 855 00be 80BD     		pop	{r7, pc}
 856              		.cfi_endproc
 857              	.LFE60:
 858              		.size	VDAC1_Control, .-VDAC1_Control
 859              		.section	.text.IDAC0_Control,"ax",%progbits
 860              		.align	2
 861              		.global	IDAC0_Control
 862              		.thumb
 863              		.thumb_func
 864              		.type	IDAC0_Control, %function
 865              	IDAC0_Control:
 866              	.LFB61:
 357:.\mem1.c      ****     #endif
 358:.\mem1.c      ****     
 359:.\mem1.c      **** /****************************************************************************************//**
 360:.\mem1.c      **** *  @brief Contains usage scenarios of the first IDAC for use by a Master device. 
 361:.\mem1.c      **** *
 362:.\mem1.c      **** *  @param cmd: 8-bit number describing a desired usage of a function associated 
 363:.\mem1.c      **** *              with the first IDAC
 364:.\mem1.c      **** *  @param val: 16-bit number containing a value that is to be written to that 
 365:.\mem1.c      **** *              function, or modify the component's operation, if applicable.
 366:.\mem1.c      **** *
 367:.\mem1.c      **** *********************************************************************************************/
 368:.\mem1.c      ****     
 369:.\mem1.c      ****     #ifdef CY_IDAC8_IDAC8_1_H
 370:.\mem1.c      ****         void IDAC0_Control(uint8 cmd, uint16 val)
 371:.\mem1.c      ****             {
 867              		.loc 1 371 0
 868              		.cfi_startproc
 869              		@ args = 0, pretend = 0, frame = 16
 870              		@ frame_needed = 1, uses_anonymous_args = 0
 871 0000 80B5     		push	{r7, lr}
 872              	.LCFI15:
 873              		.cfi_def_cfa_offset 8
 874              		.cfi_offset 7, -8
 875              		.cfi_offset 14, -4
 876 0002 84B0     		sub	sp, sp, #16
 877              	.LCFI16:
 878              		.cfi_def_cfa_offset 24
 879 0004 00AF     		add	r7, sp, #0
 880              	.LCFI17:
 881              		.cfi_def_cfa_register 7
 882 0006 0246     		mov	r2, r0
ARM GAS  C:\Users\Brian\AppData\Local\Temp\ccHjPWqd.s 			page 23


 883 0008 0B46     		mov	r3, r1
 884 000a FA71     		strb	r2, [r7, #7]
 885 000c BB80     		strh	r3, [r7, #4]	@ movhi
 372:.\mem1.c      ****                 uint32 result = MAX_32;
 886              		.loc 1 372 0
 887 000e 4FF0FF33 		mov	r3, #-1
 888 0012 FB60     		str	r3, [r7, #12]
 373:.\mem1.c      ****                 bool return_flag = 0;
 889              		.loc 1 373 0
 890 0014 4FF00003 		mov	r3, #0
 891 0018 FB72     		strb	r3, [r7, #11]
 374:.\mem1.c      ****                     switch(cmd)
 892              		.loc 1 374 0
 893 001a FB79     		ldrb	r3, [r7, #7]	@ zero_extendqisi2
 894 001c 072B     		cmp	r3, #7
 895 001e 5ED8     		bhi	.L104
 896 0020 01A2     		adr	r2, .L113
 897 0022 52F823F0 		ldr	pc, [r2, r3, lsl #2]
 898 0026 00BF     		.align	2
 899              	.L113:
 900 0028 49000000 		.word	.L105+1
 901 002c 4F000000 		.word	.L106+1
 902 0030 55000000 		.word	.L107+1
 903 0034 77000000 		.word	.L108+1
 904 0038 99000000 		.word	.L109+1
 905 003c C7000000 		.word	.L110+1
 906 0040 D3000000 		.word	.L111+1
 907 0044 D9000000 		.word	.L112+1
 908              	.L105:
 375:.\mem1.c      ****                     {
 376:.\mem1.c      ****                         case 0x00: IDAC8_1_Start(); break;
 909              		.loc 1 376 0
 910 0048 FFF7FEFF 		bl	IDAC8_1_Start
 911 004c 47E0     		b	.L104
 912              	.L106:
 377:.\mem1.c      ****                         case 0x01: IDAC8_1_Stop(); break;
 913              		.loc 1 377 0
 914 004e FFF7FEFF 		bl	IDAC8_1_Stop
 915 0052 44E0     		b	.L104
 916              	.L107:
 378:.\mem1.c      ****                         case 0x02: 
 379:.\mem1.c      ****                             switch(val)
 917              		.loc 1 379 0
 918 0054 BB88     		ldrh	r3, [r7, #4]
 919 0056 002B     		cmp	r3, #0
 920 0058 02D0     		beq	.L115
 921 005a 012B     		cmp	r3, #1
 922 005c 05D0     		beq	.L116
 923 005e 09E0     		b	.L114
 924              	.L115:
 380:.\mem1.c      ****                             {
 381:.\mem1.c      ****                             case 0: IDAC8_1_SetSpeed(IDAC8_1_LOWSPEED); break;
 925              		.loc 1 381 0
 926 0060 4FF00000 		mov	r0, #0
 927 0064 FFF7FEFF 		bl	IDAC8_1_SetSpeed
 928 0068 04E0     		b	.L114
 929              	.L116:
ARM GAS  C:\Users\Brian\AppData\Local\Temp\ccHjPWqd.s 			page 24


 382:.\mem1.c      ****                             case 1: IDAC8_1_SetSpeed(IDAC8_1_HIGHSPEED); break;
 930              		.loc 1 382 0
 931 006a 4FF00200 		mov	r0, #2
 932 006e FFF7FEFF 		bl	IDAC8_1_SetSpeed
 933 0072 00BF     		nop
 934              	.L114:
 383:.\mem1.c      ****                             }
 384:.\mem1.c      ****                             break;
 935              		.loc 1 384 0
 936 0074 33E0     		b	.L104
 937              	.L108:
 385:.\mem1.c      ****                         case 0x03:
 386:.\mem1.c      ****                             switch(val)
 938              		.loc 1 386 0
 939 0076 BB88     		ldrh	r3, [r7, #4]
 940 0078 002B     		cmp	r3, #0
 941 007a 02D0     		beq	.L118
 942 007c 012B     		cmp	r3, #1
 943 007e 05D0     		beq	.L119
 944 0080 09E0     		b	.L117
 945              	.L118:
 387:.\mem1.c      ****                             {
 388:.\mem1.c      ****                             case 0: IDAC8_1_SetPolarity(IDAC8_1_SOURCE); break;
 946              		.loc 1 388 0
 947 0082 4FF00000 		mov	r0, #0
 948 0086 FFF7FEFF 		bl	IDAC8_1_SetPolarity
 949 008a 04E0     		b	.L117
 950              	.L119:
 389:.\mem1.c      ****                             case 1: IDAC8_1_SetPolarity(IDAC8_1_SINK); break;
 951              		.loc 1 389 0
 952 008c 4FF00400 		mov	r0, #4
 953 0090 FFF7FEFF 		bl	IDAC8_1_SetPolarity
 954 0094 00BF     		nop
 955              	.L117:
 390:.\mem1.c      ****                             }
 391:.\mem1.c      ****                             break;
 956              		.loc 1 391 0
 957 0096 22E0     		b	.L104
 958              	.L109:
 392:.\mem1.c      ****                         case 0x04:
 393:.\mem1.c      ****                             switch(val)
 959              		.loc 1 393 0
 960 0098 BB88     		ldrh	r3, [r7, #4]
 961 009a 012B     		cmp	r3, #1
 962 009c 08D0     		beq	.L122
 963 009e 022B     		cmp	r3, #2
 964 00a0 0BD0     		beq	.L123
 965 00a2 002B     		cmp	r3, #0
 966 00a4 0ED1     		bne	.L120
 967              	.L121:
 394:.\mem1.c      ****                             {
 395:.\mem1.c      ****                             case 0: IDAC8_1_SetRange(IDAC8_1_RANGE_32uA); break;
 968              		.loc 1 395 0
 969 00a6 4FF00000 		mov	r0, #0
 970 00aa FFF7FEFF 		bl	IDAC8_1_SetRange
 971 00ae 09E0     		b	.L120
 972              	.L122:
ARM GAS  C:\Users\Brian\AppData\Local\Temp\ccHjPWqd.s 			page 25


 396:.\mem1.c      ****                             case 1: IDAC8_1_SetRange(IDAC8_1_RANGE_255uA); break;
 973              		.loc 1 396 0
 974 00b0 4FF00400 		mov	r0, #4
 975 00b4 FFF7FEFF 		bl	IDAC8_1_SetRange
 976 00b8 04E0     		b	.L120
 977              	.L123:
 397:.\mem1.c      ****                             case 2: IDAC8_1_SetRange(IDAC8_1_RANGE_2mA); break;
 978              		.loc 1 397 0
 979 00ba 4FF00800 		mov	r0, #8
 980 00be FFF7FEFF 		bl	IDAC8_1_SetRange
 981 00c2 00BF     		nop
 982              	.L120:
 398:.\mem1.c      ****                             }
 399:.\mem1.c      ****                             break;
 983              		.loc 1 399 0
 984 00c4 0BE0     		b	.L104
 985              	.L110:
 400:.\mem1.c      ****                         case 0x05: IDAC8_1_SetValue(val); break;
 986              		.loc 1 400 0
 987 00c6 BB88     		ldrh	r3, [r7, #4]	@ movhi
 988 00c8 DBB2     		uxtb	r3, r3
 989 00ca 1846     		mov	r0, r3
 990 00cc FFF7FEFF 		bl	IDAC8_1_SetValue
 991 00d0 05E0     		b	.L104
 992              	.L111:
 401:.\mem1.c      ****                         case 0x06: IDAC8_1_Sleep(); break;
 993              		.loc 1 401 0
 994 00d2 FFF7FEFF 		bl	IDAC8_1_Sleep
 995 00d6 02E0     		b	.L104
 996              	.L112:
 402:.\mem1.c      ****                         case 0x07: IDAC8_1_Wakeup(); break;     
 997              		.loc 1 402 0
 998 00d8 FFF7FEFF 		bl	IDAC8_1_Wakeup
 999 00dc 00BF     		nop
 1000              	.L104:
 403:.\mem1.c      ****                         
 404:.\mem1.c      ****                     }
 405:.\mem1.c      ****                 if (return_flag)
 1001              		.loc 1 405 0
 1002 00de FB7A     		ldrb	r3, [r7, #11]	@ zero_extendqisi2
 1003 00e0 002B     		cmp	r3, #0
 1004 00e2 02D0     		beq	.L103
 406:.\mem1.c      ****                 {
 407:.\mem1.c      ****                     WriteTo_Pi(result);
 1005              		.loc 1 407 0
 1006 00e4 F868     		ldr	r0, [r7, #12]
 1007 00e6 FFF7FEFF 		bl	WriteTo_Pi
 1008              	.L103:
 408:.\mem1.c      ****                 }
 409:.\mem1.c      ****             }
 1009              		.loc 1 409 0
 1010 00ea 07F11007 		add	r7, r7, #16
 1011 00ee BD46     		mov	sp, r7
 1012 00f0 80BD     		pop	{r7, pc}
 1013              		.cfi_endproc
 1014              	.LFE61:
 1015              		.size	IDAC0_Control, .-IDAC0_Control
ARM GAS  C:\Users\Brian\AppData\Local\Temp\ccHjPWqd.s 			page 26


 1016 00f2 00BF     		.section	.text.WAVEDAC_Control,"ax",%progbits
 1017              		.align	2
 1018              		.global	WAVEDAC_Control
 1019              		.thumb
 1020              		.thumb_func
 1021              		.type	WAVEDAC_Control, %function
 1022              	WAVEDAC_Control:
 1023              	.LFB62:
 410:.\mem1.c      ****     #endif
 411:.\mem1.c      ****     
 412:.\mem1.c      **** /****************************************************************************************//**
 413:.\mem1.c      **** *  @brief Contains usage scenarios of the second IDAC for use by a Master device. 
 414:.\mem1.c      **** *
 415:.\mem1.c      **** *  @param cmd: 8-bit number describing a desired usage of a function associated 
 416:.\mem1.c      **** *              with the second IDAC
 417:.\mem1.c      **** *  @param val: 16-bit number containing a value that is to be written to that 
 418:.\mem1.c      **** *              function, or modify the component's operation, if applicable.
 419:.\mem1.c      **** *
 420:.\mem1.c      **** *********************************************************************************************/
 421:.\mem1.c      ****     
 422:.\mem1.c      ****     #ifdef CY_IDAC8_IDAC8_2_H
 423:.\mem1.c      ****         void IDAC1_Control(uint8 cmd, uint16 val)
 424:.\mem1.c      ****         {
 425:.\mem1.c      ****             uint32 result = MAX_32;
 426:.\mem1.c      ****             bool return_flag = 0;
 427:.\mem1.c      ****                 switch(cmd)
 428:.\mem1.c      ****                 {
 429:.\mem1.c      ****                     case 0x00: IDAC8_2_Start(); break;
 430:.\mem1.c      ****                     case 0x01: IDAC8_2_Stop(); break;
 431:.\mem1.c      ****                     case 0x02: 
 432:.\mem1.c      ****                             switch(val)
 433:.\mem1.c      ****                             {
 434:.\mem1.c      ****                             case 0: IDAC8_2_SetSpeed(IDAC8_2_LOWSPEED); break;
 435:.\mem1.c      ****                             case 1: IDAC8_2_SetSpeed(IDAC8_2_HIGHSPEED); break;
 436:.\mem1.c      ****                             }
 437:.\mem1.c      ****                             break;
 438:.\mem1.c      ****                         case 0x03:
 439:.\mem1.c      ****                             switch(val)
 440:.\mem1.c      ****                             {
 441:.\mem1.c      ****                             case 0: IDAC8_2_SetPolarity(IDAC8_2_SOURCE); break;
 442:.\mem1.c      ****                             case 1: IDAC8_2_SetPolarity(IDAC8_2_SINK); break;
 443:.\mem1.c      ****                             }
 444:.\mem1.c      ****                             break;
 445:.\mem1.c      ****                         case 0x04:
 446:.\mem1.c      ****                             switch(val)
 447:.\mem1.c      ****                             {
 448:.\mem1.c      ****                             case 0: IDAC8_2_SetRange(IDAC8_2_RANGE_32uA); break;
 449:.\mem1.c      ****                             case 1: IDAC8_2_SetRange(IDAC8_2_RANGE_255uA); break;
 450:.\mem1.c      ****                             case 2: IDAC8_2_SetRange(IDAC8_2_RANGE_2mA); break;
 451:.\mem1.c      ****                             }
 452:.\mem1.c      ****                             break;
 453:.\mem1.c      ****                     case 0x05: IDAC8_2_SetValue(val); break;
 454:.\mem1.c      ****                     case 0x06: IDAC8_2_Sleep(); break;
 455:.\mem1.c      ****                     case 0x07: IDAC8_2_Wakeup(); break;     
 456:.\mem1.c      ****                     
 457:.\mem1.c      ****                 }
 458:.\mem1.c      ****                 if (return_flag)
ARM GAS  C:\Users\Brian\AppData\Local\Temp\ccHjPWqd.s 			page 27


 459:.\mem1.c      ****                 {
 460:.\mem1.c      ****                     WriteTo_Pi(result);
 461:.\mem1.c      ****                 }
 462:.\mem1.c      ****         }
 463:.\mem1.c      ****     #endif
 464:.\mem1.c      ****     
 465:.\mem1.c      **** /****************************************************************************************//**
 466:.\mem1.c      **** *  @brief Contains usage scenarios of the WaveDAC8 for use by a Master device. 
 467:.\mem1.c      **** *
 468:.\mem1.c      **** *  @param cmd: 8-bit number describing a desired usage of a function associated 
 469:.\mem1.c      **** *              with the WaveDAC8
 470:.\mem1.c      **** *  @param val: 16-bit number containing a value that is to be written to that 
 471:.\mem1.c      **** *              function, or modify the component's operation, if applicable.
 472:.\mem1.c      **** *
 473:.\mem1.c      **** *********************************************************************************************/
 474:.\mem1.c      ****     
 475:.\mem1.c      ****     #ifdef CY_WaveDAC8_WaveDAC8_1_H
 476:.\mem1.c      ****         void WAVEDAC_Control(uint8 cmd, uint16 val)
 477:.\mem1.c      ****         {
 1024              		.loc 1 477 0
 1025              		.cfi_startproc
 1026              		@ args = 0, pretend = 0, frame = 16
 1027              		@ frame_needed = 1, uses_anonymous_args = 0
 1028 0000 80B5     		push	{r7, lr}
 1029              	.LCFI18:
 1030              		.cfi_def_cfa_offset 8
 1031              		.cfi_offset 7, -8
 1032              		.cfi_offset 14, -4
 1033 0002 84B0     		sub	sp, sp, #16
 1034              	.LCFI19:
 1035              		.cfi_def_cfa_offset 24
 1036 0004 00AF     		add	r7, sp, #0
 1037              	.LCFI20:
 1038              		.cfi_def_cfa_register 7
 1039 0006 0246     		mov	r2, r0
 1040 0008 0B46     		mov	r3, r1
 1041 000a FA71     		strb	r2, [r7, #7]
 1042 000c BB80     		strh	r3, [r7, #4]	@ movhi
 478:.\mem1.c      ****             uint32 result = MAX_32;
 1043              		.loc 1 478 0
 1044 000e 4FF0FF33 		mov	r3, #-1
 1045 0012 FB60     		str	r3, [r7, #12]
 479:.\mem1.c      ****             bool return_flag = 0;
 1046              		.loc 1 479 0
 1047 0014 4FF00003 		mov	r3, #0
 1048 0018 FB72     		strb	r3, [r7, #11]
 480:.\mem1.c      ****             
 481:.\mem1.c      ****             switch(cmd)
 1049              		.loc 1 481 0
 1050 001a FB79     		ldrb	r3, [r7, #7]	@ zero_extendqisi2
 1051 001c 092B     		cmp	r3, #9
 1052 001e 35D0     		beq	.L131
 1053 0020 092B     		cmp	r3, #9
 1054 0022 0BDC     		bgt	.L137
 1055 0024 012B     		cmp	r3, #1
 1056 0026 1AD0     		beq	.L128
 1057 0028 012B     		cmp	r3, #1
ARM GAS  C:\Users\Brian\AppData\Local\Temp\ccHjPWqd.s 			page 28


 1058 002a 02DC     		bgt	.L138
 1059 002c 002B     		cmp	r3, #0
 1060 002e 13D0     		beq	.L127
 1061 0030 4FE0     		b	.L126
 1062              	.L138:
 1063 0032 042B     		cmp	r3, #4
 1064 0034 16D0     		beq	.L129
 1065 0036 072B     		cmp	r3, #7
 1066 0038 17D0     		beq	.L130
 1067 003a 4AE0     		b	.L126
 1068              	.L137:
 1069 003c FD2B     		cmp	r3, #253
 1070 003e 31D0     		beq	.L134
 1071 0040 FD2B     		cmp	r3, #253
 1072 0042 04DC     		bgt	.L139
 1073 0044 0B2B     		cmp	r3, #11
 1074 0046 27D0     		beq	.L132
 1075 0048 0C2B     		cmp	r3, #12
 1076 004a 28D0     		beq	.L133
 1077 004c 41E0     		b	.L126
 1078              	.L139:
 1079 004e FE2B     		cmp	r3, #254
 1080 0050 2BD0     		beq	.L135
 1081 0052 FF2B     		cmp	r3, #255
 1082 0054 2CD0     		beq	.L136
 1083 0056 3CE0     		b	.L126
 1084              	.L127:
 482:.\mem1.c      ****                 {
 483:.\mem1.c      ****                     case 0x00: WaveDAC8_1_Start(); break;
 1085              		.loc 1 483 0
 1086 0058 FFF7FEFF 		bl	WaveDAC8_1_Start
 1087 005c 39E0     		b	.L126
 1088              	.L128:
 484:.\mem1.c      ****                     case 0x01: WaveDAC8_1_Stop(); break;
 1089              		.loc 1 484 0
 1090 005e FFF7FEFF 		bl	WaveDAC8_1_Stop
 1091 0062 36E0     		b	.L126
 1092              	.L129:
 485:.\mem1.c      ****                     case 0x04: Generate_Wave(); break;
 1093              		.loc 1 485 0
 1094 0064 FFF7FEFF 		bl	Generate_Wave
 1095 0068 33E0     		b	.L126
 1096              	.L130:
 486:.\mem1.c      ****                     case 0x07: 
 487:.\mem1.c      ****                         switch (val)
 1097              		.loc 1 487 0
 1098 006a BB88     		ldrh	r3, [r7, #4]
 1099 006c 002B     		cmp	r3, #0
 1100 006e 02D0     		beq	.L141
 1101 0070 012B     		cmp	r3, #1
 1102 0072 05D0     		beq	.L142
 1103 0074 09E0     		b	.L140
 1104              	.L141:
 488:.\mem1.c      ****                         {
 489:.\mem1.c      ****                         case 0: WaveDAC8_1_SetSpeed(WaveDAC8_1_LOWSPEED); break;
 1105              		.loc 1 489 0
 1106 0076 4FF00000 		mov	r0, #0
ARM GAS  C:\Users\Brian\AppData\Local\Temp\ccHjPWqd.s 			page 29


 1107 007a FFF7FEFF 		bl	WaveDAC8_1_VDAC8_SetSpeed
 1108 007e 04E0     		b	.L140
 1109              	.L142:
 490:.\mem1.c      ****                         case 1: WaveDAC8_1_SetSpeed(WaveDAC8_1_HIGHSPEED); break;
 1110              		.loc 1 490 0
 1111 0080 4FF00200 		mov	r0, #2
 1112 0084 FFF7FEFF 		bl	WaveDAC8_1_VDAC8_SetSpeed
 1113 0088 00BF     		nop
 1114              	.L140:
 491:.\mem1.c      ****                         }
 492:.\mem1.c      ****                         break;
 1115              		.loc 1 492 0
 1116 008a 22E0     		b	.L126
 1117              	.L131:
 493:.\mem1.c      ****                     case 0x09: WaveDAC8_1_SetValue(val); break;
 1118              		.loc 1 493 0
 1119 008c BB88     		ldrh	r3, [r7, #4]	@ movhi
 1120 008e DBB2     		uxtb	r3, r3
 1121 0090 1846     		mov	r0, r3
 1122 0092 FFF7FEFF 		bl	WaveDAC8_1_VDAC8_SetValue
 1123 0096 1CE0     		b	.L126
 1124              	.L132:
 494:.\mem1.c      ****                     case 0x0B: WaveDAC8_1_Sleep(); break;
 1125              		.loc 1 494 0
 1126 0098 FFF7FEFF 		bl	WaveDAC8_1_Sleep
 1127 009c 19E0     		b	.L126
 1128              	.L133:
 495:.\mem1.c      ****                     case 0x0C: WaveDAC8_1_Wakeup(); break;
 1129              		.loc 1 495 0
 1130 009e FFF7FEFF 		bl	WaveDAC8_1_Wakeup
 1131 00a2 16E0     		b	.L126
 1132              	.L134:
 496:.\mem1.c      ****                     case 0xFD: WaveDAC_clk_Start(); break;
 1133              		.loc 1 496 0
 1134 00a4 FFF7FEFF 		bl	WaveDAC_clk_Start
 1135 00a8 13E0     		b	.L126
 1136              	.L135:
 497:.\mem1.c      ****                     case 0xFE: WaveDAC_clk_Stop(); break;
 1137              		.loc 1 497 0
 1138 00aa FFF7FEFF 		bl	WaveDAC_clk_Stop
 1139 00ae 10E0     		b	.L126
 1140              	.L136:
 498:.\mem1.c      ****                     case 0xFF: WaveDAC_clk_SetDividerValue(val); result = WaveDAC_clk_GetDividerReg
 1141              		.loc 1 498 0
 1142 00b0 BB88     		ldrh	r3, [r7, #4]	@ movhi
 1143 00b2 03F1FF33 		add	r3, r3, #-1
 1144 00b6 9BB2     		uxth	r3, r3
 1145 00b8 1846     		mov	r0, r3
 1146 00ba 4FF00101 		mov	r1, #1
 1147 00be FFF7FEFF 		bl	WaveDAC_clk_SetDividerRegister
 1148 00c2 FFF7FEFF 		bl	WaveDAC_clk_GetDividerRegister
 1149 00c6 0346     		mov	r3, r0
 1150 00c8 FB60     		str	r3, [r7, #12]
 1151 00ca 4FF00103 		mov	r3, #1
 1152 00ce FB72     		strb	r3, [r7, #11]
 1153 00d0 00BF     		nop
 1154              	.L126:
ARM GAS  C:\Users\Brian\AppData\Local\Temp\ccHjPWqd.s 			page 30


 499:.\mem1.c      ****                         
 500:.\mem1.c      ****                     
 501:.\mem1.c      ****                 }   
 502:.\mem1.c      ****                 
 503:.\mem1.c      ****              if (return_flag)
 1155              		.loc 1 503 0
 1156 00d2 FB7A     		ldrb	r3, [r7, #11]	@ zero_extendqisi2
 1157 00d4 002B     		cmp	r3, #0
 1158 00d6 02D0     		beq	.L125
 504:.\mem1.c      ****                 {
 505:.\mem1.c      ****                     WriteTo_Pi(result);
 1159              		.loc 1 505 0
 1160 00d8 F868     		ldr	r0, [r7, #12]
 1161 00da FFF7FEFF 		bl	WriteTo_Pi
 1162              	.L125:
 506:.\mem1.c      ****                 }
 507:.\mem1.c      ****             
 508:.\mem1.c      ****         }
 1163              		.loc 1 508 0
 1164 00de 07F11007 		add	r7, r7, #16
 1165 00e2 BD46     		mov	sp, r7
 1166 00e4 80BD     		pop	{r7, pc}
 1167              		.cfi_endproc
 1168              	.LFE62:
 1169              		.size	WAVEDAC_Control, .-WAVEDAC_Control
 1170              		.global	__aeabi_ui2d
 1171              		.global	__aeabi_ddiv
 1172              		.global	__aeabi_dmul
 1173              		.global	__aeabi_dadd
 1174              		.global	__aeabi_dcmpgt
 1175              		.global	__aeabi_d2uiz
 1176 00e6 00BF     		.section	.rodata
 1177              		.align	2
 1178              	.LC0:
 1179 0000 80       		.byte	-128
 1180 0001 83       		.byte	-125
 1181 0002 86       		.byte	-122
 1182 0003 89       		.byte	-119
 1183 0004 8C       		.byte	-116
 1184 0005 8F       		.byte	-113
 1185 0006 92       		.byte	-110
 1186 0007 95       		.byte	-107
 1187 0008 98       		.byte	-104
 1188 0009 9C       		.byte	-100
 1189 000a 9F       		.byte	-97
 1190 000b A2       		.byte	-94
 1191 000c A5       		.byte	-91
 1192 000d A8       		.byte	-88
 1193 000e AB       		.byte	-85
 1194 000f AE       		.byte	-82
 1195 0010 B0       		.byte	-80
 1196 0011 B3       		.byte	-77
 1197 0012 B6       		.byte	-74
 1198 0013 B9       		.byte	-71
 1199 0014 BC       		.byte	-68
 1200 0015 BF       		.byte	-65
 1201 0016 C1       		.byte	-63
ARM GAS  C:\Users\Brian\AppData\Local\Temp\ccHjPWqd.s 			page 31


 1202 0017 C4       		.byte	-60
 1203 0018 C7       		.byte	-57
 1204 0019 C9       		.byte	-55
 1205 001a CC       		.byte	-52
 1206 001b CE       		.byte	-50
 1207 001c D1       		.byte	-47
 1208 001d D3       		.byte	-45
 1209 001e D5       		.byte	-43
 1210 001f D8       		.byte	-40
 1211 0020 DA       		.byte	-38
 1212 0021 DC       		.byte	-36
 1213 0022 DE       		.byte	-34
 1214 0023 E0       		.byte	-32
 1215 0024 E2       		.byte	-30
 1216 0025 E4       		.byte	-28
 1217 0026 E6       		.byte	-26
 1218 0027 E8       		.byte	-24
 1219 0028 EA       		.byte	-22
 1220 0029 EC       		.byte	-20
 1221 002a ED       		.byte	-19
 1222 002b EF       		.byte	-17
 1223 002c F0       		.byte	-16
 1224 002d F2       		.byte	-14
 1225 002e F3       		.byte	-13
 1226 002f F5       		.byte	-11
 1227 0030 F6       		.byte	-10
 1228 0031 F7       		.byte	-9
 1229 0032 F8       		.byte	-8
 1230 0033 F9       		.byte	-7
 1231 0034 FA       		.byte	-6
 1232 0035 FB       		.byte	-5
 1233 0036 FC       		.byte	-4
 1234 0037 FC       		.byte	-4
 1235 0038 FD       		.byte	-3
 1236 0039 FE       		.byte	-2
 1237 003a FE       		.byte	-2
 1238 003b FF       		.byte	-1
 1239 003c FF       		.byte	-1
 1240 003d FF       		.byte	-1
 1241 003e FF       		.byte	-1
 1242 003f FF       		.byte	-1
 1243 0040 FF       		.byte	-1
 1244 0041 FF       		.byte	-1
 1245 0042 FF       		.byte	-1
 1246 0043 FF       		.byte	-1
 1247 0044 FF       		.byte	-1
 1248 0045 FF       		.byte	-1
 1249 0046 FE       		.byte	-2
 1250 0047 FE       		.byte	-2
 1251 0048 FD       		.byte	-3
 1252 0049 FC       		.byte	-4
 1253 004a FC       		.byte	-4
 1254 004b FB       		.byte	-5
 1255 004c FA       		.byte	-6
 1256 004d F9       		.byte	-7
 1257 004e F8       		.byte	-8
 1258 004f F7       		.byte	-9
ARM GAS  C:\Users\Brian\AppData\Local\Temp\ccHjPWqd.s 			page 32


 1259 0050 F6       		.byte	-10
 1260 0051 F5       		.byte	-11
 1261 0052 F3       		.byte	-13
 1262 0053 F2       		.byte	-14
 1263 0054 F0       		.byte	-16
 1264 0055 EF       		.byte	-17
 1265 0056 ED       		.byte	-19
 1266 0057 EC       		.byte	-20
 1267 0058 EA       		.byte	-22
 1268 0059 E8       		.byte	-24
 1269 005a E6       		.byte	-26
 1270 005b E4       		.byte	-28
 1271 005c E2       		.byte	-30
 1272 005d E0       		.byte	-32
 1273 005e DE       		.byte	-34
 1274 005f DC       		.byte	-36
 1275 0060 DA       		.byte	-38
 1276 0061 D8       		.byte	-40
 1277 0062 D5       		.byte	-43
 1278 0063 D3       		.byte	-45
 1279 0064 D1       		.byte	-47
 1280 0065 CE       		.byte	-50
 1281 0066 CC       		.byte	-52
 1282 0067 C9       		.byte	-55
 1283 0068 C7       		.byte	-57
 1284 0069 C4       		.byte	-60
 1285 006a C1       		.byte	-63
 1286 006b BF       		.byte	-65
 1287 006c BC       		.byte	-68
 1288 006d B9       		.byte	-71
 1289 006e B6       		.byte	-74
 1290 006f B3       		.byte	-77
 1291 0070 B0       		.byte	-80
 1292 0071 AE       		.byte	-82
 1293 0072 AB       		.byte	-85
 1294 0073 A8       		.byte	-88
 1295 0074 A5       		.byte	-91
 1296 0075 A2       		.byte	-94
 1297 0076 9F       		.byte	-97
 1298 0077 9C       		.byte	-100
 1299 0078 98       		.byte	-104
 1300 0079 95       		.byte	-107
 1301 007a 92       		.byte	-110
 1302 007b 8F       		.byte	-113
 1303 007c 8C       		.byte	-116
 1304 007d 89       		.byte	-119
 1305 007e 86       		.byte	-122
 1306 007f 83       		.byte	-125
 1307 0080 80       		.byte	-128
 1308 0081 7C       		.byte	124
 1309 0082 79       		.byte	121
 1310 0083 76       		.byte	118
 1311 0084 73       		.byte	115
 1312 0085 70       		.byte	112
 1313 0086 6D       		.byte	109
 1314 0087 6A       		.byte	106
 1315 0088 67       		.byte	103
ARM GAS  C:\Users\Brian\AppData\Local\Temp\ccHjPWqd.s 			page 33


 1316 0089 63       		.byte	99
 1317 008a 60       		.byte	96
 1318 008b 5D       		.byte	93
 1319 008c 5A       		.byte	90
 1320 008d 57       		.byte	87
 1321 008e 54       		.byte	84
 1322 008f 51       		.byte	81
 1323 0090 4F       		.byte	79
 1324 0091 4C       		.byte	76
 1325 0092 49       		.byte	73
 1326 0093 46       		.byte	70
 1327 0094 43       		.byte	67
 1328 0095 40       		.byte	64
 1329 0096 3E       		.byte	62
 1330 0097 3B       		.byte	59
 1331 0098 38       		.byte	56
 1332 0099 36       		.byte	54
 1333 009a 33       		.byte	51
 1334 009b 31       		.byte	49
 1335 009c 2E       		.byte	46
 1336 009d 2C       		.byte	44
 1337 009e 2A       		.byte	42
 1338 009f 27       		.byte	39
 1339 00a0 25       		.byte	37
 1340 00a1 23       		.byte	35
 1341 00a2 21       		.byte	33
 1342 00a3 1F       		.byte	31
 1343 00a4 1D       		.byte	29
 1344 00a5 1B       		.byte	27
 1345 00a6 19       		.byte	25
 1346 00a7 17       		.byte	23
 1347 00a8 15       		.byte	21
 1348 00a9 13       		.byte	19
 1349 00aa 12       		.byte	18
 1350 00ab 10       		.byte	16
 1351 00ac 0F       		.byte	15
 1352 00ad 0D       		.byte	13
 1353 00ae 0C       		.byte	12
 1354 00af 0A       		.byte	10
 1355 00b0 09       		.byte	9
 1356 00b1 08       		.byte	8
 1357 00b2 07       		.byte	7
 1358 00b3 06       		.byte	6
 1359 00b4 05       		.byte	5
 1360 00b5 04       		.byte	4
 1361 00b6 03       		.byte	3
 1362 00b7 03       		.byte	3
 1363 00b8 02       		.byte	2
 1364 00b9 01       		.byte	1
 1365 00ba 01       		.byte	1
 1366 00bb 00       		.byte	0
 1367 00bc 00       		.byte	0
 1368 00bd 00       		.byte	0
 1369 00be 00       		.byte	0
 1370 00bf 00       		.byte	0
 1371 00c0 00       		.byte	0
 1372 00c1 00       		.byte	0
ARM GAS  C:\Users\Brian\AppData\Local\Temp\ccHjPWqd.s 			page 34


 1373 00c2 00       		.byte	0
 1374 00c3 00       		.byte	0
 1375 00c4 00       		.byte	0
 1376 00c5 00       		.byte	0
 1377 00c6 01       		.byte	1
 1378 00c7 01       		.byte	1
 1379 00c8 02       		.byte	2
 1380 00c9 03       		.byte	3
 1381 00ca 03       		.byte	3
 1382 00cb 04       		.byte	4
 1383 00cc 05       		.byte	5
 1384 00cd 06       		.byte	6
 1385 00ce 07       		.byte	7
 1386 00cf 08       		.byte	8
 1387 00d0 09       		.byte	9
 1388 00d1 0A       		.byte	10
 1389 00d2 0C       		.byte	12
 1390 00d3 0D       		.byte	13
 1391 00d4 0F       		.byte	15
 1392 00d5 10       		.byte	16
 1393 00d6 12       		.byte	18
 1394 00d7 13       		.byte	19
 1395 00d8 15       		.byte	21
 1396 00d9 17       		.byte	23
 1397 00da 19       		.byte	25
 1398 00db 1B       		.byte	27
 1399 00dc 1D       		.byte	29
 1400 00dd 1F       		.byte	31
 1401 00de 21       		.byte	33
 1402 00df 23       		.byte	35
 1403 00e0 25       		.byte	37
 1404 00e1 27       		.byte	39
 1405 00e2 2A       		.byte	42
 1406 00e3 2C       		.byte	44
 1407 00e4 2E       		.byte	46
 1408 00e5 31       		.byte	49
 1409 00e6 33       		.byte	51
 1410 00e7 36       		.byte	54
 1411 00e8 38       		.byte	56
 1412 00e9 3B       		.byte	59
 1413 00ea 3E       		.byte	62
 1414 00eb 40       		.byte	64
 1415 00ec 43       		.byte	67
 1416 00ed 46       		.byte	70
 1417 00ee 49       		.byte	73
 1418 00ef 4C       		.byte	76
 1419 00f0 4F       		.byte	79
 1420 00f1 51       		.byte	81
 1421 00f2 54       		.byte	84
 1422 00f3 57       		.byte	87
 1423 00f4 5A       		.byte	90
 1424 00f5 5D       		.byte	93
 1425 00f6 60       		.byte	96
 1426 00f7 63       		.byte	99
 1427 00f8 67       		.byte	103
 1428 00f9 6A       		.byte	106
 1429 00fa 6D       		.byte	109
ARM GAS  C:\Users\Brian\AppData\Local\Temp\ccHjPWqd.s 			page 35


 1430 00fb 70       		.byte	112
 1431 00fc 73       		.byte	115
 1432 00fd 76       		.byte	118
 1433 00fe 79       		.byte	121
 1434 00ff 00       		.align	2
 1435              	.LC1:
 1436 0100 01       		.byte	1
 1437 0101 01       		.byte	1
 1438 0102 01       		.byte	1
 1439 0103 01       		.byte	1
 1440 0104 01       		.byte	1
 1441 0105 01       		.byte	1
 1442 0106 01       		.byte	1
 1443 0107 01       		.byte	1
 1444 0108 01       		.byte	1
 1445 0109 01       		.byte	1
 1446 010a 01       		.byte	1
 1447 010b 01       		.byte	1
 1448 010c 01       		.byte	1
 1449 010d 01       		.byte	1
 1450 010e 01       		.byte	1
 1451 010f 01       		.byte	1
 1452 0110 01       		.byte	1
 1453 0111 01       		.byte	1
 1454 0112 01       		.byte	1
 1455 0113 01       		.byte	1
 1456 0114 01       		.byte	1
 1457 0115 01       		.byte	1
 1458 0116 01       		.byte	1
 1459 0117 01       		.byte	1
 1460 0118 01       		.byte	1
 1461 0119 01       		.byte	1
 1462 011a 01       		.byte	1
 1463 011b 01       		.byte	1
 1464 011c 01       		.byte	1
 1465 011d 01       		.byte	1
 1466 011e 01       		.byte	1
 1467 011f 01       		.byte	1
 1468 0120 01       		.byte	1
 1469 0121 01       		.byte	1
 1470 0122 01       		.byte	1
 1471 0123 01       		.byte	1
 1472 0124 01       		.byte	1
 1473 0125 01       		.byte	1
 1474 0126 01       		.byte	1
 1475 0127 01       		.byte	1
 1476 0128 01       		.byte	1
 1477 0129 01       		.byte	1
 1478 012a 01       		.byte	1
 1479 012b 01       		.byte	1
 1480 012c 01       		.byte	1
 1481 012d 01       		.byte	1
 1482 012e 01       		.byte	1
 1483 012f 01       		.byte	1
 1484 0130 01       		.byte	1
 1485 0131 01       		.byte	1
 1486 0132 01       		.byte	1
ARM GAS  C:\Users\Brian\AppData\Local\Temp\ccHjPWqd.s 			page 36


 1487 0133 01       		.byte	1
 1488 0134 01       		.byte	1
 1489 0135 01       		.byte	1
 1490 0136 01       		.byte	1
 1491 0137 01       		.byte	1
 1492 0138 01       		.byte	1
 1493 0139 01       		.byte	1
 1494 013a 01       		.byte	1
 1495 013b 01       		.byte	1
 1496 013c 01       		.byte	1
 1497 013d 01       		.byte	1
 1498 013e 01       		.byte	1
 1499 013f 01       		.byte	1
 1500 0140 01       		.byte	1
 1501 0141 01       		.byte	1
 1502 0142 01       		.byte	1
 1503 0143 01       		.byte	1
 1504 0144 01       		.byte	1
 1505 0145 01       		.byte	1
 1506 0146 01       		.byte	1
 1507 0147 01       		.byte	1
 1508 0148 01       		.byte	1
 1509 0149 01       		.byte	1
 1510 014a 01       		.byte	1
 1511 014b 01       		.byte	1
 1512 014c 01       		.byte	1
 1513 014d 01       		.byte	1
 1514 014e 01       		.byte	1
 1515 014f 01       		.byte	1
 1516 0150 01       		.byte	1
 1517 0151 01       		.byte	1
 1518 0152 01       		.byte	1
 1519 0153 01       		.byte	1
 1520 0154 01       		.byte	1
 1521 0155 01       		.byte	1
 1522 0156 01       		.byte	1
 1523 0157 01       		.byte	1
 1524 0158 01       		.byte	1
 1525 0159 01       		.byte	1
 1526 015a 01       		.byte	1
 1527 015b 01       		.byte	1
 1528 015c 01       		.byte	1
 1529 015d 01       		.byte	1
 1530 015e 01       		.byte	1
 1531 015f 01       		.byte	1
 1532 0160 01       		.byte	1
 1533 0161 01       		.byte	1
 1534 0162 01       		.byte	1
 1535 0163 01       		.byte	1
 1536 0164 01       		.byte	1
 1537 0165 01       		.byte	1
 1538 0166 01       		.byte	1
 1539 0167 01       		.byte	1
 1540 0168 01       		.byte	1
 1541 0169 01       		.byte	1
 1542 016a 01       		.byte	1
 1543 016b 01       		.byte	1
ARM GAS  C:\Users\Brian\AppData\Local\Temp\ccHjPWqd.s 			page 37


 1544 016c 01       		.byte	1
 1545 016d 01       		.byte	1
 1546 016e 01       		.byte	1
 1547 016f 01       		.byte	1
 1548 0170 01       		.byte	1
 1549 0171 01       		.byte	1
 1550 0172 01       		.byte	1
 1551 0173 01       		.byte	1
 1552 0174 01       		.byte	1
 1553 0175 01       		.byte	1
 1554 0176 01       		.byte	1
 1555 0177 01       		.byte	1
 1556 0178 01       		.byte	1
 1557 0179 01       		.byte	1
 1558 017a 01       		.byte	1
 1559 017b 01       		.byte	1
 1560 017c 01       		.byte	1
 1561 017d 01       		.byte	1
 1562 017e 01       		.byte	1
 1563 017f 01       		.byte	1
 1564 0180 FF       		.byte	-1
 1565 0181 FF       		.byte	-1
 1566 0182 FF       		.byte	-1
 1567 0183 FF       		.byte	-1
 1568 0184 FF       		.byte	-1
 1569 0185 FF       		.byte	-1
 1570 0186 FF       		.byte	-1
 1571 0187 FF       		.byte	-1
 1572 0188 FF       		.byte	-1
 1573 0189 FF       		.byte	-1
 1574 018a FF       		.byte	-1
 1575 018b FF       		.byte	-1
 1576 018c FF       		.byte	-1
 1577 018d FF       		.byte	-1
 1578 018e FF       		.byte	-1
 1579 018f FF       		.byte	-1
 1580 0190 FF       		.byte	-1
 1581 0191 FF       		.byte	-1
 1582 0192 FF       		.byte	-1
 1583 0193 FF       		.byte	-1
 1584 0194 FF       		.byte	-1
 1585 0195 FF       		.byte	-1
 1586 0196 FF       		.byte	-1
 1587 0197 FF       		.byte	-1
 1588 0198 FF       		.byte	-1
 1589 0199 FF       		.byte	-1
 1590 019a FF       		.byte	-1
 1591 019b FF       		.byte	-1
 1592 019c FF       		.byte	-1
 1593 019d FF       		.byte	-1
 1594 019e FF       		.byte	-1
 1595 019f FF       		.byte	-1
 1596 01a0 FF       		.byte	-1
 1597 01a1 FF       		.byte	-1
 1598 01a2 FF       		.byte	-1
 1599 01a3 FF       		.byte	-1
 1600 01a4 FF       		.byte	-1
ARM GAS  C:\Users\Brian\AppData\Local\Temp\ccHjPWqd.s 			page 38


 1601 01a5 FF       		.byte	-1
 1602 01a6 FF       		.byte	-1
 1603 01a7 FF       		.byte	-1
 1604 01a8 FF       		.byte	-1
 1605 01a9 FF       		.byte	-1
 1606 01aa FF       		.byte	-1
 1607 01ab FF       		.byte	-1
 1608 01ac FF       		.byte	-1
 1609 01ad FF       		.byte	-1
 1610 01ae FF       		.byte	-1
 1611 01af FF       		.byte	-1
 1612 01b0 FF       		.byte	-1
 1613 01b1 FF       		.byte	-1
 1614 01b2 FF       		.byte	-1
 1615 01b3 FF       		.byte	-1
 1616 01b4 FF       		.byte	-1
 1617 01b5 FF       		.byte	-1
 1618 01b6 FF       		.byte	-1
 1619 01b7 FF       		.byte	-1
 1620 01b8 FF       		.byte	-1
 1621 01b9 FF       		.byte	-1
 1622 01ba FF       		.byte	-1
 1623 01bb FF       		.byte	-1
 1624 01bc FF       		.byte	-1
 1625 01bd FF       		.byte	-1
 1626 01be FF       		.byte	-1
 1627 01bf FF       		.byte	-1
 1628 01c0 FF       		.byte	-1
 1629 01c1 FF       		.byte	-1
 1630 01c2 FF       		.byte	-1
 1631 01c3 FF       		.byte	-1
 1632 01c4 FF       		.byte	-1
 1633 01c5 FF       		.byte	-1
 1634 01c6 FF       		.byte	-1
 1635 01c7 FF       		.byte	-1
 1636 01c8 FF       		.byte	-1
 1637 01c9 FF       		.byte	-1
 1638 01ca FF       		.byte	-1
 1639 01cb FF       		.byte	-1
 1640 01cc FF       		.byte	-1
 1641 01cd FF       		.byte	-1
 1642 01ce FF       		.byte	-1
 1643 01cf FF       		.byte	-1
 1644 01d0 FF       		.byte	-1
 1645 01d1 FF       		.byte	-1
 1646 01d2 FF       		.byte	-1
 1647 01d3 FF       		.byte	-1
 1648 01d4 FF       		.byte	-1
 1649 01d5 FF       		.byte	-1
 1650 01d6 FF       		.byte	-1
 1651 01d7 FF       		.byte	-1
 1652 01d8 FF       		.byte	-1
 1653 01d9 FF       		.byte	-1
 1654 01da FF       		.byte	-1
 1655 01db FF       		.byte	-1
 1656 01dc FF       		.byte	-1
 1657 01dd FF       		.byte	-1
ARM GAS  C:\Users\Brian\AppData\Local\Temp\ccHjPWqd.s 			page 39


 1658 01de FF       		.byte	-1
 1659 01df FF       		.byte	-1
 1660 01e0 FF       		.byte	-1
 1661 01e1 FF       		.byte	-1
 1662 01e2 FF       		.byte	-1
 1663 01e3 FF       		.byte	-1
 1664 01e4 FF       		.byte	-1
 1665 01e5 FF       		.byte	-1
 1666 01e6 FF       		.byte	-1
 1667 01e7 FF       		.byte	-1
 1668 01e8 FF       		.byte	-1
 1669 01e9 FF       		.byte	-1
 1670 01ea FF       		.byte	-1
 1671 01eb FF       		.byte	-1
 1672 01ec FF       		.byte	-1
 1673 01ed FF       		.byte	-1
 1674 01ee FF       		.byte	-1
 1675 01ef FF       		.byte	-1
 1676 01f0 FF       		.byte	-1
 1677 01f1 FF       		.byte	-1
 1678 01f2 FF       		.byte	-1
 1679 01f3 FF       		.byte	-1
 1680 01f4 FF       		.byte	-1
 1681 01f5 FF       		.byte	-1
 1682 01f6 FF       		.byte	-1
 1683 01f7 FF       		.byte	-1
 1684 01f8 FF       		.byte	-1
 1685 01f9 FF       		.byte	-1
 1686 01fa FF       		.byte	-1
 1687 01fb FF       		.byte	-1
 1688 01fc FF       		.byte	-1
 1689 01fd FF       		.byte	-1
 1690 01fe FF       		.byte	-1
 1691 01ff 00       		.align	2
 1692              	.LC2:
 1693 0200 00       		.byte	0
 1694 0201 02       		.byte	2
 1695 0202 04       		.byte	4
 1696 0203 06       		.byte	6
 1697 0204 08       		.byte	8
 1698 0205 0A       		.byte	10
 1699 0206 0C       		.byte	12
 1700 0207 0E       		.byte	14
 1701 0208 10       		.byte	16
 1702 0209 12       		.byte	18
 1703 020a 14       		.byte	20
 1704 020b 16       		.byte	22
 1705 020c 18       		.byte	24
 1706 020d 1A       		.byte	26
 1707 020e 1C       		.byte	28
 1708 020f 1E       		.byte	30
 1709 0210 20       		.byte	32
 1710 0211 22       		.byte	34
 1711 0212 24       		.byte	36
 1712 0213 26       		.byte	38
 1713 0214 28       		.byte	40
 1714 0215 2A       		.byte	42
ARM GAS  C:\Users\Brian\AppData\Local\Temp\ccHjPWqd.s 			page 40


 1715 0216 2C       		.byte	44
 1716 0217 2E       		.byte	46
 1717 0218 30       		.byte	48
 1718 0219 32       		.byte	50
 1719 021a 34       		.byte	52
 1720 021b 36       		.byte	54
 1721 021c 38       		.byte	56
 1722 021d 3A       		.byte	58
 1723 021e 3C       		.byte	60
 1724 021f 3E       		.byte	62
 1725 0220 40       		.byte	64
 1726 0221 42       		.byte	66
 1727 0222 44       		.byte	68
 1728 0223 46       		.byte	70
 1729 0224 48       		.byte	72
 1730 0225 4A       		.byte	74
 1731 0226 4C       		.byte	76
 1732 0227 4E       		.byte	78
 1733 0228 50       		.byte	80
 1734 0229 52       		.byte	82
 1735 022a 54       		.byte	84
 1736 022b 56       		.byte	86
 1737 022c 58       		.byte	88
 1738 022d 5A       		.byte	90
 1739 022e 5C       		.byte	92
 1740 022f 5E       		.byte	94
 1741 0230 60       		.byte	96
 1742 0231 62       		.byte	98
 1743 0232 64       		.byte	100
 1744 0233 66       		.byte	102
 1745 0234 68       		.byte	104
 1746 0235 6A       		.byte	106
 1747 0236 6C       		.byte	108
 1748 0237 6E       		.byte	110
 1749 0238 70       		.byte	112
 1750 0239 72       		.byte	114
 1751 023a 74       		.byte	116
 1752 023b 76       		.byte	118
 1753 023c 78       		.byte	120
 1754 023d 7A       		.byte	122
 1755 023e 7C       		.byte	124
 1756 023f 7E       		.byte	126
 1757 0240 80       		.byte	-128
 1758 0241 82       		.byte	-126
 1759 0242 84       		.byte	-124
 1760 0243 86       		.byte	-122
 1761 0244 88       		.byte	-120
 1762 0245 8A       		.byte	-118
 1763 0246 8C       		.byte	-116
 1764 0247 8E       		.byte	-114
 1765 0248 90       		.byte	-112
 1766 0249 92       		.byte	-110
 1767 024a 94       		.byte	-108
 1768 024b 96       		.byte	-106
 1769 024c 98       		.byte	-104
 1770 024d 9A       		.byte	-102
 1771 024e 9C       		.byte	-100
ARM GAS  C:\Users\Brian\AppData\Local\Temp\ccHjPWqd.s 			page 41


 1772 024f 9E       		.byte	-98
 1773 0250 A0       		.byte	-96
 1774 0251 A2       		.byte	-94
 1775 0252 A4       		.byte	-92
 1776 0253 A6       		.byte	-90
 1777 0254 A8       		.byte	-88
 1778 0255 AA       		.byte	-86
 1779 0256 AC       		.byte	-84
 1780 0257 AE       		.byte	-82
 1781 0258 B0       		.byte	-80
 1782 0259 B2       		.byte	-78
 1783 025a B4       		.byte	-76
 1784 025b B6       		.byte	-74
 1785 025c B8       		.byte	-72
 1786 025d BA       		.byte	-70
 1787 025e BC       		.byte	-68
 1788 025f BE       		.byte	-66
 1789 0260 C0       		.byte	-64
 1790 0261 C2       		.byte	-62
 1791 0262 C4       		.byte	-60
 1792 0263 C6       		.byte	-58
 1793 0264 C8       		.byte	-56
 1794 0265 CA       		.byte	-54
 1795 0266 CC       		.byte	-52
 1796 0267 CE       		.byte	-50
 1797 0268 D0       		.byte	-48
 1798 0269 D2       		.byte	-46
 1799 026a D4       		.byte	-44
 1800 026b D6       		.byte	-42
 1801 026c D8       		.byte	-40
 1802 026d DA       		.byte	-38
 1803 026e DC       		.byte	-36
 1804 026f DE       		.byte	-34
 1805 0270 E0       		.byte	-32
 1806 0271 E2       		.byte	-30
 1807 0272 E4       		.byte	-28
 1808 0273 E6       		.byte	-26
 1809 0274 E8       		.byte	-24
 1810 0275 EA       		.byte	-22
 1811 0276 EC       		.byte	-20
 1812 0277 EE       		.byte	-18
 1813 0278 F0       		.byte	-16
 1814 0279 F2       		.byte	-14
 1815 027a F4       		.byte	-12
 1816 027b F6       		.byte	-10
 1817 027c F8       		.byte	-8
 1818 027d FA       		.byte	-6
 1819 027e FC       		.byte	-4
 1820 027f FE       		.byte	-2
 1821 0280 FF       		.byte	-1
 1822 0281 FE       		.byte	-2
 1823 0282 FC       		.byte	-4
 1824 0283 FA       		.byte	-6
 1825 0284 F8       		.byte	-8
 1826 0285 F6       		.byte	-10
 1827 0286 F4       		.byte	-12
 1828 0287 F2       		.byte	-14
ARM GAS  C:\Users\Brian\AppData\Local\Temp\ccHjPWqd.s 			page 42


 1829 0288 F0       		.byte	-16
 1830 0289 EE       		.byte	-18
 1831 028a EC       		.byte	-20
 1832 028b EA       		.byte	-22
 1833 028c E8       		.byte	-24
 1834 028d E6       		.byte	-26
 1835 028e E4       		.byte	-28
 1836 028f E2       		.byte	-30
 1837 0290 E0       		.byte	-32
 1838 0291 DE       		.byte	-34
 1839 0292 DC       		.byte	-36
 1840 0293 DA       		.byte	-38
 1841 0294 D8       		.byte	-40
 1842 0295 D6       		.byte	-42
 1843 0296 D4       		.byte	-44
 1844 0297 D2       		.byte	-46
 1845 0298 D0       		.byte	-48
 1846 0299 CE       		.byte	-50
 1847 029a CC       		.byte	-52
 1848 029b CA       		.byte	-54
 1849 029c C8       		.byte	-56
 1850 029d C6       		.byte	-58
 1851 029e C4       		.byte	-60
 1852 029f C2       		.byte	-62
 1853 02a0 C0       		.byte	-64
 1854 02a1 BE       		.byte	-66
 1855 02a2 BC       		.byte	-68
 1856 02a3 BA       		.byte	-70
 1857 02a4 B8       		.byte	-72
 1858 02a5 B6       		.byte	-74
 1859 02a6 B4       		.byte	-76
 1860 02a7 B2       		.byte	-78
 1861 02a8 B0       		.byte	-80
 1862 02a9 AE       		.byte	-82
 1863 02aa AC       		.byte	-84
 1864 02ab AA       		.byte	-86
 1865 02ac A8       		.byte	-88
 1866 02ad A6       		.byte	-90
 1867 02ae A4       		.byte	-92
 1868 02af A2       		.byte	-94
 1869 02b0 A0       		.byte	-96
 1870 02b1 9E       		.byte	-98
 1871 02b2 9C       		.byte	-100
 1872 02b3 9A       		.byte	-102
 1873 02b4 98       		.byte	-104
 1874 02b5 96       		.byte	-106
 1875 02b6 94       		.byte	-108
 1876 02b7 92       		.byte	-110
 1877 02b8 90       		.byte	-112
 1878 02b9 8E       		.byte	-114
 1879 02ba 8C       		.byte	-116
 1880 02bb 8A       		.byte	-118
 1881 02bc 88       		.byte	-120
 1882 02bd 86       		.byte	-122
 1883 02be 84       		.byte	-124
 1884 02bf 82       		.byte	-126
 1885 02c0 80       		.byte	-128
ARM GAS  C:\Users\Brian\AppData\Local\Temp\ccHjPWqd.s 			page 43


 1886 02c1 7E       		.byte	126
 1887 02c2 7C       		.byte	124
 1888 02c3 7A       		.byte	122
 1889 02c4 78       		.byte	120
 1890 02c5 76       		.byte	118
 1891 02c6 74       		.byte	116
 1892 02c7 72       		.byte	114
 1893 02c8 70       		.byte	112
 1894 02c9 6E       		.byte	110
 1895 02ca 6C       		.byte	108
 1896 02cb 6A       		.byte	106
 1897 02cc 68       		.byte	104
 1898 02cd 66       		.byte	102
 1899 02ce 64       		.byte	100
 1900 02cf 62       		.byte	98
 1901 02d0 60       		.byte	96
 1902 02d1 5E       		.byte	94
 1903 02d2 5C       		.byte	92
 1904 02d3 5A       		.byte	90
 1905 02d4 58       		.byte	88
 1906 02d5 56       		.byte	86
 1907 02d6 54       		.byte	84
 1908 02d7 52       		.byte	82
 1909 02d8 50       		.byte	80
 1910 02d9 4E       		.byte	78
 1911 02da 4C       		.byte	76
 1912 02db 4A       		.byte	74
 1913 02dc 48       		.byte	72
 1914 02dd 46       		.byte	70
 1915 02de 44       		.byte	68
 1916 02df 42       		.byte	66
 1917 02e0 40       		.byte	64
 1918 02e1 3E       		.byte	62
 1919 02e2 3C       		.byte	60
 1920 02e3 3A       		.byte	58
 1921 02e4 38       		.byte	56
 1922 02e5 36       		.byte	54
 1923 02e6 34       		.byte	52
 1924 02e7 32       		.byte	50
 1925 02e8 30       		.byte	48
 1926 02e9 2E       		.byte	46
 1927 02ea 2C       		.byte	44
 1928 02eb 2A       		.byte	42
 1929 02ec 28       		.byte	40
 1930 02ed 26       		.byte	38
 1931 02ee 24       		.byte	36
 1932 02ef 22       		.byte	34
 1933 02f0 20       		.byte	32
 1934 02f1 1E       		.byte	30
 1935 02f2 1C       		.byte	28
 1936 02f3 1A       		.byte	26
 1937 02f4 18       		.byte	24
 1938 02f5 16       		.byte	22
 1939 02f6 14       		.byte	20
 1940 02f7 12       		.byte	18
 1941 02f8 10       		.byte	16
 1942 02f9 0E       		.byte	14
ARM GAS  C:\Users\Brian\AppData\Local\Temp\ccHjPWqd.s 			page 44


 1943 02fa 0C       		.byte	12
 1944 02fb 0A       		.byte	10
 1945 02fc 08       		.byte	8
 1946 02fd 06       		.byte	6
 1947 02fe 04       		.byte	4
 1948 02ff 00       		.align	2
 1949              	.LC3:
 1950 0300 01       		.byte	1
 1951 0301 02       		.byte	2
 1952 0302 03       		.byte	3
 1953 0303 04       		.byte	4
 1954 0304 05       		.byte	5
 1955 0305 06       		.byte	6
 1956 0306 07       		.byte	7
 1957 0307 08       		.byte	8
 1958 0308 09       		.byte	9
 1959 0309 0A       		.byte	10
 1960 030a 0B       		.byte	11
 1961 030b 0C       		.byte	12
 1962 030c 0D       		.byte	13
 1963 030d 0E       		.byte	14
 1964 030e 0F       		.byte	15
 1965 030f 10       		.byte	16
 1966 0310 11       		.byte	17
 1967 0311 12       		.byte	18
 1968 0312 13       		.byte	19
 1969 0313 14       		.byte	20
 1970 0314 15       		.byte	21
 1971 0315 16       		.byte	22
 1972 0316 17       		.byte	23
 1973 0317 18       		.byte	24
 1974 0318 19       		.byte	25
 1975 0319 1A       		.byte	26
 1976 031a 1B       		.byte	27
 1977 031b 1C       		.byte	28
 1978 031c 1D       		.byte	29
 1979 031d 1E       		.byte	30
 1980 031e 1F       		.byte	31
 1981 031f 20       		.byte	32
 1982 0320 21       		.byte	33
 1983 0321 22       		.byte	34
 1984 0322 23       		.byte	35
 1985 0323 24       		.byte	36
 1986 0324 25       		.byte	37
 1987 0325 26       		.byte	38
 1988 0326 27       		.byte	39
 1989 0327 28       		.byte	40
 1990 0328 29       		.byte	41
 1991 0329 2A       		.byte	42
 1992 032a 2B       		.byte	43
 1993 032b 2C       		.byte	44
 1994 032c 2D       		.byte	45
 1995 032d 2E       		.byte	46
 1996 032e 2F       		.byte	47
 1997 032f 30       		.byte	48
 1998 0330 31       		.byte	49
 1999 0331 32       		.byte	50
ARM GAS  C:\Users\Brian\AppData\Local\Temp\ccHjPWqd.s 			page 45


 2000 0332 33       		.byte	51
 2001 0333 34       		.byte	52
 2002 0334 35       		.byte	53
 2003 0335 36       		.byte	54
 2004 0336 37       		.byte	55
 2005 0337 38       		.byte	56
 2006 0338 39       		.byte	57
 2007 0339 3A       		.byte	58
 2008 033a 3B       		.byte	59
 2009 033b 3C       		.byte	60
 2010 033c 3D       		.byte	61
 2011 033d 3E       		.byte	62
 2012 033e 3F       		.byte	63
 2013 033f 40       		.byte	64
 2014 0340 41       		.byte	65
 2015 0341 42       		.byte	66
 2016 0342 43       		.byte	67
 2017 0343 44       		.byte	68
 2018 0344 45       		.byte	69
 2019 0345 46       		.byte	70
 2020 0346 47       		.byte	71
 2021 0347 48       		.byte	72
 2022 0348 49       		.byte	73
 2023 0349 4A       		.byte	74
 2024 034a 4B       		.byte	75
 2025 034b 4C       		.byte	76
 2026 034c 4D       		.byte	77
 2027 034d 4E       		.byte	78
 2028 034e 4F       		.byte	79
 2029 034f 50       		.byte	80
 2030 0350 51       		.byte	81
 2031 0351 52       		.byte	82
 2032 0352 53       		.byte	83
 2033 0353 54       		.byte	84
 2034 0354 55       		.byte	85
 2035 0355 56       		.byte	86
 2036 0356 57       		.byte	87
 2037 0357 58       		.byte	88
 2038 0358 59       		.byte	89
 2039 0359 5A       		.byte	90
 2040 035a 5B       		.byte	91
 2041 035b 5C       		.byte	92
 2042 035c 5D       		.byte	93
 2043 035d 5E       		.byte	94
 2044 035e 5F       		.byte	95
 2045 035f 60       		.byte	96
 2046 0360 61       		.byte	97
 2047 0361 62       		.byte	98
 2048 0362 63       		.byte	99
 2049 0363 64       		.byte	100
 2050 0364 65       		.byte	101
 2051 0365 66       		.byte	102
 2052 0366 67       		.byte	103
 2053 0367 68       		.byte	104
 2054 0368 69       		.byte	105
 2055 0369 6A       		.byte	106
 2056 036a 6B       		.byte	107
ARM GAS  C:\Users\Brian\AppData\Local\Temp\ccHjPWqd.s 			page 46


 2057 036b 6C       		.byte	108
 2058 036c 6D       		.byte	109
 2059 036d 6E       		.byte	110
 2060 036e 6F       		.byte	111
 2061 036f 70       		.byte	112
 2062 0370 71       		.byte	113
 2063 0371 72       		.byte	114
 2064 0372 73       		.byte	115
 2065 0373 74       		.byte	116
 2066 0374 75       		.byte	117
 2067 0375 76       		.byte	118
 2068 0376 77       		.byte	119
 2069 0377 78       		.byte	120
 2070 0378 79       		.byte	121
 2071 0379 7A       		.byte	122
 2072 037a 7B       		.byte	123
 2073 037b 7C       		.byte	124
 2074 037c 7D       		.byte	125
 2075 037d 7E       		.byte	126
 2076 037e 7F       		.byte	127
 2077 037f 80       		.byte	-128
 2078 0380 81       		.byte	-127
 2079 0381 82       		.byte	-126
 2080 0382 83       		.byte	-125
 2081 0383 84       		.byte	-124
 2082 0384 85       		.byte	-123
 2083 0385 86       		.byte	-122
 2084 0386 87       		.byte	-121
 2085 0387 88       		.byte	-120
 2086 0388 89       		.byte	-119
 2087 0389 8A       		.byte	-118
 2088 038a 8B       		.byte	-117
 2089 038b 8C       		.byte	-116
 2090 038c 8D       		.byte	-115
 2091 038d 8E       		.byte	-114
 2092 038e 8F       		.byte	-113
 2093 038f 90       		.byte	-112
 2094 0390 91       		.byte	-111
 2095 0391 92       		.byte	-110
 2096 0392 93       		.byte	-109
 2097 0393 94       		.byte	-108
 2098 0394 95       		.byte	-107
 2099 0395 96       		.byte	-106
 2100 0396 97       		.byte	-105
 2101 0397 98       		.byte	-104
 2102 0398 99       		.byte	-103
 2103 0399 9A       		.byte	-102
 2104 039a 9B       		.byte	-101
 2105 039b 9C       		.byte	-100
 2106 039c 9D       		.byte	-99
 2107 039d 9E       		.byte	-98
 2108 039e 9F       		.byte	-97
 2109 039f A0       		.byte	-96
 2110 03a0 A1       		.byte	-95
 2111 03a1 A2       		.byte	-94
 2112 03a2 A3       		.byte	-93
 2113 03a3 A4       		.byte	-92
ARM GAS  C:\Users\Brian\AppData\Local\Temp\ccHjPWqd.s 			page 47


 2114 03a4 A5       		.byte	-91
 2115 03a5 A6       		.byte	-90
 2116 03a6 A7       		.byte	-89
 2117 03a7 A8       		.byte	-88
 2118 03a8 A9       		.byte	-87
 2119 03a9 AA       		.byte	-86
 2120 03aa AB       		.byte	-85
 2121 03ab AC       		.byte	-84
 2122 03ac AD       		.byte	-83
 2123 03ad AE       		.byte	-82
 2124 03ae AF       		.byte	-81
 2125 03af B0       		.byte	-80
 2126 03b0 B1       		.byte	-79
 2127 03b1 B2       		.byte	-78
 2128 03b2 B3       		.byte	-77
 2129 03b3 B4       		.byte	-76
 2130 03b4 B5       		.byte	-75
 2131 03b5 B6       		.byte	-74
 2132 03b6 B7       		.byte	-73
 2133 03b7 B8       		.byte	-72
 2134 03b8 B9       		.byte	-71
 2135 03b9 BA       		.byte	-70
 2136 03ba BB       		.byte	-69
 2137 03bb BC       		.byte	-68
 2138 03bc BD       		.byte	-67
 2139 03bd BE       		.byte	-66
 2140 03be BF       		.byte	-65
 2141 03bf C0       		.byte	-64
 2142 03c0 C1       		.byte	-63
 2143 03c1 C2       		.byte	-62
 2144 03c2 C3       		.byte	-61
 2145 03c3 C4       		.byte	-60
 2146 03c4 C5       		.byte	-59
 2147 03c5 C6       		.byte	-58
 2148 03c6 C7       		.byte	-57
 2149 03c7 C8       		.byte	-56
 2150 03c8 C9       		.byte	-55
 2151 03c9 CA       		.byte	-54
 2152 03ca CB       		.byte	-53
 2153 03cb CC       		.byte	-52
 2154 03cc CD       		.byte	-51
 2155 03cd CE       		.byte	-50
 2156 03ce CF       		.byte	-49
 2157 03cf D0       		.byte	-48
 2158 03d0 D1       		.byte	-47
 2159 03d1 D2       		.byte	-46
 2160 03d2 D3       		.byte	-45
 2161 03d3 D4       		.byte	-44
 2162 03d4 D5       		.byte	-43
 2163 03d5 D6       		.byte	-42
 2164 03d6 D7       		.byte	-41
 2165 03d7 D8       		.byte	-40
 2166 03d8 D9       		.byte	-39
 2167 03d9 DA       		.byte	-38
 2168 03da DB       		.byte	-37
 2169 03db DC       		.byte	-36
 2170 03dc DD       		.byte	-35
ARM GAS  C:\Users\Brian\AppData\Local\Temp\ccHjPWqd.s 			page 48


 2171 03dd DE       		.byte	-34
 2172 03de DF       		.byte	-33
 2173 03df E0       		.byte	-32
 2174 03e0 E1       		.byte	-31
 2175 03e1 E2       		.byte	-30
 2176 03e2 E3       		.byte	-29
 2177 03e3 E4       		.byte	-28
 2178 03e4 E5       		.byte	-27
 2179 03e5 E6       		.byte	-26
 2180 03e6 E7       		.byte	-25
 2181 03e7 E8       		.byte	-24
 2182 03e8 E9       		.byte	-23
 2183 03e9 EA       		.byte	-22
 2184 03ea EB       		.byte	-21
 2185 03eb EC       		.byte	-20
 2186 03ec ED       		.byte	-19
 2187 03ed EE       		.byte	-18
 2188 03ee EF       		.byte	-17
 2189 03ef F0       		.byte	-16
 2190 03f0 F1       		.byte	-15
 2191 03f1 F2       		.byte	-14
 2192 03f2 F3       		.byte	-13
 2193 03f3 F4       		.byte	-12
 2194 03f4 F5       		.byte	-11
 2195 03f5 F6       		.byte	-10
 2196 03f6 F7       		.byte	-9
 2197 03f7 F8       		.byte	-8
 2198 03f8 F9       		.byte	-7
 2199 03f9 FA       		.byte	-6
 2200 03fa FB       		.byte	-5
 2201 03fb FC       		.byte	-4
 2202 03fc FD       		.byte	-3
 2203 03fd FE       		.byte	-2
 2204 03fe FF       		.byte	-1
 2205 03ff 00       		.section	.text.Generate_Wave,"ax",%progbits
 2206              		.align	2
 2207              		.global	Generate_Wave
 2208              		.thumb
 2209              		.thumb_func
 2210              		.type	Generate_Wave, %function
 2211              	Generate_Wave:
 2212              	.LFB63:
 509:.\mem1.c      ****         
 510:.\mem1.c      **** /**************************************************************************//**
 511:.\mem1.c      **** *  @brief Helper function for the WaveDAC; If a Master device requests that it 
 512:.\mem1.c      **** *         wants to generate a specific Waveform, this function will read a second
 513:.\mem1.c      **** *         set of data from the Master device which contains the desired waveform,
 514:.\mem1.c      **** *         the desired peak voltage, and the desired DC Bias, and then it will
 515:.\mem1.c      **** *         generate the desired waveform using the WaveDAC8.
 516:.\mem1.c      **** *
 517:.\mem1.c      **** *******************************************************************************/
 518:.\mem1.c      ****         void Generate_Wave(void)
 519:.\mem1.c      ****         {
 2213              		.loc 1 519 0
 2214              		.cfi_startproc
 2215              		@ args = 0, pretend = 0, frame = 1320
 2216              		@ frame_needed = 1, uses_anonymous_args = 0
ARM GAS  C:\Users\Brian\AppData\Local\Temp\ccHjPWqd.s 			page 49


 2217 0000 B0B5     		push	{r4, r5, r7, lr}
 2218              	.LCFI21:
 2219              		.cfi_def_cfa_offset 16
 2220              		.cfi_offset 4, -16
 2221              		.cfi_offset 5, -12
 2222              		.cfi_offset 7, -8
 2223              		.cfi_offset 14, -4
 2224 0002 ADF5A56D 		sub	sp, sp, #1320
 2225              	.LCFI22:
 2226              		.cfi_def_cfa_offset 1336
 2227 0006 00AF     		add	r7, sp, #0
 2228              	.LCFI23:
 2229              		.cfi_def_cfa_register 7
 520:.\mem1.c      ****             
 521:.\mem1.c      ****             uint32 input = ReadFrom_Pi();
 2230              		.loc 1 521 0
 2231 0008 FFF7FEFF 		bl	ReadFrom_Pi
 2232 000c C7F80C05 		str	r0, [r7, #1292]
 522:.\mem1.c      ****                         
 523:.\mem1.c      ****             uint8 waveType = (input & 0xFF000000)>>24;
 2233              		.loc 1 523 0
 2234 0010 D7F80C35 		ldr	r3, [r7, #1292]
 2235 0014 4FEA1363 		lsr	r3, r3, #24
 2236 0018 87F80B35 		strb	r3, [r7, #1291]
 524:.\mem1.c      ****             uint8 amp = (input & 0x00FF0000)>>16;
 2237              		.loc 1 524 0
 2238 001c D7F80C35 		ldr	r3, [r7, #1292]
 2239 0020 03F47F03 		and	r3, r3, #16711680
 2240 0024 4FEA1343 		lsr	r3, r3, #16
 2241 0028 87F80A35 		strb	r3, [r7, #1290]
 525:.\mem1.c      ****             uint8 dcB_l = (input & 0x0000FF00)>>8;
 2242              		.loc 1 525 0
 2243 002c D7F80C35 		ldr	r3, [r7, #1292]
 2244 0030 03F47F43 		and	r3, r3, #65280
 2245 0034 4FEA1323 		lsr	r3, r3, #8
 2246 0038 87F80935 		strb	r3, [r7, #1289]
 526:.\mem1.c      ****             uint8 dcB_h = input & 0x000000FF;
 2247              		.loc 1 526 0
 2248 003c D7F80C35 		ldr	r3, [r7, #1292]
 2249 0040 87F80835 		strb	r3, [r7, #1288]
 527:.\mem1.c      ****             
 528:.\mem1.c      ****             uint8 dcB = ( dcB_h << 8 ) | dcB_l;
 2250              		.loc 1 528 0
 2251 0044 97F80835 		ldrb	r3, [r7, #1288]	@ zero_extendqisi2
 2252 0048 4FEA0323 		lsl	r3, r3, #8
 2253 004c DAB2     		uxtb	r2, r3
 2254 004e 97F80935 		ldrb	r3, [r7, #1289]	@ zero_extendqisi2
 2255 0052 1343     		orrs	r3, r3, r2
 2256 0054 DBB2     		uxtb	r3, r3
 2257 0056 87F80735 		strb	r3, [r7, #1287]
 529:.\mem1.c      ****            
 530:.\mem1.c      ****                         
 531:.\mem1.c      ****             #define WAVE_SIZE 255
 532:.\mem1.c      ****             #define SINE 0x01
 533:.\mem1.c      ****             #define SQUARE 0x03
 534:.\mem1.c      ****             #define TRIANGLE 0x05
 535:.\mem1.c      ****             #define SAWTOOTH 0x07
ARM GAS  C:\Users\Brian\AppData\Local\Temp\ccHjPWqd.s 			page 50


 536:.\mem1.c      ****             
 537:.\mem1.c      ****             
 538:.\mem1.c      ****             uint8 SINEWave[WAVE_SIZE] = {
 2258              		.loc 1 538 0
 2259 005a 07F20442 		addw	r2, r7, #1028
 2260 005e 40F20003 		movw	r3, #:lower16:.LC0
 2261 0062 C0F20003 		movt	r3, #:upper16:.LC0
 2262 0066 1146     		mov	r1, r2
 2263 0068 1A46     		mov	r2, r3
 2264 006a 4FF0FF03 		mov	r3, #255
 2265 006e 0846     		mov	r0, r1
 2266 0070 1146     		mov	r1, r2
 2267 0072 1A46     		mov	r2, r3
 2268 0074 FFF7FEFF 		bl	memcpy
 539:.\mem1.c      ****                         128,131,134,137,140,143,146,149,152,156,159,162,165,168,171,174,
 540:.\mem1.c      ****                         176,179,182,185,188,191,193,196,199,201,204,206,209,211,213,216,
 541:.\mem1.c      ****                         218,220,222,224,226,228,230,232,234,236,237,239,240,242,243,245,
 542:.\mem1.c      ****                         246,247,248,249,250,251,252,252,253,254,254,255,255,255,255,255,
 543:.\mem1.c      ****                         255,255,255,255,255,255,254,254,253,252,252,251,250,249,248,247,
 544:.\mem1.c      ****                         246,245,243,242,240,239,237,236,234,232,230,228,226,224,222,220,
 545:.\mem1.c      ****                         218,216,213,211,209,206,204,201,199,196,193,191,188,185,182,179,
 546:.\mem1.c      ****                         176,174,171,168,165,162,159,156,152,149,146,143,140,137,134,131,
 547:.\mem1.c      ****                         128,124,121,118,115,112,109,106,103,99, 96, 93, 90, 87, 84, 81, 
 548:.\mem1.c      ****                         79, 76, 73, 70, 67, 64, 62, 59, 56, 54, 51, 49, 46, 44, 42, 39, 
 549:.\mem1.c      ****                         37, 35, 33, 31, 29, 27, 25, 23, 21, 19, 18, 16, 15, 13, 12, 10, 
 550:.\mem1.c      ****                         9,  8,  7,  6,  5,  4,  3,  3,  2,  1,  1,  0,  0,  0,  0,  0,  
 551:.\mem1.c      ****                         0,  0,  0,  0,  0,  0,  1,  1,  2,  3,  3,  4,  5,  6,  7,  8,  
 552:.\mem1.c      ****                         9,  10, 12, 13, 15, 16, 18, 19, 21, 23, 25, 27, 29, 31, 33, 35, 
 553:.\mem1.c      ****                         37, 39, 42, 44, 46, 49, 51, 54, 56, 59, 62, 64, 67, 70, 73, 76, 
 554:.\mem1.c      ****                         79, 81, 84, 87, 90, 93, 96, 99, 103,106,109,112,115,118,121
 555:.\mem1.c      ****                         };
 556:.\mem1.c      ****             uint8 SQUAREWave[WAVE_SIZE] = {
 2269              		.loc 1 556 0
 2270 0078 07F54172 		add	r2, r7, #772
 2271 007c 40F20003 		movw	r3, #:lower16:.LC1
 2272 0080 C0F20003 		movt	r3, #:upper16:.LC1
 2273 0084 1146     		mov	r1, r2
 2274 0086 1A46     		mov	r2, r3
 2275 0088 4FF0FF03 		mov	r3, #255
 2276 008c 0846     		mov	r0, r1
 2277 008e 1146     		mov	r1, r2
 2278 0090 1A46     		mov	r2, r3
 2279 0092 FFF7FEFF 		bl	memcpy
 557:.\mem1.c      ****                         1, 1, 1, 1, 1, 1, 1, 1, 1, 1, 1, 1, 1, 1, 1, 1, 1, 1, 1, 1, 1, 1, 1, 1, 1, 
 558:.\mem1.c      ****                         1, 1, 1, 1, 1, 1, 1, 1, 1, 1, 1, 1, 1, 1, 1, 1, 1, 1, 1, 1, 1, 1, 1, 1, 1, 
 559:.\mem1.c      ****                         1, 1, 1, 1, 1, 1, 1, 1, 1, 1, 1, 1, 1, 1, 1, 1, 1, 1, 1, 1, 1, 1, 1, 1, 1, 
 560:.\mem1.c      ****                         1, 1, 1, 1, 1, 1, 1, 1, 1, 1, 1, 1, 1, 1, 1, 1, 1, 1, 1, 1, 1, 1, 1, 1, 1, 
 561:.\mem1.c      ****                         1, 1, 1, 1, 1, 1, 1, 1, 1, 1, 1, 1, 1, 1, 1, 1, 1, 1, 1, 1, 1, 255, 255, 25
 562:.\mem1.c      ****                         255, 255, 255, 255, 255, 255, 255, 255, 255, 255, 255, 255, 255, 255, 255, 
 563:.\mem1.c      ****                         255, 255, 255, 255, 255, 255, 255, 255, 255, 255, 255, 255, 255, 255, 255, 
 564:.\mem1.c      ****                         255, 255, 255, 255, 255, 255, 255, 255, 255, 255, 255, 255, 255, 255, 255, 
 565:.\mem1.c      ****                         255, 255, 255, 255, 255, 255, 255, 255, 255, 255, 255, 255, 255, 255, 255, 
 566:.\mem1.c      ****                         255, 255, 255, 255, 255, 255, 255, 255, 255, 255, 255, 255, 255, 255, 255, 
 567:.\mem1.c      ****                         255, 255, 255, 255, 255, 255, 255, 255, 255, 255, 255, 255, 255, 255, 255, 
 568:.\mem1.c      ****                         255, 255, 255, 255, 255, 255, 255, 255, 255, 255, 255, 255, 255, 255, 255, 
 569:.\mem1.c      ****                         255, 255, 255, 255, 255, 255, 255, 255, 255, 255, 255, 255};
 570:.\mem1.c      ****                         
ARM GAS  C:\Users\Brian\AppData\Local\Temp\ccHjPWqd.s 			page 51


 571:.\mem1.c      ****             uint8 TRIANGLEWave[WAVE_SIZE] = {
 2280              		.loc 1 571 0
 2281 0096 07F50172 		add	r2, r7, #516
 2282 009a 40F20003 		movw	r3, #:lower16:.LC2
 2283 009e C0F20003 		movt	r3, #:upper16:.LC2
 2284 00a2 1146     		mov	r1, r2
 2285 00a4 1A46     		mov	r2, r3
 2286 00a6 4FF0FF03 		mov	r3, #255
 2287 00aa 0846     		mov	r0, r1
 2288 00ac 1146     		mov	r1, r2
 2289 00ae 1A46     		mov	r2, r3
 2290 00b0 FFF7FEFF 		bl	memcpy
 572:.\mem1.c      ****                         0, 2, 4, 6, 8, 10, 12, 14, 16, 18, 20, 22, 24, 26, 28, 30, 32, 34, 36, 38, 
 573:.\mem1.c      ****                         44, 46, 48, 50, 52, 54, 56, 58, 60, 62, 64, 66, 68, 70, 72, 74, 76, 78, 80,
 574:.\mem1.c      ****                         86, 88, 90, 92, 94, 96, 98, 100, 102, 104, 106, 108, 110, 112, 114, 116, 11
 575:.\mem1.c      ****                         122, 124, 126, 128, 130, 132, 134, 136, 138, 140, 142, 144, 146, 148, 150, 
 576:.\mem1.c      ****                         156, 158, 160, 162, 164, 166, 168, 170, 172, 174, 176, 178, 180, 182, 184, 
 577:.\mem1.c      ****                         190, 192, 194, 196, 198, 200, 202, 204, 206, 208, 210, 212, 214, 216, 218, 
 578:.\mem1.c      ****                         224, 226, 228, 230, 232, 234, 236, 238, 240, 242, 244, 246, 248, 250, 252, 
 579:.\mem1.c      ****                         254, 252, 250, 248, 246, 244, 242, 240, 238, 236, 234, 232, 230, 228, 226, 
 580:.\mem1.c      ****                         220, 218, 216, 214, 212, 210, 208, 206, 204, 202, 200, 198, 196, 194, 192, 
 581:.\mem1.c      ****                         186, 184, 182, 180, 178, 176, 174, 172, 170, 168, 166, 164, 162, 160, 158, 
 582:.\mem1.c      ****                         152, 150, 148, 146, 144, 142, 140, 138, 136, 134, 132, 130, 128, 126, 124, 
 583:.\mem1.c      ****                         118, 116, 114, 112, 110, 108, 106, 104, 102, 100, 98, 96, 94, 92, 90, 88, 8
 584:.\mem1.c      ****                         80, 78, 76, 74, 72, 70, 68, 66, 64, 62, 60, 58, 56, 54, 52, 50, 48, 46, 44,
 585:.\mem1.c      ****                         38, 36, 34, 32, 30, 28, 26, 24, 22, 20, 18, 16, 14, 12, 10, 8, 6, 4
 586:.\mem1.c      ****                         };
 587:.\mem1.c      ****             uint8 SAWTOOTHWave[WAVE_SIZE] = {
 2291              		.loc 1 587 0
 2292 00b4 07F58272 		add	r2, r7, #260
 2293 00b8 40F20003 		movw	r3, #:lower16:.LC3
 2294 00bc C0F20003 		movt	r3, #:upper16:.LC3
 2295 00c0 1146     		mov	r1, r2
 2296 00c2 1A46     		mov	r2, r3
 2297 00c4 4FF0FF03 		mov	r3, #255
 2298 00c8 0846     		mov	r0, r1
 2299 00ca 1146     		mov	r1, r2
 2300 00cc 1A46     		mov	r2, r3
 2301 00ce FFF7FEFF 		bl	memcpy
 588:.\mem1.c      ****                             1, 2, 3, 4, 5, 6, 7, 8, 9, 10, 11, 12, 13, 14, 15, 16, 17, 18, 19, 20, 
 589:.\mem1.c      ****                             23, 24, 25, 26, 27, 28, 29, 30, 31, 32, 33, 34, 35, 36, 37, 38, 39, 40,
 590:.\mem1.c      ****                             43, 44, 45, 46, 47, 48, 49, 50, 51, 52, 53, 54, 55, 56, 57, 58, 59, 60,
 591:.\mem1.c      ****                             63, 64, 65, 66, 67, 68, 69, 70, 71, 72, 73, 74, 75, 76, 77, 78, 79, 80,
 592:.\mem1.c      ****                             83, 84, 85, 86, 87, 88, 89, 90, 91, 92, 93, 94, 95, 96, 97, 98, 99, 100
 593:.\mem1.c      ****                             103, 104, 105, 106, 107, 108, 109, 110, 111, 112, 113, 114, 115, 116, 1
 594:.\mem1.c      ****                             119, 120, 121, 122, 123, 124, 125, 126, 127, 128, 129, 130, 131, 132, 1
 595:.\mem1.c      ****                             135, 136, 137, 138, 139, 140, 141, 142, 143, 144, 145, 146, 147, 148, 1
 596:.\mem1.c      ****                             151, 152, 153, 154, 155, 156, 157, 158, 159, 160, 161, 162, 163, 164, 1
 597:.\mem1.c      ****                             167, 168, 169, 170, 171, 172, 173, 174, 175, 176, 177, 178, 179, 180, 1
 598:.\mem1.c      ****                             183, 184, 185, 186, 187, 188, 189, 190, 191, 192, 193, 194, 195, 196, 1
 599:.\mem1.c      ****                             199, 200, 201, 202, 203, 204, 205, 206, 207, 208, 209, 210, 211, 212, 2
 600:.\mem1.c      ****                             215, 216, 217, 218, 219, 220, 221, 222, 223, 224, 225, 226, 227, 228, 2
 601:.\mem1.c      ****                             231, 232, 233, 234, 235, 236, 237, 238, 239, 240, 241, 242, 243, 244, 2
 602:.\mem1.c      ****                             247, 248, 249, 250, 251, 252, 253, 254,255
 603:.\mem1.c      ****                     	};
 604:.\mem1.c      ****             
 605:.\mem1.c      ****             /*
ARM GAS  C:\Users\Brian\AppData\Local\Temp\ccHjPWqd.s 			page 52


 606:.\mem1.c      ****             if (waveType == SINE)
 607:.\mem1.c      ****             {
 608:.\mem1.c      ****               int i;
 609:.\mem1.c      ****               uint8 newWave[WAVE_SIZE];
 610:.\mem1.c      ****               for(i = 0; i < WAVE_SIZE; i++)
 611:.\mem1.c      ****                 {
 612:.\mem1.c      ****                     double val;
 613:.\mem1.c      ****                     
 614:.\mem1.c      ****                     val = (((double)SINEWave[i]) * (((double)amp)/255.0)) + (double)dcB;
 615:.\mem1.c      ****                     
 616:.\mem1.c      ****                     if(val > 255){val = 255;}
 617:.\mem1.c      ****                     
 618:.\mem1.c      ****                     uint8 newVal = (uint8) val; 
 619:.\mem1.c      ****                     
 620:.\mem1.c      ****                     newWave[i] = newVal;
 621:.\mem1.c      ****     	        }
 622:.\mem1.c      ****         
 623:.\mem1.c      ****                 uint8 Zeroes[WAVE_SIZE];
 624:.\mem1.c      ****                 memset(Zeroes, 0, WAVE_SIZE);
 625:.\mem1.c      ****                 
 626:.\mem1.c      ****                 WaveDAC8_1_Wave2Setup(newWave, WAVE_SIZE);
 627:.\mem1.c      ****               
 628:.\mem1.c      ****             }
 629:.\mem1.c      ****             */
 630:.\mem1.c      ****             
 631:.\mem1.c      ****             uint8 newWave[WAVE_SIZE];
 632:.\mem1.c      ****             memset(newWave, 0, WAVE_SIZE);
 2302              		.loc 1 632 0
 2303 00d2 07F10403 		add	r3, r7, #4
 2304 00d6 1846     		mov	r0, r3
 2305 00d8 4FF00001 		mov	r1, #0
 2306 00dc 4FF0FF02 		mov	r2, #255
 2307 00e0 FFF7FEFF 		bl	memset
 633:.\mem1.c      ****             double val;
 634:.\mem1.c      ****             uint8 newVal = 0;
 2308              		.loc 1 634 0
 2309 00e4 4FF00003 		mov	r3, #0
 2310 00e8 87F80635 		strb	r3, [r7, #1286]
 635:.\mem1.c      ****             
 636:.\mem1.c      ****             if (waveType == SINE)
 2311              		.loc 1 636 0
 2312 00ec 97F80B35 		ldrb	r3, [r7, #1291]	@ zero_extendqisi2
 2313 00f0 012B     		cmp	r3, #1
 2314 00f2 67D1     		bne	.L145
 2315              	.LBB2:
 637:.\mem1.c      ****             {
 638:.\mem1.c      ****               int i;
 639:.\mem1.c      ****               for(i = 0; i < WAVE_SIZE; i++)
 2316              		.loc 1 639 0
 2317 00f4 4FF00003 		mov	r3, #0
 2318 00f8 C7F81C35 		str	r3, [r7, #1308]
 2319 00fc 5DE0     		b	.L146
 2320              	.L149:
 640:.\mem1.c      ****                 {
 641:.\mem1.c      ****                     val = (((double)SINEWave[i]) * (((double)amp)/255.0)) + (double)dcB;
 2321              		.loc 1 641 0
 2322 00fe 07F20442 		addw	r2, r7, #1028
ARM GAS  C:\Users\Brian\AppData\Local\Temp\ccHjPWqd.s 			page 53


 2323 0102 D7F81C35 		ldr	r3, [r7, #1308]
 2324 0106 D318     		adds	r3, r2, r3
 2325 0108 1B78     		ldrb	r3, [r3, #0]	@ zero_extendqisi2
 2326 010a 1846     		mov	r0, r3
 2327 010c FFF7FEFF 		bl	__aeabi_ui2d
 2328 0110 0446     		mov	r4, r0
 2329 0112 0D46     		mov	r5, r1
 2330 0114 97F80A35 		ldrb	r3, [r7, #1290]	@ zero_extendqisi2
 2331 0118 1846     		mov	r0, r3
 2332 011a FFF7FEFF 		bl	__aeabi_ui2d
 2333 011e 0246     		mov	r2, r0
 2334 0120 0B46     		mov	r3, r1
 2335 0122 1046     		mov	r0, r2
 2336 0124 1946     		mov	r1, r3
 2337 0126 98A3     		adr	r3, .L169
 2338 0128 D3E90023 		ldrd	r2, [r3]
 2339 012c FFF7FEFF 		bl	__aeabi_ddiv
 2340 0130 0246     		mov	r2, r0
 2341 0132 0B46     		mov	r3, r1
 2342 0134 2046     		mov	r0, r4
 2343 0136 2946     		mov	r1, r5
 2344 0138 FFF7FEFF 		bl	__aeabi_dmul
 2345 013c 0246     		mov	r2, r0
 2346 013e 0B46     		mov	r3, r1
 2347 0140 1446     		mov	r4, r2
 2348 0142 1D46     		mov	r5, r3
 2349 0144 97F80735 		ldrb	r3, [r7, #1287]	@ zero_extendqisi2
 2350 0148 1846     		mov	r0, r3
 2351 014a FFF7FEFF 		bl	__aeabi_ui2d
 2352 014e 0246     		mov	r2, r0
 2353 0150 0B46     		mov	r3, r1
 2354 0152 2046     		mov	r0, r4
 2355 0154 2946     		mov	r1, r5
 2356 0156 FFF7FEFF 		bl	__aeabi_dadd
 2357 015a 0246     		mov	r2, r0
 2358 015c 0B46     		mov	r3, r1
 2359 015e 07F5A461 		add	r1, r7, #1312
 2360 0162 C1E90023 		strd	r2, [r1]
 642:.\mem1.c      ****                     if(val > 255){val = 255;}
 2361              		.loc 1 642 0
 2362 0166 07F5A463 		add	r3, r7, #1312
 2363 016a D3E90001 		ldrd	r0, [r3]
 2364 016e 86A3     		adr	r3, .L169
 2365 0170 D3E90023 		ldrd	r2, [r3]
 2366 0174 FFF7FEFF 		bl	__aeabi_dcmpgt
 2367 0178 0346     		mov	r3, r0
 2368 017a 002B     		cmp	r3, #0
 2369 017c 06D0     		beq	.L147
 2370              	.L165:
 2371              		.loc 1 642 0 is_stmt 0 discriminator 1
 2372 017e 82A3     		adr	r3, .L169
 2373 0180 D3E90023 		ldrd	r2, [r3]
 2374 0184 07F5A461 		add	r1, r7, #1312
 2375 0188 C1E90023 		strd	r2, [r1]
 2376              	.L147:
 643:.\mem1.c      ****                     newVal = (uint8)val; 
 2377              		.loc 1 643 0 is_stmt 1
ARM GAS  C:\Users\Brian\AppData\Local\Temp\ccHjPWqd.s 			page 54


 2378 018c 07F5A463 		add	r3, r7, #1312
 2379 0190 D3E90001 		ldrd	r0, [r3]
 2380 0194 FFF7FEFF 		bl	__aeabi_d2uiz
 2381 0198 0346     		mov	r3, r0
 2382 019a 87F80635 		strb	r3, [r7, #1286]
 644:.\mem1.c      ****                     newWave[i] = newVal;
 2383              		.loc 1 644 0
 2384 019e 07F10402 		add	r2, r7, #4
 2385 01a2 D7F81C35 		ldr	r3, [r7, #1308]
 2386 01a6 D318     		adds	r3, r2, r3
 2387 01a8 97F80625 		ldrb	r2, [r7, #1286]
 2388 01ac 1A70     		strb	r2, [r3, #0]
 639:.\mem1.c      ****               for(i = 0; i < WAVE_SIZE; i++)
 2389              		.loc 1 639 0
 2390 01ae D7F81C35 		ldr	r3, [r7, #1308]
 2391 01b2 03F10103 		add	r3, r3, #1
 2392 01b6 C7F81C35 		str	r3, [r7, #1308]
 2393              	.L146:
 639:.\mem1.c      ****               for(i = 0; i < WAVE_SIZE; i++)
 2394              		.loc 1 639 0 is_stmt 0 discriminator 1
 2395 01ba D7F81C35 		ldr	r3, [r7, #1308]
 2396 01be FE2B     		cmp	r3, #254
 2397 01c0 9DDD     		ble	.L149
 639:.\mem1.c      ****               for(i = 0; i < WAVE_SIZE; i++)
 2398              		.loc 1 639 0
 2399 01c2 6AE0     		b	.L150
 2400              	.L145:
 2401              	.LBE2:
 645:.\mem1.c      ****     	        }
 646:.\mem1.c      ****                            
 647:.\mem1.c      ****             }
 648:.\mem1.c      ****             
 649:.\mem1.c      ****             else if (waveType == SQUARE)
 2402              		.loc 1 649 0 is_stmt 1
 2403 01c4 97F80B35 		ldrb	r3, [r7, #1291]	@ zero_extendqisi2
 2404 01c8 032B     		cmp	r3, #3
 2405 01ca 66D1     		bne	.L150
 2406              	.LBB3:
 650:.\mem1.c      ****             {
 651:.\mem1.c      ****               int i;
 652:.\mem1.c      ****               for(i = 0; i < WAVE_SIZE; i++)
 2407              		.loc 1 652 0
 2408 01cc 4FF00003 		mov	r3, #0
 2409 01d0 C7F81835 		str	r3, [r7, #1304]
 2410 01d4 5DE0     		b	.L151
 2411              	.L154:
 653:.\mem1.c      ****                 {
 654:.\mem1.c      ****                     val = (((double)SQUAREWave[i]) * (((double)amp)/255.0)) + (double)dcB;
 2412              		.loc 1 654 0
 2413 01d6 07F54172 		add	r2, r7, #772
 2414 01da D7F81835 		ldr	r3, [r7, #1304]
 2415 01de D318     		adds	r3, r2, r3
 2416 01e0 1B78     		ldrb	r3, [r3, #0]	@ zero_extendqisi2
 2417 01e2 1846     		mov	r0, r3
 2418 01e4 FFF7FEFF 		bl	__aeabi_ui2d
 2419 01e8 0446     		mov	r4, r0
 2420 01ea 0D46     		mov	r5, r1
ARM GAS  C:\Users\Brian\AppData\Local\Temp\ccHjPWqd.s 			page 55


 2421 01ec 97F80A35 		ldrb	r3, [r7, #1290]	@ zero_extendqisi2
 2422 01f0 1846     		mov	r0, r3
 2423 01f2 FFF7FEFF 		bl	__aeabi_ui2d
 2424 01f6 0246     		mov	r2, r0
 2425 01f8 0B46     		mov	r3, r1
 2426 01fa 1046     		mov	r0, r2
 2427 01fc 1946     		mov	r1, r3
 2428 01fe 62A3     		adr	r3, .L169
 2429 0200 D3E90023 		ldrd	r2, [r3]
 2430 0204 FFF7FEFF 		bl	__aeabi_ddiv
 2431 0208 0246     		mov	r2, r0
 2432 020a 0B46     		mov	r3, r1
 2433 020c 2046     		mov	r0, r4
 2434 020e 2946     		mov	r1, r5
 2435 0210 FFF7FEFF 		bl	__aeabi_dmul
 2436 0214 0246     		mov	r2, r0
 2437 0216 0B46     		mov	r3, r1
 2438 0218 1446     		mov	r4, r2
 2439 021a 1D46     		mov	r5, r3
 2440 021c 97F80735 		ldrb	r3, [r7, #1287]	@ zero_extendqisi2
 2441 0220 1846     		mov	r0, r3
 2442 0222 FFF7FEFF 		bl	__aeabi_ui2d
 2443 0226 0246     		mov	r2, r0
 2444 0228 0B46     		mov	r3, r1
 2445 022a 2046     		mov	r0, r4
 2446 022c 2946     		mov	r1, r5
 2447 022e FFF7FEFF 		bl	__aeabi_dadd
 2448 0232 0246     		mov	r2, r0
 2449 0234 0B46     		mov	r3, r1
 2450 0236 07F5A461 		add	r1, r7, #1312
 2451 023a C1E90023 		strd	r2, [r1]
 655:.\mem1.c      ****                     if(val > 255){val = 255;}
 2452              		.loc 1 655 0
 2453 023e 07F5A463 		add	r3, r7, #1312
 2454 0242 D3E90001 		ldrd	r0, [r3]
 2455 0246 50A3     		adr	r3, .L169
 2456 0248 D3E90023 		ldrd	r2, [r3]
 2457 024c FFF7FEFF 		bl	__aeabi_dcmpgt
 2458 0250 0346     		mov	r3, r0
 2459 0252 002B     		cmp	r3, #0
 2460 0254 06D0     		beq	.L152
 2461              	.L166:
 2462              		.loc 1 655 0 is_stmt 0 discriminator 1
 2463 0256 4CA3     		adr	r3, .L169
 2464 0258 D3E90023 		ldrd	r2, [r3]
 2465 025c 07F5A461 		add	r1, r7, #1312
 2466 0260 C1E90023 		strd	r2, [r1]
 2467              	.L152:
 656:.\mem1.c      ****                     newVal = (uint8)val; 
 2468              		.loc 1 656 0 is_stmt 1
 2469 0264 07F5A463 		add	r3, r7, #1312
 2470 0268 D3E90001 		ldrd	r0, [r3]
 2471 026c FFF7FEFF 		bl	__aeabi_d2uiz
 2472 0270 0346     		mov	r3, r0
 2473 0272 87F80635 		strb	r3, [r7, #1286]
 657:.\mem1.c      ****                     newWave[i] = newVal;
 2474              		.loc 1 657 0
ARM GAS  C:\Users\Brian\AppData\Local\Temp\ccHjPWqd.s 			page 56


 2475 0276 07F10402 		add	r2, r7, #4
 2476 027a D7F81835 		ldr	r3, [r7, #1304]
 2477 027e D318     		adds	r3, r2, r3
 2478 0280 97F80625 		ldrb	r2, [r7, #1286]
 2479 0284 1A70     		strb	r2, [r3, #0]
 652:.\mem1.c      ****               for(i = 0; i < WAVE_SIZE; i++)
 2480              		.loc 1 652 0
 2481 0286 D7F81835 		ldr	r3, [r7, #1304]
 2482 028a 03F10103 		add	r3, r3, #1
 2483 028e C7F81835 		str	r3, [r7, #1304]
 2484              	.L151:
 652:.\mem1.c      ****               for(i = 0; i < WAVE_SIZE; i++)
 2485              		.loc 1 652 0 is_stmt 0 discriminator 1
 2486 0292 D7F81835 		ldr	r3, [r7, #1304]
 2487 0296 FE2B     		cmp	r3, #254
 2488 0298 9DDD     		ble	.L154
 2489              	.L150:
 2490              	.LBE3:
 658:.\mem1.c      ****     	        }
 659:.\mem1.c      ****                            
 660:.\mem1.c      ****             }
 661:.\mem1.c      ****             
 662:.\mem1.c      ****             if (waveType == TRIANGLE)
 2491              		.loc 1 662 0 is_stmt 1
 2492 029a 97F80B35 		ldrb	r3, [r7, #1291]	@ zero_extendqisi2
 2493 029e 052B     		cmp	r3, #5
 2494 02a0 66D1     		bne	.L155
 2495              	.LBB4:
 663:.\mem1.c      ****             {
 664:.\mem1.c      ****               int i;
 665:.\mem1.c      ****               for(i = 0; i < WAVE_SIZE; i++)
 2496              		.loc 1 665 0
 2497 02a2 4FF00003 		mov	r3, #0
 2498 02a6 C7F81435 		str	r3, [r7, #1300]
 2499 02aa 5DE0     		b	.L156
 2500              	.L159:
 666:.\mem1.c      ****                 {
 667:.\mem1.c      ****                     val = (((double)TRIANGLEWave[i]) * (((double)amp)/255.0)) + (double)dcB;
 2501              		.loc 1 667 0
 2502 02ac 07F50172 		add	r2, r7, #516
 2503 02b0 D7F81435 		ldr	r3, [r7, #1300]
 2504 02b4 D318     		adds	r3, r2, r3
 2505 02b6 1B78     		ldrb	r3, [r3, #0]	@ zero_extendqisi2
 2506 02b8 1846     		mov	r0, r3
 2507 02ba FFF7FEFF 		bl	__aeabi_ui2d
 2508 02be 0446     		mov	r4, r0
 2509 02c0 0D46     		mov	r5, r1
 2510 02c2 97F80A35 		ldrb	r3, [r7, #1290]	@ zero_extendqisi2
 2511 02c6 1846     		mov	r0, r3
 2512 02c8 FFF7FEFF 		bl	__aeabi_ui2d
 2513 02cc 0246     		mov	r2, r0
 2514 02ce 0B46     		mov	r3, r1
 2515 02d0 1046     		mov	r0, r2
 2516 02d2 1946     		mov	r1, r3
 2517 02d4 2CA3     		adr	r3, .L169
 2518 02d6 D3E90023 		ldrd	r2, [r3]
 2519 02da FFF7FEFF 		bl	__aeabi_ddiv
ARM GAS  C:\Users\Brian\AppData\Local\Temp\ccHjPWqd.s 			page 57


 2520 02de 0246     		mov	r2, r0
 2521 02e0 0B46     		mov	r3, r1
 2522 02e2 2046     		mov	r0, r4
 2523 02e4 2946     		mov	r1, r5
 2524 02e6 FFF7FEFF 		bl	__aeabi_dmul
 2525 02ea 0246     		mov	r2, r0
 2526 02ec 0B46     		mov	r3, r1
 2527 02ee 1446     		mov	r4, r2
 2528 02f0 1D46     		mov	r5, r3
 2529 02f2 97F80735 		ldrb	r3, [r7, #1287]	@ zero_extendqisi2
 2530 02f6 1846     		mov	r0, r3
 2531 02f8 FFF7FEFF 		bl	__aeabi_ui2d
 2532 02fc 0246     		mov	r2, r0
 2533 02fe 0B46     		mov	r3, r1
 2534 0300 2046     		mov	r0, r4
 2535 0302 2946     		mov	r1, r5
 2536 0304 FFF7FEFF 		bl	__aeabi_dadd
 2537 0308 0246     		mov	r2, r0
 2538 030a 0B46     		mov	r3, r1
 2539 030c 07F5A461 		add	r1, r7, #1312
 2540 0310 C1E90023 		strd	r2, [r1]
 668:.\mem1.c      ****                     if(val > 255){val = 255;}
 2541              		.loc 1 668 0
 2542 0314 07F5A463 		add	r3, r7, #1312
 2543 0318 D3E90001 		ldrd	r0, [r3]
 2544 031c 1AA3     		adr	r3, .L169
 2545 031e D3E90023 		ldrd	r2, [r3]
 2546 0322 FFF7FEFF 		bl	__aeabi_dcmpgt
 2547 0326 0346     		mov	r3, r0
 2548 0328 002B     		cmp	r3, #0
 2549 032a 06D0     		beq	.L157
 2550              	.L167:
 2551              		.loc 1 668 0 is_stmt 0 discriminator 1
 2552 032c 16A3     		adr	r3, .L169
 2553 032e D3E90023 		ldrd	r2, [r3]
 2554 0332 07F5A461 		add	r1, r7, #1312
 2555 0336 C1E90023 		strd	r2, [r1]
 2556              	.L157:
 669:.\mem1.c      ****                     newVal = (uint8)val; 
 2557              		.loc 1 669 0 is_stmt 1
 2558 033a 07F5A463 		add	r3, r7, #1312
 2559 033e D3E90001 		ldrd	r0, [r3]
 2560 0342 FFF7FEFF 		bl	__aeabi_d2uiz
 2561 0346 0346     		mov	r3, r0
 2562 0348 87F80635 		strb	r3, [r7, #1286]
 670:.\mem1.c      ****                     newWave[i] = newVal;
 2563              		.loc 1 670 0
 2564 034c 07F10402 		add	r2, r7, #4
 2565 0350 D7F81435 		ldr	r3, [r7, #1300]
 2566 0354 D318     		adds	r3, r2, r3
 2567 0356 97F80625 		ldrb	r2, [r7, #1286]
 2568 035a 1A70     		strb	r2, [r3, #0]
 665:.\mem1.c      ****               for(i = 0; i < WAVE_SIZE; i++)
 2569              		.loc 1 665 0
 2570 035c D7F81435 		ldr	r3, [r7, #1300]
 2571 0360 03F10103 		add	r3, r3, #1
 2572 0364 C7F81435 		str	r3, [r7, #1300]
ARM GAS  C:\Users\Brian\AppData\Local\Temp\ccHjPWqd.s 			page 58


 2573              	.L156:
 665:.\mem1.c      ****               for(i = 0; i < WAVE_SIZE; i++)
 2574              		.loc 1 665 0 is_stmt 0 discriminator 1
 2575 0368 D7F81435 		ldr	r3, [r7, #1300]
 2576 036c FE2B     		cmp	r3, #254
 2577 036e 9DDD     		ble	.L159
 2578              	.L155:
 2579              	.LBE4:
 671:.\mem1.c      ****     	        }
 672:.\mem1.c      ****                            
 673:.\mem1.c      ****             }
 674:.\mem1.c      ****             
 675:.\mem1.c      ****            if (waveType == SAWTOOTH)
 2580              		.loc 1 675 0 is_stmt 1
 2581 0370 97F80B35 		ldrb	r3, [r7, #1291]	@ zero_extendqisi2
 2582 0374 072B     		cmp	r3, #7
 2583 0376 6DD1     		bne	.L160
 2584              	.LBB5:
 676:.\mem1.c      ****             {
 677:.\mem1.c      ****               int i;
 678:.\mem1.c      ****               for(i = 0; i < WAVE_SIZE; i++)
 2585              		.loc 1 678 0
 2586 0378 4FF00003 		mov	r3, #0
 2587 037c C7F81035 		str	r3, [r7, #1296]
 2588 0380 64E0     		b	.L161
 2589              	.L170:
 2590 0382 00BFAFF3 		.align	3
 2590      0080
 2591              	.L169:
 2592 0388 00000000 		.word	0
 2593 038c 00E06F40 		.word	1081073664
 2594              	.L164:
 679:.\mem1.c      ****                 {
 680:.\mem1.c      ****                     val = (((double)SAWTOOTHWave[i]) * (((double)amp)/255.0)) + (double)dcB;
 2595              		.loc 1 680 0
 2596 0390 07F58272 		add	r2, r7, #260
 2597 0394 D7F81035 		ldr	r3, [r7, #1296]
 2598 0398 D318     		adds	r3, r2, r3
 2599 039a 1B78     		ldrb	r3, [r3, #0]	@ zero_extendqisi2
 2600 039c 1846     		mov	r0, r3
 2601 039e FFF7FEFF 		bl	__aeabi_ui2d
 2602 03a2 0446     		mov	r4, r0
 2603 03a4 0D46     		mov	r5, r1
 2604 03a6 97F80A35 		ldrb	r3, [r7, #1290]	@ zero_extendqisi2
 2605 03aa 1846     		mov	r0, r3
 2606 03ac FFF7FEFF 		bl	__aeabi_ui2d
 2607 03b0 0246     		mov	r2, r0
 2608 03b2 0B46     		mov	r3, r1
 2609 03b4 1046     		mov	r0, r2
 2610 03b6 1946     		mov	r1, r3
 2611 03b8 2DA3     		adr	r3, .L171
 2612 03ba D3E90023 		ldrd	r2, [r3]
 2613 03be FFF7FEFF 		bl	__aeabi_ddiv
 2614 03c2 0246     		mov	r2, r0
 2615 03c4 0B46     		mov	r3, r1
 2616 03c6 2046     		mov	r0, r4
 2617 03c8 2946     		mov	r1, r5
ARM GAS  C:\Users\Brian\AppData\Local\Temp\ccHjPWqd.s 			page 59


 2618 03ca FFF7FEFF 		bl	__aeabi_dmul
 2619 03ce 0246     		mov	r2, r0
 2620 03d0 0B46     		mov	r3, r1
 2621 03d2 1446     		mov	r4, r2
 2622 03d4 1D46     		mov	r5, r3
 2623 03d6 97F80735 		ldrb	r3, [r7, #1287]	@ zero_extendqisi2
 2624 03da 1846     		mov	r0, r3
 2625 03dc FFF7FEFF 		bl	__aeabi_ui2d
 2626 03e0 0246     		mov	r2, r0
 2627 03e2 0B46     		mov	r3, r1
 2628 03e4 2046     		mov	r0, r4
 2629 03e6 2946     		mov	r1, r5
 2630 03e8 FFF7FEFF 		bl	__aeabi_dadd
 2631 03ec 0246     		mov	r2, r0
 2632 03ee 0B46     		mov	r3, r1
 2633 03f0 07F5A461 		add	r1, r7, #1312
 2634 03f4 C1E90023 		strd	r2, [r1]
 681:.\mem1.c      ****                     if(val > 255){val = 255;}
 2635              		.loc 1 681 0
 2636 03f8 07F5A463 		add	r3, r7, #1312
 2637 03fc D3E90001 		ldrd	r0, [r3]
 2638 0400 1BA3     		adr	r3, .L171
 2639 0402 D3E90023 		ldrd	r2, [r3]
 2640 0406 FFF7FEFF 		bl	__aeabi_dcmpgt
 2641 040a 0346     		mov	r3, r0
 2642 040c 002B     		cmp	r3, #0
 2643 040e 06D0     		beq	.L162
 2644              	.L168:
 2645              		.loc 1 681 0 is_stmt 0 discriminator 1
 2646 0410 17A3     		adr	r3, .L171
 2647 0412 D3E90023 		ldrd	r2, [r3]
 2648 0416 07F5A461 		add	r1, r7, #1312
 2649 041a C1E90023 		strd	r2, [r1]
 2650              	.L162:
 682:.\mem1.c      ****                     newVal = (uint8)val; 
 2651              		.loc 1 682 0 is_stmt 1
 2652 041e 07F5A463 		add	r3, r7, #1312
 2653 0422 D3E90001 		ldrd	r0, [r3]
 2654 0426 FFF7FEFF 		bl	__aeabi_d2uiz
 2655 042a 0346     		mov	r3, r0
 2656 042c 87F80635 		strb	r3, [r7, #1286]
 683:.\mem1.c      ****                     newWave[i] = newVal;
 2657              		.loc 1 683 0
 2658 0430 07F10402 		add	r2, r7, #4
 2659 0434 D7F81035 		ldr	r3, [r7, #1296]
 2660 0438 D318     		adds	r3, r2, r3
 2661 043a 97F80625 		ldrb	r2, [r7, #1286]
 2662 043e 1A70     		strb	r2, [r3, #0]
 678:.\mem1.c      ****               for(i = 0; i < WAVE_SIZE; i++)
 2663              		.loc 1 678 0
 2664 0440 D7F81035 		ldr	r3, [r7, #1296]
 2665 0444 03F10103 		add	r3, r3, #1
 2666 0448 C7F81035 		str	r3, [r7, #1296]
 2667              	.L161:
 678:.\mem1.c      ****               for(i = 0; i < WAVE_SIZE; i++)
 2668              		.loc 1 678 0 is_stmt 0 discriminator 1
 2669 044c D7F81035 		ldr	r3, [r7, #1296]
ARM GAS  C:\Users\Brian\AppData\Local\Temp\ccHjPWqd.s 			page 60


 2670 0450 FE2B     		cmp	r3, #254
 2671 0452 9DDD     		ble	.L164
 2672              	.L160:
 2673              	.LBE5:
 684:.\mem1.c      ****     	        }
 685:.\mem1.c      ****                            
 686:.\mem1.c      ****             }
 687:.\mem1.c      ****             
 688:.\mem1.c      ****             WaveDAC8_1_Wave2Setup(newWave, WAVE_SIZE);
 2674              		.loc 1 688 0 is_stmt 1
 2675 0454 07F10403 		add	r3, r7, #4
 2676 0458 1846     		mov	r0, r3
 2677 045a 4FF0FF01 		mov	r1, #255
 2678 045e FFF7FEFF 		bl	WaveDAC8_1_Wave2Setup
 689:.\mem1.c      ****             
 690:.\mem1.c      ****             
 691:.\mem1.c      ****             
 692:.\mem1.c      ****         }
 2679              		.loc 1 692 0
 2680 0462 07F59477 		add	r7, r7, #296
 2681 0466 07F58067 		add	r7, r7, #1024
 2682 046a BD46     		mov	sp, r7
 2683 046c B0BD     		pop	{r4, r5, r7, pc}
 2684              	.L172:
 2685 046e 00BF     		.align	3
 2686              	.L171:
 2687 0470 00000000 		.word	0
 2688 0474 00E06F40 		.word	1081073664
 2689              		.cfi_endproc
 2690              	.LFE63:
 2691              		.size	Generate_Wave, .-Generate_Wave
 2692              		.section	.text.PWM_Control_0,"ax",%progbits
 2693              		.align	2
 2694              		.global	PWM_Control_0
 2695              		.thumb
 2696              		.thumb_func
 2697              		.type	PWM_Control_0, %function
 2698              	PWM_Control_0:
 2699              	.LFB64:
 693:.\mem1.c      ****     #endif    
 694:.\mem1.c      ****     
 695:.\mem1.c      **** /****************************************************************************************//**
 696:.\mem1.c      **** *  @brief Contains usage scenarios of the first PWM component for use by a Master device. 
 697:.\mem1.c      **** *
 698:.\mem1.c      **** *  @param cmd: 8-bit number describing a desired usage of a function associated 
 699:.\mem1.c      **** *              with the first PWM component
 700:.\mem1.c      **** *  @param val: 16-bit number containing a value that is to be written to that 
 701:.\mem1.c      **** *              function, or modify the component's operation, if applicable.
 702:.\mem1.c      **** *
 703:.\mem1.c      **** *********************************************************************************************/
 704:.\mem1.c      ****  
 705:.\mem1.c      ****     #ifdef CY_PWM_PWM_1_H
 706:.\mem1.c      ****         void PWM_Control_0(uint8 cmd, uint16 val)
 707:.\mem1.c      ****         {
 2700              		.loc 1 707 0
 2701              		.cfi_startproc
 2702              		@ args = 0, pretend = 0, frame = 16
ARM GAS  C:\Users\Brian\AppData\Local\Temp\ccHjPWqd.s 			page 61


 2703              		@ frame_needed = 1, uses_anonymous_args = 0
 2704 0000 80B5     		push	{r7, lr}
 2705              	.LCFI24:
 2706              		.cfi_def_cfa_offset 8
 2707              		.cfi_offset 7, -8
 2708              		.cfi_offset 14, -4
 2709 0002 84B0     		sub	sp, sp, #16
 2710              	.LCFI25:
 2711              		.cfi_def_cfa_offset 24
 2712 0004 00AF     		add	r7, sp, #0
 2713              	.LCFI26:
 2714              		.cfi_def_cfa_register 7
 2715 0006 0246     		mov	r2, r0
 2716 0008 0B46     		mov	r3, r1
 2717 000a FA71     		strb	r2, [r7, #7]
 2718 000c BB80     		strh	r3, [r7, #4]	@ movhi
 708:.\mem1.c      ****             uint32 result = MAX_32;
 2719              		.loc 1 708 0
 2720 000e 4FF0FF33 		mov	r3, #-1
 2721 0012 FB60     		str	r3, [r7, #12]
 709:.\mem1.c      ****             bool return_flag = 0;
 2722              		.loc 1 709 0
 2723 0014 4FF00003 		mov	r3, #0
 2724 0018 FB72     		strb	r3, [r7, #11]
 710:.\mem1.c      ****             
 711:.\mem1.c      ****             switch(cmd)
 2725              		.loc 1 711 0
 2726 001a FB79     		ldrb	r3, [r7, #7]	@ zero_extendqisi2
 2727 001c 0E2B     		cmp	r3, #14
 2728 001e 2ED0     		beq	.L179
 2729 0020 0E2B     		cmp	r3, #14
 2730 0022 0BDC     		bgt	.L185
 2731 0024 012B     		cmp	r3, #1
 2732 0026 1AD0     		beq	.L176
 2733 0028 012B     		cmp	r3, #1
 2734 002a 02DC     		bgt	.L186
 2735 002c 002B     		cmp	r3, #0
 2736 002e 13D0     		beq	.L175
 2737 0030 4CE0     		b	.L174
 2738              	.L186:
 2739 0032 0C2B     		cmp	r3, #12
 2740 0034 16D0     		beq	.L177
 2741 0036 0D2B     		cmp	r3, #13
 2742 0038 19D0     		beq	.L178
 2743 003a 47E0     		b	.L174
 2744              	.L185:
 2745 003c 192B     		cmp	r3, #25
 2746 003e 2ED0     		beq	.L182
 2747 0040 192B     		cmp	r3, #25
 2748 0042 04DC     		bgt	.L187
 2749 0044 0F2B     		cmp	r3, #15
 2750 0046 1FD0     		beq	.L180
 2751 0048 182B     		cmp	r3, #24
 2752 004a 25D0     		beq	.L181
 2753 004c 3EE0     		b	.L174
 2754              	.L187:
 2755 004e 1A2B     		cmp	r3, #26
ARM GAS  C:\Users\Brian\AppData\Local\Temp\ccHjPWqd.s 			page 62


 2756 0050 28D0     		beq	.L183
 2757 0052 FF2B     		cmp	r3, #255
 2758 0054 29D0     		beq	.L184
 2759 0056 39E0     		b	.L174
 2760              	.L175:
 712:.\mem1.c      ****             {
 713:.\mem1.c      ****                 case 0x00: PWM_1_Start(); break;
 2761              		.loc 1 713 0
 2762 0058 FFF7FEFF 		bl	PWM_1_Start
 2763 005c 36E0     		b	.L174
 2764              	.L176:
 714:.\mem1.c      ****                 case 0x01: PWM_1_Stop(); break;
 2765              		.loc 1 714 0
 2766 005e FFF7FEFF 		bl	PWM_1_Stop
 2767 0062 33E0     		b	.L174
 2768              	.L177:
 715:.\mem1.c      ****                 case 0x0C: PWM_1_WritePeriod(val); break;
 2769              		.loc 1 715 0
 2770 0064 BB88     		ldrh	r3, [r7, #4]
 2771 0066 1846     		mov	r0, r3
 2772 0068 FFF7FEFF 		bl	PWM_1_WritePeriod
 2773 006c 2EE0     		b	.L174
 2774              	.L178:
 716:.\mem1.c      ****                 case 0x0D: result = PWM_1_ReadPeriod(); return_flag = 1; break;
 2775              		.loc 1 716 0
 2776 006e FFF7FEFF 		bl	PWM_1_ReadPeriod
 2777 0072 0346     		mov	r3, r0
 2778 0074 FB60     		str	r3, [r7, #12]
 2779 0076 4FF00103 		mov	r3, #1
 2780 007a FB72     		strb	r3, [r7, #11]
 2781 007c 26E0     		b	.L174
 2782              	.L179:
 717:.\mem1.c      ****                 case 0x0E: PWM_1_WriteCompare(val); break;
 2783              		.loc 1 717 0
 2784 007e BB88     		ldrh	r3, [r7, #4]
 2785 0080 1846     		mov	r0, r3
 2786 0082 FFF7FEFF 		bl	PWM_1_WriteCompare
 2787 0086 21E0     		b	.L174
 2788              	.L180:
 718:.\mem1.c      ****                 case 0x0F: result  = PWM_1_ReadCompare(); return_flag = 1; break;
 2789              		.loc 1 718 0
 2790 0088 FFF7FEFF 		bl	PWM_1_ReadCompare
 2791 008c 0346     		mov	r3, r0
 2792 008e FB60     		str	r3, [r7, #12]
 2793 0090 4FF00103 		mov	r3, #1
 2794 0094 FB72     		strb	r3, [r7, #11]
 2795 0096 19E0     		b	.L174
 2796              	.L181:
 719:.\mem1.c      ****                 //case 0x14: PWM_1_WriteDeadTime(val); break;
 720:.\mem1.c      ****                 //case 0x15: result = PWM_1_ReadDeadTime(); break; 
 721:.\mem1.c      ****                 // 0x16: PWM_1_WriteKillTime(val); break;
 722:.\mem1.c      ****                 //case 0x17: result = PWM_1_ReadKillTime(); break; 
 723:.\mem1.c      ****                 case 0x18: PWM_1_ClearFIFO(); break; 
 2797              		.loc 1 723 0
 2798 0098 FFF7FEFF 		bl	PWM_1_ClearFIFO
 2799 009c 16E0     		b	.L174
 2800              	.L182:
ARM GAS  C:\Users\Brian\AppData\Local\Temp\ccHjPWqd.s 			page 63


 724:.\mem1.c      ****                 case 0x19: PWM_1_Sleep(); break; 
 2801              		.loc 1 724 0
 2802 009e FFF7FEFF 		bl	PWM_1_Sleep
 2803 00a2 13E0     		b	.L174
 2804              	.L183:
 725:.\mem1.c      ****                 case 0x1A: PWM_1_Wakeup(); break; 
 2805              		.loc 1 725 0
 2806 00a4 FFF7FEFF 		bl	PWM_1_Wakeup
 2807 00a8 10E0     		b	.L174
 2808              	.L184:
 726:.\mem1.c      ****                 case 0xFF: PWM_1_2_clk_SetDividerValue(val); result = PWM_1_2_clk_GetDividerRegiste
 2809              		.loc 1 726 0
 2810 00aa BB88     		ldrh	r3, [r7, #4]	@ movhi
 2811 00ac 03F1FF33 		add	r3, r3, #-1
 2812 00b0 9BB2     		uxth	r3, r3
 2813 00b2 1846     		mov	r0, r3
 2814 00b4 4FF00101 		mov	r1, #1
 2815 00b8 FFF7FEFF 		bl	PWM_1_2_clk_SetDividerRegister
 2816 00bc FFF7FEFF 		bl	PWM_1_2_clk_GetDividerRegister
 2817 00c0 0346     		mov	r3, r0
 2818 00c2 FB60     		str	r3, [r7, #12]
 2819 00c4 4FF00103 		mov	r3, #1
 2820 00c8 FB72     		strb	r3, [r7, #11]
 2821 00ca 00BF     		nop
 2822              	.L174:
 727:.\mem1.c      ****                 
 728:.\mem1.c      ****             }
 729:.\mem1.c      ****             
 730:.\mem1.c      ****             if (return_flag)
 2823              		.loc 1 730 0
 2824 00cc FB7A     		ldrb	r3, [r7, #11]	@ zero_extendqisi2
 2825 00ce 002B     		cmp	r3, #0
 2826 00d0 02D0     		beq	.L173
 731:.\mem1.c      ****                 {
 732:.\mem1.c      ****                     WriteTo_Pi(result);
 2827              		.loc 1 732 0
 2828 00d2 F868     		ldr	r0, [r7, #12]
 2829 00d4 FFF7FEFF 		bl	WriteTo_Pi
 2830              	.L173:
 733:.\mem1.c      ****                 }
 734:.\mem1.c      ****         }
 2831              		.loc 1 734 0
 2832 00d8 07F11007 		add	r7, r7, #16
 2833 00dc BD46     		mov	sp, r7
 2834 00de 80BD     		pop	{r7, pc}
 2835              		.cfi_endproc
 2836              	.LFE64:
 2837              		.size	PWM_Control_0, .-PWM_Control_0
 2838              		.section	.text.PWM_Control_1,"ax",%progbits
 2839              		.align	2
 2840              		.global	PWM_Control_1
 2841              		.thumb
 2842              		.thumb_func
 2843              		.type	PWM_Control_1, %function
 2844              	PWM_Control_1:
 2845              	.LFB65:
 735:.\mem1.c      ****     #endif
ARM GAS  C:\Users\Brian\AppData\Local\Temp\ccHjPWqd.s 			page 64


 736:.\mem1.c      **** /****************************************************************************************//**
 737:.\mem1.c      **** *  @brief Contains usage scenarios of the second PWM component for use by a Master device. 
 738:.\mem1.c      **** *
 739:.\mem1.c      **** *  @param cmd: 8-bit number describing a desired usage of a function associated 
 740:.\mem1.c      **** *              with the second PWM component
 741:.\mem1.c      **** *  @param val: 16-bit number containing a value that is to be written to that 
 742:.\mem1.c      **** *              function, or modify the component's operation, if applicable.
 743:.\mem1.c      **** *
 744:.\mem1.c      **** *********************************************************************************************/
 745:.\mem1.c      ****     
 746:.\mem1.c      ****      #ifdef CY_PWM_PWM_2_H
 747:.\mem1.c      ****         void PWM_Control_1(uint8 cmd, uint16 val)
 748:.\mem1.c      ****         {
 2846              		.loc 1 748 0
 2847              		.cfi_startproc
 2848              		@ args = 0, pretend = 0, frame = 16
 2849              		@ frame_needed = 1, uses_anonymous_args = 0
 2850 0000 80B5     		push	{r7, lr}
 2851              	.LCFI27:
 2852              		.cfi_def_cfa_offset 8
 2853              		.cfi_offset 7, -8
 2854              		.cfi_offset 14, -4
 2855 0002 84B0     		sub	sp, sp, #16
 2856              	.LCFI28:
 2857              		.cfi_def_cfa_offset 24
 2858 0004 00AF     		add	r7, sp, #0
 2859              	.LCFI29:
 2860              		.cfi_def_cfa_register 7
 2861 0006 0246     		mov	r2, r0
 2862 0008 0B46     		mov	r3, r1
 2863 000a FA71     		strb	r2, [r7, #7]
 2864 000c BB80     		strh	r3, [r7, #4]	@ movhi
 749:.\mem1.c      ****             uint32 result = MAX_32;
 2865              		.loc 1 749 0
 2866 000e 4FF0FF33 		mov	r3, #-1
 2867 0012 FB60     		str	r3, [r7, #12]
 750:.\mem1.c      ****             bool return_flag = 0;
 2868              		.loc 1 750 0
 2869 0014 4FF00003 		mov	r3, #0
 2870 0018 FB72     		strb	r3, [r7, #11]
 751:.\mem1.c      ****             
 752:.\mem1.c      ****             switch(cmd)
 2871              		.loc 1 752 0
 2872 001a FB79     		ldrb	r3, [r7, #7]	@ zero_extendqisi2
 2873 001c 0E2B     		cmp	r3, #14
 2874 001e 2ED0     		beq	.L195
 2875 0020 0E2B     		cmp	r3, #14
 2876 0022 0BDC     		bgt	.L201
 2877 0024 012B     		cmp	r3, #1
 2878 0026 1AD0     		beq	.L192
 2879 0028 012B     		cmp	r3, #1
 2880 002a 02DC     		bgt	.L202
 2881 002c 002B     		cmp	r3, #0
 2882 002e 13D0     		beq	.L191
 2883 0030 4CE0     		b	.L190
 2884              	.L202:
 2885 0032 0C2B     		cmp	r3, #12
ARM GAS  C:\Users\Brian\AppData\Local\Temp\ccHjPWqd.s 			page 65


 2886 0034 16D0     		beq	.L193
 2887 0036 0D2B     		cmp	r3, #13
 2888 0038 19D0     		beq	.L194
 2889 003a 47E0     		b	.L190
 2890              	.L201:
 2891 003c 192B     		cmp	r3, #25
 2892 003e 2ED0     		beq	.L198
 2893 0040 192B     		cmp	r3, #25
 2894 0042 04DC     		bgt	.L203
 2895 0044 0F2B     		cmp	r3, #15
 2896 0046 1FD0     		beq	.L196
 2897 0048 182B     		cmp	r3, #24
 2898 004a 25D0     		beq	.L197
 2899 004c 3EE0     		b	.L190
 2900              	.L203:
 2901 004e 1A2B     		cmp	r3, #26
 2902 0050 28D0     		beq	.L199
 2903 0052 FF2B     		cmp	r3, #255
 2904 0054 29D0     		beq	.L200
 2905 0056 39E0     		b	.L190
 2906              	.L191:
 753:.\mem1.c      ****             {
 754:.\mem1.c      ****                 case 0x00: PWM_2_Start(); break;
 2907              		.loc 1 754 0
 2908 0058 FFF7FEFF 		bl	PWM_2_Start
 2909 005c 36E0     		b	.L190
 2910              	.L192:
 755:.\mem1.c      ****                 case 0x01: PWM_2_Stop(); break;
 2911              		.loc 1 755 0
 2912 005e FFF7FEFF 		bl	PWM_2_Stop
 2913 0062 33E0     		b	.L190
 2914              	.L193:
 756:.\mem1.c      ****                 case 0x0C: PWM_2_WritePeriod(val); break;
 2915              		.loc 1 756 0
 2916 0064 BB88     		ldrh	r3, [r7, #4]
 2917 0066 1846     		mov	r0, r3
 2918 0068 FFF7FEFF 		bl	PWM_2_WritePeriod
 2919 006c 2EE0     		b	.L190
 2920              	.L194:
 757:.\mem1.c      ****                 case 0x0D: result = PWM_2_ReadPeriod(); return_flag = 1; break;
 2921              		.loc 1 757 0
 2922 006e FFF7FEFF 		bl	PWM_2_ReadPeriod
 2923 0072 0346     		mov	r3, r0
 2924 0074 FB60     		str	r3, [r7, #12]
 2925 0076 4FF00103 		mov	r3, #1
 2926 007a FB72     		strb	r3, [r7, #11]
 2927 007c 26E0     		b	.L190
 2928              	.L195:
 758:.\mem1.c      ****                 case 0x0E: PWM_2_WriteCompare(val); break;
 2929              		.loc 1 758 0
 2930 007e BB88     		ldrh	r3, [r7, #4]
 2931 0080 1846     		mov	r0, r3
 2932 0082 FFF7FEFF 		bl	PWM_2_WriteCompare
 2933 0086 21E0     		b	.L190
 2934              	.L196:
 759:.\mem1.c      ****                 case 0x0F: result  = PWM_2_ReadCompare(); return_flag = 1; break;
 2935              		.loc 1 759 0
ARM GAS  C:\Users\Brian\AppData\Local\Temp\ccHjPWqd.s 			page 66


 2936 0088 FFF7FEFF 		bl	PWM_2_ReadCompare
 2937 008c 0346     		mov	r3, r0
 2938 008e FB60     		str	r3, [r7, #12]
 2939 0090 4FF00103 		mov	r3, #1
 2940 0094 FB72     		strb	r3, [r7, #11]
 2941 0096 19E0     		b	.L190
 2942              	.L197:
 760:.\mem1.c      ****                 //case 0x14: PWM_2_WriteDeadTime(val); break;
 761:.\mem1.c      ****                 //case 0x15: result = PWM_2_ReadDeadTime(); break; 
 762:.\mem1.c      ****                 // 0x16: PWM_2_WriteKillTime(val); break;
 763:.\mem1.c      ****                 //case 0x17: result = PWM_2_ReadKillTime(); break; 
 764:.\mem1.c      ****                 case 0x18: PWM_2_ClearFIFO(); break; 
 2943              		.loc 1 764 0
 2944 0098 FFF7FEFF 		bl	PWM_2_ClearFIFO
 2945 009c 16E0     		b	.L190
 2946              	.L198:
 765:.\mem1.c      ****                 case 0x19: PWM_2_Sleep(); break; 
 2947              		.loc 1 765 0
 2948 009e FFF7FEFF 		bl	PWM_2_Sleep
 2949 00a2 13E0     		b	.L190
 2950              	.L199:
 766:.\mem1.c      ****                 case 0x1A: PWM_2_Wakeup(); break; 
 2951              		.loc 1 766 0
 2952 00a4 FFF7FEFF 		bl	PWM_2_Wakeup
 2953 00a8 10E0     		b	.L190
 2954              	.L200:
 767:.\mem1.c      ****                 case 0xFF: PWM_1_2_clk_SetDividerValue(val); result = PWM_1_2_clk_GetDividerRegiste
 2955              		.loc 1 767 0
 2956 00aa BB88     		ldrh	r3, [r7, #4]	@ movhi
 2957 00ac 03F1FF33 		add	r3, r3, #-1
 2958 00b0 9BB2     		uxth	r3, r3
 2959 00b2 1846     		mov	r0, r3
 2960 00b4 4FF00101 		mov	r1, #1
 2961 00b8 FFF7FEFF 		bl	PWM_1_2_clk_SetDividerRegister
 2962 00bc FFF7FEFF 		bl	PWM_1_2_clk_GetDividerRegister
 2963 00c0 0346     		mov	r3, r0
 2964 00c2 FB60     		str	r3, [r7, #12]
 2965 00c4 4FF00103 		mov	r3, #1
 2966 00c8 FB72     		strb	r3, [r7, #11]
 2967 00ca 00BF     		nop
 2968              	.L190:
 768:.\mem1.c      ****                 
 769:.\mem1.c      ****             }
 770:.\mem1.c      ****             
 771:.\mem1.c      ****             if (return_flag)
 2969              		.loc 1 771 0
 2970 00cc FB7A     		ldrb	r3, [r7, #11]	@ zero_extendqisi2
 2971 00ce 002B     		cmp	r3, #0
 2972 00d0 02D0     		beq	.L189
 772:.\mem1.c      ****                 {
 773:.\mem1.c      ****                     WriteTo_Pi(result);
 2973              		.loc 1 773 0
 2974 00d2 F868     		ldr	r0, [r7, #12]
 2975 00d4 FFF7FEFF 		bl	WriteTo_Pi
 2976              	.L189:
 774:.\mem1.c      ****                 } 
 775:.\mem1.c      ****         }
ARM GAS  C:\Users\Brian\AppData\Local\Temp\ccHjPWqd.s 			page 67


 2977              		.loc 1 775 0
 2978 00d8 07F11007 		add	r7, r7, #16
 2979 00dc BD46     		mov	sp, r7
 2980 00de 80BD     		pop	{r7, pc}
 2981              		.cfi_endproc
 2982              	.LFE65:
 2983              		.size	PWM_Control_1, .-PWM_Control_1
 2984              		.section	.text.PWM_Control_2,"ax",%progbits
 2985              		.align	2
 2986              		.global	PWM_Control_2
 2987              		.thumb
 2988              		.thumb_func
 2989              		.type	PWM_Control_2, %function
 2990              	PWM_Control_2:
 2991              	.LFB66:
 776:.\mem1.c      ****     #endif
 777:.\mem1.c      **** /****************************************************************************************//**
 778:.\mem1.c      **** *  @brief Contains usage scenarios of the third PWM component for use by a Master device. 
 779:.\mem1.c      **** *
 780:.\mem1.c      **** *  @param cmd: 8-bit number describing a desired usage of a function associated 
 781:.\mem1.c      **** *              with the third PWM component
 782:.\mem1.c      **** *  @param val: 16-bit number containing a value that is to be written to that 
 783:.\mem1.c      **** *              function, or modify the component's operation, if applicable.
 784:.\mem1.c      **** *
 785:.\mem1.c      **** *********************************************************************************************/
 786:.\mem1.c      ****      #ifdef CY_PWM_PWM_3_H
 787:.\mem1.c      ****         void PWM_Control_2(uint8 cmd, uint16 val)
 788:.\mem1.c      ****         {
 2992              		.loc 1 788 0
 2993              		.cfi_startproc
 2994              		@ args = 0, pretend = 0, frame = 16
 2995              		@ frame_needed = 1, uses_anonymous_args = 0
 2996 0000 80B5     		push	{r7, lr}
 2997              	.LCFI30:
 2998              		.cfi_def_cfa_offset 8
 2999              		.cfi_offset 7, -8
 3000              		.cfi_offset 14, -4
 3001 0002 84B0     		sub	sp, sp, #16
 3002              	.LCFI31:
 3003              		.cfi_def_cfa_offset 24
 3004 0004 00AF     		add	r7, sp, #0
 3005              	.LCFI32:
 3006              		.cfi_def_cfa_register 7
 3007 0006 0246     		mov	r2, r0
 3008 0008 0B46     		mov	r3, r1
 3009 000a FA71     		strb	r2, [r7, #7]
 3010 000c BB80     		strh	r3, [r7, #4]	@ movhi
 789:.\mem1.c      ****             uint32 result = MAX_32;
 3011              		.loc 1 789 0
 3012 000e 4FF0FF33 		mov	r3, #-1
 3013 0012 FB60     		str	r3, [r7, #12]
 790:.\mem1.c      ****             bool return_flag = 0;
 3014              		.loc 1 790 0
 3015 0014 4FF00003 		mov	r3, #0
 3016 0018 FB72     		strb	r3, [r7, #11]
 791:.\mem1.c      ****             
 792:.\mem1.c      ****             switch(cmd)
ARM GAS  C:\Users\Brian\AppData\Local\Temp\ccHjPWqd.s 			page 68


 3017              		.loc 1 792 0
 3018 001a FB79     		ldrb	r3, [r7, #7]	@ zero_extendqisi2
 3019 001c 0E2B     		cmp	r3, #14
 3020 001e 2ED0     		beq	.L211
 3021 0020 0E2B     		cmp	r3, #14
 3022 0022 0BDC     		bgt	.L217
 3023 0024 012B     		cmp	r3, #1
 3024 0026 1AD0     		beq	.L208
 3025 0028 012B     		cmp	r3, #1
 3026 002a 02DC     		bgt	.L218
 3027 002c 002B     		cmp	r3, #0
 3028 002e 13D0     		beq	.L207
 3029 0030 4CE0     		b	.L206
 3030              	.L218:
 3031 0032 0C2B     		cmp	r3, #12
 3032 0034 16D0     		beq	.L209
 3033 0036 0D2B     		cmp	r3, #13
 3034 0038 19D0     		beq	.L210
 3035 003a 47E0     		b	.L206
 3036              	.L217:
 3037 003c 192B     		cmp	r3, #25
 3038 003e 2ED0     		beq	.L214
 3039 0040 192B     		cmp	r3, #25
 3040 0042 04DC     		bgt	.L219
 3041 0044 0F2B     		cmp	r3, #15
 3042 0046 1FD0     		beq	.L212
 3043 0048 182B     		cmp	r3, #24
 3044 004a 25D0     		beq	.L213
 3045 004c 3EE0     		b	.L206
 3046              	.L219:
 3047 004e 1A2B     		cmp	r3, #26
 3048 0050 28D0     		beq	.L215
 3049 0052 FF2B     		cmp	r3, #255
 3050 0054 29D0     		beq	.L216
 3051 0056 39E0     		b	.L206
 3052              	.L207:
 793:.\mem1.c      ****             {
 794:.\mem1.c      ****                 case 0x00: PWM_3_Start(); break;
 3053              		.loc 1 794 0
 3054 0058 FFF7FEFF 		bl	PWM_3_Start
 3055 005c 36E0     		b	.L206
 3056              	.L208:
 795:.\mem1.c      ****                 case 0x01: PWM_3_Stop(); break;
 3057              		.loc 1 795 0
 3058 005e FFF7FEFF 		bl	PWM_3_Stop
 3059 0062 33E0     		b	.L206
 3060              	.L209:
 796:.\mem1.c      ****                 case 0x0C: PWM_3_WritePeriod(val); break;
 3061              		.loc 1 796 0
 3062 0064 BB88     		ldrh	r3, [r7, #4]
 3063 0066 1846     		mov	r0, r3
 3064 0068 FFF7FEFF 		bl	PWM_3_WritePeriod
 3065 006c 2EE0     		b	.L206
 3066              	.L210:
 797:.\mem1.c      ****                 case 0x0D: result = PWM_3_ReadPeriod(); return_flag = 1; break;
 3067              		.loc 1 797 0
 3068 006e FFF7FEFF 		bl	PWM_3_ReadPeriod
ARM GAS  C:\Users\Brian\AppData\Local\Temp\ccHjPWqd.s 			page 69


 3069 0072 0346     		mov	r3, r0
 3070 0074 FB60     		str	r3, [r7, #12]
 3071 0076 4FF00103 		mov	r3, #1
 3072 007a FB72     		strb	r3, [r7, #11]
 3073 007c 26E0     		b	.L206
 3074              	.L211:
 798:.\mem1.c      ****                 case 0x0E: PWM_3_WriteCompare(val); break;
 3075              		.loc 1 798 0
 3076 007e BB88     		ldrh	r3, [r7, #4]
 3077 0080 1846     		mov	r0, r3
 3078 0082 FFF7FEFF 		bl	PWM_3_WriteCompare
 3079 0086 21E0     		b	.L206
 3080              	.L212:
 799:.\mem1.c      ****                 case 0x0F: result  = PWM_3_ReadCompare(); return_flag = 1; break;
 3081              		.loc 1 799 0
 3082 0088 FFF7FEFF 		bl	PWM_3_ReadCompare
 3083 008c 0346     		mov	r3, r0
 3084 008e FB60     		str	r3, [r7, #12]
 3085 0090 4FF00103 		mov	r3, #1
 3086 0094 FB72     		strb	r3, [r7, #11]
 3087 0096 19E0     		b	.L206
 3088              	.L213:
 800:.\mem1.c      ****                 //case 0x14: PWM_3_WriteDeadTime(val); break;
 801:.\mem1.c      ****                 //case 0x15: result = PWM_3_ReadDeadTime(); break; 
 802:.\mem1.c      ****                 // 0x16: PWM_3_WriteKillTime(val); break;
 803:.\mem1.c      ****                 //case 0x17: result = PWM_3_ReadKillTime(); break; 
 804:.\mem1.c      ****                 case 0x18: PWM_3_ClearFIFO(); break; 
 3089              		.loc 1 804 0
 3090 0098 FFF7FEFF 		bl	PWM_3_ClearFIFO
 3091 009c 16E0     		b	.L206
 3092              	.L214:
 805:.\mem1.c      ****                 case 0x19: PWM_3_Sleep(); break; 
 3093              		.loc 1 805 0
 3094 009e FFF7FEFF 		bl	PWM_3_Sleep
 3095 00a2 13E0     		b	.L206
 3096              	.L215:
 806:.\mem1.c      ****                 case 0x1A: PWM_3_Wakeup(); break; 
 3097              		.loc 1 806 0
 3098 00a4 FFF7FEFF 		bl	PWM_3_Wakeup
 3099 00a8 10E0     		b	.L206
 3100              	.L216:
 807:.\mem1.c      ****                 case 0xFF: PWM_3_4_clk_SetDividerValue(val); result = PWM_3_4_clk_GetDividerRegiste
 3101              		.loc 1 807 0
 3102 00aa BB88     		ldrh	r3, [r7, #4]	@ movhi
 3103 00ac 03F1FF33 		add	r3, r3, #-1
 3104 00b0 9BB2     		uxth	r3, r3
 3105 00b2 1846     		mov	r0, r3
 3106 00b4 4FF00101 		mov	r1, #1
 3107 00b8 FFF7FEFF 		bl	PWM_3_4_clk_SetDividerRegister
 3108 00bc FFF7FEFF 		bl	PWM_3_4_clk_GetDividerRegister
 3109 00c0 0346     		mov	r3, r0
 3110 00c2 FB60     		str	r3, [r7, #12]
 3111 00c4 4FF00103 		mov	r3, #1
 3112 00c8 FB72     		strb	r3, [r7, #11]
 3113 00ca 00BF     		nop
 3114              	.L206:
 808:.\mem1.c      ****                 
ARM GAS  C:\Users\Brian\AppData\Local\Temp\ccHjPWqd.s 			page 70


 809:.\mem1.c      ****             }
 810:.\mem1.c      ****             
 811:.\mem1.c      ****             if (return_flag)
 3115              		.loc 1 811 0
 3116 00cc FB7A     		ldrb	r3, [r7, #11]	@ zero_extendqisi2
 3117 00ce 002B     		cmp	r3, #0
 3118 00d0 02D0     		beq	.L205
 812:.\mem1.c      ****                 {
 813:.\mem1.c      ****                     WriteTo_Pi(result);
 3119              		.loc 1 813 0
 3120 00d2 F868     		ldr	r0, [r7, #12]
 3121 00d4 FFF7FEFF 		bl	WriteTo_Pi
 3122              	.L205:
 814:.\mem1.c      ****                 } 
 815:.\mem1.c      ****         }
 3123              		.loc 1 815 0
 3124 00d8 07F11007 		add	r7, r7, #16
 3125 00dc BD46     		mov	sp, r7
 3126 00de 80BD     		pop	{r7, pc}
 3127              		.cfi_endproc
 3128              	.LFE66:
 3129              		.size	PWM_Control_2, .-PWM_Control_2
 3130              		.section	.text.PWM_Control_3,"ax",%progbits
 3131              		.align	2
 3132              		.global	PWM_Control_3
 3133              		.thumb
 3134              		.thumb_func
 3135              		.type	PWM_Control_3, %function
 3136              	PWM_Control_3:
 3137              	.LFB67:
 816:.\mem1.c      ****     #endif
 817:.\mem1.c      **** /****************************************************************************************//**
 818:.\mem1.c      **** *  @brief Contains usage scenarios of the fourth PWM component for use by a Master device. 
 819:.\mem1.c      **** *
 820:.\mem1.c      **** *  @param cmd: 8-bit number describing a desired usage of a function associated 
 821:.\mem1.c      **** *              with the fourth PWM component
 822:.\mem1.c      **** *  @param val: 16-bit number containing a value that is to be written to that 
 823:.\mem1.c      **** *              function, or modify the component's operation, if applicable.
 824:.\mem1.c      **** *
 825:.\mem1.c      **** *********************************************************************************************/
 826:.\mem1.c      ****      #ifdef CY_PWM_PWM_4_H
 827:.\mem1.c      ****         void PWM_Control_3(uint8 cmd, uint16 val)
 828:.\mem1.c      ****         {
 3138              		.loc 1 828 0
 3139              		.cfi_startproc
 3140              		@ args = 0, pretend = 0, frame = 16
 3141              		@ frame_needed = 1, uses_anonymous_args = 0
 3142 0000 80B5     		push	{r7, lr}
 3143              	.LCFI33:
 3144              		.cfi_def_cfa_offset 8
 3145              		.cfi_offset 7, -8
 3146              		.cfi_offset 14, -4
 3147 0002 84B0     		sub	sp, sp, #16
 3148              	.LCFI34:
 3149              		.cfi_def_cfa_offset 24
 3150 0004 00AF     		add	r7, sp, #0
 3151              	.LCFI35:
ARM GAS  C:\Users\Brian\AppData\Local\Temp\ccHjPWqd.s 			page 71


 3152              		.cfi_def_cfa_register 7
 3153 0006 0246     		mov	r2, r0
 3154 0008 0B46     		mov	r3, r1
 3155 000a FA71     		strb	r2, [r7, #7]
 3156 000c BB80     		strh	r3, [r7, #4]	@ movhi
 829:.\mem1.c      ****             uint32 result = MAX_32;
 3157              		.loc 1 829 0
 3158 000e 4FF0FF33 		mov	r3, #-1
 3159 0012 FB60     		str	r3, [r7, #12]
 830:.\mem1.c      ****             bool return_flag = 0;
 3160              		.loc 1 830 0
 3161 0014 4FF00003 		mov	r3, #0
 3162 0018 FB72     		strb	r3, [r7, #11]
 831:.\mem1.c      ****             
 832:.\mem1.c      ****             switch(cmd)
 3163              		.loc 1 832 0
 3164 001a FB79     		ldrb	r3, [r7, #7]	@ zero_extendqisi2
 3165 001c 0E2B     		cmp	r3, #14
 3166 001e 2ED0     		beq	.L227
 3167 0020 0E2B     		cmp	r3, #14
 3168 0022 0BDC     		bgt	.L233
 3169 0024 012B     		cmp	r3, #1
 3170 0026 1AD0     		beq	.L224
 3171 0028 012B     		cmp	r3, #1
 3172 002a 02DC     		bgt	.L234
 3173 002c 002B     		cmp	r3, #0
 3174 002e 13D0     		beq	.L223
 3175 0030 4CE0     		b	.L222
 3176              	.L234:
 3177 0032 0C2B     		cmp	r3, #12
 3178 0034 16D0     		beq	.L225
 3179 0036 0D2B     		cmp	r3, #13
 3180 0038 19D0     		beq	.L226
 3181 003a 47E0     		b	.L222
 3182              	.L233:
 3183 003c 192B     		cmp	r3, #25
 3184 003e 2ED0     		beq	.L230
 3185 0040 192B     		cmp	r3, #25
 3186 0042 04DC     		bgt	.L235
 3187 0044 0F2B     		cmp	r3, #15
 3188 0046 1FD0     		beq	.L228
 3189 0048 182B     		cmp	r3, #24
 3190 004a 25D0     		beq	.L229
 3191 004c 3EE0     		b	.L222
 3192              	.L235:
 3193 004e 1A2B     		cmp	r3, #26
 3194 0050 28D0     		beq	.L231
 3195 0052 FF2B     		cmp	r3, #255
 3196 0054 29D0     		beq	.L232
 3197 0056 39E0     		b	.L222
 3198              	.L223:
 833:.\mem1.c      ****             {
 834:.\mem1.c      ****                 case 0x00: PWM_4_Start(); break;
 3199              		.loc 1 834 0
 3200 0058 FFF7FEFF 		bl	PWM_4_Start
 3201 005c 36E0     		b	.L222
 3202              	.L224:
ARM GAS  C:\Users\Brian\AppData\Local\Temp\ccHjPWqd.s 			page 72


 835:.\mem1.c      ****                 case 0x01: PWM_4_Stop(); break;
 3203              		.loc 1 835 0
 3204 005e FFF7FEFF 		bl	PWM_4_Stop
 3205 0062 33E0     		b	.L222
 3206              	.L225:
 836:.\mem1.c      ****                 case 0x0C: PWM_4_WritePeriod(val); break;
 3207              		.loc 1 836 0
 3208 0064 BB88     		ldrh	r3, [r7, #4]
 3209 0066 1846     		mov	r0, r3
 3210 0068 FFF7FEFF 		bl	PWM_4_WritePeriod
 3211 006c 2EE0     		b	.L222
 3212              	.L226:
 837:.\mem1.c      ****                 case 0x0D: result = PWM_4_ReadPeriod(); return_flag = 1; break;
 3213              		.loc 1 837 0
 3214 006e FFF7FEFF 		bl	PWM_4_ReadPeriod
 3215 0072 0346     		mov	r3, r0
 3216 0074 FB60     		str	r3, [r7, #12]
 3217 0076 4FF00103 		mov	r3, #1
 3218 007a FB72     		strb	r3, [r7, #11]
 3219 007c 26E0     		b	.L222
 3220              	.L227:
 838:.\mem1.c      ****                 case 0x0E: PWM_4_WriteCompare(val); break;
 3221              		.loc 1 838 0
 3222 007e BB88     		ldrh	r3, [r7, #4]
 3223 0080 1846     		mov	r0, r3
 3224 0082 FFF7FEFF 		bl	PWM_4_WriteCompare
 3225 0086 21E0     		b	.L222
 3226              	.L228:
 839:.\mem1.c      ****                 case 0x0F: result  = PWM_4_ReadCompare(); return_flag = 1; break;
 3227              		.loc 1 839 0
 3228 0088 FFF7FEFF 		bl	PWM_4_ReadCompare
 3229 008c 0346     		mov	r3, r0
 3230 008e FB60     		str	r3, [r7, #12]
 3231 0090 4FF00103 		mov	r3, #1
 3232 0094 FB72     		strb	r3, [r7, #11]
 3233 0096 19E0     		b	.L222
 3234              	.L229:
 840:.\mem1.c      ****                 //case 0x14: PWM_4_WriteDeadTime(val); break;
 841:.\mem1.c      ****                 //case 0x15: result = PWM_4_ReadDeadTime(); break; 
 842:.\mem1.c      ****                 // 0x16: PWM_4_WriteKillTime(val); break;
 843:.\mem1.c      ****                 //case 0x17: result = PWM_4_ReadKillTime(); break; 
 844:.\mem1.c      ****                 case 0x18: PWM_4_ClearFIFO(); break; 
 3235              		.loc 1 844 0
 3236 0098 FFF7FEFF 		bl	PWM_4_ClearFIFO
 3237 009c 16E0     		b	.L222
 3238              	.L230:
 845:.\mem1.c      ****                 case 0x19: PWM_4_Sleep(); break; 
 3239              		.loc 1 845 0
 3240 009e FFF7FEFF 		bl	PWM_4_Sleep
 3241 00a2 13E0     		b	.L222
 3242              	.L231:
 846:.\mem1.c      ****                 case 0x1A: PWM_4_Wakeup(); break; 
 3243              		.loc 1 846 0
 3244 00a4 FFF7FEFF 		bl	PWM_4_Wakeup
 3245 00a8 10E0     		b	.L222
 3246              	.L232:
 847:.\mem1.c      ****                 case 0xFF: PWM_3_4_clk_SetDividerValue(val); result = PWM_3_4_clk_GetDividerRegiste
ARM GAS  C:\Users\Brian\AppData\Local\Temp\ccHjPWqd.s 			page 73


 3247              		.loc 1 847 0
 3248 00aa BB88     		ldrh	r3, [r7, #4]	@ movhi
 3249 00ac 03F1FF33 		add	r3, r3, #-1
 3250 00b0 9BB2     		uxth	r3, r3
 3251 00b2 1846     		mov	r0, r3
 3252 00b4 4FF00101 		mov	r1, #1
 3253 00b8 FFF7FEFF 		bl	PWM_3_4_clk_SetDividerRegister
 3254 00bc FFF7FEFF 		bl	PWM_3_4_clk_GetDividerRegister
 3255 00c0 0346     		mov	r3, r0
 3256 00c2 FB60     		str	r3, [r7, #12]
 3257 00c4 4FF00103 		mov	r3, #1
 3258 00c8 FB72     		strb	r3, [r7, #11]
 3259 00ca 00BF     		nop
 3260              	.L222:
 848:.\mem1.c      ****                 
 849:.\mem1.c      ****             }
 850:.\mem1.c      ****             
 851:.\mem1.c      ****             if (return_flag)
 3261              		.loc 1 851 0
 3262 00cc FB7A     		ldrb	r3, [r7, #11]	@ zero_extendqisi2
 3263 00ce 002B     		cmp	r3, #0
 3264 00d0 02D0     		beq	.L221
 852:.\mem1.c      ****                 {
 853:.\mem1.c      ****                     WriteTo_Pi(result);
 3265              		.loc 1 853 0
 3266 00d2 F868     		ldr	r0, [r7, #12]
 3267 00d4 FFF7FEFF 		bl	WriteTo_Pi
 3268              	.L221:
 854:.\mem1.c      ****                 } 
 855:.\mem1.c      ****         }
 3269              		.loc 1 855 0
 3270 00d8 07F11007 		add	r7, r7, #16
 3271 00dc BD46     		mov	sp, r7
 3272 00de 80BD     		pop	{r7, pc}
 3273              		.cfi_endproc
 3274              	.LFE67:
 3275              		.size	PWM_Control_3, .-PWM_Control_3
 3276              		.section	.text.PWM_Control_4,"ax",%progbits
 3277              		.align	2
 3278              		.global	PWM_Control_4
 3279              		.thumb
 3280              		.thumb_func
 3281              		.type	PWM_Control_4, %function
 3282              	PWM_Control_4:
 3283              	.LFB68:
 856:.\mem1.c      ****     #endif
 857:.\mem1.c      ****     
 858:.\mem1.c      **** /****************************************************************************************//**
 859:.\mem1.c      **** *  @brief Contains usage scenarios of the fifth PWM component for use by a Master device. 
 860:.\mem1.c      **** *
 861:.\mem1.c      **** *  @param cmd: 8-bit number describing a desired usage of a function associated 
 862:.\mem1.c      **** *              with the fifth PWM component
 863:.\mem1.c      **** *  @param val: 16-bit number containing a value that is to be written to that 
 864:.\mem1.c      **** *              function, or modify the component's operation, if applicable.
 865:.\mem1.c      **** *
 866:.\mem1.c      **** *********************************************************************************************/
 867:.\mem1.c      ****     
ARM GAS  C:\Users\Brian\AppData\Local\Temp\ccHjPWqd.s 			page 74


 868:.\mem1.c      ****      #ifdef CY_PWM_PWM_5_H
 869:.\mem1.c      ****         void PWM_Control_4(uint8 cmd, uint16 val)
 870:.\mem1.c      ****         {
 3284              		.loc 1 870 0
 3285              		.cfi_startproc
 3286              		@ args = 0, pretend = 0, frame = 16
 3287              		@ frame_needed = 1, uses_anonymous_args = 0
 3288 0000 80B5     		push	{r7, lr}
 3289              	.LCFI36:
 3290              		.cfi_def_cfa_offset 8
 3291              		.cfi_offset 7, -8
 3292              		.cfi_offset 14, -4
 3293 0002 84B0     		sub	sp, sp, #16
 3294              	.LCFI37:
 3295              		.cfi_def_cfa_offset 24
 3296 0004 00AF     		add	r7, sp, #0
 3297              	.LCFI38:
 3298              		.cfi_def_cfa_register 7
 3299 0006 0246     		mov	r2, r0
 3300 0008 0B46     		mov	r3, r1
 3301 000a FA71     		strb	r2, [r7, #7]
 3302 000c BB80     		strh	r3, [r7, #4]	@ movhi
 871:.\mem1.c      ****             uint32 result = MAX_32;
 3303              		.loc 1 871 0
 3304 000e 4FF0FF33 		mov	r3, #-1
 3305 0012 FB60     		str	r3, [r7, #12]
 872:.\mem1.c      ****             bool return_flag = 0;
 3306              		.loc 1 872 0
 3307 0014 4FF00003 		mov	r3, #0
 3308 0018 FB72     		strb	r3, [r7, #11]
 873:.\mem1.c      ****             
 874:.\mem1.c      ****             switch(cmd)
 3309              		.loc 1 874 0
 3310 001a FB79     		ldrb	r3, [r7, #7]	@ zero_extendqisi2
 3311 001c 0E2B     		cmp	r3, #14
 3312 001e 2ED0     		beq	.L243
 3313 0020 0E2B     		cmp	r3, #14
 3314 0022 0BDC     		bgt	.L249
 3315 0024 012B     		cmp	r3, #1
 3316 0026 1AD0     		beq	.L240
 3317 0028 012B     		cmp	r3, #1
 3318 002a 02DC     		bgt	.L250
 3319 002c 002B     		cmp	r3, #0
 3320 002e 13D0     		beq	.L239
 3321 0030 4CE0     		b	.L238
 3322              	.L250:
 3323 0032 0C2B     		cmp	r3, #12
 3324 0034 16D0     		beq	.L241
 3325 0036 0D2B     		cmp	r3, #13
 3326 0038 19D0     		beq	.L242
 3327 003a 47E0     		b	.L238
 3328              	.L249:
 3329 003c 192B     		cmp	r3, #25
 3330 003e 2ED0     		beq	.L246
 3331 0040 192B     		cmp	r3, #25
 3332 0042 04DC     		bgt	.L251
 3333 0044 0F2B     		cmp	r3, #15
ARM GAS  C:\Users\Brian\AppData\Local\Temp\ccHjPWqd.s 			page 75


 3334 0046 1FD0     		beq	.L244
 3335 0048 182B     		cmp	r3, #24
 3336 004a 25D0     		beq	.L245
 3337 004c 3EE0     		b	.L238
 3338              	.L251:
 3339 004e 1A2B     		cmp	r3, #26
 3340 0050 28D0     		beq	.L247
 3341 0052 FF2B     		cmp	r3, #255
 3342 0054 29D0     		beq	.L248
 3343 0056 39E0     		b	.L238
 3344              	.L239:
 875:.\mem1.c      ****             {
 876:.\mem1.c      ****                 case 0x00: PWM_5_Start(); break;
 3345              		.loc 1 876 0
 3346 0058 FFF7FEFF 		bl	PWM_5_Start
 3347 005c 36E0     		b	.L238
 3348              	.L240:
 877:.\mem1.c      ****                 case 0x01: PWM_5_Stop(); break;
 3349              		.loc 1 877 0
 3350 005e FFF7FEFF 		bl	PWM_5_Stop
 3351 0062 33E0     		b	.L238
 3352              	.L241:
 878:.\mem1.c      ****                 case 0x0C: PWM_5_WritePeriod(val); break;
 3353              		.loc 1 878 0
 3354 0064 BB88     		ldrh	r3, [r7, #4]
 3355 0066 1846     		mov	r0, r3
 3356 0068 FFF7FEFF 		bl	PWM_5_WritePeriod
 3357 006c 2EE0     		b	.L238
 3358              	.L242:
 879:.\mem1.c      ****                 case 0x0D: result = PWM_5_ReadPeriod(); return_flag = 1; break;
 3359              		.loc 1 879 0
 3360 006e FFF7FEFF 		bl	PWM_5_ReadPeriod
 3361 0072 0346     		mov	r3, r0
 3362 0074 FB60     		str	r3, [r7, #12]
 3363 0076 4FF00103 		mov	r3, #1
 3364 007a FB72     		strb	r3, [r7, #11]
 3365 007c 26E0     		b	.L238
 3366              	.L243:
 880:.\mem1.c      ****                 case 0x0E: PWM_5_WriteCompare(val); break;
 3367              		.loc 1 880 0
 3368 007e BB88     		ldrh	r3, [r7, #4]
 3369 0080 1846     		mov	r0, r3
 3370 0082 FFF7FEFF 		bl	PWM_5_WriteCompare
 3371 0086 21E0     		b	.L238
 3372              	.L244:
 881:.\mem1.c      ****                 case 0x0F: result  = PWM_5_ReadCompare(); return_flag = 1; break;
 3373              		.loc 1 881 0
 3374 0088 FFF7FEFF 		bl	PWM_5_ReadCompare
 3375 008c 0346     		mov	r3, r0
 3376 008e FB60     		str	r3, [r7, #12]
 3377 0090 4FF00103 		mov	r3, #1
 3378 0094 FB72     		strb	r3, [r7, #11]
 3379 0096 19E0     		b	.L238
 3380              	.L245:
 882:.\mem1.c      ****                 //case 0x14: PWM_5_WriteDeadTime(val); break;
 883:.\mem1.c      ****                 //case 0x15: result = PWM_5_ReadDeadTime(); break; 
 884:.\mem1.c      ****                 // 0x16: PWM_5_WriteKillTime(val); break;
ARM GAS  C:\Users\Brian\AppData\Local\Temp\ccHjPWqd.s 			page 76


 885:.\mem1.c      ****                 //case 0x17: result = PWM_5_ReadKillTime(); break; 
 886:.\mem1.c      ****                 case 0x18: PWM_5_ClearFIFO(); break; 
 3381              		.loc 1 886 0
 3382 0098 FFF7FEFF 		bl	PWM_5_ClearFIFO
 3383 009c 16E0     		b	.L238
 3384              	.L246:
 887:.\mem1.c      ****                 case 0x19: PWM_5_Sleep(); break; 
 3385              		.loc 1 887 0
 3386 009e FFF7FEFF 		bl	PWM_5_Sleep
 3387 00a2 13E0     		b	.L238
 3388              	.L247:
 888:.\mem1.c      ****                 case 0x1A: PWM_5_Wakeup(); break; 
 3389              		.loc 1 888 0
 3390 00a4 FFF7FEFF 		bl	PWM_5_Wakeup
 3391 00a8 10E0     		b	.L238
 3392              	.L248:
 889:.\mem1.c      ****                 case 0xFF: PWM_5_6_clk_SetDividerValue(val); result = PWM_5_6_clk_GetDividerRegiste
 3393              		.loc 1 889 0
 3394 00aa BB88     		ldrh	r3, [r7, #4]	@ movhi
 3395 00ac 03F1FF33 		add	r3, r3, #-1
 3396 00b0 9BB2     		uxth	r3, r3
 3397 00b2 1846     		mov	r0, r3
 3398 00b4 4FF00101 		mov	r1, #1
 3399 00b8 FFF7FEFF 		bl	PWM_5_6_clk_SetDividerRegister
 3400 00bc FFF7FEFF 		bl	PWM_5_6_clk_GetDividerRegister
 3401 00c0 0346     		mov	r3, r0
 3402 00c2 FB60     		str	r3, [r7, #12]
 3403 00c4 4FF00103 		mov	r3, #1
 3404 00c8 FB72     		strb	r3, [r7, #11]
 3405 00ca 00BF     		nop
 3406              	.L238:
 890:.\mem1.c      ****                 
 891:.\mem1.c      ****             }
 892:.\mem1.c      ****             
 893:.\mem1.c      ****             if (return_flag)
 3407              		.loc 1 893 0
 3408 00cc FB7A     		ldrb	r3, [r7, #11]	@ zero_extendqisi2
 3409 00ce 002B     		cmp	r3, #0
 3410 00d0 02D0     		beq	.L237
 894:.\mem1.c      ****                 {
 895:.\mem1.c      ****                     WriteTo_Pi(result);
 3411              		.loc 1 895 0
 3412 00d2 F868     		ldr	r0, [r7, #12]
 3413 00d4 FFF7FEFF 		bl	WriteTo_Pi
 3414              	.L237:
 896:.\mem1.c      ****                 } 
 897:.\mem1.c      ****         }
 3415              		.loc 1 897 0
 3416 00d8 07F11007 		add	r7, r7, #16
 3417 00dc BD46     		mov	sp, r7
 3418 00de 80BD     		pop	{r7, pc}
 3419              		.cfi_endproc
 3420              	.LFE68:
 3421              		.size	PWM_Control_4, .-PWM_Control_4
 3422              		.section	.text.PWM_Control_5,"ax",%progbits
 3423              		.align	2
 3424              		.global	PWM_Control_5
ARM GAS  C:\Users\Brian\AppData\Local\Temp\ccHjPWqd.s 			page 77


 3425              		.thumb
 3426              		.thumb_func
 3427              		.type	PWM_Control_5, %function
 3428              	PWM_Control_5:
 3429              	.LFB69:
 898:.\mem1.c      ****     #endif
 899:.\mem1.c      ****     
 900:.\mem1.c      **** /****************************************************************************************//**
 901:.\mem1.c      **** *  @brief Contains usage scenarios of the sixth PWM component for use by a Master device. 
 902:.\mem1.c      **** *
 903:.\mem1.c      **** *  @param cmd: 8-bit number describing a desired usage of a function associated 
 904:.\mem1.c      **** *              with the sixth PWM component
 905:.\mem1.c      **** *  @param val: 16-bit number containing a value that is to be written to that 
 906:.\mem1.c      **** *              function, or modify the component's operation, if applicable.
 907:.\mem1.c      **** *
 908:.\mem1.c      **** *********************************************************************************************/
 909:.\mem1.c      ****     
 910:.\mem1.c      ****      #ifdef CY_PWM_PWM_6_H
 911:.\mem1.c      ****         void PWM_Control_5(uint8 cmd, uint16 val)
 912:.\mem1.c      ****         {
 3430              		.loc 1 912 0
 3431              		.cfi_startproc
 3432              		@ args = 0, pretend = 0, frame = 16
 3433              		@ frame_needed = 1, uses_anonymous_args = 0
 3434 0000 80B5     		push	{r7, lr}
 3435              	.LCFI39:
 3436              		.cfi_def_cfa_offset 8
 3437              		.cfi_offset 7, -8
 3438              		.cfi_offset 14, -4
 3439 0002 84B0     		sub	sp, sp, #16
 3440              	.LCFI40:
 3441              		.cfi_def_cfa_offset 24
 3442 0004 00AF     		add	r7, sp, #0
 3443              	.LCFI41:
 3444              		.cfi_def_cfa_register 7
 3445 0006 0246     		mov	r2, r0
 3446 0008 0B46     		mov	r3, r1
 3447 000a FA71     		strb	r2, [r7, #7]
 3448 000c BB80     		strh	r3, [r7, #4]	@ movhi
 913:.\mem1.c      ****             uint32 result = MAX_32;
 3449              		.loc 1 913 0
 3450 000e 4FF0FF33 		mov	r3, #-1
 3451 0012 FB60     		str	r3, [r7, #12]
 914:.\mem1.c      ****             bool return_flag = 0;
 3452              		.loc 1 914 0
 3453 0014 4FF00003 		mov	r3, #0
 3454 0018 FB72     		strb	r3, [r7, #11]
 915:.\mem1.c      ****             
 916:.\mem1.c      ****             switch(cmd)
 3455              		.loc 1 916 0
 3456 001a FB79     		ldrb	r3, [r7, #7]	@ zero_extendqisi2
 3457 001c 0E2B     		cmp	r3, #14
 3458 001e 2ED0     		beq	.L259
 3459 0020 0E2B     		cmp	r3, #14
 3460 0022 0BDC     		bgt	.L265
 3461 0024 012B     		cmp	r3, #1
 3462 0026 1AD0     		beq	.L256
ARM GAS  C:\Users\Brian\AppData\Local\Temp\ccHjPWqd.s 			page 78


 3463 0028 012B     		cmp	r3, #1
 3464 002a 02DC     		bgt	.L266
 3465 002c 002B     		cmp	r3, #0
 3466 002e 13D0     		beq	.L255
 3467 0030 4CE0     		b	.L254
 3468              	.L266:
 3469 0032 0C2B     		cmp	r3, #12
 3470 0034 16D0     		beq	.L257
 3471 0036 0D2B     		cmp	r3, #13
 3472 0038 19D0     		beq	.L258
 3473 003a 47E0     		b	.L254
 3474              	.L265:
 3475 003c 192B     		cmp	r3, #25
 3476 003e 2ED0     		beq	.L262
 3477 0040 192B     		cmp	r3, #25
 3478 0042 04DC     		bgt	.L267
 3479 0044 0F2B     		cmp	r3, #15
 3480 0046 1FD0     		beq	.L260
 3481 0048 182B     		cmp	r3, #24
 3482 004a 25D0     		beq	.L261
 3483 004c 3EE0     		b	.L254
 3484              	.L267:
 3485 004e 1A2B     		cmp	r3, #26
 3486 0050 28D0     		beq	.L263
 3487 0052 FF2B     		cmp	r3, #255
 3488 0054 29D0     		beq	.L264
 3489 0056 39E0     		b	.L254
 3490              	.L255:
 917:.\mem1.c      ****             {
 918:.\mem1.c      ****                 case 0x00: PWM_6_Start(); break;
 3491              		.loc 1 918 0
 3492 0058 FFF7FEFF 		bl	PWM_6_Start
 3493 005c 36E0     		b	.L254
 3494              	.L256:
 919:.\mem1.c      ****                 case 0x01: PWM_6_Stop(); break;
 3495              		.loc 1 919 0
 3496 005e FFF7FEFF 		bl	PWM_6_Stop
 3497 0062 33E0     		b	.L254
 3498              	.L257:
 920:.\mem1.c      ****                 case 0x0C: PWM_6_WritePeriod(val); break;
 3499              		.loc 1 920 0
 3500 0064 BB88     		ldrh	r3, [r7, #4]
 3501 0066 1846     		mov	r0, r3
 3502 0068 FFF7FEFF 		bl	PWM_6_WritePeriod
 3503 006c 2EE0     		b	.L254
 3504              	.L258:
 921:.\mem1.c      ****                 case 0x0D: result = PWM_6_ReadPeriod(); return_flag = 1; break;
 3505              		.loc 1 921 0
 3506 006e FFF7FEFF 		bl	PWM_6_ReadPeriod
 3507 0072 0346     		mov	r3, r0
 3508 0074 FB60     		str	r3, [r7, #12]
 3509 0076 4FF00103 		mov	r3, #1
 3510 007a FB72     		strb	r3, [r7, #11]
 3511 007c 26E0     		b	.L254
 3512              	.L259:
 922:.\mem1.c      ****                 case 0x0E: PWM_6_WriteCompare(val); break;
 3513              		.loc 1 922 0
ARM GAS  C:\Users\Brian\AppData\Local\Temp\ccHjPWqd.s 			page 79


 3514 007e BB88     		ldrh	r3, [r7, #4]
 3515 0080 1846     		mov	r0, r3
 3516 0082 FFF7FEFF 		bl	PWM_6_WriteCompare
 3517 0086 21E0     		b	.L254
 3518              	.L260:
 923:.\mem1.c      ****                 case 0x0F: result  = PWM_6_ReadCompare(); return_flag = 1; break;
 3519              		.loc 1 923 0
 3520 0088 FFF7FEFF 		bl	PWM_6_ReadCompare
 3521 008c 0346     		mov	r3, r0
 3522 008e FB60     		str	r3, [r7, #12]
 3523 0090 4FF00103 		mov	r3, #1
 3524 0094 FB72     		strb	r3, [r7, #11]
 3525 0096 19E0     		b	.L254
 3526              	.L261:
 924:.\mem1.c      ****                 //case 0x14: PWM_6_WriteDeadTime(val); break;
 925:.\mem1.c      ****                 //case 0x15: result = PWM_6_ReadDeadTime(); break; 
 926:.\mem1.c      ****                 // 0x16: PWM_6_WriteKillTime(val); break;
 927:.\mem1.c      ****                 //case 0x17: result = PWM_6_ReadKillTime(); break; 
 928:.\mem1.c      ****                 case 0x18: PWM_6_ClearFIFO(); break; 
 3527              		.loc 1 928 0
 3528 0098 FFF7FEFF 		bl	PWM_6_ClearFIFO
 3529 009c 16E0     		b	.L254
 3530              	.L262:
 929:.\mem1.c      ****                 case 0x19: PWM_6_Sleep(); break; 
 3531              		.loc 1 929 0
 3532 009e FFF7FEFF 		bl	PWM_6_Sleep
 3533 00a2 13E0     		b	.L254
 3534              	.L263:
 930:.\mem1.c      ****                 case 0x1A: PWM_6_Wakeup(); break; 
 3535              		.loc 1 930 0
 3536 00a4 FFF7FEFF 		bl	PWM_6_Wakeup
 3537 00a8 10E0     		b	.L254
 3538              	.L264:
 931:.\mem1.c      ****                 case 0xFF: PWM_5_6_clk_SetDividerValue(val); result = PWM_5_6_clk_GetDividerRegiste
 3539              		.loc 1 931 0
 3540 00aa BB88     		ldrh	r3, [r7, #4]	@ movhi
 3541 00ac 03F1FF33 		add	r3, r3, #-1
 3542 00b0 9BB2     		uxth	r3, r3
 3543 00b2 1846     		mov	r0, r3
 3544 00b4 4FF00101 		mov	r1, #1
 3545 00b8 FFF7FEFF 		bl	PWM_5_6_clk_SetDividerRegister
 3546 00bc FFF7FEFF 		bl	PWM_5_6_clk_GetDividerRegister
 3547 00c0 0346     		mov	r3, r0
 3548 00c2 FB60     		str	r3, [r7, #12]
 3549 00c4 4FF00103 		mov	r3, #1
 3550 00c8 FB72     		strb	r3, [r7, #11]
 3551 00ca 00BF     		nop
 3552              	.L254:
 932:.\mem1.c      ****             }
 933:.\mem1.c      ****             
 934:.\mem1.c      ****             if (return_flag)
 3553              		.loc 1 934 0
 3554 00cc FB7A     		ldrb	r3, [r7, #11]	@ zero_extendqisi2
 3555 00ce 002B     		cmp	r3, #0
 3556 00d0 02D0     		beq	.L253
 935:.\mem1.c      ****                 {
 936:.\mem1.c      ****                     WriteTo_Pi(result);
ARM GAS  C:\Users\Brian\AppData\Local\Temp\ccHjPWqd.s 			page 80


 3557              		.loc 1 936 0
 3558 00d2 F868     		ldr	r0, [r7, #12]
 3559 00d4 FFF7FEFF 		bl	WriteTo_Pi
 3560              	.L253:
 937:.\mem1.c      ****                 } 
 938:.\mem1.c      ****         }
 3561              		.loc 1 938 0
 3562 00d8 07F11007 		add	r7, r7, #16
 3563 00dc BD46     		mov	sp, r7
 3564 00de 80BD     		pop	{r7, pc}
 3565              		.cfi_endproc
 3566              	.LFE69:
 3567              		.size	PWM_Control_5, .-PWM_Control_5
 3568              		.section	.text.PWM_Control_6,"ax",%progbits
 3569              		.align	2
 3570              		.global	PWM_Control_6
 3571              		.thumb
 3572              		.thumb_func
 3573              		.type	PWM_Control_6, %function
 3574              	PWM_Control_6:
 3575              	.LFB70:
 939:.\mem1.c      ****         
 940:.\mem1.c      ****     #endif
 941:.\mem1.c      ****  /****************************************************************************************//**
 942:.\mem1.c      **** *  @brief Contains usage scenarios of the seventh PWM component for use by a Master device. 
 943:.\mem1.c      **** *
 944:.\mem1.c      **** *  @param cmd: 8-bit number describing a desired usage of a function associated 
 945:.\mem1.c      **** *              with the seventh PWM component
 946:.\mem1.c      **** *  @param val: 16-bit number containing a value that is to be written to that 
 947:.\mem1.c      **** *              function, or modify the component's operation, if applicable.
 948:.\mem1.c      **** *
 949:.\mem1.c      **** *********************************************************************************************/
 950:.\mem1.c      ****     
 951:.\mem1.c      ****      #ifdef CY_PWM_PWM_7_H
 952:.\mem1.c      ****         void PWM_Control_6(uint8 cmd, uint16 val)
 953:.\mem1.c      ****         {
 3576              		.loc 1 953 0
 3577              		.cfi_startproc
 3578              		@ args = 0, pretend = 0, frame = 16
 3579              		@ frame_needed = 1, uses_anonymous_args = 0
 3580 0000 80B5     		push	{r7, lr}
 3581              	.LCFI42:
 3582              		.cfi_def_cfa_offset 8
 3583              		.cfi_offset 7, -8
 3584              		.cfi_offset 14, -4
 3585 0002 84B0     		sub	sp, sp, #16
 3586              	.LCFI43:
 3587              		.cfi_def_cfa_offset 24
 3588 0004 00AF     		add	r7, sp, #0
 3589              	.LCFI44:
 3590              		.cfi_def_cfa_register 7
 3591 0006 0246     		mov	r2, r0
 3592 0008 0B46     		mov	r3, r1
 3593 000a FA71     		strb	r2, [r7, #7]
 3594 000c BB80     		strh	r3, [r7, #4]	@ movhi
 954:.\mem1.c      ****             uint32 result = MAX_32;
 3595              		.loc 1 954 0
ARM GAS  C:\Users\Brian\AppData\Local\Temp\ccHjPWqd.s 			page 81


 3596 000e 4FF0FF33 		mov	r3, #-1
 3597 0012 FB60     		str	r3, [r7, #12]
 955:.\mem1.c      ****             bool return_flag = 0;
 3598              		.loc 1 955 0
 3599 0014 4FF00003 		mov	r3, #0
 3600 0018 FB72     		strb	r3, [r7, #11]
 956:.\mem1.c      ****             
 957:.\mem1.c      ****             switch(cmd)
 3601              		.loc 1 957 0
 3602 001a FB79     		ldrb	r3, [r7, #7]	@ zero_extendqisi2
 3603 001c 0E2B     		cmp	r3, #14
 3604 001e 2ED0     		beq	.L275
 3605 0020 0E2B     		cmp	r3, #14
 3606 0022 0BDC     		bgt	.L281
 3607 0024 012B     		cmp	r3, #1
 3608 0026 1AD0     		beq	.L272
 3609 0028 012B     		cmp	r3, #1
 3610 002a 02DC     		bgt	.L282
 3611 002c 002B     		cmp	r3, #0
 3612 002e 13D0     		beq	.L271
 3613 0030 4CE0     		b	.L270
 3614              	.L282:
 3615 0032 0C2B     		cmp	r3, #12
 3616 0034 16D0     		beq	.L273
 3617 0036 0D2B     		cmp	r3, #13
 3618 0038 19D0     		beq	.L274
 3619 003a 47E0     		b	.L270
 3620              	.L281:
 3621 003c 192B     		cmp	r3, #25
 3622 003e 2ED0     		beq	.L278
 3623 0040 192B     		cmp	r3, #25
 3624 0042 04DC     		bgt	.L283
 3625 0044 0F2B     		cmp	r3, #15
 3626 0046 1FD0     		beq	.L276
 3627 0048 182B     		cmp	r3, #24
 3628 004a 25D0     		beq	.L277
 3629 004c 3EE0     		b	.L270
 3630              	.L283:
 3631 004e 1A2B     		cmp	r3, #26
 3632 0050 28D0     		beq	.L279
 3633 0052 FF2B     		cmp	r3, #255
 3634 0054 29D0     		beq	.L280
 3635 0056 39E0     		b	.L270
 3636              	.L271:
 958:.\mem1.c      ****             {
 959:.\mem1.c      ****                 case 0x00: PWM_7_Start(); break;
 3637              		.loc 1 959 0
 3638 0058 FFF7FEFF 		bl	PWM_7_Start
 3639 005c 36E0     		b	.L270
 3640              	.L272:
 960:.\mem1.c      ****                 case 0x01: PWM_7_Stop(); break;
 3641              		.loc 1 960 0
 3642 005e FFF7FEFF 		bl	PWM_7_Stop
 3643 0062 33E0     		b	.L270
 3644              	.L273:
 961:.\mem1.c      ****                 case 0x0C: PWM_7_WritePeriod(val); break;
 3645              		.loc 1 961 0
ARM GAS  C:\Users\Brian\AppData\Local\Temp\ccHjPWqd.s 			page 82


 3646 0064 BB88     		ldrh	r3, [r7, #4]
 3647 0066 1846     		mov	r0, r3
 3648 0068 FFF7FEFF 		bl	PWM_7_WritePeriod
 3649 006c 2EE0     		b	.L270
 3650              	.L274:
 962:.\mem1.c      ****                 case 0x0D: result = PWM_7_ReadPeriod(); return_flag = 1; break;
 3651              		.loc 1 962 0
 3652 006e FFF7FEFF 		bl	PWM_7_ReadPeriod
 3653 0072 0346     		mov	r3, r0
 3654 0074 FB60     		str	r3, [r7, #12]
 3655 0076 4FF00103 		mov	r3, #1
 3656 007a FB72     		strb	r3, [r7, #11]
 3657 007c 26E0     		b	.L270
 3658              	.L275:
 963:.\mem1.c      ****                 case 0x0E: PWM_7_WriteCompare(val); break;
 3659              		.loc 1 963 0
 3660 007e BB88     		ldrh	r3, [r7, #4]
 3661 0080 1846     		mov	r0, r3
 3662 0082 FFF7FEFF 		bl	PWM_7_WriteCompare
 3663 0086 21E0     		b	.L270
 3664              	.L276:
 964:.\mem1.c      ****                 case 0x0F: result  = PWM_7_ReadCompare(); return_flag = 1; break;
 3665              		.loc 1 964 0
 3666 0088 FFF7FEFF 		bl	PWM_7_ReadCompare
 3667 008c 0346     		mov	r3, r0
 3668 008e FB60     		str	r3, [r7, #12]
 3669 0090 4FF00103 		mov	r3, #1
 3670 0094 FB72     		strb	r3, [r7, #11]
 3671 0096 19E0     		b	.L270
 3672              	.L277:
 965:.\mem1.c      ****                 //case 0x14: PWM_7_WriteDeadTime(val); break;
 966:.\mem1.c      ****                 //case 0x15: result = PWM_7_ReadDeadTime(); break; 
 967:.\mem1.c      ****                 // 0x16: PWM_7_WriteKillTime(val); break;
 968:.\mem1.c      ****                 //case 0x17: result = PWM_7_ReadKillTime(); break; 
 969:.\mem1.c      ****                 case 0x18: PWM_7_ClearFIFO(); break; 
 3673              		.loc 1 969 0
 3674 0098 FFF7FEFF 		bl	PWM_7_ClearFIFO
 3675 009c 16E0     		b	.L270
 3676              	.L278:
 970:.\mem1.c      ****                 case 0x19: PWM_7_Sleep(); break; 
 3677              		.loc 1 970 0
 3678 009e FFF7FEFF 		bl	PWM_7_Sleep
 3679 00a2 13E0     		b	.L270
 3680              	.L279:
 971:.\mem1.c      ****                 case 0x1A: PWM_7_Wakeup(); break; 
 3681              		.loc 1 971 0
 3682 00a4 FFF7FEFF 		bl	PWM_7_Wakeup
 3683 00a8 10E0     		b	.L270
 3684              	.L280:
 972:.\mem1.c      ****                 case 0xFF: PWM_7_8_clk_SetDividerValue(val); result = PWM_7_8_clk_GetDividerRegiste
 3685              		.loc 1 972 0
 3686 00aa BB88     		ldrh	r3, [r7, #4]	@ movhi
 3687 00ac 03F1FF33 		add	r3, r3, #-1
 3688 00b0 9BB2     		uxth	r3, r3
 3689 00b2 1846     		mov	r0, r3
 3690 00b4 4FF00101 		mov	r1, #1
 3691 00b8 FFF7FEFF 		bl	PWM_7_8_clk_SetDividerRegister
ARM GAS  C:\Users\Brian\AppData\Local\Temp\ccHjPWqd.s 			page 83


 3692 00bc FFF7FEFF 		bl	PWM_7_8_clk_GetDividerRegister
 3693 00c0 0346     		mov	r3, r0
 3694 00c2 FB60     		str	r3, [r7, #12]
 3695 00c4 4FF00103 		mov	r3, #1
 3696 00c8 FB72     		strb	r3, [r7, #11]
 3697 00ca 00BF     		nop
 3698              	.L270:
 973:.\mem1.c      ****             }
 974:.\mem1.c      ****             
 975:.\mem1.c      ****             if (return_flag)
 3699              		.loc 1 975 0
 3700 00cc FB7A     		ldrb	r3, [r7, #11]	@ zero_extendqisi2
 3701 00ce 002B     		cmp	r3, #0
 3702 00d0 02D0     		beq	.L269
 976:.\mem1.c      ****                 {
 977:.\mem1.c      ****                     WriteTo_Pi(result);
 3703              		.loc 1 977 0
 3704 00d2 F868     		ldr	r0, [r7, #12]
 3705 00d4 FFF7FEFF 		bl	WriteTo_Pi
 3706              	.L269:
 978:.\mem1.c      ****                 }
 979:.\mem1.c      ****         }
 3707              		.loc 1 979 0
 3708 00d8 07F11007 		add	r7, r7, #16
 3709 00dc BD46     		mov	sp, r7
 3710 00de 80BD     		pop	{r7, pc}
 3711              		.cfi_endproc
 3712              	.LFE70:
 3713              		.size	PWM_Control_6, .-PWM_Control_6
 3714              		.section	.text.PWM_Control_7,"ax",%progbits
 3715              		.align	2
 3716              		.global	PWM_Control_7
 3717              		.thumb
 3718              		.thumb_func
 3719              		.type	PWM_Control_7, %function
 3720              	PWM_Control_7:
 3721              	.LFB71:
 980:.\mem1.c      ****     #endif
 981:.\mem1.c      **** /****************************************************************************************//**
 982:.\mem1.c      **** *  @brief Contains usage scenarios of the eighth PWM component for use by a Master device. 
 983:.\mem1.c      **** *
 984:.\mem1.c      **** *  @param cmd: 8-bit number describing a desired usage of a function associated 
 985:.\mem1.c      **** *              with the eighth PWM component
 986:.\mem1.c      **** *  @param val: 16-bit number containing a value that is to be written to that 
 987:.\mem1.c      **** *              function, or modify the component's operation, if applicable.
 988:.\mem1.c      **** *
 989:.\mem1.c      **** *********************************************************************************************/
 990:.\mem1.c      ****      #ifdef CY_PWM_PWM_8_H
 991:.\mem1.c      ****         void PWM_Control_7(uint8 cmd, uint16 val)
 992:.\mem1.c      ****         {
 3722              		.loc 1 992 0
 3723              		.cfi_startproc
 3724              		@ args = 0, pretend = 0, frame = 16
 3725              		@ frame_needed = 1, uses_anonymous_args = 0
 3726 0000 80B5     		push	{r7, lr}
 3727              	.LCFI45:
 3728              		.cfi_def_cfa_offset 8
ARM GAS  C:\Users\Brian\AppData\Local\Temp\ccHjPWqd.s 			page 84


 3729              		.cfi_offset 7, -8
 3730              		.cfi_offset 14, -4
 3731 0002 84B0     		sub	sp, sp, #16
 3732              	.LCFI46:
 3733              		.cfi_def_cfa_offset 24
 3734 0004 00AF     		add	r7, sp, #0
 3735              	.LCFI47:
 3736              		.cfi_def_cfa_register 7
 3737 0006 0246     		mov	r2, r0
 3738 0008 0B46     		mov	r3, r1
 3739 000a FA71     		strb	r2, [r7, #7]
 3740 000c BB80     		strh	r3, [r7, #4]	@ movhi
 993:.\mem1.c      ****             uint32 result = MAX_32;
 3741              		.loc 1 993 0
 3742 000e 4FF0FF33 		mov	r3, #-1
 3743 0012 FB60     		str	r3, [r7, #12]
 994:.\mem1.c      ****             bool return_flag = 0;
 3744              		.loc 1 994 0
 3745 0014 4FF00003 		mov	r3, #0
 3746 0018 FB72     		strb	r3, [r7, #11]
 995:.\mem1.c      ****             
 996:.\mem1.c      ****             switch(cmd)
 3747              		.loc 1 996 0
 3748 001a FB79     		ldrb	r3, [r7, #7]	@ zero_extendqisi2
 3749 001c 0E2B     		cmp	r3, #14
 3750 001e 2ED0     		beq	.L291
 3751 0020 0E2B     		cmp	r3, #14
 3752 0022 0BDC     		bgt	.L297
 3753 0024 012B     		cmp	r3, #1
 3754 0026 1AD0     		beq	.L288
 3755 0028 012B     		cmp	r3, #1
 3756 002a 02DC     		bgt	.L298
 3757 002c 002B     		cmp	r3, #0
 3758 002e 13D0     		beq	.L287
 3759 0030 4CE0     		b	.L286
 3760              	.L298:
 3761 0032 0C2B     		cmp	r3, #12
 3762 0034 16D0     		beq	.L289
 3763 0036 0D2B     		cmp	r3, #13
 3764 0038 19D0     		beq	.L290
 3765 003a 47E0     		b	.L286
 3766              	.L297:
 3767 003c 192B     		cmp	r3, #25
 3768 003e 2ED0     		beq	.L294
 3769 0040 192B     		cmp	r3, #25
 3770 0042 04DC     		bgt	.L299
 3771 0044 0F2B     		cmp	r3, #15
 3772 0046 1FD0     		beq	.L292
 3773 0048 182B     		cmp	r3, #24
 3774 004a 25D0     		beq	.L293
 3775 004c 3EE0     		b	.L286
 3776              	.L299:
 3777 004e 1A2B     		cmp	r3, #26
 3778 0050 28D0     		beq	.L295
 3779 0052 FF2B     		cmp	r3, #255
 3780 0054 29D0     		beq	.L296
 3781 0056 39E0     		b	.L286
ARM GAS  C:\Users\Brian\AppData\Local\Temp\ccHjPWqd.s 			page 85


 3782              	.L287:
 997:.\mem1.c      ****             {
 998:.\mem1.c      ****                 case 0x00: PWM_8_Start(); break;
 3783              		.loc 1 998 0
 3784 0058 FFF7FEFF 		bl	PWM_8_Start
 3785 005c 36E0     		b	.L286
 3786              	.L288:
 999:.\mem1.c      ****                 case 0x01: PWM_8_Stop(); break;
 3787              		.loc 1 999 0
 3788 005e FFF7FEFF 		bl	PWM_8_Stop
 3789 0062 33E0     		b	.L286
 3790              	.L289:
1000:.\mem1.c      ****                 case 0x0C: PWM_8_WritePeriod(val); break;
 3791              		.loc 1 1000 0
 3792 0064 BB88     		ldrh	r3, [r7, #4]
 3793 0066 1846     		mov	r0, r3
 3794 0068 FFF7FEFF 		bl	PWM_8_WritePeriod
 3795 006c 2EE0     		b	.L286
 3796              	.L290:
1001:.\mem1.c      ****                 case 0x0D: result = PWM_8_ReadPeriod(); return_flag = 1; break;
 3797              		.loc 1 1001 0
 3798 006e FFF7FEFF 		bl	PWM_8_ReadPeriod
 3799 0072 0346     		mov	r3, r0
 3800 0074 FB60     		str	r3, [r7, #12]
 3801 0076 4FF00103 		mov	r3, #1
 3802 007a FB72     		strb	r3, [r7, #11]
 3803 007c 26E0     		b	.L286
 3804              	.L291:
1002:.\mem1.c      ****                 case 0x0E: PWM_8_WriteCompare(val); break;
 3805              		.loc 1 1002 0
 3806 007e BB88     		ldrh	r3, [r7, #4]
 3807 0080 1846     		mov	r0, r3
 3808 0082 FFF7FEFF 		bl	PWM_8_WriteCompare
 3809 0086 21E0     		b	.L286
 3810              	.L292:
1003:.\mem1.c      ****                 case 0x0F: result  = PWM_8_ReadCompare(); return_flag = 1; break;
 3811              		.loc 1 1003 0
 3812 0088 FFF7FEFF 		bl	PWM_8_ReadCompare
 3813 008c 0346     		mov	r3, r0
 3814 008e FB60     		str	r3, [r7, #12]
 3815 0090 4FF00103 		mov	r3, #1
 3816 0094 FB72     		strb	r3, [r7, #11]
 3817 0096 19E0     		b	.L286
 3818              	.L293:
1004:.\mem1.c      ****                 //case 0x14: PWM_8_WriteDeadTime(val); break;
1005:.\mem1.c      ****                 //case 0x15: result = PWM_8_ReadDeadTime(); break; 
1006:.\mem1.c      ****                 // 0x16: PWM_8_WriteKillTime(val); break;
1007:.\mem1.c      ****                 //case 0x17: result = PWM_8_ReadKillTime(); break; 
1008:.\mem1.c      ****                 case 0x18: PWM_8_ClearFIFO(); break; 
 3819              		.loc 1 1008 0
 3820 0098 FFF7FEFF 		bl	PWM_8_ClearFIFO
 3821 009c 16E0     		b	.L286
 3822              	.L294:
1009:.\mem1.c      ****                 case 0x19: PWM_8_Sleep(); break; 
 3823              		.loc 1 1009 0
 3824 009e FFF7FEFF 		bl	PWM_8_Sleep
 3825 00a2 13E0     		b	.L286
ARM GAS  C:\Users\Brian\AppData\Local\Temp\ccHjPWqd.s 			page 86


 3826              	.L295:
1010:.\mem1.c      ****                 case 0x1A: PWM_8_Wakeup(); break;
 3827              		.loc 1 1010 0
 3828 00a4 FFF7FEFF 		bl	PWM_8_Wakeup
 3829 00a8 10E0     		b	.L286
 3830              	.L296:
1011:.\mem1.c      ****                 case 0xFF: PWM_7_8_clk_SetDividerValue(val); result = PWM_7_8_clk_GetDividerRegiste
 3831              		.loc 1 1011 0
 3832 00aa BB88     		ldrh	r3, [r7, #4]	@ movhi
 3833 00ac 03F1FF33 		add	r3, r3, #-1
 3834 00b0 9BB2     		uxth	r3, r3
 3835 00b2 1846     		mov	r0, r3
 3836 00b4 4FF00101 		mov	r1, #1
 3837 00b8 FFF7FEFF 		bl	PWM_7_8_clk_SetDividerRegister
 3838 00bc FFF7FEFF 		bl	PWM_7_8_clk_GetDividerRegister
 3839 00c0 0346     		mov	r3, r0
 3840 00c2 FB60     		str	r3, [r7, #12]
 3841 00c4 4FF00103 		mov	r3, #1
 3842 00c8 FB72     		strb	r3, [r7, #11]
 3843 00ca 00BF     		nop
 3844              	.L286:
1012:.\mem1.c      ****             }
1013:.\mem1.c      ****             
1014:.\mem1.c      ****             if (return_flag)
 3845              		.loc 1 1014 0
 3846 00cc FB7A     		ldrb	r3, [r7, #11]	@ zero_extendqisi2
 3847 00ce 002B     		cmp	r3, #0
 3848 00d0 02D0     		beq	.L285
1015:.\mem1.c      ****                 {
1016:.\mem1.c      ****                     WriteTo_Pi(result);
 3849              		.loc 1 1016 0
 3850 00d2 F868     		ldr	r0, [r7, #12]
 3851 00d4 FFF7FEFF 		bl	WriteTo_Pi
 3852              	.L285:
1017:.\mem1.c      ****                 }
1018:.\mem1.c      ****         }
 3853              		.loc 1 1018 0
 3854 00d8 07F11007 		add	r7, r7, #16
 3855 00dc BD46     		mov	sp, r7
 3856 00de 80BD     		pop	{r7, pc}
 3857              		.cfi_endproc
 3858              	.LFE71:
 3859              		.size	PWM_Control_7, .-PWM_Control_7
 3860              		.section	.text.GPIO_Control,"ax",%progbits
 3861              		.align	2
 3862              		.global	GPIO_Control
 3863              		.thumb
 3864              		.thumb_func
 3865              		.type	GPIO_Control, %function
 3866              	GPIO_Control:
 3867              	.LFB72:
1019:.\mem1.c      ****     #endif
1020:.\mem1.c      ****     
1021:.\mem1.c      ****     void GPIO_Control(uint8 cmd, uint16 dat)
1022:.\mem1.c      ****     {
 3868              		.loc 1 1022 0
 3869              		.cfi_startproc
ARM GAS  C:\Users\Brian\AppData\Local\Temp\ccHjPWqd.s 			page 87


 3870              		@ args = 0, pretend = 0, frame = 24
 3871              		@ frame_needed = 1, uses_anonymous_args = 0
 3872 0000 80B5     		push	{r7, lr}
 3873              	.LCFI48:
 3874              		.cfi_def_cfa_offset 8
 3875              		.cfi_offset 7, -8
 3876              		.cfi_offset 14, -4
 3877 0002 86B0     		sub	sp, sp, #24
 3878              	.LCFI49:
 3879              		.cfi_def_cfa_offset 32
 3880 0004 00AF     		add	r7, sp, #0
 3881              	.LCFI50:
 3882              		.cfi_def_cfa_register 7
 3883 0006 0246     		mov	r2, r0
 3884 0008 0B46     		mov	r3, r1
 3885 000a FA71     		strb	r2, [r7, #7]
 3886 000c BB80     		strh	r3, [r7, #4]	@ movhi
1023:.\mem1.c      ****         uint8 val = dat&0x0001;
 3887              		.loc 1 1023 0
 3888 000e BB88     		ldrh	r3, [r7, #4]	@ movhi
 3889 0010 DBB2     		uxtb	r3, r3
 3890 0012 03F00103 		and	r3, r3, #1
 3891 0016 3B73     		strb	r3, [r7, #12]
1024:.\mem1.c      ****         uint8 pin = (dat>>1)&0x0007;
 3892              		.loc 1 1024 0
 3893 0018 BB88     		ldrh	r3, [r7, #4]
 3894 001a 4FEA5303 		lsr	r3, r3, #1
 3895 001e 9BB2     		uxth	r3, r3
 3896 0020 DBB2     		uxtb	r3, r3
 3897 0022 03F00703 		and	r3, r3, #7
 3898 0026 FB72     		strb	r3, [r7, #11]
1025:.\mem1.c      ****         uint8 port = (dat>>4)&0x000F;
 3899              		.loc 1 1025 0
 3900 0028 BB88     		ldrh	r3, [r7, #4]
 3901 002a 4FEA1313 		lsr	r3, r3, #4
 3902 002e 9BB2     		uxth	r3, r3
 3903 0030 DBB2     		uxtb	r3, r3
 3904 0032 03F00F03 		and	r3, r3, #15
 3905 0036 BB72     		strb	r3, [r7, #10]
1026:.\mem1.c      ****         uint8 config = (dat>>8)&0x000F;
 3906              		.loc 1 1026 0
 3907 0038 BB88     		ldrh	r3, [r7, #4]
 3908 003a 4FEA1323 		lsr	r3, r3, #8
 3909 003e 9BB2     		uxth	r3, r3
 3910 0040 DBB2     		uxtb	r3, r3
 3911 0042 03F00F03 		and	r3, r3, #15
 3912 0046 7B72     		strb	r3, [r7, #9]
1027:.\mem1.c      ****         
1028:.\mem1.c      ****         uint16 config_MASK = 0x00;
 3913              		.loc 1 1028 0
 3914 0048 4FF00003 		mov	r3, #0
 3915 004c FB82     		strh	r3, [r7, #22]	@ movhi
1029:.\mem1.c      ****         
1030:.\mem1.c      ****         uint32 result = MAX_32; 
 3916              		.loc 1 1030 0
 3917 004e 4FF0FF33 		mov	r3, #-1
 3918 0052 3B61     		str	r3, [r7, #16]
ARM GAS  C:\Users\Brian\AppData\Local\Temp\ccHjPWqd.s 			page 88


1031:.\mem1.c      ****         bool return_flag = 0;
 3919              		.loc 1 1031 0
 3920 0054 4FF00003 		mov	r3, #0
 3921 0058 FB73     		strb	r3, [r7, #15]
1032:.\mem1.c      ****         uint8 new_reg_status = 0;
 3922              		.loc 1 1032 0
 3923 005a 4FF00003 		mov	r3, #0
 3924 005e BB73     		strb	r3, [r7, #14]
1033:.\mem1.c      ****         uint8 prev_reg_status = 0;
 3925              		.loc 1 1033 0
 3926 0060 4FF00003 		mov	r3, #0
 3927 0064 7B73     		strb	r3, [r7, #13]
1034:.\mem1.c      ****         
1035:.\mem1.c      ****         switch(cmd)
 3928              		.loc 1 1035 0
 3929 0066 FB79     		ldrb	r3, [r7, #7]	@ zero_extendqisi2
 3930 0068 012B     		cmp	r3, #1
 3931 006a 46D0     		beq	.L304
 3932 006c 032B     		cmp	r3, #3
 3933 006e 00F0CA80 		beq	.L305
 3934 0072 002B     		cmp	r3, #0
 3935 0074 40F04882 		bne	.L302
 3936              	.L303:
1036:.\mem1.c      ****                 {
1037:.\mem1.c      ****                     
1038:.\mem1.c      ****                     case 0x00: //Read
1039:.\mem1.c      ****                             switch(port)
 3937              		.loc 1 1039 0
 3938 0078 BB7A     		ldrb	r3, [r7, #10]	@ zero_extendqisi2
 3939 007a A3F10203 		sub	r3, r3, #2
 3940 007e 0A2B     		cmp	r3, #10
 3941 0080 00F23D82 		bhi	.L383
 3942 0084 01A2     		adr	r2, .L311
 3943 0086 52F823F0 		ldr	pc, [r2, r3, lsl #2]
 3944 008a 00BF     		.align	2
 3945              	.L311:
 3946 008c B9000000 		.word	.L307+1
 3947 0090 FF040000 		.word	.L383+1
 3948 0094 C9000000 		.word	.L308+1
 3949 0098 D9000000 		.word	.L309+1
 3950 009c FF040000 		.word	.L383+1
 3951 00a0 FF040000 		.word	.L383+1
 3952 00a4 FF040000 		.word	.L383+1
 3953 00a8 FF040000 		.word	.L383+1
 3954 00ac FF040000 		.word	.L383+1
 3955 00b0 FF040000 		.word	.L383+1
 3956 00b4 E9000000 		.word	.L310+1
 3957              	.L307:
1040:.\mem1.c      ****                             {
1041:.\mem1.c      ****                                 #ifdef CY_STATUS_REG_Port_2_Status_H
1042:.\mem1.c      ****                                     case 0x02: result = Port_2_Status_Read(); return_flag = 1; brea
 3958              		.loc 1 1042 0
 3959 00b8 FFF7FEFF 		bl	Port_2_Status_Read
 3960 00bc 0346     		mov	r3, r0
 3961 00be 3B61     		str	r3, [r7, #16]
 3962 00c0 4FF00103 		mov	r3, #1
 3963 00c4 FB73     		strb	r3, [r7, #15]
ARM GAS  C:\Users\Brian\AppData\Local\Temp\ccHjPWqd.s 			page 89


 3964 00c6 17E0     		b	.L306
 3965              	.L308:
1043:.\mem1.c      ****                                 #endif
1044:.\mem1.c      ****                                 #ifdef CY_STATUS_REG_Port_4_Status_H
1045:.\mem1.c      ****                                     case 0x04: result = Port_4_Status_Read(); return_flag = 1; brea
 3966              		.loc 1 1045 0
 3967 00c8 FFF7FEFF 		bl	Port_4_Status_Read
 3968 00cc 0346     		mov	r3, r0
 3969 00ce 3B61     		str	r3, [r7, #16]
 3970 00d0 4FF00103 		mov	r3, #1
 3971 00d4 FB73     		strb	r3, [r7, #15]
 3972 00d6 0FE0     		b	.L306
 3973              	.L309:
1046:.\mem1.c      ****                                 #endif
1047:.\mem1.c      ****                                 #ifdef CY_STATUS_REG_Port_5_Status_H
1048:.\mem1.c      ****                                     case 0x05: result = Port_5_Status_Read(); return_flag = 1; brea
 3974              		.loc 1 1048 0
 3975 00d8 FFF7FEFF 		bl	Port_5_Status_Read
 3976 00dc 0346     		mov	r3, r0
 3977 00de 3B61     		str	r3, [r7, #16]
 3978 00e0 4FF00103 		mov	r3, #1
 3979 00e4 FB73     		strb	r3, [r7, #15]
 3980 00e6 07E0     		b	.L306
 3981              	.L310:
1049:.\mem1.c      ****                                 #endif
1050:.\mem1.c      ****                                 #ifdef CY_STATUS_REG_Port_6_Status_H
1051:.\mem1.c      ****                                     case 0x06: result = Port_6_Status_Read(); return_flag = 1; brea
1052:.\mem1.c      ****                                 #endif
1053:.\mem1.c      ****                                 #ifdef CY_STATUS_REG_Port_12_Status_H
1054:.\mem1.c      ****                                     case 0x0C: result = Port_12_Status_Read(); return_flag = 1; bre
 3982              		.loc 1 1054 0
 3983 00e8 FFF7FEFF 		bl	Port_12_Status_Read
 3984 00ec 0346     		mov	r3, r0
 3985 00ee 3B61     		str	r3, [r7, #16]
 3986 00f0 4FF00103 		mov	r3, #1
 3987 00f4 FB73     		strb	r3, [r7, #15]
 3988 00f6 00BF     		nop
 3989              	.L306:
1055:.\mem1.c      ****                                 #endif
1056:.\mem1.c      ****                              }
1057:.\mem1.c      ****                             break;
 3990              		.loc 1 1057 0
 3991 00f8 01E2     		b	.L383
 3992              	.L304:
1058:.\mem1.c      ****                             
1059:.\mem1.c      ****                     case 0x01: //Write
1060:.\mem1.c      ****                             
1061:.\mem1.c      ****                             switch(port)
 3993              		.loc 1 1061 0
 3994 00fa BB7A     		ldrb	r3, [r7, #10]	@ zero_extendqisi2
 3995 00fc A3F10203 		sub	r3, r3, #2
 3996 0100 0A2B     		cmp	r3, #10
 3997 0102 2DD8     		bhi	.L312
 3998 0104 01A2     		adr	r2, .L317
 3999 0106 52F823F0 		ldr	pc, [r2, r3, lsl #2]
 4000 010a 00BF     		.align	2
 4001              	.L317:
ARM GAS  C:\Users\Brian\AppData\Local\Temp\ccHjPWqd.s 			page 90


 4002 010c 39010000 		.word	.L313+1
 4003 0110 61010000 		.word	.L312+1
 4004 0114 43010000 		.word	.L314+1
 4005 0118 4D010000 		.word	.L315+1
 4006 011c 61010000 		.word	.L312+1
 4007 0120 61010000 		.word	.L312+1
 4008 0124 61010000 		.word	.L312+1
 4009 0128 61010000 		.word	.L312+1
 4010 012c 61010000 		.word	.L312+1
 4011 0130 61010000 		.word	.L312+1
 4012 0134 57010000 		.word	.L316+1
 4013              	.L313:
1062:.\mem1.c      ****                             {
1063:.\mem1.c      ****                                 #ifdef CY_CONTROL_REG_Port_2_Control_H
1064:.\mem1.c      ****                                     case 0x02: prev_reg_status = Port_2_Control_Read(); break;
 4014              		.loc 1 1064 0
 4015 0138 FFF7FEFF 		bl	Port_2_Control_Read
 4016 013c 0346     		mov	r3, r0
 4017 013e 7B73     		strb	r3, [r7, #13]
 4018 0140 0EE0     		b	.L312
 4019              	.L314:
1065:.\mem1.c      ****                                 #endif
1066:.\mem1.c      ****                                 #ifdef CY_CONTROL_REG_Port_4_Control_H
1067:.\mem1.c      ****                                     case 0x04: prev_reg_status = Port_4_Control_Read(); break;
 4020              		.loc 1 1067 0
 4021 0142 FFF7FEFF 		bl	Port_4_Control_Read
 4022 0146 0346     		mov	r3, r0
 4023 0148 7B73     		strb	r3, [r7, #13]
 4024 014a 09E0     		b	.L312
 4025              	.L315:
1068:.\mem1.c      ****                                 #endif
1069:.\mem1.c      ****                                 #ifdef CY_CONTROL_REG_Port_5_Control_H
1070:.\mem1.c      ****                                     case 0x05: prev_reg_status = Port_5_Control_Read(); break;
 4026              		.loc 1 1070 0
 4027 014c FFF7FEFF 		bl	Port_5_Control_Read
 4028 0150 0346     		mov	r3, r0
 4029 0152 7B73     		strb	r3, [r7, #13]
 4030 0154 04E0     		b	.L312
 4031              	.L316:
1071:.\mem1.c      ****                                 #endif
1072:.\mem1.c      ****                                 #ifdef CY_CONTROL_REG_Port_6_Control_H
1073:.\mem1.c      ****                                     case 0x06: prev_reg_status = Port_6_Control_Read(); break;
1074:.\mem1.c      ****                                 #endif
1075:.\mem1.c      ****                                 #ifdef CY_CONTROL_REG_Port_12_Control_H
1076:.\mem1.c      ****                                     case 0x0C: prev_reg_status = Port_12_Control_Read(); break;
 4032              		.loc 1 1076 0
 4033 0156 FFF7FEFF 		bl	Port_12_Control_Read
 4034 015a 0346     		mov	r3, r0
 4035 015c 7B73     		strb	r3, [r7, #13]
 4036 015e 00BF     		nop
 4037              	.L312:
1077:.\mem1.c      ****                                 #endif
1078:.\mem1.c      ****                             }
1079:.\mem1.c      ****                                
1080:.\mem1.c      ****                             if (val == 1)
 4038              		.loc 1 1080 0
 4039 0160 3B7B     		ldrb	r3, [r7, #12]	@ zero_extendqisi2
ARM GAS  C:\Users\Brian\AppData\Local\Temp\ccHjPWqd.s 			page 91


 4040 0162 012B     		cmp	r3, #1
 4041 0164 0AD1     		bne	.L318
1081:.\mem1.c      ****                             {
1082:.\mem1.c      ****                                 new_reg_status = prev_reg_status | (0x01<<pin);
 4042              		.loc 1 1082 0
 4043 0166 FB7A     		ldrb	r3, [r7, #11]	@ zero_extendqisi2
 4044 0168 4FF00102 		mov	r2, #1
 4045 016c 02FA03F3 		lsl	r3, r2, r3
 4046 0170 DAB2     		uxtb	r2, r3
 4047 0172 7B7B     		ldrb	r3, [r7, #13]	@ zero_extendqisi2
 4048 0174 1343     		orrs	r3, r3, r2
 4049 0176 DBB2     		uxtb	r3, r3
 4050 0178 BB73     		strb	r3, [r7, #14]
 4051 017a 0FE0     		b	.L319
 4052              	.L318:
1083:.\mem1.c      ****                             }
1084:.\mem1.c      ****                             else if (val == 0)
 4053              		.loc 1 1084 0
 4054 017c 3B7B     		ldrb	r3, [r7, #12]	@ zero_extendqisi2
 4055 017e 002B     		cmp	r3, #0
 4056 0180 0CD1     		bne	.L319
1085:.\mem1.c      ****                             {
1086:.\mem1.c      ****                                 new_reg_status = (prev_reg_status&(~(0x01<<pin)));
 4057              		.loc 1 1086 0
 4058 0182 FB7A     		ldrb	r3, [r7, #11]	@ zero_extendqisi2
 4059 0184 4FF00102 		mov	r2, #1
 4060 0188 02FA03F3 		lsl	r3, r2, r3
 4061 018c DBB2     		uxtb	r3, r3
 4062 018e 6FEA0303 		mvn	r3, r3
 4063 0192 DAB2     		uxtb	r2, r3
 4064 0194 7B7B     		ldrb	r3, [r7, #13]	@ zero_extendqisi2
 4065 0196 1340     		ands	r3, r3, r2
 4066 0198 DBB2     		uxtb	r3, r3
 4067 019a BB73     		strb	r3, [r7, #14]
 4068              	.L319:
1087:.\mem1.c      ****                             }
1088:.\mem1.c      ****                             
1089:.\mem1.c      ****                            switch(port)
 4069              		.loc 1 1089 0
 4070 019c BB7A     		ldrb	r3, [r7, #10]	@ zero_extendqisi2
 4071 019e A3F10203 		sub	r3, r3, #2
 4072 01a2 0A2B     		cmp	r3, #10
 4073 01a4 00F2AD81 		bhi	.L384
 4074 01a8 01A2     		adr	r2, .L325
 4075 01aa 52F823F0 		ldr	pc, [r2, r3, lsl #2]
 4076 01ae 00BF     		.align	2
 4077              	.L325:
 4078 01b0 DD010000 		.word	.L321+1
 4079 01b4 03050000 		.word	.L384+1
 4080 01b8 E7010000 		.word	.L322+1
 4081 01bc F1010000 		.word	.L323+1
 4082 01c0 03050000 		.word	.L384+1
 4083 01c4 03050000 		.word	.L384+1
 4084 01c8 03050000 		.word	.L384+1
 4085 01cc 03050000 		.word	.L384+1
 4086 01d0 03050000 		.word	.L384+1
 4087 01d4 03050000 		.word	.L384+1
ARM GAS  C:\Users\Brian\AppData\Local\Temp\ccHjPWqd.s 			page 92


 4088 01d8 FB010000 		.word	.L324+1
 4089              	.L321:
1090:.\mem1.c      ****                             {
1091:.\mem1.c      ****                                 #ifdef CY_CONTROL_REG_Port_2_Control_H
1092:.\mem1.c      ****                                     case 0x02: Port_2_Control_Write(new_reg_status); break;
 4090              		.loc 1 1092 0
 4091 01dc BB7B     		ldrb	r3, [r7, #14]	@ zero_extendqisi2
 4092 01de 1846     		mov	r0, r3
 4093 01e0 FFF7FEFF 		bl	Port_2_Control_Write
 4094 01e4 0EE0     		b	.L320
 4095              	.L322:
1093:.\mem1.c      ****                                 #endif
1094:.\mem1.c      ****                                 #ifdef CY_CONTROL_REG_Port_4_Control_H
1095:.\mem1.c      ****                                     case 0x04: Port_4_Control_Write(new_reg_status); break;
 4096              		.loc 1 1095 0
 4097 01e6 BB7B     		ldrb	r3, [r7, #14]	@ zero_extendqisi2
 4098 01e8 1846     		mov	r0, r3
 4099 01ea FFF7FEFF 		bl	Port_4_Control_Write
 4100 01ee 09E0     		b	.L320
 4101              	.L323:
1096:.\mem1.c      ****                                 #endif
1097:.\mem1.c      ****                                 #ifdef CY_CONTROL_REG_Port_5_Control_H
1098:.\mem1.c      ****                                     case 0x05: Port_5_Control_Write(new_reg_status); break;
 4102              		.loc 1 1098 0
 4103 01f0 BB7B     		ldrb	r3, [r7, #14]	@ zero_extendqisi2
 4104 01f2 1846     		mov	r0, r3
 4105 01f4 FFF7FEFF 		bl	Port_5_Control_Write
 4106 01f8 04E0     		b	.L320
 4107              	.L324:
1099:.\mem1.c      ****                                 #endif
1100:.\mem1.c      ****                                 #ifdef CY_CONTROL_REG_Port_6_Control_H
1101:.\mem1.c      ****                                     case 0x06: Port_6_Control_Write(new_reg_status); break;
1102:.\mem1.c      ****                                 #endif
1103:.\mem1.c      ****                                 #ifdef CY_CONTROL_REG_Port_12_Control_H
1104:.\mem1.c      ****                                     case 0x0C: Port_12_Control_Write(new_reg_status); break;
 4108              		.loc 1 1104 0
 4109 01fa BB7B     		ldrb	r3, [r7, #14]	@ zero_extendqisi2
 4110 01fc 1846     		mov	r0, r3
 4111 01fe FFF7FEFF 		bl	Port_12_Control_Write
 4112 0202 00BF     		nop
 4113              	.L320:
1105:.\mem1.c      ****                                 #endif
1106:.\mem1.c      ****                                 
1107:.\mem1.c      ****                             }
1108:.\mem1.c      ****                             break;
 4114              		.loc 1 1108 0
 4115 0204 7DE1     		b	.L384
 4116              	.L305:
1109:.\mem1.c      ****                             
1110:.\mem1.c      ****                     case 0x03: //set drive mode
1111:.\mem1.c      ****                             switch(config)
 4117              		.loc 1 1111 0
 4118 0206 7B7A     		ldrb	r3, [r7, #9]	@ zero_extendqisi2
 4119 0208 03F1FF33 		add	r3, r3, #-1
 4120 020c 072B     		cmp	r3, #7
 4121 020e 33D8     		bhi	.L326
 4122 0210 01A2     		adr	r2, .L335
ARM GAS  C:\Users\Brian\AppData\Local\Temp\ccHjPWqd.s 			page 93


 4123 0212 52F823F0 		ldr	pc, [r2, r3, lsl #2]
 4124 0216 00BF     		.align	2
 4125              	.L335:
 4126 0218 39020000 		.word	.L327+1
 4127 021c 41020000 		.word	.L328+1
 4128 0220 49020000 		.word	.L329+1
 4129 0224 51020000 		.word	.L330+1
 4130 0228 59020000 		.word	.L331+1
 4131 022c 61020000 		.word	.L332+1
 4132 0230 69020000 		.word	.L333+1
 4133 0234 71020000 		.word	.L334+1
 4134              	.L327:
1112:.\mem1.c      ****                             {
1113:.\mem1.c      ****                                     case 0x01: config_MASK = PIN_DM_ALG_HIZ; break;
 4135              		.loc 1 1113 0
 4136 0238 4FF00003 		mov	r3, #0
 4137 023c FB82     		strh	r3, [r7, #22]	@ movhi
 4138 023e 1BE0     		b	.L326
 4139              	.L328:
1114:.\mem1.c      ****                                     case 0x02: config_MASK = PIN_DM_DIG_HIZ; break;
 4140              		.loc 1 1114 0
 4141 0240 4FF00203 		mov	r3, #2
 4142 0244 FB82     		strh	r3, [r7, #22]	@ movhi
 4143 0246 17E0     		b	.L326
 4144              	.L329:
1115:.\mem1.c      ****                                     case 0x03: config_MASK = PIN_DM_RES_UP; break;
 4145              		.loc 1 1115 0
 4146 0248 4FF00403 		mov	r3, #4
 4147 024c FB82     		strh	r3, [r7, #22]	@ movhi
 4148 024e 13E0     		b	.L326
 4149              	.L330:
1116:.\mem1.c      ****                                     case 0x04: config_MASK = PIN_DM_RES_DWN; break;
 4150              		.loc 1 1116 0
 4151 0250 4FF00603 		mov	r3, #6
 4152 0254 FB82     		strh	r3, [r7, #22]	@ movhi
 4153 0256 0FE0     		b	.L326
 4154              	.L331:
1117:.\mem1.c      ****                                     case 0x05: config_MASK = PIN_DM_OD_LO; break;
 4155              		.loc 1 1117 0
 4156 0258 4FF00803 		mov	r3, #8
 4157 025c FB82     		strh	r3, [r7, #22]	@ movhi
 4158 025e 0BE0     		b	.L326
 4159              	.L332:
1118:.\mem1.c      ****                                     case 0x06: config_MASK = PIN_DM_OD_HI; break;
 4160              		.loc 1 1118 0
 4161 0260 4FF00A03 		mov	r3, #10
 4162 0264 FB82     		strh	r3, [r7, #22]	@ movhi
 4163 0266 07E0     		b	.L326
 4164              	.L333:
1119:.\mem1.c      ****                                     case 0x07: config_MASK = PIN_DM_STRONG; break;
 4165              		.loc 1 1119 0
 4166 0268 4FF00C03 		mov	r3, #12
 4167 026c FB82     		strh	r3, [r7, #22]	@ movhi
 4168 026e 03E0     		b	.L326
 4169              	.L334:
1120:.\mem1.c      ****                                     case 0x08: config_MASK = PIN_DM_RES_UPDWN; break;
 4170              		.loc 1 1120 0
ARM GAS  C:\Users\Brian\AppData\Local\Temp\ccHjPWqd.s 			page 94


 4171 0270 4FF00E03 		mov	r3, #14
 4172 0274 FB82     		strh	r3, [r7, #22]	@ movhi
 4173 0276 00BF     		nop
 4174              	.L326:
1121:.\mem1.c      ****                                     
1122:.\mem1.c      ****                                     
1123:.\mem1.c      ****                             }
1124:.\mem1.c      ****                             
1125:.\mem1.c      ****                             switch(port)
 4175              		.loc 1 1125 0
 4176 0278 BB7A     		ldrb	r3, [r7, #10]	@ zero_extendqisi2
 4177 027a A3F10203 		sub	r3, r3, #2
 4178 027e 0A2B     		cmp	r3, #10
 4179 0280 00F24181 		bhi	.L385
 4180 0284 01A2     		adr	r2, .L342
 4181 0286 52F823F0 		ldr	pc, [r2, r3, lsl #2]
 4182 028a 00BF     		.align	2
 4183              	.L342:
 4184 028c B9020000 		.word	.L337+1
 4185 0290 07050000 		.word	.L385+1
 4186 0294 4B030000 		.word	.L338+1
 4187 0298 CB030000 		.word	.L339+1
 4188 029c EB040000 		.word	.L386+1
 4189 02a0 07050000 		.word	.L385+1
 4190 02a4 07050000 		.word	.L385+1
 4191 02a8 07050000 		.word	.L385+1
 4192 02ac 07050000 		.word	.L385+1
 4193 02b0 07050000 		.word	.L385+1
 4194 02b4 5B040000 		.word	.L341+1
 4195              	.L337:
1126:.\mem1.c      ****                             {
1127:.\mem1.c      ****                                 case 0x02: 
1128:.\mem1.c      ****                                         switch(pin)
 4196              		.loc 1 1128 0
 4197 02b8 FB7A     		ldrb	r3, [r7, #11]	@ zero_extendqisi2
 4198 02ba 072B     		cmp	r3, #7
 4199 02bc 00F21781 		bhi	.L387
 4200 02c0 01A2     		adr	r2, .L352
 4201 02c2 52F823F0 		ldr	pc, [r2, r3, lsl #2]
 4202 02c6 00BF     		.align	2
 4203              	.L352:
 4204 02c8 E9020000 		.word	.L344+1
 4205 02cc F5020000 		.word	.L345+1
 4206 02d0 01030000 		.word	.L346+1
 4207 02d4 0D030000 		.word	.L347+1
 4208 02d8 19030000 		.word	.L348+1
 4209 02dc 25030000 		.word	.L349+1
 4210 02e0 31030000 		.word	.L350+1
 4211 02e4 3D030000 		.word	.L351+1
 4212              	.L344:
1129:.\mem1.c      ****                                         {   
1130:.\mem1.c      ****                                             #ifdef CY_PINS_GPIO_2_0_H 
1131:.\mem1.c      ****                                                 case 0x00: GPIO_2_0_SetDriveMode(config_MASK); brea
 4213              		.loc 1 1131 0
 4214 02e8 FB8A     		ldrh	r3, [r7, #22]	@ movhi
 4215 02ea DBB2     		uxtb	r3, r3
 4216 02ec 1846     		mov	r0, r3
ARM GAS  C:\Users\Brian\AppData\Local\Temp\ccHjPWqd.s 			page 95


 4217 02ee FFF7FEFF 		bl	GPIO_2_0_SetDriveMode
 4218 02f2 29E0     		b	.L343
 4219              	.L345:
1132:.\mem1.c      ****                                             #endif
1133:.\mem1.c      ****                                             #ifdef CY_PINS_GPIO_2_1_H 
1134:.\mem1.c      ****                                                 case 0x01: GPIO_2_1_SetDriveMode(config_MASK); brea
 4220              		.loc 1 1134 0
 4221 02f4 FB8A     		ldrh	r3, [r7, #22]	@ movhi
 4222 02f6 DBB2     		uxtb	r3, r3
 4223 02f8 1846     		mov	r0, r3
 4224 02fa FFF7FEFF 		bl	GPIO_2_1_SetDriveMode
 4225 02fe 23E0     		b	.L343
 4226              	.L346:
1135:.\mem1.c      ****                                             #endif
1136:.\mem1.c      ****                                             #ifdef CY_PINS_GPIO_2_2_H 
1137:.\mem1.c      ****                                                 case 0x02: GPIO_2_2_SetDriveMode(config_MASK); brea
 4227              		.loc 1 1137 0
 4228 0300 FB8A     		ldrh	r3, [r7, #22]	@ movhi
 4229 0302 DBB2     		uxtb	r3, r3
 4230 0304 1846     		mov	r0, r3
 4231 0306 FFF7FEFF 		bl	GPIO_2_2_SetDriveMode
 4232 030a 1DE0     		b	.L343
 4233              	.L347:
1138:.\mem1.c      ****                                             #endif
1139:.\mem1.c      ****                                             #ifdef CY_PINS_GPIO_2_3_H 
1140:.\mem1.c      ****                                                 case 0x03: GPIO_2_3_SetDriveMode(config_MASK); brea
 4234              		.loc 1 1140 0
 4235 030c FB8A     		ldrh	r3, [r7, #22]	@ movhi
 4236 030e DBB2     		uxtb	r3, r3
 4237 0310 1846     		mov	r0, r3
 4238 0312 FFF7FEFF 		bl	GPIO_2_3_SetDriveMode
 4239 0316 17E0     		b	.L343
 4240              	.L348:
1141:.\mem1.c      ****                                             #endif
1142:.\mem1.c      ****                                             #ifdef CY_PINS_GPIO_2_4_H 
1143:.\mem1.c      ****                                                 case 0x04: GPIO_2_4_SetDriveMode(config_MASK); brea
 4241              		.loc 1 1143 0
 4242 0318 FB8A     		ldrh	r3, [r7, #22]	@ movhi
 4243 031a DBB2     		uxtb	r3, r3
 4244 031c 1846     		mov	r0, r3
 4245 031e FFF7FEFF 		bl	GPIO_2_4_SetDriveMode
 4246 0322 11E0     		b	.L343
 4247              	.L349:
1144:.\mem1.c      ****                                             #endif
1145:.\mem1.c      ****                                             #ifdef CY_PINS_GPIO_2_5_H 
1146:.\mem1.c      ****                                                 case 0x05: GPIO_2_5_SetDriveMode(config_MASK); brea
 4248              		.loc 1 1146 0
 4249 0324 FB8A     		ldrh	r3, [r7, #22]	@ movhi
 4250 0326 DBB2     		uxtb	r3, r3
 4251 0328 1846     		mov	r0, r3
 4252 032a FFF7FEFF 		bl	GPIO_2_5_SetDriveMode
 4253 032e 0BE0     		b	.L343
 4254              	.L350:
1147:.\mem1.c      ****                                             #endif
1148:.\mem1.c      ****                                             #ifdef CY_PINS_GPIO_2_6_H 
1149:.\mem1.c      ****                                                 case 0x06: GPIO_2_6_SetDriveMode(config_MASK); brea
 4255              		.loc 1 1149 0
ARM GAS  C:\Users\Brian\AppData\Local\Temp\ccHjPWqd.s 			page 96


 4256 0330 FB8A     		ldrh	r3, [r7, #22]	@ movhi
 4257 0332 DBB2     		uxtb	r3, r3
 4258 0334 1846     		mov	r0, r3
 4259 0336 FFF7FEFF 		bl	GPIO_2_6_SetDriveMode
 4260 033a 05E0     		b	.L343
 4261              	.L351:
1150:.\mem1.c      ****                                             #endif
1151:.\mem1.c      ****                                             #ifdef CY_PINS_GPIO_2_7_H 
1152:.\mem1.c      ****                                                 case 0x07: GPIO_2_7_SetDriveMode(config_MASK); brea
 4262              		.loc 1 1152 0
 4263 033c FB8A     		ldrh	r3, [r7, #22]	@ movhi
 4264 033e DBB2     		uxtb	r3, r3
 4265 0340 1846     		mov	r0, r3
 4266 0342 FFF7FEFF 		bl	GPIO_2_7_SetDriveMode
 4267 0346 00BF     		nop
 4268              	.L343:
1153:.\mem1.c      ****                                             #endif
1154:.\mem1.c      ****                                         }
1155:.\mem1.c      ****                                         break;
 4269              		.loc 1 1155 0
 4270 0348 D1E0     		b	.L387
 4271              	.L338:
1156:.\mem1.c      ****                                         
1157:.\mem1.c      ****                                 case 0x04: 
1158:.\mem1.c      ****                                         switch(pin)
 4272              		.loc 1 1158 0
 4273 034a FB7A     		ldrb	r3, [r7, #11]	@ zero_extendqisi2
 4274 034c 062B     		cmp	r3, #6
 4275 034e 00F2D080 		bhi	.L388
 4276 0352 01A2     		adr	r2, .L361
 4277 0354 52F823F0 		ldr	pc, [r2, r3, lsl #2]
 4278              		.align	2
 4279              	.L361:
 4280 0358 75030000 		.word	.L354+1
 4281 035c 81030000 		.word	.L355+1
 4282 0360 8D030000 		.word	.L356+1
 4283 0364 99030000 		.word	.L357+1
 4284 0368 A5030000 		.word	.L358+1
 4285 036c B1030000 		.word	.L359+1
 4286 0370 BD030000 		.word	.L360+1
 4287              	.L354:
1159:.\mem1.c      ****                                         {   
1160:.\mem1.c      ****                                             #ifdef CY_PINS_GPIO_4_0_H 
1161:.\mem1.c      ****                                                 case 0x00: GPIO_4_0_SetDriveMode(config_MASK); brea
 4288              		.loc 1 1161 0
 4289 0374 FB8A     		ldrh	r3, [r7, #22]	@ movhi
 4290 0376 DBB2     		uxtb	r3, r3
 4291 0378 1846     		mov	r0, r3
 4292 037a FFF7FEFF 		bl	GPIO_4_0_SetDriveMode
 4293 037e 23E0     		b	.L353
 4294              	.L355:
1162:.\mem1.c      ****                                             #endif
1163:.\mem1.c      ****                                             #ifdef CY_PINS_GPIO_4_1_H 
1164:.\mem1.c      ****                                                 case 0x01: GPIO_4_1_SetDriveMode(config_MASK); brea
 4295              		.loc 1 1164 0
 4296 0380 FB8A     		ldrh	r3, [r7, #22]	@ movhi
 4297 0382 DBB2     		uxtb	r3, r3
ARM GAS  C:\Users\Brian\AppData\Local\Temp\ccHjPWqd.s 			page 97


 4298 0384 1846     		mov	r0, r3
 4299 0386 FFF7FEFF 		bl	GPIO_4_1_SetDriveMode
 4300 038a 1DE0     		b	.L353
 4301              	.L356:
1165:.\mem1.c      ****                                             #endif
1166:.\mem1.c      ****                                             #ifdef CY_PINS_GPIO_4_2_H 
1167:.\mem1.c      ****                                                 case 0x02: GPIO_4_2_SetDriveMode(config_MASK); brea
 4302              		.loc 1 1167 0
 4303 038c FB8A     		ldrh	r3, [r7, #22]	@ movhi
 4304 038e DBB2     		uxtb	r3, r3
 4305 0390 1846     		mov	r0, r3
 4306 0392 FFF7FEFF 		bl	GPIO_4_2_SetDriveMode
 4307 0396 17E0     		b	.L353
 4308              	.L357:
1168:.\mem1.c      ****                                             #endif
1169:.\mem1.c      ****                                             #ifdef CY_PINS_GPIO_4_3_H 
1170:.\mem1.c      ****                                                 case 0x03: GPIO_4_3_SetDriveMode(config_MASK); brea
 4309              		.loc 1 1170 0
 4310 0398 FB8A     		ldrh	r3, [r7, #22]	@ movhi
 4311 039a DBB2     		uxtb	r3, r3
 4312 039c 1846     		mov	r0, r3
 4313 039e FFF7FEFF 		bl	GPIO_4_3_SetDriveMode
 4314 03a2 11E0     		b	.L353
 4315              	.L358:
1171:.\mem1.c      ****                                             #endif
1172:.\mem1.c      ****                                             #ifdef CY_PINS_GPIO_4_4_H 
1173:.\mem1.c      ****                                                 case 0x04: GPIO_4_4_SetDriveMode(config_MASK); brea
 4316              		.loc 1 1173 0
 4317 03a4 FB8A     		ldrh	r3, [r7, #22]	@ movhi
 4318 03a6 DBB2     		uxtb	r3, r3
 4319 03a8 1846     		mov	r0, r3
 4320 03aa FFF7FEFF 		bl	GPIO_4_4_SetDriveMode
 4321 03ae 0BE0     		b	.L353
 4322              	.L359:
1174:.\mem1.c      ****                                             #endif
1175:.\mem1.c      ****                                             #ifdef CY_PINS_GPIO_4_5_H 
1176:.\mem1.c      ****                                                 case 0x05: GPIO_4_5_SetDriveMode(config_MASK); brea
 4323              		.loc 1 1176 0
 4324 03b0 FB8A     		ldrh	r3, [r7, #22]	@ movhi
 4325 03b2 DBB2     		uxtb	r3, r3
 4326 03b4 1846     		mov	r0, r3
 4327 03b6 FFF7FEFF 		bl	GPIO_4_5_SetDriveMode
 4328 03ba 05E0     		b	.L353
 4329              	.L360:
1177:.\mem1.c      ****                                             #endif
1178:.\mem1.c      ****                                             #ifdef CY_PINS_GPIO_4_6_H 
1179:.\mem1.c      ****                                                 case 0x06: GPIO_4_6_SetDriveMode(config_MASK); brea
 4330              		.loc 1 1179 0
 4331 03bc FB8A     		ldrh	r3, [r7, #22]	@ movhi
 4332 03be DBB2     		uxtb	r3, r3
 4333 03c0 1846     		mov	r0, r3
 4334 03c2 FFF7FEFF 		bl	GPIO_4_6_SetDriveMode
 4335 03c6 00BF     		nop
 4336              	.L353:
1180:.\mem1.c      ****                                             #endif
1181:.\mem1.c      ****                                         }
1182:.\mem1.c      ****                                         break;
ARM GAS  C:\Users\Brian\AppData\Local\Temp\ccHjPWqd.s 			page 98


 4337              		.loc 1 1182 0
 4338 03c8 93E0     		b	.L388
 4339              	.L339:
1183:.\mem1.c      ****                                         
1184:.\mem1.c      ****                                 case 0x05: 
1185:.\mem1.c      ****                                         switch(pin)
 4340              		.loc 1 1185 0
 4341 03ca FB7A     		ldrb	r3, [r7, #11]	@ zero_extendqisi2
 4342 03cc 072B     		cmp	r3, #7
 4343 03ce 00F29280 		bhi	.L389
 4344 03d2 01A2     		adr	r2, .L371
 4345 03d4 52F823F0 		ldr	pc, [r2, r3, lsl #2]
 4346              		.align	2
 4347              	.L371:
 4348 03d8 F9030000 		.word	.L363+1
 4349 03dc 05040000 		.word	.L364+1
 4350 03e0 11040000 		.word	.L365+1
 4351 03e4 1D040000 		.word	.L366+1
 4352 03e8 29040000 		.word	.L367+1
 4353 03ec 35040000 		.word	.L368+1
 4354 03f0 41040000 		.word	.L369+1
 4355 03f4 4D040000 		.word	.L370+1
 4356              	.L363:
1186:.\mem1.c      ****                                         {   
1187:.\mem1.c      ****                                             #ifdef CY_PINS_GPIO_5_0_H 
1188:.\mem1.c      ****                                                 case 0x00: GPIO_5_0_SetDriveMode(config_MASK); brea
 4357              		.loc 1 1188 0
 4358 03f8 FB8A     		ldrh	r3, [r7, #22]	@ movhi
 4359 03fa DBB2     		uxtb	r3, r3
 4360 03fc 1846     		mov	r0, r3
 4361 03fe FFF7FEFF 		bl	GPIO_5_0_SetDriveMode
 4362 0402 29E0     		b	.L362
 4363              	.L364:
1189:.\mem1.c      ****                                             #endif
1190:.\mem1.c      ****                                             #ifdef CY_PINS_GPIO_5_1_H 
1191:.\mem1.c      ****                                                 case 0x01: GPIO_5_1_SetDriveMode(config_MASK); brea
 4364              		.loc 1 1191 0
 4365 0404 FB8A     		ldrh	r3, [r7, #22]	@ movhi
 4366 0406 DBB2     		uxtb	r3, r3
 4367 0408 1846     		mov	r0, r3
 4368 040a FFF7FEFF 		bl	GPIO_5_1_SetDriveMode
 4369 040e 23E0     		b	.L362
 4370              	.L365:
1192:.\mem1.c      ****                                             #endif
1193:.\mem1.c      ****                                             #ifdef CY_PINS_GPIO_5_2_H 
1194:.\mem1.c      ****                                                 case 0x02: GPIO_5_2_SetDriveMode(config_MASK); brea
 4371              		.loc 1 1194 0
 4372 0410 FB8A     		ldrh	r3, [r7, #22]	@ movhi
 4373 0412 DBB2     		uxtb	r3, r3
 4374 0414 1846     		mov	r0, r3
 4375 0416 FFF7FEFF 		bl	GPIO_5_2_SetDriveMode
 4376 041a 1DE0     		b	.L362
 4377              	.L366:
1195:.\mem1.c      ****                                             #endif
1196:.\mem1.c      ****                                             #ifdef CY_PINS_GPIO_5_3_H 
1197:.\mem1.c      ****                                                 case 0x03: GPIO_5_3_SetDriveMode(config_MASK); brea
 4378              		.loc 1 1197 0
ARM GAS  C:\Users\Brian\AppData\Local\Temp\ccHjPWqd.s 			page 99


 4379 041c FB8A     		ldrh	r3, [r7, #22]	@ movhi
 4380 041e DBB2     		uxtb	r3, r3
 4381 0420 1846     		mov	r0, r3
 4382 0422 FFF7FEFF 		bl	GPIO_5_3_SetDriveMode
 4383 0426 17E0     		b	.L362
 4384              	.L367:
1198:.\mem1.c      ****                                             #endif
1199:.\mem1.c      ****                                             #ifdef CY_PINS_GPIO_5_4_H 
1200:.\mem1.c      ****                                                 case 0x04: GPIO_5_4_SetDriveMode(config_MASK); brea
 4385              		.loc 1 1200 0
 4386 0428 FB8A     		ldrh	r3, [r7, #22]	@ movhi
 4387 042a DBB2     		uxtb	r3, r3
 4388 042c 1846     		mov	r0, r3
 4389 042e FFF7FEFF 		bl	GPIO_5_4_SetDriveMode
 4390 0432 11E0     		b	.L362
 4391              	.L368:
1201:.\mem1.c      ****                                             #endif
1202:.\mem1.c      ****                                             #ifdef CY_PINS_GPIO_5_5_H 
1203:.\mem1.c      ****                                                 case 0x05: GPIO_5_5_SetDriveMode(config_MASK); brea
 4392              		.loc 1 1203 0
 4393 0434 FB8A     		ldrh	r3, [r7, #22]	@ movhi
 4394 0436 DBB2     		uxtb	r3, r3
 4395 0438 1846     		mov	r0, r3
 4396 043a FFF7FEFF 		bl	GPIO_5_5_SetDriveMode
 4397 043e 0BE0     		b	.L362
 4398              	.L369:
1204:.\mem1.c      ****                                             #endif
1205:.\mem1.c      ****                                             #ifdef CY_PINS_GPIO_5_6_H 
1206:.\mem1.c      ****                                                 case 0x06: GPIO_5_6_SetDriveMode(config_MASK); brea
 4399              		.loc 1 1206 0
 4400 0440 FB8A     		ldrh	r3, [r7, #22]	@ movhi
 4401 0442 DBB2     		uxtb	r3, r3
 4402 0444 1846     		mov	r0, r3
 4403 0446 FFF7FEFF 		bl	GPIO_5_6_SetDriveMode
 4404 044a 05E0     		b	.L362
 4405              	.L370:
1207:.\mem1.c      ****                                             #endif
1208:.\mem1.c      ****                                             #ifdef CY_PINS_GPIO_5_7_H 
1209:.\mem1.c      ****                                                 case 0x07: GPIO_5_7_SetDriveMode(config_MASK); brea
 4406              		.loc 1 1209 0
 4407 044c FB8A     		ldrh	r3, [r7, #22]	@ movhi
 4408 044e DBB2     		uxtb	r3, r3
 4409 0450 1846     		mov	r0, r3
 4410 0452 FFF7FEFF 		bl	GPIO_5_7_SetDriveMode
 4411 0456 00BF     		nop
 4412              	.L362:
1210:.\mem1.c      ****                                             #endif
1211:.\mem1.c      ****                                         }
1212:.\mem1.c      ****                                         break;
 4413              		.loc 1 1212 0
 4414 0458 4DE0     		b	.L389
 4415              	.L341:
1213:.\mem1.c      ****                                         
1214:.\mem1.c      ****                                 case 0x06: 
1215:.\mem1.c      ****                                         switch(pin)
1216:.\mem1.c      ****                                         {   
1217:.\mem1.c      ****                                             #ifdef CY_PINS_GPIO_6_0_H 
ARM GAS  C:\Users\Brian\AppData\Local\Temp\ccHjPWqd.s 			page 100


1218:.\mem1.c      ****                                                 case 0x00: GPIO_6_0_SetDriveMode(config_MASK); brea
1219:.\mem1.c      ****                                             #endif
1220:.\mem1.c      ****                                             #ifdef CY_PINS_GPIO_6_1_H 
1221:.\mem1.c      ****                                                 case 0x01: GPIO_6_1_SetDriveMode(config_MASK); brea
1222:.\mem1.c      ****                                             #endif
1223:.\mem1.c      ****                                             #ifdef CY_PINS_GPIO_6_2_H 
1224:.\mem1.c      ****                                                 case 0x02: GPIO_6_2_SetDriveMode(config_MASK); brea
1225:.\mem1.c      ****                                             #endif
1226:.\mem1.c      ****                                             #ifdef CY_PINS_GPIO_6_3_H 
1227:.\mem1.c      ****                                                 case 0x03: GPIO_6_3_SetDriveMode(config_MASK); brea
1228:.\mem1.c      ****                                             #endif
1229:.\mem1.c      ****                                             #ifdef CY_PINS_GPIO_6_4_H 
1230:.\mem1.c      ****                                                 case 0x04: GPIO_6_4_SetDriveMode(config_MASK); brea
1231:.\mem1.c      ****                                             #endif
1232:.\mem1.c      ****                                             #ifdef CY_PINS_GPIO_6_5_H 
1233:.\mem1.c      ****                                                 case 0x05: GPIO_6_5_SetDriveMode(config_MASK); brea
1234:.\mem1.c      ****                                             #endif
1235:.\mem1.c      ****                                             #ifdef CY_PINS_GPIO_6_6_H 
1236:.\mem1.c      ****                                                 case 0x06: GPIO_6_6_SetDriveMode(config_MASK); brea
1237:.\mem1.c      ****                                             #endif
1238:.\mem1.c      ****                                             #ifdef CY_PINS_GPIO_6_7_H 
1239:.\mem1.c      ****                                                 case 0x07: GPIO_6_7_SetDriveMode(config_MASK); brea
1240:.\mem1.c      ****                                             #endif
1241:.\mem1.c      ****                                         }
1242:.\mem1.c      ****                                         break;
1243:.\mem1.c      ****                                 
1244:.\mem1.c      ****                                 case 0x0C: 
1245:.\mem1.c      ****                                         switch(pin)
 4416              		.loc 1 1245 0
 4417 045a FB7A     		ldrb	r3, [r7, #11]	@ zero_extendqisi2
 4418 045c 072B     		cmp	r3, #7
 4419 045e 4CD8     		bhi	.L390
 4420 0460 01A2     		adr	r2, .L381
 4421 0462 52F823F0 		ldr	pc, [r2, r3, lsl #2]
 4422 0466 00BF     		.align	2
 4423              	.L381:
 4424 0468 89040000 		.word	.L373+1
 4425 046c 95040000 		.word	.L374+1
 4426 0470 A1040000 		.word	.L375+1
 4427 0474 AD040000 		.word	.L376+1
 4428 0478 B9040000 		.word	.L377+1
 4429 047c C5040000 		.word	.L378+1
 4430 0480 D1040000 		.word	.L379+1
 4431 0484 DD040000 		.word	.L380+1
 4432              	.L373:
1246:.\mem1.c      ****                                         {   
1247:.\mem1.c      ****                                             #ifdef CY_PINS_GPIO_12_0_H 
1248:.\mem1.c      ****                                                 case 0x00: GPIO_12_0_SetDriveMode(config_MASK); bre
 4433              		.loc 1 1248 0
 4434 0488 FB8A     		ldrh	r3, [r7, #22]	@ movhi
 4435 048a DBB2     		uxtb	r3, r3
 4436 048c 1846     		mov	r0, r3
 4437 048e FFF7FEFF 		bl	GPIO_12_0_SetDriveMode
 4438 0492 29E0     		b	.L372
 4439              	.L374:
1249:.\mem1.c      ****                                             #endif
1250:.\mem1.c      ****                                             #ifdef CY_PINS_GPIO_12_1_H 
ARM GAS  C:\Users\Brian\AppData\Local\Temp\ccHjPWqd.s 			page 101


1251:.\mem1.c      ****                                                 case 0x01: GPIO_12_1_SetDriveMode(config_MASK); bre
 4440              		.loc 1 1251 0
 4441 0494 FB8A     		ldrh	r3, [r7, #22]	@ movhi
 4442 0496 DBB2     		uxtb	r3, r3
 4443 0498 1846     		mov	r0, r3
 4444 049a FFF7FEFF 		bl	GPIO_12_1_SetDriveMode
 4445 049e 23E0     		b	.L372
 4446              	.L375:
1252:.\mem1.c      ****                                             #endif
