ARM GAS  C:\Users\Brian\AppData\Local\Temp\ccoW3fAZ.s 			page 1


   1              		.syntax unified
   2              		.cpu cortex-m3
   3              		.fpu softvfp
   4              		.eabi_attribute 20, 1
   5              		.eabi_attribute 21, 1
   6              		.eabi_attribute 23, 3
   7              		.eabi_attribute 24, 1
   8              		.eabi_attribute 25, 1
   9              		.eabi_attribute 26, 1
  10              		.eabi_attribute 30, 6
  11              		.eabi_attribute 34, 1
  12              		.eabi_attribute 18, 4
  13              		.thumb
  14              		.file	"mem1.c"
  15              		.text
  16              	.Ltext0:
  17              		.cfi_sections	.debug_frame
  18              		.section	.text.readData,"ax",%progbits
  19              		.align	2
  20              		.global	readData
  21              		.thumb
  22              		.thumb_func
  23              		.type	readData, %function
  24              	readData:
  25              	.LFB56:
  26              		.file 1 ".\\mem1.c"
   1:.\mem1.c      **** /**
   2:.\mem1.c      **** * \file mem1.c
   3:.\mem1.c      **** * \brief This file contains the source code for access or manipulation of 
   4:.\mem1.c      **** *        all components included in the build. It will do so according to
   5:.\mem1.c      **** *        sets of instructions provided by a Master Device.
   6:.\mem1.c      **** *
   7:.\mem1.c      **** * Version 1.0
   8:.\mem1.c      **** *
   9:.\mem1.c      **** * \author Brian Bradley
  10:.\mem1.c      **** *
  11:.\mem1.c      **** * \bug No known bugs, but the VDAC's and IDAC's are currently untested.
  12:.\mem1.c      **** *
  13:.\mem1.c      **** *
  14:.\mem1.c      **** * Copyright Embedit Electronics
  15:.\mem1.c      **** * 
  16:.\mem1.c      **** */
  17:.\mem1.c      **** 
  18:.\mem1.c      **** #ifndef MEM1_H
  19:.\mem1.c      ****     #include "mem1.h"
  20:.\mem1.c      **** #endif
  21:.\mem1.c      **** 
  22:.\mem1.c      **** #include <project.h>
  23:.\mem1.c      **** #include <stdbool.h>
  24:.\mem1.c      **** 
  25:.\mem1.c      **** /*************************************************************************************************/
  26:.\mem1.c      **** *  @brief This function organizes each component of the build, and gives the 
  27:.\mem1.c      **** *         applicable information to the appropriate address for use.
  28:.\mem1.c      **** *
  29:.\mem1.c      **** *  @param addr: 8-bit number describing the address of the component being accessed
  30:.\mem1.c      **** *  @param cmd: 8-bit number describing a desired usage of a function associated with that component
  31:.\mem1.c      **** *  @param dat: 16-bit number containing a value that is to be written to that function, if applicab
ARM GAS  C:\Users\Brian\AppData\Local\Temp\ccoW3fAZ.s 			page 2


  32:.\mem1.c      **** *
  33:.\mem1.c      **** ***************************************************************************************************
  34:.\mem1.c      **** 
  35:.\mem1.c      **** void readData(uint8 addr, uint8 cmd, uint16 dat)
  36:.\mem1.c      **** {
  27              		.loc 1 36 0
  28              		.cfi_startproc
  29              		@ args = 0, pretend = 0, frame = 8
  30              		@ frame_needed = 1, uses_anonymous_args = 0
  31 0000 80B5     		push	{r7, lr}
  32              	.LCFI0:
  33              		.cfi_def_cfa_offset 8
  34              		.cfi_offset 7, -8
  35              		.cfi_offset 14, -4
  36 0002 82B0     		sub	sp, sp, #8
  37              	.LCFI1:
  38              		.cfi_def_cfa_offset 16
  39 0004 00AF     		add	r7, sp, #0
  40              	.LCFI2:
  41              		.cfi_def_cfa_register 7
  42 0006 1346     		mov	r3, r2
  43 0008 0246     		mov	r2, r0
  44 000a FA71     		strb	r2, [r7, #7]
  45 000c 0A46     		mov	r2, r1
  46 000e BA71     		strb	r2, [r7, #6]
  47 0010 BB80     		strh	r3, [r7, #4]	@ movhi
  37:.\mem1.c      ****     switch(addr)
  48              		.loc 1 37 0
  49 0012 FB79     		ldrb	r3, [r7, #7]	@ zero_extendqisi2
  50 0014 03F1FF33 		add	r3, r3, #-1
  51 0018 152B     		cmp	r3, #21
  52 001a 00F2BC80 		bhi	.L1
  53 001e 01A2     		adr	r2, .L24
  54 0020 52F823F0 		ldr	pc, [r2, r3, lsl #2]
  55              		.align	2
  56              	.L24:
  57 0024 7D000000 		.word	.L3+1
  58 0028 8B000000 		.word	.L4+1
  59 002c 99000000 		.word	.L5+1
  60 0030 A7000000 		.word	.L6+1
  61 0034 B5000000 		.word	.L7+1
  62 0038 C3000000 		.word	.L8+1
  63 003c 97010000 		.word	.L1+1
  64 0040 D1000000 		.word	.L9+1
  65 0044 DF000000 		.word	.L10+1
  66 0048 ED000000 		.word	.L11+1
  67 004c FB000000 		.word	.L12+1
  68 0050 09010000 		.word	.L13+1
  69 0054 17010000 		.word	.L14+1
  70 0058 25010000 		.word	.L15+1
  71 005c 33010000 		.word	.L16+1
  72 0060 41010000 		.word	.L17+1
  73 0064 4F010000 		.word	.L18+1
  74 0068 67010000 		.word	.L19+1
  75 006c 7F010000 		.word	.L20+1
  76 0070 59010000 		.word	.L21+1
  77 0074 71010000 		.word	.L22+1
ARM GAS  C:\Users\Brian\AppData\Local\Temp\ccoW3fAZ.s 			page 3


  78 0078 89010000 		.word	.L23+1
  79              	.L3:
  38:.\mem1.c      ****     {
  39:.\mem1.c      ****         //delsig_adc
  40:.\mem1.c      ****         #ifdef CY_ADC_DELSIG_ADC_DelSig_1_H
  41:.\mem1.c      ****             case DELSIG_ADC_CONTROL: DELSIG_ADC_Control(cmd,dat); break;
  80              		.loc 1 41 0
  81 007c BA79     		ldrb	r2, [r7, #6]	@ zero_extendqisi2
  82 007e BB88     		ldrh	r3, [r7, #4]
  83 0080 1046     		mov	r0, r2
  84 0082 1946     		mov	r1, r3
  85 0084 FFF7FEFF 		bl	DELSIG_ADC_Control
  86 0088 85E0     		b	.L1
  87              	.L4:
  42:.\mem1.c      ****         #endif
  43:.\mem1.c      ****         
  44:.\mem1.c      ****         //sar adc 1
  45:.\mem1.c      ****         #ifdef CY_ADC_SAR_ADC_SAR_1_H 
  46:.\mem1.c      ****             case SAR_ADC0_CONTROL: SAR0_ADC_Control(cmd, dat); break;
  88              		.loc 1 46 0
  89 008a BA79     		ldrb	r2, [r7, #6]	@ zero_extendqisi2
  90 008c BB88     		ldrh	r3, [r7, #4]
  91 008e 1046     		mov	r0, r2
  92 0090 1946     		mov	r1, r3
  93 0092 FFF7FEFF 		bl	SAR0_ADC_Control
  94 0096 7EE0     		b	.L1
  95              	.L5:
  47:.\mem1.c      ****         #endif
  48:.\mem1.c      ****         
  49:.\mem1.c      ****         //sar adc 2
  50:.\mem1.c      ****         #ifdef CY_ADC_SAR_ADC_SAR_2_H 
  51:.\mem1.c      ****             case SAR_ADC1_CONTROL: SAR1_ADC_Control(cmd, dat); break;
  96              		.loc 1 51 0
  97 0098 BA79     		ldrb	r2, [r7, #6]	@ zero_extendqisi2
  98 009a BB88     		ldrh	r3, [r7, #4]
  99 009c 1046     		mov	r0, r2
 100 009e 1946     		mov	r1, r3
 101 00a0 FFF7FEFF 		bl	SAR1_ADC_Control
 102 00a4 77E0     		b	.L1
 103              	.L6:
  52:.\mem1.c      ****         #endif
  53:.\mem1.c      ****         
  54:.\mem1.c      ****         //VDAC1
  55:.\mem1.c      ****         #ifdef CY_VDAC8_VDAC8_1_H
  56:.\mem1.c      ****             case VDAC0_CONTROL: VDAC0_Control(cmd, dat); break;        
 104              		.loc 1 56 0
 105 00a6 BA79     		ldrb	r2, [r7, #6]	@ zero_extendqisi2
 106 00a8 BB88     		ldrh	r3, [r7, #4]
 107 00aa 1046     		mov	r0, r2
 108 00ac 1946     		mov	r1, r3
 109 00ae FFF7FEFF 		bl	VDAC0_Control
 110 00b2 70E0     		b	.L1
 111              	.L7:
  57:.\mem1.c      ****         #endif
  58:.\mem1.c      ****         
  59:.\mem1.c      ****         //VDAC2
  60:.\mem1.c      ****         #ifdef CY_VDAC8_VDAC8_2_H
ARM GAS  C:\Users\Brian\AppData\Local\Temp\ccoW3fAZ.s 			page 4


  61:.\mem1.c      ****             case VDAC1_CONTROL: VDAC1_Control(cmd, dat); break;
 112              		.loc 1 61 0
 113 00b4 BA79     		ldrb	r2, [r7, #6]	@ zero_extendqisi2
 114 00b6 BB88     		ldrh	r3, [r7, #4]
 115 00b8 1046     		mov	r0, r2
 116 00ba 1946     		mov	r1, r3
 117 00bc FFF7FEFF 		bl	VDAC1_Control
 118 00c0 69E0     		b	.L1
 119              	.L8:
  62:.\mem1.c      ****         #endif
  63:.\mem1.c      ****         
  64:.\mem1.c      ****         //IDAC1
  65:.\mem1.c      ****         #ifdef CY_IDAC8_IDAC8_1_H
  66:.\mem1.c      ****             case IDAC0_CONTROL: IDAC0_Control(cmd,dat); break;     
 120              		.loc 1 66 0
 121 00c2 BA79     		ldrb	r2, [r7, #6]	@ zero_extendqisi2
 122 00c4 BB88     		ldrh	r3, [r7, #4]
 123 00c6 1046     		mov	r0, r2
 124 00c8 1946     		mov	r1, r3
 125 00ca FFF7FEFF 		bl	IDAC0_Control
 126 00ce 62E0     		b	.L1
 127              	.L9:
  67:.\mem1.c      ****         #endif
  68:.\mem1.c      ****         
  69:.\mem1.c      ****         //IDAC2
  70:.\mem1.c      ****         #ifdef CY_IDAC8_IDAC8_2_H
  71:.\mem1.c      ****             case IDAC1_CONTROL: IDAC1_Control(cmd, dat); break;     
  72:.\mem1.c      ****         #endif
  73:.\mem1.c      ****         
  74:.\mem1.c      ****         //Wave DAC
  75:.\mem1.c      ****         #ifdef CY_WaveDAC8_WaveDAC8_1_H
  76:.\mem1.c      ****             case WAVEDAC_CONTROL: WAVEDAC_Control(cmd,dat); break;      
 128              		.loc 1 76 0
 129 00d0 BA79     		ldrb	r2, [r7, #6]	@ zero_extendqisi2
 130 00d2 BB88     		ldrh	r3, [r7, #4]
 131 00d4 1046     		mov	r0, r2
 132 00d6 1946     		mov	r1, r3
 133 00d8 FFF7FEFF 		bl	WAVEDAC_Control
 134 00dc 5BE0     		b	.L1
 135              	.L10:
  77:.\mem1.c      ****         #endif
  78:.\mem1.c      ****         
  79:.\mem1.c      ****         //first PWM
  80:.\mem1.c      ****         #ifdef CY_PWM_PWM_1_H
  81:.\mem1.c      ****             case PWM_REGISTER0: PWM_Control_0(cmd, dat); break;
 136              		.loc 1 81 0
 137 00de BA79     		ldrb	r2, [r7, #6]	@ zero_extendqisi2
 138 00e0 BB88     		ldrh	r3, [r7, #4]
 139 00e2 1046     		mov	r0, r2
 140 00e4 1946     		mov	r1, r3
 141 00e6 FFF7FEFF 		bl	PWM_Control_0
 142 00ea 54E0     		b	.L1
 143              	.L11:
  82:.\mem1.c      ****         #endif
  83:.\mem1.c      ****         
  84:.\mem1.c      ****         //second PWM
  85:.\mem1.c      ****         #ifdef CY_PWM_PWM_2_H
ARM GAS  C:\Users\Brian\AppData\Local\Temp\ccoW3fAZ.s 			page 5


  86:.\mem1.c      ****             case PWM_REGISTER1: PWM_Control_1(cmd, dat); break;
 144              		.loc 1 86 0
 145 00ec BA79     		ldrb	r2, [r7, #6]	@ zero_extendqisi2
 146 00ee BB88     		ldrh	r3, [r7, #4]
 147 00f0 1046     		mov	r0, r2
 148 00f2 1946     		mov	r1, r3
 149 00f4 FFF7FEFF 		bl	PWM_Control_1
 150 00f8 4DE0     		b	.L1
 151              	.L12:
  87:.\mem1.c      ****         #endif
  88:.\mem1.c      ****         
  89:.\mem1.c      ****         //third PWM
  90:.\mem1.c      ****         #ifdef CY_PWM_PWM_3_H
  91:.\mem1.c      ****             case PWM_REGISTER2: PWM_Control_2(cmd, dat); break;
 152              		.loc 1 91 0
 153 00fa BA79     		ldrb	r2, [r7, #6]	@ zero_extendqisi2
 154 00fc BB88     		ldrh	r3, [r7, #4]
 155 00fe 1046     		mov	r0, r2
 156 0100 1946     		mov	r1, r3
 157 0102 FFF7FEFF 		bl	PWM_Control_2
 158 0106 46E0     		b	.L1
 159              	.L13:
  92:.\mem1.c      ****         #endif
  93:.\mem1.c      ****         
  94:.\mem1.c      ****         //fourth PWM
  95:.\mem1.c      ****         #ifdef CY_PWM_PWM_4_H
  96:.\mem1.c      ****             case PWM_REGISTER3: PWM_Control_3(cmd, dat); break;  
 160              		.loc 1 96 0
 161 0108 BA79     		ldrb	r2, [r7, #6]	@ zero_extendqisi2
 162 010a BB88     		ldrh	r3, [r7, #4]
 163 010c 1046     		mov	r0, r2
 164 010e 1946     		mov	r1, r3
 165 0110 FFF7FEFF 		bl	PWM_Control_3
 166 0114 3FE0     		b	.L1
 167              	.L14:
  97:.\mem1.c      ****         #endif
  98:.\mem1.c      ****         
  99:.\mem1.c      ****         //fifth PWM
 100:.\mem1.c      ****         #ifdef CY_PWM_PWM_5_H
 101:.\mem1.c      ****             case PWM_REGISTER4: PWM_Control_4(cmd, dat); break;
 168              		.loc 1 101 0
 169 0116 BA79     		ldrb	r2, [r7, #6]	@ zero_extendqisi2
 170 0118 BB88     		ldrh	r3, [r7, #4]
 171 011a 1046     		mov	r0, r2
 172 011c 1946     		mov	r1, r3
 173 011e FFF7FEFF 		bl	PWM_Control_4
 174 0122 38E0     		b	.L1
 175              	.L15:
 102:.\mem1.c      ****         #endif
 103:.\mem1.c      ****         
 104:.\mem1.c      ****         //sixth PWM
 105:.\mem1.c      ****         #ifdef CY_PWM_PWM_6_H
 106:.\mem1.c      ****             case PWM_REGISTER5: PWM_Control_5(cmd, dat); break;  
 176              		.loc 1 106 0
 177 0124 BA79     		ldrb	r2, [r7, #6]	@ zero_extendqisi2
 178 0126 BB88     		ldrh	r3, [r7, #4]
 179 0128 1046     		mov	r0, r2
ARM GAS  C:\Users\Brian\AppData\Local\Temp\ccoW3fAZ.s 			page 6


 180 012a 1946     		mov	r1, r3
 181 012c FFF7FEFF 		bl	PWM_Control_5
 182 0130 31E0     		b	.L1
 183              	.L16:
 107:.\mem1.c      ****         #endif
 108:.\mem1.c      ****         
 109:.\mem1.c      ****         //seventh PWM
 110:.\mem1.c      ****         #ifdef CY_PWM_PWM_7_H
 111:.\mem1.c      ****             case PWM_REGISTER6: PWM_Control_6(cmd, dat); break;
 184              		.loc 1 111 0
 185 0132 BA79     		ldrb	r2, [r7, #6]	@ zero_extendqisi2
 186 0134 BB88     		ldrh	r3, [r7, #4]
 187 0136 1046     		mov	r0, r2
 188 0138 1946     		mov	r1, r3
 189 013a FFF7FEFF 		bl	PWM_Control_6
 190 013e 2AE0     		b	.L1
 191              	.L17:
 112:.\mem1.c      ****         #endif
 113:.\mem1.c      ****         
 114:.\mem1.c      ****         //eighth PWM
 115:.\mem1.c      ****         #ifdef CY_PWM_PWM_8_H
 116:.\mem1.c      ****             case PWM_REGISTER7: PWM_Control_7(cmd, dat); break;
 192              		.loc 1 116 0
 193 0140 BA79     		ldrb	r2, [r7, #6]	@ zero_extendqisi2
 194 0142 BB88     		ldrh	r3, [r7, #4]
 195 0144 1046     		mov	r0, r2
 196 0146 1946     		mov	r1, r3
 197 0148 FFF7FEFF 		bl	PWM_Control_7
 198 014c 23E0     		b	.L1
 199              	.L18:
 117:.\mem1.c      ****         #endif
 118:.\mem1.c      ****         
 119:.\mem1.c      ****         //first status register        
 120:.\mem1.c      ****         #ifdef CY_STATUS_REG_Status_Reg_1_H 
 121:.\mem1.c      ****             #if !defined(Status_Reg_1_sts_sts_reg__REMOVED)
 122:.\mem1.c      ****                 case DIGITAL_INPUT_REGISTER0: Input_Control0(cmd); break; 
 200              		.loc 1 122 0
 201 014e BB79     		ldrb	r3, [r7, #6]	@ zero_extendqisi2
 202 0150 1846     		mov	r0, r3
 203 0152 FFF7FEFF 		bl	Input_Control0
 204 0156 1EE0     		b	.L1
 205              	.L21:
 123:.\mem1.c      ****             #endif
 124:.\mem1.c      ****         #endif
 125:.\mem1.c      ****         
 126:.\mem1.c      ****         //first control register      
 127:.\mem1.c      ****         #ifdef CY_CONTROL_REG_Control_Reg_1_H 
 128:.\mem1.c      ****             #if !defined(Control_Reg_1_Sync_ctrl_reg__REMOVED)
 129:.\mem1.c      ****                 case DIGITAL_OUTPUT_REGISTER0: Output_Control0(cmd, dat); break;   
 206              		.loc 1 129 0
 207 0158 BA79     		ldrb	r2, [r7, #6]	@ zero_extendqisi2
 208 015a BB88     		ldrh	r3, [r7, #4]
 209 015c 1046     		mov	r0, r2
 210 015e 1946     		mov	r1, r3
 211 0160 FFF7FEFF 		bl	Output_Control0
 212 0164 17E0     		b	.L1
 213              	.L19:
ARM GAS  C:\Users\Brian\AppData\Local\Temp\ccoW3fAZ.s 			page 7


 130:.\mem1.c      ****             #endif
 131:.\mem1.c      ****         #endif
 132:.\mem1.c      ****         
 133:.\mem1.c      ****         //second status register
 134:.\mem1.c      ****         #ifdef CY_STATUS_REG_Status_Reg_2_H
 135:.\mem1.c      ****             #if !defined(Status_Reg_2_sts_sts_reg__REMOVED)
 136:.\mem1.c      ****                 case DIGITAL_INPUT_REGISTER1: Input_Control1(cmd); break; 
 214              		.loc 1 136 0
 215 0166 BB79     		ldrb	r3, [r7, #6]	@ zero_extendqisi2
 216 0168 1846     		mov	r0, r3
 217 016a FFF7FEFF 		bl	Input_Control1
 218 016e 12E0     		b	.L1
 219              	.L22:
 137:.\mem1.c      ****             #endif
 138:.\mem1.c      ****         #endif
 139:.\mem1.c      ****         
 140:.\mem1.c      ****         //second control register
 141:.\mem1.c      ****         #ifdef CY_CONTROL_REG_Control_Reg_2_H 
 142:.\mem1.c      ****             #if !defined(Control_Reg_2_Sync_ctrl_reg__REMOVED)
 143:.\mem1.c      ****                 case DIGITAL_OUTPUT_REGISTER1: Output_Control1(cmd, dat); break;   
 220              		.loc 1 143 0
 221 0170 BA79     		ldrb	r2, [r7, #6]	@ zero_extendqisi2
 222 0172 BB88     		ldrh	r3, [r7, #4]
 223 0174 1046     		mov	r0, r2
 224 0176 1946     		mov	r1, r3
 225 0178 FFF7FEFF 		bl	Output_Control1
 226 017c 0BE0     		b	.L1
 227              	.L20:
 144:.\mem1.c      ****             #endif
 145:.\mem1.c      ****         #endif
 146:.\mem1.c      ****         
 147:.\mem1.c      ****         //third status register
 148:.\mem1.c      ****         #ifdef CY_STATUS_REG_Status_Reg_3_H
 149:.\mem1.c      ****             #if !defined(Status_Reg_3_sts_sts_reg__REMOVED)
 150:.\mem1.c      ****                 case DIGITAL_INPUT_REGISTER2: Input_Control2(cmd); break; 
 228              		.loc 1 150 0
 229 017e BB79     		ldrb	r3, [r7, #6]	@ zero_extendqisi2
 230 0180 1846     		mov	r0, r3
 231 0182 FFF7FEFF 		bl	Input_Control2
 232 0186 06E0     		b	.L1
 233              	.L23:
 151:.\mem1.c      ****             #endif
 152:.\mem1.c      ****         #endif
 153:.\mem1.c      ****         
 154:.\mem1.c      ****         //third control register
 155:.\mem1.c      ****         #ifdef CY_CONTROL_REG_Control_Reg_3_H 
 156:.\mem1.c      ****             #if !defined(Control_Reg_3_Sync_ctrl_reg__REMOVED)
 157:.\mem1.c      ****                 case DIGITAL_OUTPUT_REGISTER2: Output_Control2(cmd, dat); break;   
 234              		.loc 1 157 0
 235 0188 BA79     		ldrb	r2, [r7, #6]	@ zero_extendqisi2
 236 018a BB88     		ldrh	r3, [r7, #4]
 237 018c 1046     		mov	r0, r2
 238 018e 1946     		mov	r1, r3
 239 0190 FFF7FEFF 		bl	Output_Control2
 240 0194 00BF     		nop
 241              	.L1:
 158:.\mem1.c      ****             #endif
ARM GAS  C:\Users\Brian\AppData\Local\Temp\ccoW3fAZ.s 			page 8


 159:.\mem1.c      ****         #endif
 160:.\mem1.c      ****         
 161:.\mem1.c      ****     }    
 162:.\mem1.c      **** }
 242              		.loc 1 162 0
 243 0196 07F10807 		add	r7, r7, #8
 244 019a BD46     		mov	sp, r7
 245 019c 80BD     		pop	{r7, pc}
 246              		.cfi_endproc
 247              	.LFE56:
 248              		.size	readData, .-readData
 249 019e 00BF     		.section	.text.DELSIG_ADC_Control,"ax",%progbits
 250              		.align	2
 251              		.global	DELSIG_ADC_Control
 252              		.thumb
 253              		.thumb_func
 254              		.type	DELSIG_ADC_Control, %function
 255              	DELSIG_ADC_Control:
 256              	.LFB57:
 163:.\mem1.c      **** 
 164:.\mem1.c      **** /****************************************************************************************//**
 165:.\mem1.c      **** *  @brief Contains usage scenarios of the DELSIG ADC for use by a Master device. 
 166:.\mem1.c      **** *
 167:.\mem1.c      **** *  @param cmd: 8-bit number describing a desired usage of a function associated 
 168:.\mem1.c      **** *              with the DELSIG ADC
 169:.\mem1.c      **** *  @param val: 16-bit number containing a value that is to be written to that 
 170:.\mem1.c      **** *              function, or modify the component's operation, if applicable.
 171:.\mem1.c      **** *
 172:.\mem1.c      **** *********************************************************************************************/
 173:.\mem1.c      **** 
 174:.\mem1.c      ****     #ifdef CY_ADC_DELSIG_ADC_DelSig_1_H
 175:.\mem1.c      ****         void DELSIG_ADC_Control(uint8 cmd, uint16 val)
 176:.\mem1.c      ****         {
 257              		.loc 1 176 0
 258              		.cfi_startproc
 259              		@ args = 0, pretend = 0, frame = 16
 260              		@ frame_needed = 1, uses_anonymous_args = 0
 261 0000 80B5     		push	{r7, lr}
 262              	.LCFI3:
 263              		.cfi_def_cfa_offset 8
 264              		.cfi_offset 7, -8
 265              		.cfi_offset 14, -4
 266 0002 84B0     		sub	sp, sp, #16
 267              	.LCFI4:
 268              		.cfi_def_cfa_offset 24
 269 0004 00AF     		add	r7, sp, #0
 270              	.LCFI5:
 271              		.cfi_def_cfa_register 7
 272 0006 0246     		mov	r2, r0
 273 0008 0B46     		mov	r3, r1
 274 000a FA71     		strb	r2, [r7, #7]
 275 000c BB80     		strh	r3, [r7, #4]	@ movhi
 177:.\mem1.c      ****             uint32 result = MAX_32;
 276              		.loc 1 177 0
 277 000e 4FF0FF33 		mov	r3, #-1
 278 0012 FB60     		str	r3, [r7, #12]
 178:.\mem1.c      ****             bool return_flag = 0;
ARM GAS  C:\Users\Brian\AppData\Local\Temp\ccoW3fAZ.s 			page 9


 279              		.loc 1 178 0
 280 0014 4FF00003 		mov	r3, #0
 281 0018 FB72     		strb	r3, [r7, #11]
 179:.\mem1.c      ****            
 180:.\mem1.c      ****             switch(cmd)
 282              		.loc 1 180 0
 283 001a FB79     		ldrb	r3, [r7, #7]	@ zero_extendqisi2
 284 001c 152B     		cmp	r3, #21
 285 001e 00F28F80 		bhi	.L26
 286 0022 01A2     		adr	r2, .L40
 287 0024 52F823F0 		ldr	pc, [r2, r3, lsl #2]
 288              		.align	2
 289              	.L40:
 290 0028 81000000 		.word	.L27+1
 291 002c 87000000 		.word	.L28+1
 292 0030 8D000000 		.word	.L29+1
 293 0034 CD000000 		.word	.L30+1
 294 0038 D3000000 		.word	.L31+1
 295 003c 41010000 		.word	.L26+1
 296 0040 41010000 		.word	.L26+1
 297 0044 D9000000 		.word	.L32+1
 298 0048 41010000 		.word	.L26+1
 299 004c 41010000 		.word	.L26+1
 300 0050 ED000000 		.word	.L33+1
 301 0054 41010000 		.word	.L26+1
 302 0058 41010000 		.word	.L26+1
 303 005c FD000000 		.word	.L34+1
 304 0060 0D010000 		.word	.L35+1
 305 0064 17010000 		.word	.L36+1
 306 0068 41010000 		.word	.L26+1
 307 006c 21010000 		.word	.L37+1
 308 0070 41010000 		.word	.L26+1
 309 0074 41010000 		.word	.L26+1
 310 0078 35010000 		.word	.L38+1
 311 007c 3B010000 		.word	.L39+1
 312              	.L27:
 181:.\mem1.c      ****             {
 182:.\mem1.c      ****                 //start_adc
 183:.\mem1.c      ****                 case 0x00: ADC_DelSig_1_Start();break;
 313              		.loc 1 183 0
 314 0080 FFF7FEFF 		bl	ADC_DelSig_1_Start
 315 0084 5CE0     		b	.L26
 316              	.L28:
 184:.\mem1.c      ****                 case 0x01: ADC_DelSig_1_Stop(); break;
 317              		.loc 1 184 0
 318 0086 FFF7FEFF 		bl	ADC_DelSig_1_Stop
 319 008a 59E0     		b	.L26
 320              	.L29:
 185:.\mem1.c      ****                 case 0x02: 
 186:.\mem1.c      ****                         if (val == 1 ){ADC_DelSig_1_SetBufferGain(ADC_DelSig_1_BUF_GAIN_1X); break;
 321              		.loc 1 186 0
 322 008c BB88     		ldrh	r3, [r7, #4]
 323 008e 012B     		cmp	r3, #1
 324 0090 04D1     		bne	.L41
 325              		.loc 1 186 0 is_stmt 0 discriminator 1
 326 0092 4FF00000 		mov	r0, #0
 327 0096 FFF7FEFF 		bl	ADC_DelSig_1_SetBufferGain
ARM GAS  C:\Users\Brian\AppData\Local\Temp\ccoW3fAZ.s 			page 10


 328 009a 51E0     		b	.L26
 329              	.L41:
 187:.\mem1.c      ****                         else if (val == 2){ADC_DelSig_1_SetBufferGain(ADC_DelSig_1_BUF_GAIN_2X); br
 330              		.loc 1 187 0 is_stmt 1
 331 009c BB88     		ldrh	r3, [r7, #4]
 332 009e 022B     		cmp	r3, #2
 333 00a0 04D1     		bne	.L42
 334              		.loc 1 187 0 is_stmt 0 discriminator 1
 335 00a2 4FF00100 		mov	r0, #1
 336 00a6 FFF7FEFF 		bl	ADC_DelSig_1_SetBufferGain
 337 00aa 49E0     		b	.L26
 338              	.L42:
 188:.\mem1.c      ****                         else if (val == 4){ADC_DelSig_1_SetBufferGain(ADC_DelSig_1_BUF_GAIN_4X); br
 339              		.loc 1 188 0 is_stmt 1
 340 00ac BB88     		ldrh	r3, [r7, #4]
 341 00ae 042B     		cmp	r3, #4
 342 00b0 04D1     		bne	.L43
 343              		.loc 1 188 0 is_stmt 0 discriminator 1
 344 00b2 4FF00200 		mov	r0, #2
 345 00b6 FFF7FEFF 		bl	ADC_DelSig_1_SetBufferGain
 346 00ba 41E0     		b	.L26
 347              	.L43:
 189:.\mem1.c      ****                         else if (val == 8){ADC_DelSig_1_SetBufferGain(ADC_DelSig_1_BUF_GAIN_8X); br
 348              		.loc 1 189 0 is_stmt 1
 349 00bc BB88     		ldrh	r3, [r7, #4]
 350 00be 082B     		cmp	r3, #8
 351 00c0 04D1     		bne	.L30
 352              		.loc 1 189 0 is_stmt 0 discriminator 1
 353 00c2 4FF00300 		mov	r0, #3
 354 00c6 FFF7FEFF 		bl	ADC_DelSig_1_SetBufferGain
 355 00ca 39E0     		b	.L26
 356              	.L30:
 190:.\mem1.c      ****                 case 0x03: ADC_DelSig_1_StartConvert(); break;
 357              		.loc 1 190 0 is_stmt 1
 358 00cc FFF7FEFF 		bl	ADC_DelSig_1_StartConvert
 359 00d0 36E0     		b	.L26
 360              	.L31:
 191:.\mem1.c      ****                 case 0x04: ADC_DelSig_1_StopConvert(); break;
 361              		.loc 1 191 0
 362 00d2 FFF7FEFF 		bl	ADC_DelSig_1_StopConvert
 363 00d6 33E0     		b	.L26
 364              	.L32:
 192:.\mem1.c      ****                 case 0x07: result = ADC_DelSig_1_IsEndConversion(ADC_DelSig_1_RETURN_STATUS); retur
 365              		.loc 1 192 0
 366 00d8 4FF00100 		mov	r0, #1
 367 00dc FFF7FEFF 		bl	ADC_DelSig_1_IsEndConversion
 368 00e0 0346     		mov	r3, r0
 369 00e2 FB60     		str	r3, [r7, #12]
 370 00e4 4FF00103 		mov	r3, #1
 371 00e8 FB72     		strb	r3, [r7, #11]
 372 00ea 29E0     		b	.L26
 373              	.L33:
 193:.\mem1.c      ****                 case 0x0A: result = ADC_DelSig_1_GetResult32(); return_flag = 1; break;
 374              		.loc 1 193 0
 375 00ec FFF7FEFF 		bl	ADC_DelSig_1_GetResult32
 376 00f0 0346     		mov	r3, r0
 377 00f2 FB60     		str	r3, [r7, #12]
ARM GAS  C:\Users\Brian\AppData\Local\Temp\ccoW3fAZ.s 			page 11


 378 00f4 4FF00103 		mov	r3, #1
 379 00f8 FB72     		strb	r3, [r7, #11]
 380 00fa 21E0     		b	.L26
 381              	.L34:
 194:.\mem1.c      ****                 case 0x0D: result = ADC_DelSig_1_Read32(); return_flag = 1; break;
 382              		.loc 1 194 0
 383 00fc FFF7FEFF 		bl	ADC_DelSig_1_Read32
 384 0100 0346     		mov	r3, r0
 385 0102 FB60     		str	r3, [r7, #12]
 386 0104 4FF00103 		mov	r3, #1
 387 0108 FB72     		strb	r3, [r7, #11]
 388 010a 19E0     		b	.L26
 389              	.L35:
 195:.\mem1.c      ****                 case 0x0E: ADC_DelSig_1_SetOffset(val); break;
 390              		.loc 1 195 0
 391 010c BB88     		ldrh	r3, [r7, #4]
 392 010e 1846     		mov	r0, r3
 393 0110 FFF7FEFF 		bl	ADC_DelSig_1_SetOffset
 394 0114 14E0     		b	.L26
 395              	.L36:
 196:.\mem1.c      ****                 case 0x0F: ADC_DelSig_1_SetGain(val); break;
 396              		.loc 1 196 0
 397 0116 BB88     		ldrh	r3, [r7, #4]
 398 0118 1846     		mov	r0, r3
 399 011a FFF7FEFF 		bl	ADC_DelSig_1_SetGain
 400 011e 0FE0     		b	.L26
 401              	.L37:
 197:.\mem1.c      ****                 case 0x11: result = ADC_DelSig_1_CountsTo_mVolts(val); return_flag = 1; break;
 402              		.loc 1 197 0
 403 0120 BB88     		ldrh	r3, [r7, #4]
 404 0122 1846     		mov	r0, r3
 405 0124 FFF7FEFF 		bl	ADC_DelSig_1_CountsTo_mVolts
 406 0128 0346     		mov	r3, r0
 407 012a FB60     		str	r3, [r7, #12]
 408 012c 4FF00103 		mov	r3, #1
 409 0130 FB72     		strb	r3, [r7, #11]
 410 0132 05E0     		b	.L26
 411              	.L38:
 198:.\mem1.c      ****                 case 0x14: ADC_DelSig_1_Sleep(); break;
 412              		.loc 1 198 0
 413 0134 FFF7FEFF 		bl	ADC_DelSig_1_Sleep
 414 0138 02E0     		b	.L26
 415              	.L39:
 199:.\mem1.c      ****                 case 0x15: ADC_DelSig_1_Wakeup(); break;
 416              		.loc 1 199 0
 417 013a FFF7FEFF 		bl	ADC_DelSig_1_Wakeup
 418 013e 00BF     		nop
 419              	.L26:
 200:.\mem1.c      ****                     
 201:.\mem1.c      ****                         
 202:.\mem1.c      ****             }
 203:.\mem1.c      ****             
 204:.\mem1.c      ****             if (return_flag)
 420              		.loc 1 204 0
 421 0140 FB7A     		ldrb	r3, [r7, #11]	@ zero_extendqisi2
 422 0142 002B     		cmp	r3, #0
 423 0144 02D0     		beq	.L25
ARM GAS  C:\Users\Brian\AppData\Local\Temp\ccoW3fAZ.s 			page 12


 205:.\mem1.c      ****             {
 206:.\mem1.c      ****                 WriteTo_Pi(result);
 424              		.loc 1 206 0
 425 0146 F868     		ldr	r0, [r7, #12]
 426 0148 FFF7FEFF 		bl	WriteTo_Pi
 427              	.L25:
 207:.\mem1.c      ****             }
 208:.\mem1.c      ****         }
 428              		.loc 1 208 0
 429 014c 07F11007 		add	r7, r7, #16
 430 0150 BD46     		mov	sp, r7
 431 0152 80BD     		pop	{r7, pc}
 432              		.cfi_endproc
 433              	.LFE57:
 434              		.size	DELSIG_ADC_Control, .-DELSIG_ADC_Control
 435              		.section	.text.SAR0_ADC_Control,"ax",%progbits
 436              		.align	2
 437              		.global	SAR0_ADC_Control
 438              		.thumb
 439              		.thumb_func
 440              		.type	SAR0_ADC_Control, %function
 441              	SAR0_ADC_Control:
 442              	.LFB58:
 209:.\mem1.c      ****     #endif
 210:.\mem1.c      ****     
 211:.\mem1.c      **** /****************************************************************************************//**
 212:.\mem1.c      **** *  @brief Contains usage scenarios of the first SAR ADC for use by a Master device. 
 213:.\mem1.c      **** *
 214:.\mem1.c      **** *  @param cmd: 8-bit number describing a desired usage of a function associated 
 215:.\mem1.c      **** *              with the first SAR ADC
 216:.\mem1.c      **** *  @param val: 16-bit number containing a value that is to be written to that 
 217:.\mem1.c      **** *              function, or modify the component's operation, if applicable.
 218:.\mem1.c      **** *
 219:.\mem1.c      **** *********************************************************************************************/
 220:.\mem1.c      ****     
 221:.\mem1.c      ****     #ifdef CY_ADC_SAR_ADC_SAR_1_H
 222:.\mem1.c      ****         void SAR0_ADC_Control(uint8 cmd, uint16 val)
 223:.\mem1.c      ****         {
 443              		.loc 1 223 0
 444              		.cfi_startproc
 445              		@ args = 0, pretend = 0, frame = 16
 446              		@ frame_needed = 1, uses_anonymous_args = 0
 447 0000 80B5     		push	{r7, lr}
 448              	.LCFI6:
 449              		.cfi_def_cfa_offset 8
 450              		.cfi_offset 7, -8
 451              		.cfi_offset 14, -4
 452 0002 84B0     		sub	sp, sp, #16
 453              	.LCFI7:
 454              		.cfi_def_cfa_offset 24
 455 0004 00AF     		add	r7, sp, #0
 456              	.LCFI8:
 457              		.cfi_def_cfa_register 7
 458 0006 0246     		mov	r2, r0
 459 0008 0B46     		mov	r3, r1
 460 000a FA71     		strb	r2, [r7, #7]
 461 000c BB80     		strh	r3, [r7, #4]	@ movhi
ARM GAS  C:\Users\Brian\AppData\Local\Temp\ccoW3fAZ.s 			page 13


 224:.\mem1.c      ****             uint32 result = MAX_32;
 462              		.loc 1 224 0
 463 000e 4FF0FF33 		mov	r3, #-1
 464 0012 FB60     		str	r3, [r7, #12]
 225:.\mem1.c      ****             bool return_flag = 0;
 465              		.loc 1 225 0
 466 0014 4FF00003 		mov	r3, #0
 467 0018 FB72     		strb	r3, [r7, #11]
 226:.\mem1.c      ****             switch(cmd)
 468              		.loc 1 226 0
 469 001a FB79     		ldrb	r3, [r7, #7]	@ zero_extendqisi2
 470 001c 112B     		cmp	r3, #17
 471 001e 7AD8     		bhi	.L46
 472 0020 01A2     		adr	r2, .L59
 473 0022 52F823F0 		ldr	pc, [r2, r3, lsl #2]
 474 0026 00BF     		.align	2
 475              	.L59:
 476 0028 71000000 		.word	.L47+1
 477 002c 77000000 		.word	.L48+1
 478 0030 17010000 		.word	.L46+1
 479 0034 7D000000 		.word	.L49+1
 480 0038 AD000000 		.word	.L50+1
 481 003c B3000000 		.word	.L51+1
 482 0040 17010000 		.word	.L46+1
 483 0044 17010000 		.word	.L46+1
 484 0048 B9000000 		.word	.L52+1
 485 004c 17010000 		.word	.L46+1
 486 0050 CD000000 		.word	.L53+1
 487 0054 DD000000 		.word	.L54+1
 488 0058 E9000000 		.word	.L55+1
 489 005c 17010000 		.word	.L46+1
 490 0060 F5000000 		.word	.L56+1
 491 0064 17010000 		.word	.L46+1
 492 0068 0B010000 		.word	.L57+1
 493 006c 11010000 		.word	.L58+1
 494              	.L47:
 227:.\mem1.c      ****             {
 228:.\mem1.c      ****                 //start_adc
 229:.\mem1.c      ****                 case 0x00: ADC_SAR_1_Start(); break;
 495              		.loc 1 229 0
 496 0070 FFF7FEFF 		bl	ADC_SAR_1_Start
 497 0074 4FE0     		b	.L46
 498              	.L48:
 230:.\mem1.c      ****                 case 0x01: ADC_SAR_1_Stop(); break;
 499              		.loc 1 230 0
 500 0076 FFF7FEFF 		bl	ADC_SAR_1_Stop
 501 007a 4CE0     		b	.L46
 502              	.L49:
 231:.\mem1.c      ****                 case 0x03: 
 232:.\mem1.c      ****                     if (val == 8){ADC_SAR_1_SetResolution(ADC_SAR_1__BITS_8); break;}
 503              		.loc 1 232 0
 504 007c BB88     		ldrh	r3, [r7, #4]
 505 007e 082B     		cmp	r3, #8
 506 0080 04D1     		bne	.L60
 507              		.loc 1 232 0 is_stmt 0 discriminator 1
 508 0082 4FF00800 		mov	r0, #8
 509 0086 FFF7FEFF 		bl	ADC_SAR_1_SetResolution
ARM GAS  C:\Users\Brian\AppData\Local\Temp\ccoW3fAZ.s 			page 14


 510 008a 44E0     		b	.L46
 511              	.L60:
 233:.\mem1.c      ****                     else if (val == 10){ADC_SAR_1_SetResolution(ADC_SAR_1__BITS_10); break;}
 512              		.loc 1 233 0 is_stmt 1
 513 008c BB88     		ldrh	r3, [r7, #4]
 514 008e 0A2B     		cmp	r3, #10
 515 0090 04D1     		bne	.L61
 516              		.loc 1 233 0 is_stmt 0 discriminator 1
 517 0092 4FF00A00 		mov	r0, #10
 518 0096 FFF7FEFF 		bl	ADC_SAR_1_SetResolution
 519 009a 3CE0     		b	.L46
 520              	.L61:
 234:.\mem1.c      ****                     else if (val == 12){ADC_SAR_1_SetResolution(ADC_SAR_1__BITS_12); break;}
 521              		.loc 1 234 0 is_stmt 1
 522 009c BB88     		ldrh	r3, [r7, #4]
 523 009e 0C2B     		cmp	r3, #12
 524 00a0 04D1     		bne	.L50
 525              		.loc 1 234 0 is_stmt 0 discriminator 1
 526 00a2 4FF00C00 		mov	r0, #12
 527 00a6 FFF7FEFF 		bl	ADC_SAR_1_SetResolution
 528 00aa 34E0     		b	.L46
 529              	.L50:
 235:.\mem1.c      ****                 case 0x04: ADC_SAR_1_StartConvert(); break;
 530              		.loc 1 235 0 is_stmt 1
 531 00ac FFF7FEFF 		bl	ADC_SAR_1_StartConvert
 532 00b0 31E0     		b	.L46
 533              	.L51:
 236:.\mem1.c      ****                 case 0x05: ADC_SAR_1_StopConvert(); break;
 534              		.loc 1 236 0
 535 00b2 FFF7FEFF 		bl	ADC_SAR_1_StopConvert
 536 00b6 2EE0     		b	.L46
 537              	.L52:
 237:.\mem1.c      ****                 case 0x08: result = ADC_SAR_1_IsEndConversion(ADC_SAR_1_RETURN_STATUS); return_flag
 538              		.loc 1 237 0
 539 00b8 4FF00100 		mov	r0, #1
 540 00bc FFF7FEFF 		bl	ADC_SAR_1_IsEndConversion
 541 00c0 0346     		mov	r3, r0
 542 00c2 FB60     		str	r3, [r7, #12]
 543 00c4 4FF00103 		mov	r3, #1
 544 00c8 FB72     		strb	r3, [r7, #11]
 545 00ca 24E0     		b	.L46
 546              	.L53:
 238:.\mem1.c      ****                 case 0x0A: result = ADC_SAR_1_GetResult16(); return_flag = 1; break;
 547              		.loc 1 238 0
 548 00cc FFF7FEFF 		bl	ADC_SAR_1_GetResult16
 549 00d0 0346     		mov	r3, r0
 550 00d2 FB60     		str	r3, [r7, #12]
 551 00d4 4FF00103 		mov	r3, #1
 552 00d8 FB72     		strb	r3, [r7, #11]
 553 00da 1CE0     		b	.L46
 554              	.L54:
 239:.\mem1.c      ****                 case 0x0B: ADC_SAR_1_SetOffset(val); break;
 555              		.loc 1 239 0
 556 00dc BB88     		ldrh	r3, [r7, #4]
 557 00de 1BB2     		sxth	r3, r3
 558 00e0 1846     		mov	r0, r3
 559 00e2 FFF7FEFF 		bl	ADC_SAR_1_SetOffset
ARM GAS  C:\Users\Brian\AppData\Local\Temp\ccoW3fAZ.s 			page 15


 560 00e6 16E0     		b	.L46
 561              	.L55:
 240:.\mem1.c      ****                 case 0x0C: ADC_SAR_1_SetGain(val); break;
 562              		.loc 1 240 0
 563 00e8 BB88     		ldrh	r3, [r7, #4]
 564 00ea 1BB2     		sxth	r3, r3
 565 00ec 1846     		mov	r0, r3
 566 00ee FFF7FEFF 		bl	ADC_SAR_1_SetGain
 567 00f2 10E0     		b	.L46
 568              	.L56:
 241:.\mem1.c      ****                 case 0x0E: result = ADC_SAR_1_CountsTo_mVolts(val); return_flag = 1; break;
 569              		.loc 1 241 0
 570 00f4 BB88     		ldrh	r3, [r7, #4]
 571 00f6 1BB2     		sxth	r3, r3
 572 00f8 1846     		mov	r0, r3
 573 00fa FFF7FEFF 		bl	ADC_SAR_1_CountsTo_mVolts
 574 00fe 0346     		mov	r3, r0
 575 0100 FB60     		str	r3, [r7, #12]
 576 0102 4FF00103 		mov	r3, #1
 577 0106 FB72     		strb	r3, [r7, #11]
 578 0108 05E0     		b	.L46
 579              	.L57:
 242:.\mem1.c      ****                 case 0x10: ADC_SAR_1_Sleep(); break;
 580              		.loc 1 242 0
 581 010a FFF7FEFF 		bl	ADC_SAR_1_Sleep
 582 010e 02E0     		b	.L46
 583              	.L58:
 243:.\mem1.c      ****                 case 0x11: ADC_SAR_1_Wakeup(); break;       
 584              		.loc 1 243 0
 585 0110 FFF7FEFF 		bl	ADC_SAR_1_Wakeup
 586 0114 00BF     		nop
 587              	.L46:
 244:.\mem1.c      ****             }
 245:.\mem1.c      ****             
 246:.\mem1.c      ****             if (return_flag)
 588              		.loc 1 246 0
 589 0116 FB7A     		ldrb	r3, [r7, #11]	@ zero_extendqisi2
 590 0118 002B     		cmp	r3, #0
 591 011a 02D0     		beq	.L45
 247:.\mem1.c      ****             {
 248:.\mem1.c      ****                 WriteTo_Pi(result);   
 592              		.loc 1 248 0
 593 011c F868     		ldr	r0, [r7, #12]
 594 011e FFF7FEFF 		bl	WriteTo_Pi
 595              	.L45:
 249:.\mem1.c      ****             }
 250:.\mem1.c      ****         }
 596              		.loc 1 250 0
 597 0122 07F11007 		add	r7, r7, #16
 598 0126 BD46     		mov	sp, r7
 599 0128 80BD     		pop	{r7, pc}
 600              		.cfi_endproc
 601              	.LFE58:
 602              		.size	SAR0_ADC_Control, .-SAR0_ADC_Control
 603 012a 00BF     		.section	.text.SAR1_ADC_Control,"ax",%progbits
 604              		.align	2
 605              		.global	SAR1_ADC_Control
ARM GAS  C:\Users\Brian\AppData\Local\Temp\ccoW3fAZ.s 			page 16


 606              		.thumb
 607              		.thumb_func
 608              		.type	SAR1_ADC_Control, %function
 609              	SAR1_ADC_Control:
 610              	.LFB59:
 251:.\mem1.c      ****      #endif
 252:.\mem1.c      **** /****************************************************************************************//**
 253:.\mem1.c      **** *  @brief Contains usage scenarios of the second SAR ADC for use by a Master device. 
 254:.\mem1.c      **** *
 255:.\mem1.c      **** *  @param cmd: 8-bit number describing a desired usage of a function associated 
 256:.\mem1.c      **** *              with the second SAR ADC
 257:.\mem1.c      **** *  @param val: 16-bit number containing a value that is to be written to that 
 258:.\mem1.c      **** *              function, or modify the component's operation, if applicable.
 259:.\mem1.c      **** *
 260:.\mem1.c      **** *********************************************************************************************/
 261:.\mem1.c      ****     #ifdef CY_ADC_SAR_ADC_SAR_2_H
 262:.\mem1.c      ****          void SAR1_ADC_Control(uint8 cmd, uint16 val)
 263:.\mem1.c      ****         {
 611              		.loc 1 263 0
 612              		.cfi_startproc
 613              		@ args = 0, pretend = 0, frame = 16
 614              		@ frame_needed = 1, uses_anonymous_args = 0
 615 0000 80B5     		push	{r7, lr}
 616              	.LCFI9:
 617              		.cfi_def_cfa_offset 8
 618              		.cfi_offset 7, -8
 619              		.cfi_offset 14, -4
 620 0002 84B0     		sub	sp, sp, #16
 621              	.LCFI10:
 622              		.cfi_def_cfa_offset 24
 623 0004 00AF     		add	r7, sp, #0
 624              	.LCFI11:
 625              		.cfi_def_cfa_register 7
 626 0006 0246     		mov	r2, r0
 627 0008 0B46     		mov	r3, r1
 628 000a FA71     		strb	r2, [r7, #7]
 629 000c BB80     		strh	r3, [r7, #4]	@ movhi
 264:.\mem1.c      ****             uint32 result = MAX_32;
 630              		.loc 1 264 0
 631 000e 4FF0FF33 		mov	r3, #-1
 632 0012 FB60     		str	r3, [r7, #12]
 265:.\mem1.c      ****             bool return_flag = 0;
 633              		.loc 1 265 0
 634 0014 4FF00003 		mov	r3, #0
 635 0018 FB72     		strb	r3, [r7, #11]
 266:.\mem1.c      ****             switch(cmd)
 636              		.loc 1 266 0
 637 001a FB79     		ldrb	r3, [r7, #7]	@ zero_extendqisi2
 638 001c 112B     		cmp	r3, #17
 639 001e 7AD8     		bhi	.L64
 640 0020 01A2     		adr	r2, .L77
 641 0022 52F823F0 		ldr	pc, [r2, r3, lsl #2]
 642 0026 00BF     		.align	2
 643              	.L77:
 644 0028 71000000 		.word	.L65+1
 645 002c 77000000 		.word	.L66+1
 646 0030 17010000 		.word	.L64+1
ARM GAS  C:\Users\Brian\AppData\Local\Temp\ccoW3fAZ.s 			page 17


 647 0034 7D000000 		.word	.L67+1
 648 0038 AD000000 		.word	.L68+1
 649 003c B3000000 		.word	.L69+1
 650 0040 17010000 		.word	.L64+1
 651 0044 17010000 		.word	.L64+1
 652 0048 B9000000 		.word	.L70+1
 653 004c 17010000 		.word	.L64+1
 654 0050 CD000000 		.word	.L71+1
 655 0054 DD000000 		.word	.L72+1
 656 0058 E9000000 		.word	.L73+1
 657 005c 17010000 		.word	.L64+1
 658 0060 F5000000 		.word	.L74+1
 659 0064 17010000 		.word	.L64+1
 660 0068 0B010000 		.word	.L75+1
 661 006c 11010000 		.word	.L76+1
 662              	.L65:
 267:.\mem1.c      ****             {
 268:.\mem1.c      ****                 case 0x00: ADC_SAR_2_Start(); break;
 663              		.loc 1 268 0
 664 0070 FFF7FEFF 		bl	ADC_SAR_2_Start
 665 0074 4FE0     		b	.L64
 666              	.L66:
 269:.\mem1.c      ****                 case 0x01: ADC_SAR_2_Stop(); break;
 667              		.loc 1 269 0
 668 0076 FFF7FEFF 		bl	ADC_SAR_2_Stop
 669 007a 4CE0     		b	.L64
 670              	.L67:
 270:.\mem1.c      ****                 case 0x03: 
 271:.\mem1.c      ****                     if (val == 8){ADC_SAR_1_SetResolution(ADC_SAR_1__BITS_8); break;}
 671              		.loc 1 271 0
 672 007c BB88     		ldrh	r3, [r7, #4]
 673 007e 082B     		cmp	r3, #8
 674 0080 04D1     		bne	.L78
 675              		.loc 1 271 0 is_stmt 0 discriminator 1
 676 0082 4FF00800 		mov	r0, #8
 677 0086 FFF7FEFF 		bl	ADC_SAR_1_SetResolution
 678 008a 44E0     		b	.L64
 679              	.L78:
 272:.\mem1.c      ****                     else if (val == 10){ADC_SAR_1_SetResolution(ADC_SAR_1__BITS_10); break;}
 680              		.loc 1 272 0 is_stmt 1
 681 008c BB88     		ldrh	r3, [r7, #4]
 682 008e 0A2B     		cmp	r3, #10
 683 0090 04D1     		bne	.L79
 684              		.loc 1 272 0 is_stmt 0 discriminator 1
 685 0092 4FF00A00 		mov	r0, #10
 686 0096 FFF7FEFF 		bl	ADC_SAR_1_SetResolution
 687 009a 3CE0     		b	.L64
 688              	.L79:
 273:.\mem1.c      ****                     else if (val == 12){ADC_SAR_1_SetResolution(ADC_SAR_1__BITS_12); break;}
 689              		.loc 1 273 0 is_stmt 1
 690 009c BB88     		ldrh	r3, [r7, #4]
 691 009e 0C2B     		cmp	r3, #12
 692 00a0 04D1     		bne	.L68
 693              		.loc 1 273 0 is_stmt 0 discriminator 1
 694 00a2 4FF00C00 		mov	r0, #12
 695 00a6 FFF7FEFF 		bl	ADC_SAR_1_SetResolution
 696 00aa 34E0     		b	.L64
ARM GAS  C:\Users\Brian\AppData\Local\Temp\ccoW3fAZ.s 			page 18


 697              	.L68:
 274:.\mem1.c      ****                 case 0x04: ADC_SAR_2_StartConvert(); break;
 698              		.loc 1 274 0 is_stmt 1
 699 00ac FFF7FEFF 		bl	ADC_SAR_2_StartConvert
 700 00b0 31E0     		b	.L64
 701              	.L69:
 275:.\mem1.c      ****                 case 0x05: ADC_SAR_2_StopConvert(); break;
 702              		.loc 1 275 0
 703 00b2 FFF7FEFF 		bl	ADC_SAR_2_StopConvert
 704 00b6 2EE0     		b	.L64
 705              	.L70:
 276:.\mem1.c      ****                 case 0x08: result = ADC_SAR_2_IsEndConversion(ADC_SAR_1_RETURN_STATUS); return_flag
 706              		.loc 1 276 0
 707 00b8 4FF00100 		mov	r0, #1
 708 00bc FFF7FEFF 		bl	ADC_SAR_2_IsEndConversion
 709 00c0 0346     		mov	r3, r0
 710 00c2 FB60     		str	r3, [r7, #12]
 711 00c4 4FF00103 		mov	r3, #1
 712 00c8 FB72     		strb	r3, [r7, #11]
 713 00ca 24E0     		b	.L64
 714              	.L71:
 277:.\mem1.c      ****                 case 0x0A: result = ADC_SAR_2_GetResult16(); return_flag = 1; break;
 715              		.loc 1 277 0
 716 00cc FFF7FEFF 		bl	ADC_SAR_2_GetResult16
 717 00d0 0346     		mov	r3, r0
 718 00d2 FB60     		str	r3, [r7, #12]
 719 00d4 4FF00103 		mov	r3, #1
 720 00d8 FB72     		strb	r3, [r7, #11]
 721 00da 1CE0     		b	.L64
 722              	.L72:
 278:.\mem1.c      ****                 case 0x0B: ADC_SAR_2_SetOffset(val); break;
 723              		.loc 1 278 0
 724 00dc BB88     		ldrh	r3, [r7, #4]
 725 00de 1BB2     		sxth	r3, r3
 726 00e0 1846     		mov	r0, r3
 727 00e2 FFF7FEFF 		bl	ADC_SAR_2_SetOffset
 728 00e6 16E0     		b	.L64
 729              	.L73:
 279:.\mem1.c      ****                 case 0x0C: ADC_SAR_2_SetGain(val); break;
 730              		.loc 1 279 0
 731 00e8 BB88     		ldrh	r3, [r7, #4]
 732 00ea 1BB2     		sxth	r3, r3
 733 00ec 1846     		mov	r0, r3
 734 00ee FFF7FEFF 		bl	ADC_SAR_2_SetGain
 735 00f2 10E0     		b	.L64
 736              	.L74:
 280:.\mem1.c      ****                 case 0x0E: result = ADC_SAR_2_CountsTo_mVolts(val); return_flag = 1; break;//Change
 737              		.loc 1 280 0
 738 00f4 BB88     		ldrh	r3, [r7, #4]
 739 00f6 1BB2     		sxth	r3, r3
 740 00f8 1846     		mov	r0, r3
 741 00fa FFF7FEFF 		bl	ADC_SAR_2_CountsTo_mVolts
 742 00fe 0346     		mov	r3, r0
 743 0100 FB60     		str	r3, [r7, #12]
 744 0102 4FF00103 		mov	r3, #1
 745 0106 FB72     		strb	r3, [r7, #11]
 746 0108 05E0     		b	.L64
ARM GAS  C:\Users\Brian\AppData\Local\Temp\ccoW3fAZ.s 			page 19


 747              	.L75:
 281:.\mem1.c      ****                 case 0x10: ADC_SAR_2_Sleep(); break;
 748              		.loc 1 281 0
 749 010a FFF7FEFF 		bl	ADC_SAR_2_Sleep
 750 010e 02E0     		b	.L64
 751              	.L76:
 282:.\mem1.c      ****                 case 0x11: ADC_SAR_2_Wakeup(); break;     
 752              		.loc 1 282 0
 753 0110 FFF7FEFF 		bl	ADC_SAR_2_Wakeup
 754 0114 00BF     		nop
 755              	.L64:
 283:.\mem1.c      ****                 
 284:.\mem1.c      ****             }
 285:.\mem1.c      ****             if (return_flag)
 756              		.loc 1 285 0
 757 0116 FB7A     		ldrb	r3, [r7, #11]	@ zero_extendqisi2
 758 0118 002B     		cmp	r3, #0
 759 011a 02D0     		beq	.L63
 286:.\mem1.c      ****             {
 287:.\mem1.c      ****                 WriteTo_Pi(result);
 760              		.loc 1 287 0
 761 011c F868     		ldr	r0, [r7, #12]
 762 011e FFF7FEFF 		bl	WriteTo_Pi
 763              	.L63:
 288:.\mem1.c      ****             }
 289:.\mem1.c      ****         }
 764              		.loc 1 289 0
 765 0122 07F11007 		add	r7, r7, #16
 766 0126 BD46     		mov	sp, r7
 767 0128 80BD     		pop	{r7, pc}
 768              		.cfi_endproc
 769              	.LFE59:
 770              		.size	SAR1_ADC_Control, .-SAR1_ADC_Control
 771 012a 00BF     		.section	.text.VDAC0_Control,"ax",%progbits
 772              		.align	2
 773              		.global	VDAC0_Control
 774              		.thumb
 775              		.thumb_func
 776              		.type	VDAC0_Control, %function
 777              	VDAC0_Control:
 778              	.LFB60:
 290:.\mem1.c      ****     #endif
 291:.\mem1.c      ****     
 292:.\mem1.c      **** /****************************************************************************************//**
 293:.\mem1.c      **** *  @brief Contains usage scenarios of the first VDAC for use by a Master device. 
 294:.\mem1.c      **** *
 295:.\mem1.c      **** *  @param cmd: 8-bit number describing a desired usage of a function associated 
 296:.\mem1.c      **** *              with the first VDAC
 297:.\mem1.c      **** *  @param val: 16-bit number containing a value that is to be written to that 
 298:.\mem1.c      **** *              function, or modify the component's operation, if applicable.
 299:.\mem1.c      **** *
 300:.\mem1.c      **** *********************************************************************************************/
 301:.\mem1.c      ****     
 302:.\mem1.c      ****     #ifdef CY_VDAC8_VDAC8_1_H
 303:.\mem1.c      ****         void VDAC0_Control(uint8 cmd, uint16 val)
 304:.\mem1.c      ****         {
 779              		.loc 1 304 0
ARM GAS  C:\Users\Brian\AppData\Local\Temp\ccoW3fAZ.s 			page 20


 780              		.cfi_startproc
 781              		@ args = 0, pretend = 0, frame = 16
 782              		@ frame_needed = 1, uses_anonymous_args = 0
 783 0000 80B5     		push	{r7, lr}
 784              	.LCFI12:
 785              		.cfi_def_cfa_offset 8
 786              		.cfi_offset 7, -8
 787              		.cfi_offset 14, -4
 788 0002 84B0     		sub	sp, sp, #16
 789              	.LCFI13:
 790              		.cfi_def_cfa_offset 24
 791 0004 00AF     		add	r7, sp, #0
 792              	.LCFI14:
 793              		.cfi_def_cfa_register 7
 794 0006 0246     		mov	r2, r0
 795 0008 0B46     		mov	r3, r1
 796 000a FA71     		strb	r2, [r7, #7]
 797 000c BB80     		strh	r3, [r7, #4]	@ movhi
 305:.\mem1.c      ****             uint32 result = MAX_32;
 798              		.loc 1 305 0
 799 000e 4FF0FF33 		mov	r3, #-1
 800 0012 FB60     		str	r3, [r7, #12]
 306:.\mem1.c      ****             bool return_flag = 0;
 801              		.loc 1 306 0
 802 0014 4FF00003 		mov	r3, #0
 803 0018 FB72     		strb	r3, [r7, #11]
 307:.\mem1.c      ****                 switch(cmd)
 804              		.loc 1 307 0
 805 001a FB79     		ldrb	r3, [r7, #7]	@ zero_extendqisi2
 806 001c 062B     		cmp	r3, #6
 807 001e 43D8     		bhi	.L82
 808 0020 01A2     		adr	r2, .L90
 809 0022 52F823F0 		ldr	pc, [r2, r3, lsl #2]
 810 0026 00BF     		.align	2
 811              	.L90:
 812 0028 45000000 		.word	.L83+1
 813 002c 4B000000 		.word	.L84+1
 814 0030 51000000 		.word	.L85+1
 815 0034 71000000 		.word	.L86+1
 816 0038 91000000 		.word	.L87+1
 817 003c 9D000000 		.word	.L88+1
 818 0040 A3000000 		.word	.L89+1
 819              	.L83:
 308:.\mem1.c      ****                 {
 309:.\mem1.c      ****                     case 0x00: VDAC8_1_Start(); break;
 820              		.loc 1 309 0
 821 0044 FFF7FEFF 		bl	VDAC8_1_Start
 822 0048 2EE0     		b	.L82
 823              	.L84:
 310:.\mem1.c      ****                     case 0x01: VDAC8_1_Stop(); break;
 824              		.loc 1 310 0
 825 004a FFF7FEFF 		bl	VDAC8_1_Stop
 826 004e 2BE0     		b	.L82
 827              	.L85:
 311:.\mem1.c      ****                     case 0x02: 
 312:.\mem1.c      ****                         if (val == 0){VDAC8_1_SetSpeed(VDAC8_1_LOWSPEED); break;}
 828              		.loc 1 312 0
ARM GAS  C:\Users\Brian\AppData\Local\Temp\ccoW3fAZ.s 			page 21


 829 0050 BB88     		ldrh	r3, [r7, #4]
 830 0052 002B     		cmp	r3, #0
 831 0054 04D1     		bne	.L91
 832              		.loc 1 312 0 is_stmt 0 discriminator 1
 833 0056 4FF00000 		mov	r0, #0
 834 005a FFF7FEFF 		bl	VDAC8_1_SetSpeed
 835 005e 23E0     		b	.L82
 836              	.L91:
 313:.\mem1.c      ****                         else if (val == 1){VDAC8_1_SetSpeed(VDAC8_1_HIGHSPEED); break;}
 837              		.loc 1 313 0 is_stmt 1
 838 0060 BB88     		ldrh	r3, [r7, #4]
 839 0062 012B     		cmp	r3, #1
 840 0064 04D1     		bne	.L86
 841              		.loc 1 313 0 is_stmt 0 discriminator 1
 842 0066 4FF00200 		mov	r0, #2
 843 006a FFF7FEFF 		bl	VDAC8_1_SetSpeed
 844 006e 1BE0     		b	.L82
 845              	.L86:
 314:.\mem1.c      ****                     case 0x03:
 315:.\mem1.c      ****                         if (val == 0){VDAC8_1_SetRange(VDAC8_1_RANGE_1V); break;}
 846              		.loc 1 315 0 is_stmt 1
 847 0070 BB88     		ldrh	r3, [r7, #4]
 848 0072 002B     		cmp	r3, #0
 849 0074 04D1     		bne	.L92
 850              		.loc 1 315 0 is_stmt 0 discriminator 1
 851 0076 4FF00000 		mov	r0, #0
 852 007a FFF7FEFF 		bl	VDAC8_1_SetRange
 853 007e 13E0     		b	.L82
 854              	.L92:
 316:.\mem1.c      ****                         else if (val == 1){VDAC8_1_SetRange(VDAC8_1_RANGE_4V); break;}
 855              		.loc 1 316 0 is_stmt 1
 856 0080 BB88     		ldrh	r3, [r7, #4]
 857 0082 012B     		cmp	r3, #1
 858 0084 04D1     		bne	.L87
 859              		.loc 1 316 0 is_stmt 0 discriminator 1
 860 0086 4FF00400 		mov	r0, #4
 861 008a FFF7FEFF 		bl	VDAC8_1_SetRange
 862 008e 0BE0     		b	.L82
 863              	.L87:
 317:.\mem1.c      ****                     case 0x04: VDAC8_1_SetValue(val); break; 
 864              		.loc 1 317 0 is_stmt 1
 865 0090 BB88     		ldrh	r3, [r7, #4]	@ movhi
 866 0092 DBB2     		uxtb	r3, r3
 867 0094 1846     		mov	r0, r3
 868 0096 FFF7FEFF 		bl	VDAC8_1_SetValue
 869 009a 05E0     		b	.L82
 870              	.L88:
 318:.\mem1.c      ****                     case 0x05: VDAC8_1_Sleep(); break;
 871              		.loc 1 318 0
 872 009c FFF7FEFF 		bl	VDAC8_1_Sleep
 873 00a0 02E0     		b	.L82
 874              	.L89:
 319:.\mem1.c      ****                     case 0x06: VDAC8_1_Wakeup(); break;     
 875              		.loc 1 319 0
 876 00a2 FFF7FEFF 		bl	VDAC8_1_Wakeup
 877 00a6 00BF     		nop
 878              	.L82:
ARM GAS  C:\Users\Brian\AppData\Local\Temp\ccoW3fAZ.s 			page 22


 320:.\mem1.c      ****                     
 321:.\mem1.c      ****                 }
 322:.\mem1.c      ****                 if (return_flag)
 879              		.loc 1 322 0
 880 00a8 FB7A     		ldrb	r3, [r7, #11]	@ zero_extendqisi2
 881 00aa 002B     		cmp	r3, #0
 882 00ac 02D0     		beq	.L81
 323:.\mem1.c      ****             {
 324:.\mem1.c      ****                 WriteTo_Pi(result);
 883              		.loc 1 324 0
 884 00ae F868     		ldr	r0, [r7, #12]
 885 00b0 FFF7FEFF 		bl	WriteTo_Pi
 886              	.L81:
 325:.\mem1.c      ****             }
 326:.\mem1.c      ****         }
 887              		.loc 1 326 0
 888 00b4 07F11007 		add	r7, r7, #16
 889 00b8 BD46     		mov	sp, r7
 890 00ba 80BD     		pop	{r7, pc}
 891              		.cfi_endproc
 892              	.LFE60:
 893              		.size	VDAC0_Control, .-VDAC0_Control
 894              		.section	.text.VDAC1_Control,"ax",%progbits
 895              		.align	2
 896              		.global	VDAC1_Control
 897              		.thumb
 898              		.thumb_func
 899              		.type	VDAC1_Control, %function
 900              	VDAC1_Control:
 901              	.LFB61:
 327:.\mem1.c      ****     #endif
 328:.\mem1.c      ****     
 329:.\mem1.c      **** /****************************************************************************************//**
 330:.\mem1.c      **** *  @brief Contains usage scenarios of the second VDAC for use by a Master device. 
 331:.\mem1.c      **** *
 332:.\mem1.c      **** *  @param cmd: 8-bit number describing a desired usage of a function associated 
 333:.\mem1.c      **** *              with the second VDAC
 334:.\mem1.c      **** *  @param val: 16-bit number containing a value that is to be written to that 
 335:.\mem1.c      **** *              function, or modify the component's operation, if applicable.
 336:.\mem1.c      **** *
 337:.\mem1.c      **** *********************************************************************************************/
 338:.\mem1.c      ****     #ifdef CY_VDAC8_VDAC8_2_H
 339:.\mem1.c      ****         void VDAC1_Control(uint8 cmd, uint16 val)
 340:.\mem1.c      ****         {
 902              		.loc 1 340 0
 903              		.cfi_startproc
 904              		@ args = 0, pretend = 0, frame = 16
 905              		@ frame_needed = 1, uses_anonymous_args = 0
 906 0000 80B5     		push	{r7, lr}
 907              	.LCFI15:
 908              		.cfi_def_cfa_offset 8
 909              		.cfi_offset 7, -8
 910              		.cfi_offset 14, -4
 911 0002 84B0     		sub	sp, sp, #16
 912              	.LCFI16:
 913              		.cfi_def_cfa_offset 24
 914 0004 00AF     		add	r7, sp, #0
ARM GAS  C:\Users\Brian\AppData\Local\Temp\ccoW3fAZ.s 			page 23


 915              	.LCFI17:
 916              		.cfi_def_cfa_register 7
 917 0006 0246     		mov	r2, r0
 918 0008 0B46     		mov	r3, r1
 919 000a FA71     		strb	r2, [r7, #7]
 920 000c BB80     		strh	r3, [r7, #4]	@ movhi
 341:.\mem1.c      ****             uint32 result = MAX_32;
 921              		.loc 1 341 0
 922 000e 4FF0FF33 		mov	r3, #-1
 923 0012 FB60     		str	r3, [r7, #12]
 342:.\mem1.c      ****             bool return_flag = 0;
 924              		.loc 1 342 0
 925 0014 4FF00003 		mov	r3, #0
 926 0018 FB72     		strb	r3, [r7, #11]
 343:.\mem1.c      ****                 switch(cmd)
 927              		.loc 1 343 0
 928 001a FB79     		ldrb	r3, [r7, #7]	@ zero_extendqisi2
 929 001c 062B     		cmp	r3, #6
 930 001e 43D8     		bhi	.L95
 931 0020 01A2     		adr	r2, .L103
 932 0022 52F823F0 		ldr	pc, [r2, r3, lsl #2]
 933 0026 00BF     		.align	2
 934              	.L103:
 935 0028 45000000 		.word	.L96+1
 936 002c 4B000000 		.word	.L97+1
 937 0030 51000000 		.word	.L98+1
 938 0034 71000000 		.word	.L99+1
 939 0038 91000000 		.word	.L100+1
 940 003c 9D000000 		.word	.L101+1
 941 0040 A3000000 		.word	.L102+1
 942              	.L96:
 344:.\mem1.c      ****                 {
 345:.\mem1.c      ****                     case 0x00: VDAC8_2_Start(); break;
 943              		.loc 1 345 0
 944 0044 FFF7FEFF 		bl	VDAC8_2_Start
 945 0048 2EE0     		b	.L95
 946              	.L97:
 346:.\mem1.c      ****                     case 0x01: VDAC8_2_Stop(); break;
 947              		.loc 1 346 0
 948 004a FFF7FEFF 		bl	VDAC8_2_Stop
 949 004e 2BE0     		b	.L95
 950              	.L98:
 347:.\mem1.c      ****                     case 0x02: 
 348:.\mem1.c      ****                         if (val == 0){VDAC8_2_SetSpeed(VDAC8_2_LOWSPEED); break;}
 951              		.loc 1 348 0
 952 0050 BB88     		ldrh	r3, [r7, #4]
 953 0052 002B     		cmp	r3, #0
 954 0054 04D1     		bne	.L104
 955              		.loc 1 348 0 is_stmt 0 discriminator 1
 956 0056 4FF00000 		mov	r0, #0
 957 005a FFF7FEFF 		bl	VDAC8_2_SetSpeed
 958 005e 23E0     		b	.L95
 959              	.L104:
 349:.\mem1.c      ****                         else if (val == 1){VDAC8_2_SetSpeed(VDAC8_2_HIGHSPEED); break;}
 960              		.loc 1 349 0 is_stmt 1
 961 0060 BB88     		ldrh	r3, [r7, #4]
 962 0062 012B     		cmp	r3, #1
ARM GAS  C:\Users\Brian\AppData\Local\Temp\ccoW3fAZ.s 			page 24


 963 0064 04D1     		bne	.L99
 964              		.loc 1 349 0 is_stmt 0 discriminator 1
 965 0066 4FF00200 		mov	r0, #2
 966 006a FFF7FEFF 		bl	VDAC8_2_SetSpeed
 967 006e 1BE0     		b	.L95
 968              	.L99:
 350:.\mem1.c      ****                     case 0x03:
 351:.\mem1.c      ****                         if (val == 0){VDAC8_2_SetRange(VDAC8_2_RANGE_1V); break;}
 969              		.loc 1 351 0 is_stmt 1
 970 0070 BB88     		ldrh	r3, [r7, #4]
 971 0072 002B     		cmp	r3, #0
 972 0074 04D1     		bne	.L105
 973              		.loc 1 351 0 is_stmt 0 discriminator 1
 974 0076 4FF00000 		mov	r0, #0
 975 007a FFF7FEFF 		bl	VDAC8_2_SetRange
 976 007e 13E0     		b	.L95
 977              	.L105:
 352:.\mem1.c      ****                         else if (val == 1){VDAC8_2_SetRange(VDAC8_2_RANGE_4V); break;}
 978              		.loc 1 352 0 is_stmt 1
 979 0080 BB88     		ldrh	r3, [r7, #4]
 980 0082 012B     		cmp	r3, #1
 981 0084 04D1     		bne	.L100
 982              		.loc 1 352 0 is_stmt 0 discriminator 1
 983 0086 4FF00400 		mov	r0, #4
 984 008a FFF7FEFF 		bl	VDAC8_2_SetRange
 985 008e 0BE0     		b	.L95
 986              	.L100:
 353:.\mem1.c      ****                     case 0x04: VDAC8_2_SetValue(val); break; 
 987              		.loc 1 353 0 is_stmt 1
 988 0090 BB88     		ldrh	r3, [r7, #4]	@ movhi
 989 0092 DBB2     		uxtb	r3, r3
 990 0094 1846     		mov	r0, r3
 991 0096 FFF7FEFF 		bl	VDAC8_2_SetValue
 992 009a 05E0     		b	.L95
 993              	.L101:
 354:.\mem1.c      ****                     case 0x05: VDAC8_2_Sleep(); break;
 994              		.loc 1 354 0
 995 009c FFF7FEFF 		bl	VDAC8_2_Sleep
 996 00a0 02E0     		b	.L95
 997              	.L102:
 355:.\mem1.c      ****                     case 0x06: VDAC8_2_Wakeup(); break;     
 998              		.loc 1 355 0
 999 00a2 FFF7FEFF 		bl	VDAC8_2_Wakeup
 1000 00a6 00BF     		nop
 1001              	.L95:
 356:.\mem1.c      ****                     
 357:.\mem1.c      ****                 }
 358:.\mem1.c      ****             if (return_flag)
 1002              		.loc 1 358 0
 1003 00a8 FB7A     		ldrb	r3, [r7, #11]	@ zero_extendqisi2
 1004 00aa 002B     		cmp	r3, #0
 1005 00ac 02D0     		beq	.L94
 359:.\mem1.c      ****             {
 360:.\mem1.c      ****                 WriteTo_Pi(result);
 1006              		.loc 1 360 0
 1007 00ae F868     		ldr	r0, [r7, #12]
 1008 00b0 FFF7FEFF 		bl	WriteTo_Pi
ARM GAS  C:\Users\Brian\AppData\Local\Temp\ccoW3fAZ.s 			page 25


 1009              	.L94:
 361:.\mem1.c      ****             }
 362:.\mem1.c      ****         }
 1010              		.loc 1 362 0
 1011 00b4 07F11007 		add	r7, r7, #16
 1012 00b8 BD46     		mov	sp, r7
 1013 00ba 80BD     		pop	{r7, pc}
 1014              		.cfi_endproc
 1015              	.LFE61:
 1016              		.size	VDAC1_Control, .-VDAC1_Control
 1017              		.section	.text.IDAC0_Control,"ax",%progbits
 1018              		.align	2
 1019              		.global	IDAC0_Control
 1020              		.thumb
 1021              		.thumb_func
 1022              		.type	IDAC0_Control, %function
 1023              	IDAC0_Control:
 1024              	.LFB62:
 363:.\mem1.c      ****     #endif
 364:.\mem1.c      ****     
 365:.\mem1.c      **** /****************************************************************************************//**
 366:.\mem1.c      **** *  @brief Contains usage scenarios of the first IDAC for use by a Master device. 
 367:.\mem1.c      **** *
 368:.\mem1.c      **** *  @param cmd: 8-bit number describing a desired usage of a function associated 
 369:.\mem1.c      **** *              with the first IDAC
 370:.\mem1.c      **** *  @param val: 16-bit number containing a value that is to be written to that 
 371:.\mem1.c      **** *              function, or modify the component's operation, if applicable.
 372:.\mem1.c      **** *
 373:.\mem1.c      **** *********************************************************************************************/
 374:.\mem1.c      ****     
 375:.\mem1.c      ****     #ifdef CY_IDAC8_IDAC8_1_H
 376:.\mem1.c      ****         void IDAC0_Control(uint8 cmd, uint16 val)
 377:.\mem1.c      ****             {
 1025              		.loc 1 377 0
 1026              		.cfi_startproc
 1027              		@ args = 0, pretend = 0, frame = 16
 1028              		@ frame_needed = 1, uses_anonymous_args = 0
 1029 0000 80B5     		push	{r7, lr}
 1030              	.LCFI18:
 1031              		.cfi_def_cfa_offset 8
 1032              		.cfi_offset 7, -8
 1033              		.cfi_offset 14, -4
 1034 0002 84B0     		sub	sp, sp, #16
 1035              	.LCFI19:
 1036              		.cfi_def_cfa_offset 24
 1037 0004 00AF     		add	r7, sp, #0
 1038              	.LCFI20:
 1039              		.cfi_def_cfa_register 7
 1040 0006 0246     		mov	r2, r0
 1041 0008 0B46     		mov	r3, r1
 1042 000a FA71     		strb	r2, [r7, #7]
 1043 000c BB80     		strh	r3, [r7, #4]	@ movhi
 378:.\mem1.c      ****                 uint32 result = MAX_32;
 1044              		.loc 1 378 0
 1045 000e 4FF0FF33 		mov	r3, #-1
 1046 0012 FB60     		str	r3, [r7, #12]
 379:.\mem1.c      ****                 bool return_flag = 0;
ARM GAS  C:\Users\Brian\AppData\Local\Temp\ccoW3fAZ.s 			page 26


 1047              		.loc 1 379 0
 1048 0014 4FF00003 		mov	r3, #0
 1049 0018 FB72     		strb	r3, [r7, #11]
 380:.\mem1.c      ****                     switch(cmd)
 1050              		.loc 1 380 0
 1051 001a FB79     		ldrb	r3, [r7, #7]	@ zero_extendqisi2
 1052 001c 072B     		cmp	r3, #7
 1053 001e 5DD8     		bhi	.L108
 1054 0020 01A2     		adr	r2, .L117
 1055 0022 52F823F0 		ldr	pc, [r2, r3, lsl #2]
 1056 0026 00BF     		.align	2
 1057              	.L117:
 1058 0028 49000000 		.word	.L109+1
 1059 002c 4F000000 		.word	.L110+1
 1060 0030 55000000 		.word	.L111+1
 1061 0034 75000000 		.word	.L112+1
 1062 0038 95000000 		.word	.L113+1
 1063 003c C5000000 		.word	.L114+1
 1064 0040 D1000000 		.word	.L115+1
 1065 0044 D7000000 		.word	.L116+1
 1066              	.L109:
 381:.\mem1.c      ****                     {
 382:.\mem1.c      ****                         case 0x00: IDAC8_1_Start(); break;
 1067              		.loc 1 382 0
 1068 0048 FFF7FEFF 		bl	IDAC8_1_Start
 1069 004c 46E0     		b	.L108
 1070              	.L110:
 383:.\mem1.c      ****                         case 0x01: IDAC8_1_Stop(); break;
 1071              		.loc 1 383 0
 1072 004e FFF7FEFF 		bl	IDAC8_1_Stop
 1073 0052 43E0     		b	.L108
 1074              	.L111:
 384:.\mem1.c      ****                         case 0x02: 
 385:.\mem1.c      ****                             if (val == 0){IDAC8_1_SetSpeed(IDAC8_1_LOWSPEED); break;}
 1075              		.loc 1 385 0
 1076 0054 BB88     		ldrh	r3, [r7, #4]
 1077 0056 002B     		cmp	r3, #0
 1078 0058 04D1     		bne	.L118
 1079              		.loc 1 385 0 is_stmt 0 discriminator 1
 1080 005a 4FF00000 		mov	r0, #0
 1081 005e FFF7FEFF 		bl	IDAC8_1_SetSpeed
 1082 0062 3BE0     		b	.L108
 1083              	.L118:
 386:.\mem1.c      ****                             else if (val == 1){IDAC8_1_SetSpeed(IDAC8_1_HIGHSPEED); break;}
 1084              		.loc 1 386 0 is_stmt 1
 1085 0064 BB88     		ldrh	r3, [r7, #4]
 1086 0066 012B     		cmp	r3, #1
 1087 0068 04D1     		bne	.L112
 1088              		.loc 1 386 0 is_stmt 0 discriminator 1
 1089 006a 4FF00200 		mov	r0, #2
 1090 006e FFF7FEFF 		bl	IDAC8_1_SetSpeed
 1091 0072 33E0     		b	.L108
 1092              	.L112:
 387:.\mem1.c      ****                         case 0x03:
 388:.\mem1.c      ****                             if (val == 0){IDAC8_1_SetPolarity(IDAC8_1_SOURCE); break;}
 1093              		.loc 1 388 0 is_stmt 1
 1094 0074 BB88     		ldrh	r3, [r7, #4]
ARM GAS  C:\Users\Brian\AppData\Local\Temp\ccoW3fAZ.s 			page 27


 1095 0076 002B     		cmp	r3, #0
 1096 0078 04D1     		bne	.L119
 1097              		.loc 1 388 0 is_stmt 0 discriminator 1
 1098 007a 4FF00000 		mov	r0, #0
 1099 007e FFF7FEFF 		bl	IDAC8_1_SetPolarity
 1100 0082 2BE0     		b	.L108
 1101              	.L119:
 389:.\mem1.c      ****                             else if (val == 1){IDAC8_1_SetPolarity(IDAC8_1_SINK); break;}
 1102              		.loc 1 389 0 is_stmt 1
 1103 0084 BB88     		ldrh	r3, [r7, #4]
 1104 0086 012B     		cmp	r3, #1
 1105 0088 04D1     		bne	.L113
 1106              		.loc 1 389 0 is_stmt 0 discriminator 1
 1107 008a 4FF00400 		mov	r0, #4
 1108 008e FFF7FEFF 		bl	IDAC8_1_SetPolarity
 1109 0092 23E0     		b	.L108
 1110              	.L113:
 390:.\mem1.c      ****                         case 0x04:
 391:.\mem1.c      ****                             if (val == 0){IDAC8_1_SetRange(IDAC8_1_RANGE_32uA); break;}
 1111              		.loc 1 391 0 is_stmt 1
 1112 0094 BB88     		ldrh	r3, [r7, #4]
 1113 0096 002B     		cmp	r3, #0
 1114 0098 04D1     		bne	.L120
 1115              		.loc 1 391 0 is_stmt 0 discriminator 1
 1116 009a 4FF00000 		mov	r0, #0
 1117 009e FFF7FEFF 		bl	IDAC8_1_SetRange
 1118 00a2 1BE0     		b	.L108
 1119              	.L120:
 392:.\mem1.c      ****                             else if (val == 1){IDAC8_1_SetRange(IDAC8_1_RANGE_255uA); break;}
 1120              		.loc 1 392 0 is_stmt 1
 1121 00a4 BB88     		ldrh	r3, [r7, #4]
 1122 00a6 012B     		cmp	r3, #1
 1123 00a8 04D1     		bne	.L121
 1124              		.loc 1 392 0 is_stmt 0 discriminator 1
 1125 00aa 4FF00400 		mov	r0, #4
 1126 00ae FFF7FEFF 		bl	IDAC8_1_SetRange
 1127 00b2 13E0     		b	.L108
 1128              	.L121:
 393:.\mem1.c      ****                             else if (val == 2){IDAC8_1_SetRange(IDAC8_1_RANGE_2mA); break;}
 1129              		.loc 1 393 0 is_stmt 1
 1130 00b4 BB88     		ldrh	r3, [r7, #4]
 1131 00b6 022B     		cmp	r3, #2
 1132 00b8 04D1     		bne	.L114
 1133              		.loc 1 393 0 is_stmt 0 discriminator 1
 1134 00ba 4FF00800 		mov	r0, #8
 1135 00be FFF7FEFF 		bl	IDAC8_1_SetRange
 1136 00c2 0BE0     		b	.L108
 1137              	.L114:
 394:.\mem1.c      ****                         case 0x05: IDAC8_1_SetValue(val); break;
 1138              		.loc 1 394 0 is_stmt 1
 1139 00c4 BB88     		ldrh	r3, [r7, #4]	@ movhi
 1140 00c6 DBB2     		uxtb	r3, r3
 1141 00c8 1846     		mov	r0, r3
 1142 00ca FFF7FEFF 		bl	IDAC8_1_SetValue
 1143 00ce 05E0     		b	.L108
 1144              	.L115:
 395:.\mem1.c      ****                         case 0x06: IDAC8_1_Sleep(); break;
ARM GAS  C:\Users\Brian\AppData\Local\Temp\ccoW3fAZ.s 			page 28


 1145              		.loc 1 395 0
 1146 00d0 FFF7FEFF 		bl	IDAC8_1_Sleep
 1147 00d4 02E0     		b	.L108
 1148              	.L116:
 396:.\mem1.c      ****                         case 0x07: IDAC8_1_Wakeup(); break;     
 1149              		.loc 1 396 0
 1150 00d6 FFF7FEFF 		bl	IDAC8_1_Wakeup
 1151 00da 00BF     		nop
 1152              	.L108:
 397:.\mem1.c      ****                         
 398:.\mem1.c      ****                     }
 399:.\mem1.c      ****                 if (return_flag)
 1153              		.loc 1 399 0
 1154 00dc FB7A     		ldrb	r3, [r7, #11]	@ zero_extendqisi2
 1155 00de 002B     		cmp	r3, #0
 1156 00e0 02D0     		beq	.L107
 400:.\mem1.c      ****                 {
 401:.\mem1.c      ****                     WriteTo_Pi(result);
 1157              		.loc 1 401 0
 1158 00e2 F868     		ldr	r0, [r7, #12]
 1159 00e4 FFF7FEFF 		bl	WriteTo_Pi
 1160              	.L107:
 402:.\mem1.c      ****                 }
 403:.\mem1.c      ****             }
 1161              		.loc 1 403 0
 1162 00e8 07F11007 		add	r7, r7, #16
 1163 00ec BD46     		mov	sp, r7
 1164 00ee 80BD     		pop	{r7, pc}
 1165              		.cfi_endproc
 1166              	.LFE62:
 1167              		.size	IDAC0_Control, .-IDAC0_Control
 1168              		.section	.text.WAVEDAC_Control,"ax",%progbits
 1169              		.align	2
 1170              		.global	WAVEDAC_Control
 1171              		.thumb
 1172              		.thumb_func
 1173              		.type	WAVEDAC_Control, %function
 1174              	WAVEDAC_Control:
 1175              	.LFB63:
 404:.\mem1.c      ****     #endif
 405:.\mem1.c      ****     
 406:.\mem1.c      **** /****************************************************************************************//**
 407:.\mem1.c      **** *  @brief Contains usage scenarios of the second IDAC for use by a Master device. 
 408:.\mem1.c      **** *
 409:.\mem1.c      **** *  @param cmd: 8-bit number describing a desired usage of a function associated 
 410:.\mem1.c      **** *              with the second IDAC
 411:.\mem1.c      **** *  @param val: 16-bit number containing a value that is to be written to that 
 412:.\mem1.c      **** *              function, or modify the component's operation, if applicable.
 413:.\mem1.c      **** *
 414:.\mem1.c      **** *********************************************************************************************/
 415:.\mem1.c      ****     
 416:.\mem1.c      ****     #ifdef CY_IDAC8_IDAC8_2_H
 417:.\mem1.c      ****         void IDAC1_Control(uint8 cmd, uint16 val)
 418:.\mem1.c      ****         {
 419:.\mem1.c      ****             uint32 result = MAX_32;
 420:.\mem1.c      ****             bool return_flag = 0;
 421:.\mem1.c      ****                 switch(cmd)
ARM GAS  C:\Users\Brian\AppData\Local\Temp\ccoW3fAZ.s 			page 29


 422:.\mem1.c      ****                 {
 423:.\mem1.c      ****                     case 0x00: IDAC8_2_Start(); break;
 424:.\mem1.c      ****                     case 0x01: IDAC8_2_Stop(); break;
 425:.\mem1.c      ****                     case 0x02: 
 426:.\mem1.c      ****                         if (val == 0){IDAC8_2_SetSpeed(IDAC8_2_LOWSPEED); break;}
 427:.\mem1.c      ****                         else if (val == 1){IDAC8_2_SetSpeed(IDAC8_2_HIGHSPEED); break;}
 428:.\mem1.c      ****                     case 0x03:
 429:.\mem1.c      ****                         if (val == 0){IDAC8_2_SetPolarity(IDAC8_2_SOURCE); break;}
 430:.\mem1.c      ****                         else if (val == 1){IDAC8_2_SetPolarity(IDAC8_2_SINK); break;}
 431:.\mem1.c      ****                     case 0x04:
 432:.\mem1.c      ****                         if (val == 0){IDAC8_2_SetRange(IDAC8_2_RANGE_32uA); break;}
 433:.\mem1.c      ****                         else if (val == 1){IDAC8_2_SetRange(IDAC8_2_RANGE_255uA); break;}
 434:.\mem1.c      ****                         else if (val == 2){IDAC8_2_SetRange(IDAC8_2_RANGE_2mA); break;}
 435:.\mem1.c      ****                     case 0x05: IDAC8_2_SetValue(val); break;
 436:.\mem1.c      ****                     case 0x06: IDAC8_2_Sleep(); break;
 437:.\mem1.c      ****                     case 0x07: IDAC8_2_Wakeup(); break;     
 438:.\mem1.c      ****                     
 439:.\mem1.c      ****                 }
 440:.\mem1.c      ****                 if (return_flag)
 441:.\mem1.c      ****                 {
 442:.\mem1.c      ****                     WriteTo_Pi(result);
 443:.\mem1.c      ****                 }
 444:.\mem1.c      ****         }
 445:.\mem1.c      ****     #endif
 446:.\mem1.c      ****     
 447:.\mem1.c      **** /****************************************************************************************//**
 448:.\mem1.c      **** *  @brief Contains usage scenarios of the WaveDAC8 for use by a Master device. 
 449:.\mem1.c      **** *
 450:.\mem1.c      **** *  @param cmd: 8-bit number describing a desired usage of a function associated 
 451:.\mem1.c      **** *              with the WaveDAC8
 452:.\mem1.c      **** *  @param val: 16-bit number containing a value that is to be written to that 
 453:.\mem1.c      **** *              function, or modify the component's operation, if applicable.
 454:.\mem1.c      **** *
 455:.\mem1.c      **** *********************************************************************************************/
 456:.\mem1.c      ****     
 457:.\mem1.c      ****     #ifdef CY_WaveDAC8_WaveDAC8_1_H
 458:.\mem1.c      ****         void WAVEDAC_Control(uint8 cmd, uint16 val)
 459:.\mem1.c      ****         {
 1176              		.loc 1 459 0
 1177              		.cfi_startproc
 1178              		@ args = 0, pretend = 0, frame = 16
 1179              		@ frame_needed = 1, uses_anonymous_args = 0
 1180 0000 80B5     		push	{r7, lr}
 1181              	.LCFI21:
 1182              		.cfi_def_cfa_offset 8
 1183              		.cfi_offset 7, -8
 1184              		.cfi_offset 14, -4
 1185 0002 84B0     		sub	sp, sp, #16
 1186              	.LCFI22:
 1187              		.cfi_def_cfa_offset 24
 1188 0004 00AF     		add	r7, sp, #0
 1189              	.LCFI23:
 1190              		.cfi_def_cfa_register 7
 1191 0006 0246     		mov	r2, r0
 1192 0008 0B46     		mov	r3, r1
 1193 000a FA71     		strb	r2, [r7, #7]
 1194 000c BB80     		strh	r3, [r7, #4]	@ movhi
ARM GAS  C:\Users\Brian\AppData\Local\Temp\ccoW3fAZ.s 			page 30


 460:.\mem1.c      ****             uint32 result = MAX_32;
 1195              		.loc 1 460 0
 1196 000e 4FF0FF33 		mov	r3, #-1
 1197 0012 FB60     		str	r3, [r7, #12]
 461:.\mem1.c      ****             bool return_flag = 0;
 1198              		.loc 1 461 0
 1199 0014 4FF00003 		mov	r3, #0
 1200 0018 FB72     		strb	r3, [r7, #11]
 462:.\mem1.c      ****             
 463:.\mem1.c      ****             switch(cmd)
 1201              		.loc 1 463 0
 1202 001a FB79     		ldrb	r3, [r7, #7]	@ zero_extendqisi2
 1203 001c 092B     		cmp	r3, #9
 1204 001e 34D0     		beq	.L129
 1205 0020 092B     		cmp	r3, #9
 1206 0022 0BDC     		bgt	.L135
 1207 0024 012B     		cmp	r3, #1
 1208 0026 1AD0     		beq	.L126
 1209 0028 012B     		cmp	r3, #1
 1210 002a 02DC     		bgt	.L136
 1211 002c 002B     		cmp	r3, #0
 1212 002e 13D0     		beq	.L125
 1213 0030 47E0     		b	.L124
 1214              	.L136:
 1215 0032 042B     		cmp	r3, #4
 1216 0034 16D0     		beq	.L127
 1217 0036 072B     		cmp	r3, #7
 1218 0038 17D0     		beq	.L128
 1219 003a 42E0     		b	.L124
 1220              	.L135:
 1221 003c FD2B     		cmp	r3, #253
 1222 003e 30D0     		beq	.L132
 1223 0040 FD2B     		cmp	r3, #253
 1224 0042 04DC     		bgt	.L137
 1225 0044 0B2B     		cmp	r3, #11
 1226 0046 26D0     		beq	.L130
 1227 0048 0C2B     		cmp	r3, #12
 1228 004a 27D0     		beq	.L131
 1229 004c 39E0     		b	.L124
 1230              	.L137:
 1231 004e FE2B     		cmp	r3, #254
 1232 0050 2AD0     		beq	.L133
 1233 0052 FF2B     		cmp	r3, #255
 1234 0054 2BD0     		beq	.L134
 1235 0056 34E0     		b	.L124
 1236              	.L125:
 464:.\mem1.c      ****                 {
 465:.\mem1.c      ****                     case 0x00: WaveDAC8_1_Start(); break;
 1237              		.loc 1 465 0
 1238 0058 FFF7FEFF 		bl	WaveDAC8_1_Start
 1239 005c 31E0     		b	.L124
 1240              	.L126:
 466:.\mem1.c      ****                     case 0x01: WaveDAC8_1_Stop(); break;
 1241              		.loc 1 466 0
 1242 005e FFF7FEFF 		bl	WaveDAC8_1_Stop
 1243 0062 2EE0     		b	.L124
 1244              	.L127:
ARM GAS  C:\Users\Brian\AppData\Local\Temp\ccoW3fAZ.s 			page 31


 467:.\mem1.c      ****                     case 0x04: Generate_Wave(); break;
 1245              		.loc 1 467 0
 1246 0064 FFF7FEFF 		bl	Generate_Wave
 1247 0068 2BE0     		b	.L124
 1248              	.L128:
 468:.\mem1.c      ****                     case 0x07: 
 469:.\mem1.c      ****                         if (val == 0){WaveDAC8_1_SetSpeed(WaveDAC8_1_LOWSPEED); break;}
 1249              		.loc 1 469 0
 1250 006a BB88     		ldrh	r3, [r7, #4]
 1251 006c 002B     		cmp	r3, #0
 1252 006e 04D1     		bne	.L138
 1253              		.loc 1 469 0 is_stmt 0 discriminator 1
 1254 0070 4FF00000 		mov	r0, #0
 1255 0074 FFF7FEFF 		bl	WaveDAC8_1_VDAC8_SetSpeed
 1256 0078 23E0     		b	.L124
 1257              	.L138:
 470:.\mem1.c      ****                         else if (val == 1){WaveDAC8_1_SetSpeed(WaveDAC8_1_HIGHSPEED); break;}
 1258              		.loc 1 470 0 is_stmt 1
 1259 007a BB88     		ldrh	r3, [r7, #4]
 1260 007c 012B     		cmp	r3, #1
 1261 007e 04D1     		bne	.L129
 1262              		.loc 1 470 0 is_stmt 0 discriminator 1
 1263 0080 4FF00200 		mov	r0, #2
 1264 0084 FFF7FEFF 		bl	WaveDAC8_1_VDAC8_SetSpeed
 1265 0088 1BE0     		b	.L124
 1266              	.L129:
 471:.\mem1.c      ****                     case 0x09: WaveDAC8_1_SetValue(val); break;
 1267              		.loc 1 471 0 is_stmt 1
 1268 008a BB88     		ldrh	r3, [r7, #4]	@ movhi
 1269 008c DBB2     		uxtb	r3, r3
 1270 008e 1846     		mov	r0, r3
 1271 0090 FFF7FEFF 		bl	WaveDAC8_1_VDAC8_SetValue
 1272 0094 15E0     		b	.L124
 1273              	.L130:
 472:.\mem1.c      ****                     case 0x0B: WaveDAC8_1_Sleep(); break;
 1274              		.loc 1 472 0
 1275 0096 FFF7FEFF 		bl	WaveDAC8_1_Sleep
 1276 009a 12E0     		b	.L124
 1277              	.L131:
 473:.\mem1.c      ****                     case 0x0C: WaveDAC8_1_Wakeup(); break;
 1278              		.loc 1 473 0
 1279 009c FFF7FEFF 		bl	WaveDAC8_1_Wakeup
 1280 00a0 0FE0     		b	.L124
 1281              	.L132:
 474:.\mem1.c      ****                     case 0xFD: WaveDAC_clk_Start(); break;
 1282              		.loc 1 474 0
 1283 00a2 FFF7FEFF 		bl	WaveDAC_clk_Start
 1284 00a6 0CE0     		b	.L124
 1285              	.L133:
 475:.\mem1.c      ****                     case 0xFE: WaveDAC_clk_Stop(); break;
 1286              		.loc 1 475 0
 1287 00a8 FFF7FEFF 		bl	WaveDAC_clk_Stop
 1288 00ac 09E0     		b	.L124
 1289              	.L134:
 476:.\mem1.c      ****                     case 0xFF: WaveDAC_clk_SetDividerValue(val); break; 
 1290              		.loc 1 476 0
 1291 00ae BB88     		ldrh	r3, [r7, #4]	@ movhi
ARM GAS  C:\Users\Brian\AppData\Local\Temp\ccoW3fAZ.s 			page 32


 1292 00b0 03F1FF33 		add	r3, r3, #-1
 1293 00b4 9BB2     		uxth	r3, r3
 1294 00b6 1846     		mov	r0, r3
 1295 00b8 4FF00101 		mov	r1, #1
 1296 00bc FFF7FEFF 		bl	WaveDAC_clk_SetDividerRegister
 1297 00c0 00BF     		nop
 1298              	.L124:
 477:.\mem1.c      ****                         
 478:.\mem1.c      ****                     
 479:.\mem1.c      ****                 }   
 480:.\mem1.c      ****                 
 481:.\mem1.c      ****              if (return_flag)
 1299              		.loc 1 481 0
 1300 00c2 FB7A     		ldrb	r3, [r7, #11]	@ zero_extendqisi2
 1301 00c4 002B     		cmp	r3, #0
 1302 00c6 02D0     		beq	.L123
 482:.\mem1.c      ****                 {
 483:.\mem1.c      ****                     WriteTo_Pi(result);
 1303              		.loc 1 483 0
 1304 00c8 F868     		ldr	r0, [r7, #12]
 1305 00ca FFF7FEFF 		bl	WriteTo_Pi
 1306              	.L123:
 484:.\mem1.c      ****                 }
 485:.\mem1.c      ****             
 486:.\mem1.c      ****         }
 1307              		.loc 1 486 0
 1308 00ce 07F11007 		add	r7, r7, #16
 1309 00d2 BD46     		mov	sp, r7
 1310 00d4 80BD     		pop	{r7, pc}
 1311              		.cfi_endproc
 1312              	.LFE63:
 1313              		.size	WAVEDAC_Control, .-WAVEDAC_Control
 1314              		.global	__aeabi_ui2d
 1315              		.global	__aeabi_ddiv
 1316              		.global	__aeabi_dmul
 1317              		.global	__aeabi_dadd
 1318              		.global	__aeabi_dcmpgt
 1319              		.global	__aeabi_d2uiz
 1320 00d6 00BF     		.section	.rodata
 1321              		.align	2
 1322              	.LC0:
 1323 0000 80       		.byte	-128
 1324 0001 83       		.byte	-125
 1325 0002 86       		.byte	-122
 1326 0003 89       		.byte	-119
 1327 0004 8C       		.byte	-116
 1328 0005 8F       		.byte	-113
 1329 0006 92       		.byte	-110
 1330 0007 95       		.byte	-107
 1331 0008 98       		.byte	-104
 1332 0009 9C       		.byte	-100
 1333 000a 9F       		.byte	-97
 1334 000b A2       		.byte	-94
 1335 000c A5       		.byte	-91
 1336 000d A8       		.byte	-88
 1337 000e AB       		.byte	-85
 1338 000f AE       		.byte	-82
ARM GAS  C:\Users\Brian\AppData\Local\Temp\ccoW3fAZ.s 			page 33


 1339 0010 B0       		.byte	-80
 1340 0011 B3       		.byte	-77
 1341 0012 B6       		.byte	-74
 1342 0013 B9       		.byte	-71
 1343 0014 BC       		.byte	-68
 1344 0015 BF       		.byte	-65
 1345 0016 C1       		.byte	-63
 1346 0017 C4       		.byte	-60
 1347 0018 C7       		.byte	-57
 1348 0019 C9       		.byte	-55
 1349 001a CC       		.byte	-52
 1350 001b CE       		.byte	-50
 1351 001c D1       		.byte	-47
 1352 001d D3       		.byte	-45
 1353 001e D5       		.byte	-43
 1354 001f D8       		.byte	-40
 1355 0020 DA       		.byte	-38
 1356 0021 DC       		.byte	-36
 1357 0022 DE       		.byte	-34
 1358 0023 E0       		.byte	-32
 1359 0024 E2       		.byte	-30
 1360 0025 E4       		.byte	-28
 1361 0026 E6       		.byte	-26
 1362 0027 E8       		.byte	-24
 1363 0028 EA       		.byte	-22
 1364 0029 EC       		.byte	-20
 1365 002a ED       		.byte	-19
 1366 002b EF       		.byte	-17
 1367 002c F0       		.byte	-16
 1368 002d F2       		.byte	-14
 1369 002e F3       		.byte	-13
 1370 002f F5       		.byte	-11
 1371 0030 F6       		.byte	-10
 1372 0031 F7       		.byte	-9
 1373 0032 F8       		.byte	-8
 1374 0033 F9       		.byte	-7
 1375 0034 FA       		.byte	-6
 1376 0035 FB       		.byte	-5
 1377 0036 FC       		.byte	-4
 1378 0037 FC       		.byte	-4
 1379 0038 FD       		.byte	-3
 1380 0039 FE       		.byte	-2
 1381 003a FE       		.byte	-2
 1382 003b FF       		.byte	-1
 1383 003c FF       		.byte	-1
 1384 003d FF       		.byte	-1
 1385 003e FF       		.byte	-1
 1386 003f FF       		.byte	-1
 1387 0040 FF       		.byte	-1
 1388 0041 FF       		.byte	-1
 1389 0042 FF       		.byte	-1
 1390 0043 FF       		.byte	-1
 1391 0044 FF       		.byte	-1
 1392 0045 FF       		.byte	-1
 1393 0046 FE       		.byte	-2
 1394 0047 FE       		.byte	-2
 1395 0048 FD       		.byte	-3
ARM GAS  C:\Users\Brian\AppData\Local\Temp\ccoW3fAZ.s 			page 34


 1396 0049 FC       		.byte	-4
 1397 004a FC       		.byte	-4
 1398 004b FB       		.byte	-5
 1399 004c FA       		.byte	-6
 1400 004d F9       		.byte	-7
 1401 004e F8       		.byte	-8
 1402 004f F7       		.byte	-9
 1403 0050 F6       		.byte	-10
 1404 0051 F5       		.byte	-11
 1405 0052 F3       		.byte	-13
 1406 0053 F2       		.byte	-14
 1407 0054 F0       		.byte	-16
 1408 0055 EF       		.byte	-17
 1409 0056 ED       		.byte	-19
 1410 0057 EC       		.byte	-20
 1411 0058 EA       		.byte	-22
 1412 0059 E8       		.byte	-24
 1413 005a E6       		.byte	-26
 1414 005b E4       		.byte	-28
 1415 005c E2       		.byte	-30
 1416 005d E0       		.byte	-32
 1417 005e DE       		.byte	-34
 1418 005f DC       		.byte	-36
 1419 0060 DA       		.byte	-38
 1420 0061 D8       		.byte	-40
 1421 0062 D5       		.byte	-43
 1422 0063 D3       		.byte	-45
 1423 0064 D1       		.byte	-47
 1424 0065 CE       		.byte	-50
 1425 0066 CC       		.byte	-52
 1426 0067 C9       		.byte	-55
 1427 0068 C7       		.byte	-57
 1428 0069 C4       		.byte	-60
 1429 006a C1       		.byte	-63
 1430 006b BF       		.byte	-65
 1431 006c BC       		.byte	-68
 1432 006d B9       		.byte	-71
 1433 006e B6       		.byte	-74
 1434 006f B3       		.byte	-77
 1435 0070 B0       		.byte	-80
 1436 0071 AE       		.byte	-82
 1437 0072 AB       		.byte	-85
 1438 0073 A8       		.byte	-88
 1439 0074 A5       		.byte	-91
 1440 0075 A2       		.byte	-94
 1441 0076 9F       		.byte	-97
 1442 0077 9C       		.byte	-100
 1443 0078 98       		.byte	-104
 1444 0079 95       		.byte	-107
 1445 007a 92       		.byte	-110
 1446 007b 8F       		.byte	-113
 1447 007c 8C       		.byte	-116
 1448 007d 89       		.byte	-119
 1449 007e 86       		.byte	-122
 1450 007f 83       		.byte	-125
 1451 0080 80       		.byte	-128
 1452 0081 7C       		.byte	124
ARM GAS  C:\Users\Brian\AppData\Local\Temp\ccoW3fAZ.s 			page 35


 1453 0082 79       		.byte	121
 1454 0083 76       		.byte	118
 1455 0084 73       		.byte	115
 1456 0085 70       		.byte	112
 1457 0086 6D       		.byte	109
 1458 0087 6A       		.byte	106
 1459 0088 67       		.byte	103
 1460 0089 63       		.byte	99
 1461 008a 60       		.byte	96
 1462 008b 5D       		.byte	93
 1463 008c 5A       		.byte	90
 1464 008d 57       		.byte	87
 1465 008e 54       		.byte	84
 1466 008f 51       		.byte	81
 1467 0090 4F       		.byte	79
 1468 0091 4C       		.byte	76
 1469 0092 49       		.byte	73
 1470 0093 46       		.byte	70
 1471 0094 43       		.byte	67
 1472 0095 40       		.byte	64
 1473 0096 3E       		.byte	62
 1474 0097 3B       		.byte	59
 1475 0098 38       		.byte	56
 1476 0099 36       		.byte	54
 1477 009a 33       		.byte	51
 1478 009b 31       		.byte	49
 1479 009c 2E       		.byte	46
 1480 009d 2C       		.byte	44
 1481 009e 2A       		.byte	42
 1482 009f 27       		.byte	39
 1483 00a0 25       		.byte	37
 1484 00a1 23       		.byte	35
 1485 00a2 21       		.byte	33
 1486 00a3 1F       		.byte	31
 1487 00a4 1D       		.byte	29
 1488 00a5 1B       		.byte	27
 1489 00a6 19       		.byte	25
 1490 00a7 17       		.byte	23
 1491 00a8 15       		.byte	21
 1492 00a9 13       		.byte	19
 1493 00aa 12       		.byte	18
 1494 00ab 10       		.byte	16
 1495 00ac 0F       		.byte	15
 1496 00ad 0D       		.byte	13
 1497 00ae 0C       		.byte	12
 1498 00af 0A       		.byte	10
 1499 00b0 09       		.byte	9
 1500 00b1 08       		.byte	8
 1501 00b2 07       		.byte	7
 1502 00b3 06       		.byte	6
 1503 00b4 05       		.byte	5
 1504 00b5 04       		.byte	4
 1505 00b6 03       		.byte	3
 1506 00b7 03       		.byte	3
 1507 00b8 02       		.byte	2
 1508 00b9 01       		.byte	1
 1509 00ba 01       		.byte	1
ARM GAS  C:\Users\Brian\AppData\Local\Temp\ccoW3fAZ.s 			page 36


 1510 00bb 00       		.byte	0
 1511 00bc 00       		.byte	0
 1512 00bd 00       		.byte	0
 1513 00be 00       		.byte	0
 1514 00bf 00       		.byte	0
 1515 00c0 00       		.byte	0
 1516 00c1 00       		.byte	0
 1517 00c2 00       		.byte	0
 1518 00c3 00       		.byte	0
 1519 00c4 00       		.byte	0
 1520 00c5 00       		.byte	0
 1521 00c6 01       		.byte	1
 1522 00c7 01       		.byte	1
 1523 00c8 02       		.byte	2
 1524 00c9 03       		.byte	3
 1525 00ca 03       		.byte	3
 1526 00cb 04       		.byte	4
 1527 00cc 05       		.byte	5
 1528 00cd 06       		.byte	6
 1529 00ce 07       		.byte	7
 1530 00cf 08       		.byte	8
 1531 00d0 09       		.byte	9
 1532 00d1 0A       		.byte	10
 1533 00d2 0C       		.byte	12
 1534 00d3 0D       		.byte	13
 1535 00d4 0F       		.byte	15
 1536 00d5 10       		.byte	16
 1537 00d6 12       		.byte	18
 1538 00d7 13       		.byte	19
 1539 00d8 15       		.byte	21
 1540 00d9 17       		.byte	23
 1541 00da 19       		.byte	25
 1542 00db 1B       		.byte	27
 1543 00dc 1D       		.byte	29
 1544 00dd 1F       		.byte	31
 1545 00de 21       		.byte	33
 1546 00df 23       		.byte	35
 1547 00e0 25       		.byte	37
 1548 00e1 27       		.byte	39
 1549 00e2 2A       		.byte	42
 1550 00e3 2C       		.byte	44
 1551 00e4 2E       		.byte	46
 1552 00e5 31       		.byte	49
 1553 00e6 33       		.byte	51
 1554 00e7 36       		.byte	54
 1555 00e8 38       		.byte	56
 1556 00e9 3B       		.byte	59
 1557 00ea 3E       		.byte	62
 1558 00eb 40       		.byte	64
 1559 00ec 43       		.byte	67
 1560 00ed 46       		.byte	70
 1561 00ee 49       		.byte	73
 1562 00ef 4C       		.byte	76
 1563 00f0 4F       		.byte	79
 1564 00f1 51       		.byte	81
 1565 00f2 54       		.byte	84
 1566 00f3 57       		.byte	87
ARM GAS  C:\Users\Brian\AppData\Local\Temp\ccoW3fAZ.s 			page 37


 1567 00f4 5A       		.byte	90
 1568 00f5 5D       		.byte	93
 1569 00f6 60       		.byte	96
 1570 00f7 63       		.byte	99
 1571 00f8 67       		.byte	103
 1572 00f9 6A       		.byte	106
 1573 00fa 6D       		.byte	109
 1574 00fb 70       		.byte	112
 1575 00fc 73       		.byte	115
 1576 00fd 76       		.byte	118
 1577 00fe 79       		.byte	121
 1578 00ff 00       		.align	2
 1579              	.LC1:
 1580 0100 01       		.byte	1
 1581 0101 01       		.byte	1
 1582 0102 01       		.byte	1
 1583 0103 01       		.byte	1
 1584 0104 01       		.byte	1
 1585 0105 01       		.byte	1
 1586 0106 01       		.byte	1
 1587 0107 01       		.byte	1
 1588 0108 01       		.byte	1
 1589 0109 01       		.byte	1
 1590 010a 01       		.byte	1
 1591 010b 01       		.byte	1
 1592 010c 01       		.byte	1
 1593 010d 01       		.byte	1
 1594 010e 01       		.byte	1
 1595 010f 01       		.byte	1
 1596 0110 01       		.byte	1
 1597 0111 01       		.byte	1
 1598 0112 01       		.byte	1
 1599 0113 01       		.byte	1
 1600 0114 01       		.byte	1
 1601 0115 01       		.byte	1
 1602 0116 01       		.byte	1
 1603 0117 01       		.byte	1
 1604 0118 01       		.byte	1
 1605 0119 01       		.byte	1
 1606 011a 01       		.byte	1
 1607 011b 01       		.byte	1
 1608 011c 01       		.byte	1
 1609 011d 01       		.byte	1
 1610 011e 01       		.byte	1
 1611 011f 01       		.byte	1
 1612 0120 01       		.byte	1
 1613 0121 01       		.byte	1
 1614 0122 01       		.byte	1
 1615 0123 01       		.byte	1
 1616 0124 01       		.byte	1
 1617 0125 01       		.byte	1
 1618 0126 01       		.byte	1
 1619 0127 01       		.byte	1
 1620 0128 01       		.byte	1
 1621 0129 01       		.byte	1
 1622 012a 01       		.byte	1
 1623 012b 01       		.byte	1
ARM GAS  C:\Users\Brian\AppData\Local\Temp\ccoW3fAZ.s 			page 38


 1624 012c 01       		.byte	1
 1625 012d 01       		.byte	1
 1626 012e 01       		.byte	1
 1627 012f 01       		.byte	1
 1628 0130 01       		.byte	1
 1629 0131 01       		.byte	1
 1630 0132 01       		.byte	1
 1631 0133 01       		.byte	1
 1632 0134 01       		.byte	1
 1633 0135 01       		.byte	1
 1634 0136 01       		.byte	1
 1635 0137 01       		.byte	1
 1636 0138 01       		.byte	1
 1637 0139 01       		.byte	1
 1638 013a 01       		.byte	1
 1639 013b 01       		.byte	1
 1640 013c 01       		.byte	1
 1641 013d 01       		.byte	1
 1642 013e 01       		.byte	1
 1643 013f 01       		.byte	1
 1644 0140 01       		.byte	1
 1645 0141 01       		.byte	1
 1646 0142 01       		.byte	1
 1647 0143 01       		.byte	1
 1648 0144 01       		.byte	1
 1649 0145 01       		.byte	1
 1650 0146 01       		.byte	1
 1651 0147 01       		.byte	1
 1652 0148 01       		.byte	1
 1653 0149 01       		.byte	1
 1654 014a 01       		.byte	1
 1655 014b 01       		.byte	1
 1656 014c 01       		.byte	1
 1657 014d 01       		.byte	1
 1658 014e 01       		.byte	1
 1659 014f 01       		.byte	1
 1660 0150 01       		.byte	1
 1661 0151 01       		.byte	1
 1662 0152 01       		.byte	1
 1663 0153 01       		.byte	1
 1664 0154 01       		.byte	1
 1665 0155 01       		.byte	1
 1666 0156 01       		.byte	1
 1667 0157 01       		.byte	1
 1668 0158 01       		.byte	1
 1669 0159 01       		.byte	1
 1670 015a 01       		.byte	1
 1671 015b 01       		.byte	1
 1672 015c 01       		.byte	1
 1673 015d 01       		.byte	1
 1674 015e 01       		.byte	1
 1675 015f 01       		.byte	1
 1676 0160 01       		.byte	1
 1677 0161 01       		.byte	1
 1678 0162 01       		.byte	1
 1679 0163 01       		.byte	1
 1680 0164 01       		.byte	1
ARM GAS  C:\Users\Brian\AppData\Local\Temp\ccoW3fAZ.s 			page 39


 1681 0165 01       		.byte	1
 1682 0166 01       		.byte	1
 1683 0167 01       		.byte	1
 1684 0168 01       		.byte	1
 1685 0169 01       		.byte	1
 1686 016a 01       		.byte	1
 1687 016b 01       		.byte	1
 1688 016c 01       		.byte	1
 1689 016d 01       		.byte	1
 1690 016e 01       		.byte	1
 1691 016f 01       		.byte	1
 1692 0170 01       		.byte	1
 1693 0171 01       		.byte	1
 1694 0172 01       		.byte	1
 1695 0173 01       		.byte	1
 1696 0174 01       		.byte	1
 1697 0175 01       		.byte	1
 1698 0176 01       		.byte	1
 1699 0177 01       		.byte	1
 1700 0178 01       		.byte	1
 1701 0179 01       		.byte	1
 1702 017a 01       		.byte	1
 1703 017b 01       		.byte	1
 1704 017c 01       		.byte	1
 1705 017d 01       		.byte	1
 1706 017e 01       		.byte	1
 1707 017f 01       		.byte	1
 1708 0180 FF       		.byte	-1
 1709 0181 FF       		.byte	-1
 1710 0182 FF       		.byte	-1
 1711 0183 FF       		.byte	-1
 1712 0184 FF       		.byte	-1
 1713 0185 FF       		.byte	-1
 1714 0186 FF       		.byte	-1
 1715 0187 FF       		.byte	-1
 1716 0188 FF       		.byte	-1
 1717 0189 FF       		.byte	-1
 1718 018a FF       		.byte	-1
 1719 018b FF       		.byte	-1
 1720 018c FF       		.byte	-1
 1721 018d FF       		.byte	-1
 1722 018e FF       		.byte	-1
 1723 018f FF       		.byte	-1
 1724 0190 FF       		.byte	-1
 1725 0191 FF       		.byte	-1
 1726 0192 FF       		.byte	-1
 1727 0193 FF       		.byte	-1
 1728 0194 FF       		.byte	-1
 1729 0195 FF       		.byte	-1
 1730 0196 FF       		.byte	-1
 1731 0197 FF       		.byte	-1
 1732 0198 FF       		.byte	-1
 1733 0199 FF       		.byte	-1
 1734 019a FF       		.byte	-1
 1735 019b FF       		.byte	-1
 1736 019c FF       		.byte	-1
 1737 019d FF       		.byte	-1
ARM GAS  C:\Users\Brian\AppData\Local\Temp\ccoW3fAZ.s 			page 40


 1738 019e FF       		.byte	-1
 1739 019f FF       		.byte	-1
 1740 01a0 FF       		.byte	-1
 1741 01a1 FF       		.byte	-1
 1742 01a2 FF       		.byte	-1
 1743 01a3 FF       		.byte	-1
 1744 01a4 FF       		.byte	-1
 1745 01a5 FF       		.byte	-1
 1746 01a6 FF       		.byte	-1
 1747 01a7 FF       		.byte	-1
 1748 01a8 FF       		.byte	-1
 1749 01a9 FF       		.byte	-1
 1750 01aa FF       		.byte	-1
 1751 01ab FF       		.byte	-1
 1752 01ac FF       		.byte	-1
 1753 01ad FF       		.byte	-1
 1754 01ae FF       		.byte	-1
 1755 01af FF       		.byte	-1
 1756 01b0 FF       		.byte	-1
 1757 01b1 FF       		.byte	-1
 1758 01b2 FF       		.byte	-1
 1759 01b3 FF       		.byte	-1
 1760 01b4 FF       		.byte	-1
 1761 01b5 FF       		.byte	-1
 1762 01b6 FF       		.byte	-1
 1763 01b7 FF       		.byte	-1
 1764 01b8 FF       		.byte	-1
 1765 01b9 FF       		.byte	-1
 1766 01ba FF       		.byte	-1
 1767 01bb FF       		.byte	-1
 1768 01bc FF       		.byte	-1
 1769 01bd FF       		.byte	-1
 1770 01be FF       		.byte	-1
 1771 01bf FF       		.byte	-1
 1772 01c0 FF       		.byte	-1
 1773 01c1 FF       		.byte	-1
 1774 01c2 FF       		.byte	-1
 1775 01c3 FF       		.byte	-1
 1776 01c4 FF       		.byte	-1
 1777 01c5 FF       		.byte	-1
 1778 01c6 FF       		.byte	-1
 1779 01c7 FF       		.byte	-1
 1780 01c8 FF       		.byte	-1
 1781 01c9 FF       		.byte	-1
 1782 01ca FF       		.byte	-1
 1783 01cb FF       		.byte	-1
 1784 01cc FF       		.byte	-1
 1785 01cd FF       		.byte	-1
 1786 01ce FF       		.byte	-1
 1787 01cf FF       		.byte	-1
 1788 01d0 FF       		.byte	-1
 1789 01d1 FF       		.byte	-1
 1790 01d2 FF       		.byte	-1
 1791 01d3 FF       		.byte	-1
 1792 01d4 FF       		.byte	-1
 1793 01d5 FF       		.byte	-1
 1794 01d6 FF       		.byte	-1
ARM GAS  C:\Users\Brian\AppData\Local\Temp\ccoW3fAZ.s 			page 41


 1795 01d7 FF       		.byte	-1
 1796 01d8 FF       		.byte	-1
 1797 01d9 FF       		.byte	-1
 1798 01da FF       		.byte	-1
 1799 01db FF       		.byte	-1
 1800 01dc FF       		.byte	-1
 1801 01dd FF       		.byte	-1
 1802 01de FF       		.byte	-1
 1803 01df FF       		.byte	-1
 1804 01e0 FF       		.byte	-1
 1805 01e1 FF       		.byte	-1
 1806 01e2 FF       		.byte	-1
 1807 01e3 FF       		.byte	-1
 1808 01e4 FF       		.byte	-1
 1809 01e5 FF       		.byte	-1
 1810 01e6 FF       		.byte	-1
 1811 01e7 FF       		.byte	-1
 1812 01e8 FF       		.byte	-1
 1813 01e9 FF       		.byte	-1
 1814 01ea FF       		.byte	-1
 1815 01eb FF       		.byte	-1
 1816 01ec FF       		.byte	-1
 1817 01ed FF       		.byte	-1
 1818 01ee FF       		.byte	-1
 1819 01ef FF       		.byte	-1
 1820 01f0 FF       		.byte	-1
 1821 01f1 FF       		.byte	-1
 1822 01f2 FF       		.byte	-1
 1823 01f3 FF       		.byte	-1
 1824 01f4 FF       		.byte	-1
 1825 01f5 FF       		.byte	-1
 1826 01f6 FF       		.byte	-1
 1827 01f7 FF       		.byte	-1
 1828 01f8 FF       		.byte	-1
 1829 01f9 FF       		.byte	-1
 1830 01fa FF       		.byte	-1
 1831 01fb FF       		.byte	-1
 1832 01fc FF       		.byte	-1
 1833 01fd FF       		.byte	-1
 1834 01fe FF       		.byte	-1
 1835 01ff 00       		.align	2
 1836              	.LC2:
 1837 0200 00       		.byte	0
 1838 0201 02       		.byte	2
 1839 0202 04       		.byte	4
 1840 0203 06       		.byte	6
 1841 0204 08       		.byte	8
 1842 0205 0A       		.byte	10
 1843 0206 0C       		.byte	12
 1844 0207 0E       		.byte	14
 1845 0208 10       		.byte	16
 1846 0209 12       		.byte	18
 1847 020a 14       		.byte	20
 1848 020b 16       		.byte	22
 1849 020c 18       		.byte	24
 1850 020d 1A       		.byte	26
 1851 020e 1C       		.byte	28
ARM GAS  C:\Users\Brian\AppData\Local\Temp\ccoW3fAZ.s 			page 42


 1852 020f 1E       		.byte	30
 1853 0210 20       		.byte	32
 1854 0211 22       		.byte	34
 1855 0212 24       		.byte	36
 1856 0213 26       		.byte	38
 1857 0214 28       		.byte	40
 1858 0215 2A       		.byte	42
 1859 0216 2C       		.byte	44
 1860 0217 2E       		.byte	46
 1861 0218 30       		.byte	48
 1862 0219 32       		.byte	50
 1863 021a 34       		.byte	52
 1864 021b 36       		.byte	54
 1865 021c 38       		.byte	56
 1866 021d 3A       		.byte	58
 1867 021e 3C       		.byte	60
 1868 021f 3E       		.byte	62
 1869 0220 40       		.byte	64
 1870 0221 42       		.byte	66
 1871 0222 44       		.byte	68
 1872 0223 46       		.byte	70
 1873 0224 48       		.byte	72
 1874 0225 4A       		.byte	74
 1875 0226 4C       		.byte	76
 1876 0227 4E       		.byte	78
 1877 0228 50       		.byte	80
 1878 0229 52       		.byte	82
 1879 022a 54       		.byte	84
 1880 022b 56       		.byte	86
 1881 022c 58       		.byte	88
 1882 022d 5A       		.byte	90
 1883 022e 5C       		.byte	92
 1884 022f 5E       		.byte	94
 1885 0230 60       		.byte	96
 1886 0231 62       		.byte	98
 1887 0232 64       		.byte	100
 1888 0233 66       		.byte	102
 1889 0234 68       		.byte	104
 1890 0235 6A       		.byte	106
 1891 0236 6C       		.byte	108
 1892 0237 6E       		.byte	110
 1893 0238 70       		.byte	112
 1894 0239 72       		.byte	114
 1895 023a 74       		.byte	116
 1896 023b 76       		.byte	118
 1897 023c 78       		.byte	120
 1898 023d 7A       		.byte	122
 1899 023e 7C       		.byte	124
 1900 023f 7E       		.byte	126
 1901 0240 80       		.byte	-128
 1902 0241 82       		.byte	-126
 1903 0242 84       		.byte	-124
 1904 0243 86       		.byte	-122
 1905 0244 88       		.byte	-120
 1906 0245 8A       		.byte	-118
 1907 0246 8C       		.byte	-116
 1908 0247 8E       		.byte	-114
ARM GAS  C:\Users\Brian\AppData\Local\Temp\ccoW3fAZ.s 			page 43


 1909 0248 90       		.byte	-112
 1910 0249 92       		.byte	-110
 1911 024a 94       		.byte	-108
 1912 024b 96       		.byte	-106
 1913 024c 98       		.byte	-104
 1914 024d 9A       		.byte	-102
 1915 024e 9C       		.byte	-100
 1916 024f 9E       		.byte	-98
 1917 0250 A0       		.byte	-96
 1918 0251 A2       		.byte	-94
 1919 0252 A4       		.byte	-92
 1920 0253 A6       		.byte	-90
 1921 0254 A8       		.byte	-88
 1922 0255 AA       		.byte	-86
 1923 0256 AC       		.byte	-84
 1924 0257 AE       		.byte	-82
 1925 0258 B0       		.byte	-80
 1926 0259 B2       		.byte	-78
 1927 025a B4       		.byte	-76
 1928 025b B6       		.byte	-74
 1929 025c B8       		.byte	-72
 1930 025d BA       		.byte	-70
 1931 025e BC       		.byte	-68
 1932 025f BE       		.byte	-66
 1933 0260 C0       		.byte	-64
 1934 0261 C2       		.byte	-62
 1935 0262 C4       		.byte	-60
 1936 0263 C6       		.byte	-58
 1937 0264 C8       		.byte	-56
 1938 0265 CA       		.byte	-54
 1939 0266 CC       		.byte	-52
 1940 0267 CE       		.byte	-50
 1941 0268 D0       		.byte	-48
 1942 0269 D2       		.byte	-46
 1943 026a D4       		.byte	-44
 1944 026b D6       		.byte	-42
 1945 026c D8       		.byte	-40
 1946 026d DA       		.byte	-38
 1947 026e DC       		.byte	-36
 1948 026f DE       		.byte	-34
 1949 0270 E0       		.byte	-32
 1950 0271 E2       		.byte	-30
 1951 0272 E4       		.byte	-28
 1952 0273 E6       		.byte	-26
 1953 0274 E8       		.byte	-24
 1954 0275 EA       		.byte	-22
 1955 0276 EC       		.byte	-20
 1956 0277 EE       		.byte	-18
 1957 0278 F0       		.byte	-16
 1958 0279 F2       		.byte	-14
 1959 027a F4       		.byte	-12
 1960 027b F6       		.byte	-10
 1961 027c F8       		.byte	-8
 1962 027d FA       		.byte	-6
 1963 027e FC       		.byte	-4
 1964 027f FE       		.byte	-2
 1965 0280 FF       		.byte	-1
ARM GAS  C:\Users\Brian\AppData\Local\Temp\ccoW3fAZ.s 			page 44


 1966 0281 FE       		.byte	-2
 1967 0282 FC       		.byte	-4
 1968 0283 FA       		.byte	-6
 1969 0284 F8       		.byte	-8
 1970 0285 F6       		.byte	-10
 1971 0286 F4       		.byte	-12
 1972 0287 F2       		.byte	-14
 1973 0288 F0       		.byte	-16
 1974 0289 EE       		.byte	-18
 1975 028a EC       		.byte	-20
 1976 028b EA       		.byte	-22
 1977 028c E8       		.byte	-24
 1978 028d E6       		.byte	-26
 1979 028e E4       		.byte	-28
 1980 028f E2       		.byte	-30
 1981 0290 E0       		.byte	-32
 1982 0291 DE       		.byte	-34
 1983 0292 DC       		.byte	-36
 1984 0293 DA       		.byte	-38
 1985 0294 D8       		.byte	-40
 1986 0295 D6       		.byte	-42
 1987 0296 D4       		.byte	-44
 1988 0297 D2       		.byte	-46
 1989 0298 D0       		.byte	-48
 1990 0299 CE       		.byte	-50
 1991 029a CC       		.byte	-52
 1992 029b CA       		.byte	-54
 1993 029c C8       		.byte	-56
 1994 029d C6       		.byte	-58
 1995 029e C4       		.byte	-60
 1996 029f C2       		.byte	-62
 1997 02a0 C0       		.byte	-64
 1998 02a1 BE       		.byte	-66
 1999 02a2 BC       		.byte	-68
 2000 02a3 BA       		.byte	-70
 2001 02a4 B8       		.byte	-72
 2002 02a5 B6       		.byte	-74
 2003 02a6 B4       		.byte	-76
 2004 02a7 B2       		.byte	-78
 2005 02a8 B0       		.byte	-80
 2006 02a9 AE       		.byte	-82
 2007 02aa AC       		.byte	-84
 2008 02ab AA       		.byte	-86
 2009 02ac A8       		.byte	-88
 2010 02ad A6       		.byte	-90
 2011 02ae A4       		.byte	-92
 2012 02af A2       		.byte	-94
 2013 02b0 A0       		.byte	-96
 2014 02b1 9E       		.byte	-98
 2015 02b2 9C       		.byte	-100
 2016 02b3 9A       		.byte	-102
 2017 02b4 98       		.byte	-104
 2018 02b5 96       		.byte	-106
 2019 02b6 94       		.byte	-108
 2020 02b7 92       		.byte	-110
 2021 02b8 90       		.byte	-112
 2022 02b9 8E       		.byte	-114
ARM GAS  C:\Users\Brian\AppData\Local\Temp\ccoW3fAZ.s 			page 45


 2023 02ba 8C       		.byte	-116
 2024 02bb 8A       		.byte	-118
 2025 02bc 88       		.byte	-120
 2026 02bd 86       		.byte	-122
 2027 02be 84       		.byte	-124
 2028 02bf 82       		.byte	-126
 2029 02c0 80       		.byte	-128
 2030 02c1 7E       		.byte	126
 2031 02c2 7C       		.byte	124
 2032 02c3 7A       		.byte	122
 2033 02c4 78       		.byte	120
 2034 02c5 76       		.byte	118
 2035 02c6 74       		.byte	116
 2036 02c7 72       		.byte	114
 2037 02c8 70       		.byte	112
 2038 02c9 6E       		.byte	110
 2039 02ca 6C       		.byte	108
 2040 02cb 6A       		.byte	106
 2041 02cc 68       		.byte	104
 2042 02cd 66       		.byte	102
 2043 02ce 64       		.byte	100
 2044 02cf 62       		.byte	98
 2045 02d0 60       		.byte	96
 2046 02d1 5E       		.byte	94
 2047 02d2 5C       		.byte	92
 2048 02d3 5A       		.byte	90
 2049 02d4 58       		.byte	88
 2050 02d5 56       		.byte	86
 2051 02d6 54       		.byte	84
 2052 02d7 52       		.byte	82
 2053 02d8 50       		.byte	80
 2054 02d9 4E       		.byte	78
 2055 02da 4C       		.byte	76
 2056 02db 4A       		.byte	74
 2057 02dc 48       		.byte	72
 2058 02dd 46       		.byte	70
 2059 02de 44       		.byte	68
 2060 02df 42       		.byte	66
 2061 02e0 40       		.byte	64
 2062 02e1 3E       		.byte	62
 2063 02e2 3C       		.byte	60
 2064 02e3 3A       		.byte	58
 2065 02e4 38       		.byte	56
 2066 02e5 36       		.byte	54
 2067 02e6 34       		.byte	52
 2068 02e7 32       		.byte	50
 2069 02e8 30       		.byte	48
 2070 02e9 2E       		.byte	46
 2071 02ea 2C       		.byte	44
 2072 02eb 2A       		.byte	42
 2073 02ec 28       		.byte	40
 2074 02ed 26       		.byte	38
 2075 02ee 24       		.byte	36
 2076 02ef 22       		.byte	34
 2077 02f0 20       		.byte	32
 2078 02f1 1E       		.byte	30
 2079 02f2 1C       		.byte	28
ARM GAS  C:\Users\Brian\AppData\Local\Temp\ccoW3fAZ.s 			page 46


 2080 02f3 1A       		.byte	26
 2081 02f4 18       		.byte	24
 2082 02f5 16       		.byte	22
 2083 02f6 14       		.byte	20
 2084 02f7 12       		.byte	18
 2085 02f8 10       		.byte	16
 2086 02f9 0E       		.byte	14
 2087 02fa 0C       		.byte	12
 2088 02fb 0A       		.byte	10
 2089 02fc 08       		.byte	8
 2090 02fd 06       		.byte	6
 2091 02fe 04       		.byte	4
 2092 02ff 00       		.align	2
 2093              	.LC3:
 2094 0300 01       		.byte	1
 2095 0301 02       		.byte	2
 2096 0302 03       		.byte	3
 2097 0303 04       		.byte	4
 2098 0304 05       		.byte	5
 2099 0305 06       		.byte	6
 2100 0306 07       		.byte	7
 2101 0307 08       		.byte	8
 2102 0308 09       		.byte	9
 2103 0309 0A       		.byte	10
 2104 030a 0B       		.byte	11
 2105 030b 0C       		.byte	12
 2106 030c 0D       		.byte	13
 2107 030d 0E       		.byte	14
 2108 030e 0F       		.byte	15
 2109 030f 10       		.byte	16
 2110 0310 11       		.byte	17
 2111 0311 12       		.byte	18
 2112 0312 13       		.byte	19
 2113 0313 14       		.byte	20
 2114 0314 15       		.byte	21
 2115 0315 16       		.byte	22
 2116 0316 17       		.byte	23
 2117 0317 18       		.byte	24
 2118 0318 19       		.byte	25
 2119 0319 1A       		.byte	26
 2120 031a 1B       		.byte	27
 2121 031b 1C       		.byte	28
 2122 031c 1D       		.byte	29
 2123 031d 1E       		.byte	30
 2124 031e 1F       		.byte	31
 2125 031f 20       		.byte	32
 2126 0320 21       		.byte	33
 2127 0321 22       		.byte	34
 2128 0322 23       		.byte	35
 2129 0323 24       		.byte	36
 2130 0324 25       		.byte	37
 2131 0325 26       		.byte	38
 2132 0326 27       		.byte	39
 2133 0327 28       		.byte	40
 2134 0328 29       		.byte	41
 2135 0329 2A       		.byte	42
 2136 032a 2B       		.byte	43
ARM GAS  C:\Users\Brian\AppData\Local\Temp\ccoW3fAZ.s 			page 47


 2137 032b 2C       		.byte	44
 2138 032c 2D       		.byte	45
 2139 032d 2E       		.byte	46
 2140 032e 2F       		.byte	47
 2141 032f 30       		.byte	48
 2142 0330 31       		.byte	49
 2143 0331 32       		.byte	50
 2144 0332 33       		.byte	51
 2145 0333 34       		.byte	52
 2146 0334 35       		.byte	53
 2147 0335 36       		.byte	54
 2148 0336 37       		.byte	55
 2149 0337 38       		.byte	56
 2150 0338 39       		.byte	57
 2151 0339 3A       		.byte	58
 2152 033a 3B       		.byte	59
 2153 033b 3C       		.byte	60
 2154 033c 3D       		.byte	61
 2155 033d 3E       		.byte	62
 2156 033e 3F       		.byte	63
 2157 033f 40       		.byte	64
 2158 0340 41       		.byte	65
 2159 0341 42       		.byte	66
 2160 0342 43       		.byte	67
 2161 0343 44       		.byte	68
 2162 0344 45       		.byte	69
 2163 0345 46       		.byte	70
 2164 0346 47       		.byte	71
 2165 0347 48       		.byte	72
 2166 0348 49       		.byte	73
 2167 0349 4A       		.byte	74
 2168 034a 4B       		.byte	75
 2169 034b 4C       		.byte	76
 2170 034c 4D       		.byte	77
 2171 034d 4E       		.byte	78
 2172 034e 4F       		.byte	79
 2173 034f 50       		.byte	80
 2174 0350 51       		.byte	81
 2175 0351 52       		.byte	82
 2176 0352 53       		.byte	83
 2177 0353 54       		.byte	84
 2178 0354 55       		.byte	85
 2179 0355 56       		.byte	86
 2180 0356 57       		.byte	87
 2181 0357 58       		.byte	88
 2182 0358 59       		.byte	89
 2183 0359 5A       		.byte	90
 2184 035a 5B       		.byte	91
 2185 035b 5C       		.byte	92
 2186 035c 5D       		.byte	93
 2187 035d 5E       		.byte	94
 2188 035e 5F       		.byte	95
 2189 035f 60       		.byte	96
 2190 0360 61       		.byte	97
 2191 0361 62       		.byte	98
 2192 0362 63       		.byte	99
 2193 0363 64       		.byte	100
ARM GAS  C:\Users\Brian\AppData\Local\Temp\ccoW3fAZ.s 			page 48


 2194 0364 65       		.byte	101
 2195 0365 66       		.byte	102
 2196 0366 67       		.byte	103
 2197 0367 68       		.byte	104
 2198 0368 69       		.byte	105
 2199 0369 6A       		.byte	106
 2200 036a 6B       		.byte	107
 2201 036b 6C       		.byte	108
 2202 036c 6D       		.byte	109
 2203 036d 6E       		.byte	110
 2204 036e 6F       		.byte	111
 2205 036f 70       		.byte	112
 2206 0370 71       		.byte	113
 2207 0371 72       		.byte	114
 2208 0372 73       		.byte	115
 2209 0373 74       		.byte	116
 2210 0374 75       		.byte	117
 2211 0375 76       		.byte	118
 2212 0376 77       		.byte	119
 2213 0377 78       		.byte	120
 2214 0378 79       		.byte	121
 2215 0379 7A       		.byte	122
 2216 037a 7B       		.byte	123
 2217 037b 7C       		.byte	124
 2218 037c 7D       		.byte	125
 2219 037d 7E       		.byte	126
 2220 037e 7F       		.byte	127
 2221 037f 80       		.byte	-128
 2222 0380 81       		.byte	-127
 2223 0381 82       		.byte	-126
 2224 0382 83       		.byte	-125
 2225 0383 84       		.byte	-124
 2226 0384 85       		.byte	-123
 2227 0385 86       		.byte	-122
 2228 0386 87       		.byte	-121
 2229 0387 88       		.byte	-120
 2230 0388 89       		.byte	-119
 2231 0389 8A       		.byte	-118
 2232 038a 8B       		.byte	-117
 2233 038b 8C       		.byte	-116
 2234 038c 8D       		.byte	-115
 2235 038d 8E       		.byte	-114
 2236 038e 8F       		.byte	-113
 2237 038f 90       		.byte	-112
 2238 0390 91       		.byte	-111
 2239 0391 92       		.byte	-110
 2240 0392 93       		.byte	-109
 2241 0393 94       		.byte	-108
 2242 0394 95       		.byte	-107
 2243 0395 96       		.byte	-106
 2244 0396 97       		.byte	-105
 2245 0397 98       		.byte	-104
 2246 0398 99       		.byte	-103
 2247 0399 9A       		.byte	-102
 2248 039a 9B       		.byte	-101
 2249 039b 9C       		.byte	-100
 2250 039c 9D       		.byte	-99
ARM GAS  C:\Users\Brian\AppData\Local\Temp\ccoW3fAZ.s 			page 49


 2251 039d 9E       		.byte	-98
 2252 039e 9F       		.byte	-97
 2253 039f A0       		.byte	-96
 2254 03a0 A1       		.byte	-95
 2255 03a1 A2       		.byte	-94
 2256 03a2 A3       		.byte	-93
 2257 03a3 A4       		.byte	-92
 2258 03a4 A5       		.byte	-91
 2259 03a5 A6       		.byte	-90
 2260 03a6 A7       		.byte	-89
 2261 03a7 A8       		.byte	-88
 2262 03a8 A9       		.byte	-87
 2263 03a9 AA       		.byte	-86
 2264 03aa AB       		.byte	-85
 2265 03ab AC       		.byte	-84
 2266 03ac AD       		.byte	-83
 2267 03ad AE       		.byte	-82
 2268 03ae AF       		.byte	-81
 2269 03af B0       		.byte	-80
 2270 03b0 B1       		.byte	-79
 2271 03b1 B2       		.byte	-78
 2272 03b2 B3       		.byte	-77
 2273 03b3 B4       		.byte	-76
 2274 03b4 B5       		.byte	-75
 2275 03b5 B6       		.byte	-74
 2276 03b6 B7       		.byte	-73
 2277 03b7 B8       		.byte	-72
 2278 03b8 B9       		.byte	-71
 2279 03b9 BA       		.byte	-70
 2280 03ba BB       		.byte	-69
 2281 03bb BC       		.byte	-68
 2282 03bc BD       		.byte	-67
 2283 03bd BE       		.byte	-66
 2284 03be BF       		.byte	-65
 2285 03bf C0       		.byte	-64
 2286 03c0 C1       		.byte	-63
 2287 03c1 C2       		.byte	-62
 2288 03c2 C3       		.byte	-61
 2289 03c3 C4       		.byte	-60
 2290 03c4 C5       		.byte	-59
 2291 03c5 C6       		.byte	-58
 2292 03c6 C7       		.byte	-57
 2293 03c7 C8       		.byte	-56
 2294 03c8 C9       		.byte	-55
 2295 03c9 CA       		.byte	-54
 2296 03ca CB       		.byte	-53
 2297 03cb CC       		.byte	-52
 2298 03cc CD       		.byte	-51
 2299 03cd CE       		.byte	-50
 2300 03ce CF       		.byte	-49
 2301 03cf D0       		.byte	-48
 2302 03d0 D1       		.byte	-47
 2303 03d1 D2       		.byte	-46
 2304 03d2 D3       		.byte	-45
 2305 03d3 D4       		.byte	-44
 2306 03d4 D5       		.byte	-43
 2307 03d5 D6       		.byte	-42
ARM GAS  C:\Users\Brian\AppData\Local\Temp\ccoW3fAZ.s 			page 50


 2308 03d6 D7       		.byte	-41
 2309 03d7 D8       		.byte	-40
 2310 03d8 D9       		.byte	-39
 2311 03d9 DA       		.byte	-38
 2312 03da DB       		.byte	-37
 2313 03db DC       		.byte	-36
 2314 03dc DD       		.byte	-35
 2315 03dd DE       		.byte	-34
 2316 03de DF       		.byte	-33
 2317 03df E0       		.byte	-32
 2318 03e0 E1       		.byte	-31
 2319 03e1 E2       		.byte	-30
 2320 03e2 E3       		.byte	-29
 2321 03e3 E4       		.byte	-28
 2322 03e4 E5       		.byte	-27
 2323 03e5 E6       		.byte	-26
 2324 03e6 E7       		.byte	-25
 2325 03e7 E8       		.byte	-24
 2326 03e8 E9       		.byte	-23
 2327 03e9 EA       		.byte	-22
 2328 03ea EB       		.byte	-21
 2329 03eb EC       		.byte	-20
 2330 03ec ED       		.byte	-19
 2331 03ed EE       		.byte	-18
 2332 03ee EF       		.byte	-17
 2333 03ef F0       		.byte	-16
 2334 03f0 F1       		.byte	-15
 2335 03f1 F2       		.byte	-14
 2336 03f2 F3       		.byte	-13
 2337 03f3 F4       		.byte	-12
 2338 03f4 F5       		.byte	-11
 2339 03f5 F6       		.byte	-10
 2340 03f6 F7       		.byte	-9
 2341 03f7 F8       		.byte	-8
 2342 03f8 F9       		.byte	-7
 2343 03f9 FA       		.byte	-6
 2344 03fa FB       		.byte	-5
 2345 03fb FC       		.byte	-4
 2346 03fc FD       		.byte	-3
 2347 03fd FE       		.byte	-2
 2348 03fe FF       		.byte	-1
 2349 03ff 00       		.section	.text.Generate_Wave,"ax",%progbits
 2350              		.align	2
 2351              		.global	Generate_Wave
 2352              		.thumb
 2353              		.thumb_func
 2354              		.type	Generate_Wave, %function
 2355              	Generate_Wave:
 2356              	.LFB64:
 487:.\mem1.c      ****         
 488:.\mem1.c      **** /**************************************************************************//**
 489:.\mem1.c      **** *  @brief Helper function for the WaveDAC; If a Master device requests that it 
 490:.\mem1.c      **** *         wants to generate a specific Waveform, this function will read a second
 491:.\mem1.c      **** *         set of data from the Master device which contains the desired waveform,
 492:.\mem1.c      **** *         the desired peak voltage, and the desired DC Bias, and then it will
 493:.\mem1.c      **** *         generate the desired waveform using the WaveDAC8.
 494:.\mem1.c      **** *
ARM GAS  C:\Users\Brian\AppData\Local\Temp\ccoW3fAZ.s 			page 51


 495:.\mem1.c      **** *******************************************************************************/
 496:.\mem1.c      ****         void Generate_Wave(void)
 497:.\mem1.c      ****         {
 2357              		.loc 1 497 0
 2358              		.cfi_startproc
 2359              		@ args = 0, pretend = 0, frame = 1616
 2360              		@ frame_needed = 1, uses_anonymous_args = 0
 2361 0000 B0B5     		push	{r4, r5, r7, lr}
 2362              	.LCFI24:
 2363              		.cfi_def_cfa_offset 16
 2364              		.cfi_offset 4, -16
 2365              		.cfi_offset 5, -12
 2366              		.cfi_offset 7, -8
 2367              		.cfi_offset 14, -4
 2368 0002 ADF5CA6D 		sub	sp, sp, #1616
 2369              	.LCFI25:
 2370              		.cfi_def_cfa_offset 1632
 2371 0006 00AF     		add	r7, sp, #0
 2372              	.LCFI26:
 2373              		.cfi_def_cfa_register 7
 498:.\mem1.c      ****             
 499:.\mem1.c      ****             uint32 input = ReadFrom_Pi();
 2374              		.loc 1 499 0
 2375 0008 FFF7FEFF 		bl	ReadFrom_Pi
 2376 000c C7F80C06 		str	r0, [r7, #1548]
 500:.\mem1.c      ****                         
 501:.\mem1.c      ****             uint8 waveType = (input & 0xFF000000)>>24;
 2377              		.loc 1 501 0
 2378 0010 D7F80C36 		ldr	r3, [r7, #1548]
 2379 0014 4FEA1363 		lsr	r3, r3, #24
 2380 0018 87F80B36 		strb	r3, [r7, #1547]
 502:.\mem1.c      ****             uint8 amp = (input & 0x00FF0000)>>16;
 2381              		.loc 1 502 0
 2382 001c D7F80C36 		ldr	r3, [r7, #1548]
 2383 0020 03F47F03 		and	r3, r3, #16711680
 2384 0024 4FEA1343 		lsr	r3, r3, #16
 2385 0028 87F80A36 		strb	r3, [r7, #1546]
 503:.\mem1.c      ****             uint8 dcB_l = (input & 0x0000FF00)>>8;
 2386              		.loc 1 503 0
 2387 002c D7F80C36 		ldr	r3, [r7, #1548]
 2388 0030 03F47F43 		and	r3, r3, #65280
 2389 0034 4FEA1323 		lsr	r3, r3, #8
 2390 0038 87F80936 		strb	r3, [r7, #1545]
 504:.\mem1.c      ****             uint8 dcB_h = input & 0x000000FF;
 2391              		.loc 1 504 0
 2392 003c D7F80C36 		ldr	r3, [r7, #1548]
 2393 0040 87F80836 		strb	r3, [r7, #1544]
 505:.\mem1.c      ****             
 506:.\mem1.c      ****             uint8 dcB = ( dcB_h << 8 ) | dcB_l;
 2394              		.loc 1 506 0
 2395 0044 97F80836 		ldrb	r3, [r7, #1544]	@ zero_extendqisi2
 2396 0048 4FEA0323 		lsl	r3, r3, #8
 2397 004c DAB2     		uxtb	r2, r3
 2398 004e 97F80936 		ldrb	r3, [r7, #1545]	@ zero_extendqisi2
 2399 0052 1343     		orrs	r3, r3, r2
 2400 0054 DBB2     		uxtb	r3, r3
 2401 0056 87F80736 		strb	r3, [r7, #1543]
ARM GAS  C:\Users\Brian\AppData\Local\Temp\ccoW3fAZ.s 			page 52


 507:.\mem1.c      ****            
 508:.\mem1.c      ****                         
 509:.\mem1.c      ****             #define WAVE_SIZE 255
 510:.\mem1.c      ****             #define SINE 0x01
 511:.\mem1.c      ****             #define SQUARE 0x03
 512:.\mem1.c      ****             #define TRIANGLE 0x05
 513:.\mem1.c      ****             #define SAWTOOTH 0x07
 514:.\mem1.c      ****             
 515:.\mem1.c      ****             
 516:.\mem1.c      ****             uint8 SINEWave[WAVE_SIZE] = {
 2402              		.loc 1 516 0
 2403 005a 07F20452 		addw	r2, r7, #1284
 2404 005e 40F20003 		movw	r3, #:lower16:.LC0
 2405 0062 C0F20003 		movt	r3, #:upper16:.LC0
 2406 0066 1146     		mov	r1, r2
 2407 0068 1A46     		mov	r2, r3
 2408 006a 4FF0FF03 		mov	r3, #255
 2409 006e 0846     		mov	r0, r1
 2410 0070 1146     		mov	r1, r2
 2411 0072 1A46     		mov	r2, r3
 2412 0074 FFF7FEFF 		bl	memcpy
 517:.\mem1.c      ****                         128,131,134,137,140,143,146,149,152,156,159,162,165,168,171,174,
 518:.\mem1.c      ****                         176,179,182,185,188,191,193,196,199,201,204,206,209,211,213,216,
 519:.\mem1.c      ****                         218,220,222,224,226,228,230,232,234,236,237,239,240,242,243,245,
 520:.\mem1.c      ****                         246,247,248,249,250,251,252,252,253,254,254,255,255,255,255,255,
 521:.\mem1.c      ****                         255,255,255,255,255,255,254,254,253,252,252,251,250,249,248,247,
 522:.\mem1.c      ****                         246,245,243,242,240,239,237,236,234,232,230,228,226,224,222,220,
 523:.\mem1.c      ****                         218,216,213,211,209,206,204,201,199,196,193,191,188,185,182,179,
 524:.\mem1.c      ****                         176,174,171,168,165,162,159,156,152,149,146,143,140,137,134,131,
 525:.\mem1.c      ****                         128,124,121,118,115,112,109,106,103,99, 96, 93, 90, 87, 84, 81, 
 526:.\mem1.c      ****                         79, 76, 73, 70, 67, 64, 62, 59, 56, 54, 51, 49, 46, 44, 42, 39, 
 527:.\mem1.c      ****                         37, 35, 33, 31, 29, 27, 25, 23, 21, 19, 18, 16, 15, 13, 12, 10, 
 528:.\mem1.c      ****                         9,  8,  7,  6,  5,  4,  3,  3,  2,  1,  1,  0,  0,  0,  0,  0,  
 529:.\mem1.c      ****                         0,  0,  0,  0,  0,  0,  1,  1,  2,  3,  3,  4,  5,  6,  7,  8,  
 530:.\mem1.c      ****                         9,  10, 12, 13, 15, 16, 18, 19, 21, 23, 25, 27, 29, 31, 33, 35, 
 531:.\mem1.c      ****                         37, 39, 42, 44, 46, 49, 51, 54, 56, 59, 62, 64, 67, 70, 73, 76, 
 532:.\mem1.c      ****                         79, 81, 84, 87, 90, 93, 96, 99, 103,106,109,112,115,118,121
 533:.\mem1.c      ****                         };
 534:.\mem1.c      ****             uint8 SQUAREWave[WAVE_SIZE] = {
 2413              		.loc 1 534 0
 2414 0078 07F20442 		addw	r2, r7, #1028
 2415 007c 40F20003 		movw	r3, #:lower16:.LC1
 2416 0080 C0F20003 		movt	r3, #:upper16:.LC1
 2417 0084 1146     		mov	r1, r2
 2418 0086 1A46     		mov	r2, r3
 2419 0088 4FF0FF03 		mov	r3, #255
 2420 008c 0846     		mov	r0, r1
 2421 008e 1146     		mov	r1, r2
 2422 0090 1A46     		mov	r2, r3
 2423 0092 FFF7FEFF 		bl	memcpy
 535:.\mem1.c      ****                         1, 1, 1, 1, 1, 1, 1, 1, 1, 1, 1, 1, 1, 1, 1, 1, 1, 1, 1, 1, 1, 1, 1, 1, 1, 
 536:.\mem1.c      ****                         1, 1, 1, 1, 1, 1, 1, 1, 1, 1, 1, 1, 1, 1, 1, 1, 1, 1, 1, 1, 1, 1, 1, 1, 1, 
 537:.\mem1.c      ****                         1, 1, 1, 1, 1, 1, 1, 1, 1, 1, 1, 1, 1, 1, 1, 1, 1, 1, 1, 1, 1, 1, 1, 1, 1, 
 538:.\mem1.c      ****                         1, 1, 1, 1, 1, 1, 1, 1, 1, 1, 1, 1, 1, 1, 1, 1, 1, 1, 1, 1, 1, 1, 1, 1, 1, 
 539:.\mem1.c      ****                         1, 1, 1, 1, 1, 1, 1, 1, 1, 1, 1, 1, 1, 1, 1, 1, 1, 1, 1, 1, 1, 255, 255, 25
 540:.\mem1.c      ****                         255, 255, 255, 255, 255, 255, 255, 255, 255, 255, 255, 255, 255, 255, 255, 
 541:.\mem1.c      ****                         255, 255, 255, 255, 255, 255, 255, 255, 255, 255, 255, 255, 255, 255, 255, 
ARM GAS  C:\Users\Brian\AppData\Local\Temp\ccoW3fAZ.s 			page 53


 542:.\mem1.c      ****                         255, 255, 255, 255, 255, 255, 255, 255, 255, 255, 255, 255, 255, 255, 255, 
 543:.\mem1.c      ****                         255, 255, 255, 255, 255, 255, 255, 255, 255, 255, 255, 255, 255, 255, 255, 
 544:.\mem1.c      ****                         255, 255, 255, 255, 255, 255, 255, 255, 255, 255, 255, 255, 255, 255, 255, 
 545:.\mem1.c      ****                         255, 255, 255, 255, 255, 255, 255, 255, 255, 255, 255, 255, 255, 255, 255, 
 546:.\mem1.c      ****                         255, 255, 255, 255, 255, 255, 255, 255, 255, 255, 255, 255, 255, 255, 255, 
 547:.\mem1.c      ****                         255, 255, 255, 255, 255, 255, 255, 255, 255, 255, 255, 255};
 548:.\mem1.c      ****                         
 549:.\mem1.c      ****             uint8 TRIANGLEWave[WAVE_SIZE] = {
 2424              		.loc 1 549 0
 2425 0096 07F54172 		add	r2, r7, #772
 2426 009a 40F20003 		movw	r3, #:lower16:.LC2
 2427 009e C0F20003 		movt	r3, #:upper16:.LC2
 2428 00a2 1146     		mov	r1, r2
 2429 00a4 1A46     		mov	r2, r3
 2430 00a6 4FF0FF03 		mov	r3, #255
 2431 00aa 0846     		mov	r0, r1
 2432 00ac 1146     		mov	r1, r2
 2433 00ae 1A46     		mov	r2, r3
 2434 00b0 FFF7FEFF 		bl	memcpy
 550:.\mem1.c      ****                         0, 2, 4, 6, 8, 10, 12, 14, 16, 18, 20, 22, 24, 26, 28, 30, 32, 34, 36, 38, 
 551:.\mem1.c      ****                         44, 46, 48, 50, 52, 54, 56, 58, 60, 62, 64, 66, 68, 70, 72, 74, 76, 78, 80,
 552:.\mem1.c      ****                         86, 88, 90, 92, 94, 96, 98, 100, 102, 104, 106, 108, 110, 112, 114, 116, 11
 553:.\mem1.c      ****                         122, 124, 126, 128, 130, 132, 134, 136, 138, 140, 142, 144, 146, 148, 150, 
 554:.\mem1.c      ****                         156, 158, 160, 162, 164, 166, 168, 170, 172, 174, 176, 178, 180, 182, 184, 
 555:.\mem1.c      ****                         190, 192, 194, 196, 198, 200, 202, 204, 206, 208, 210, 212, 214, 216, 218, 
 556:.\mem1.c      ****                         224, 226, 228, 230, 232, 234, 236, 238, 240, 242, 244, 246, 248, 250, 252, 
 557:.\mem1.c      ****                         254, 252, 250, 248, 246, 244, 242, 240, 238, 236, 234, 232, 230, 228, 226, 
 558:.\mem1.c      ****                         220, 218, 216, 214, 212, 210, 208, 206, 204, 202, 200, 198, 196, 194, 192, 
 559:.\mem1.c      ****                         186, 184, 182, 180, 178, 176, 174, 172, 170, 168, 166, 164, 162, 160, 158, 
 560:.\mem1.c      ****                         152, 150, 148, 146, 144, 142, 140, 138, 136, 134, 132, 130, 128, 126, 124, 
 561:.\mem1.c      ****                         118, 116, 114, 112, 110, 108, 106, 104, 102, 100, 98, 96, 94, 92, 90, 88, 8
 562:.\mem1.c      ****                         80, 78, 76, 74, 72, 70, 68, 66, 64, 62, 60, 58, 56, 54, 52, 50, 48, 46, 44,
 563:.\mem1.c      ****                         38, 36, 34, 32, 30, 28, 26, 24, 22, 20, 18, 16, 14, 12, 10, 8, 6, 4
 564:.\mem1.c      ****                         };
 565:.\mem1.c      ****             uint8 SAWTOOTHWave[WAVE_SIZE] = {
 2435              		.loc 1 565 0
 2436 00b4 07F50172 		add	r2, r7, #516
 2437 00b8 40F20003 		movw	r3, #:lower16:.LC3
 2438 00bc C0F20003 		movt	r3, #:upper16:.LC3
 2439 00c0 1146     		mov	r1, r2
 2440 00c2 1A46     		mov	r2, r3
 2441 00c4 4FF0FF03 		mov	r3, #255
 2442 00c8 0846     		mov	r0, r1
 2443 00ca 1146     		mov	r1, r2
 2444 00cc 1A46     		mov	r2, r3
 2445 00ce FFF7FEFF 		bl	memcpy
 566:.\mem1.c      ****                             1, 2, 3, 4, 5, 6, 7, 8, 9, 10, 11, 12, 13, 14, 15, 16, 17, 18, 19, 20, 
 567:.\mem1.c      ****                             23, 24, 25, 26, 27, 28, 29, 30, 31, 32, 33, 34, 35, 36, 37, 38, 39, 40,
 568:.\mem1.c      ****                             43, 44, 45, 46, 47, 48, 49, 50, 51, 52, 53, 54, 55, 56, 57, 58, 59, 60,
 569:.\mem1.c      ****                             63, 64, 65, 66, 67, 68, 69, 70, 71, 72, 73, 74, 75, 76, 77, 78, 79, 80,
 570:.\mem1.c      ****                             83, 84, 85, 86, 87, 88, 89, 90, 91, 92, 93, 94, 95, 96, 97, 98, 99, 100
 571:.\mem1.c      ****                             103, 104, 105, 106, 107, 108, 109, 110, 111, 112, 113, 114, 115, 116, 1
 572:.\mem1.c      ****                             119, 120, 121, 122, 123, 124, 125, 126, 127, 128, 129, 130, 131, 132, 1
 573:.\mem1.c      ****                             135, 136, 137, 138, 139, 140, 141, 142, 143, 144, 145, 146, 147, 148, 1
 574:.\mem1.c      ****                             151, 152, 153, 154, 155, 156, 157, 158, 159, 160, 161, 162, 163, 164, 1
 575:.\mem1.c      ****                             167, 168, 169, 170, 171, 172, 173, 174, 175, 176, 177, 178, 179, 180, 1
 576:.\mem1.c      ****                             183, 184, 185, 186, 187, 188, 189, 190, 191, 192, 193, 194, 195, 196, 1
ARM GAS  C:\Users\Brian\AppData\Local\Temp\ccoW3fAZ.s 			page 54


 577:.\mem1.c      ****                             199, 200, 201, 202, 203, 204, 205, 206, 207, 208, 209, 210, 211, 212, 2
 578:.\mem1.c      ****                             215, 216, 217, 218, 219, 220, 221, 222, 223, 224, 225, 226, 227, 228, 2
 579:.\mem1.c      ****                             231, 232, 233, 234, 235, 236, 237, 238, 239, 240, 241, 242, 243, 244, 2
 580:.\mem1.c      ****                             247, 248, 249, 250, 251, 252, 253, 254,255
 581:.\mem1.c      ****                     	};
 582:.\mem1.c      ****             
 583:.\mem1.c      ****             if (waveType == SINE)
 2446              		.loc 1 583 0
 2447 00d2 97F80B36 		ldrb	r3, [r7, #1547]	@ zero_extendqisi2
 2448 00d6 012B     		cmp	r3, #1
 2449 00d8 77D1     		bne	.L141
 2450              	.LBB2:
 584:.\mem1.c      ****             {
 585:.\mem1.c      ****               int i;
 586:.\mem1.c      ****               uint8 newWave[WAVE_SIZE];
 587:.\mem1.c      ****               for(i = 0; i < WAVE_SIZE; i++)
 2451              		.loc 1 587 0
 2452 00da 4FF00003 		mov	r3, #0
 2453 00de C7F84C36 		str	r3, [r7, #1612]
 2454 00e2 5DE0     		b	.L142
 2455              	.L145:
 2456              	.LBB3:
 588:.\mem1.c      ****                 {
 589:.\mem1.c      ****                     double val;
 590:.\mem1.c      ****                     
 591:.\mem1.c      ****                     val = (((double)SINEWave[i]) * (((double)amp)/255.0)) + (double)dcB;
 2457              		.loc 1 591 0
 2458 00e4 07F20452 		addw	r2, r7, #1284
 2459 00e8 D7F84C36 		ldr	r3, [r7, #1612]
 2460 00ec D318     		adds	r3, r2, r3
 2461 00ee 1B78     		ldrb	r3, [r3, #0]	@ zero_extendqisi2
 2462 00f0 1846     		mov	r0, r3
 2463 00f2 FFF7FEFF 		bl	__aeabi_ui2d
 2464 00f6 0446     		mov	r4, r0
 2465 00f8 0D46     		mov	r5, r1
 2466 00fa 97F80A36 		ldrb	r3, [r7, #1546]	@ zero_extendqisi2
 2467 00fe 1846     		mov	r0, r3
 2468 0100 FFF7FEFF 		bl	__aeabi_ui2d
 2469 0104 0246     		mov	r2, r0
 2470 0106 0B46     		mov	r3, r1
 2471 0108 1046     		mov	r0, r2
 2472 010a 1946     		mov	r1, r3
 2473 010c B0A3     		adr	r3, .L165
 2474 010e D3E90023 		ldrd	r2, [r3]
 2475 0112 FFF7FEFF 		bl	__aeabi_ddiv
 2476 0116 0246     		mov	r2, r0
 2477 0118 0B46     		mov	r3, r1
 2478 011a 2046     		mov	r0, r4
 2479 011c 2946     		mov	r1, r5
 2480 011e FFF7FEFF 		bl	__aeabi_dmul
 2481 0122 0246     		mov	r2, r0
 2482 0124 0B46     		mov	r3, r1
 2483 0126 1446     		mov	r4, r2
 2484 0128 1D46     		mov	r5, r3
 2485 012a 97F80736 		ldrb	r3, [r7, #1543]	@ zero_extendqisi2
 2486 012e 1846     		mov	r0, r3
 2487 0130 FFF7FEFF 		bl	__aeabi_ui2d
ARM GAS  C:\Users\Brian\AppData\Local\Temp\ccoW3fAZ.s 			page 55


 2488 0134 0246     		mov	r2, r0
 2489 0136 0B46     		mov	r3, r1
 2490 0138 2046     		mov	r0, r4
 2491 013a 2946     		mov	r1, r5
 2492 013c FFF7FEFF 		bl	__aeabi_dadd
 2493 0140 0246     		mov	r2, r0
 2494 0142 0B46     		mov	r3, r1
 2495 0144 07F5C861 		add	r1, r7, #1600
 2496 0148 C1E90023 		strd	r2, [r1]
 592:.\mem1.c      ****                     
 593:.\mem1.c      ****                     if(val > 255){val = 255;}
 2497              		.loc 1 593 0
 2498 014c 07F5C863 		add	r3, r7, #1600
 2499 0150 D3E90001 		ldrd	r0, [r3]
 2500 0154 9EA3     		adr	r3, .L165
 2501 0156 D3E90023 		ldrd	r2, [r3]
 2502 015a FFF7FEFF 		bl	__aeabi_dcmpgt
 2503 015e 0346     		mov	r3, r0
 2504 0160 002B     		cmp	r3, #0
 2505 0162 06D0     		beq	.L143
 2506              	.L161:
 2507              		.loc 1 593 0 is_stmt 0 discriminator 1
 2508 0164 9AA3     		adr	r3, .L165
 2509 0166 D3E90023 		ldrd	r2, [r3]
 2510 016a 07F5C861 		add	r1, r7, #1600
 2511 016e C1E90023 		strd	r2, [r1]
 2512              	.L143:
 594:.\mem1.c      ****                     
 595:.\mem1.c      ****                     uint8 newVal = (uint8) val; 
 2513              		.loc 1 595 0 is_stmt 1
 2514 0172 07F5C863 		add	r3, r7, #1600
 2515 0176 D3E90001 		ldrd	r0, [r3]
 2516 017a FFF7FEFF 		bl	__aeabi_d2uiz
 2517 017e 0346     		mov	r3, r0
 2518 0180 87F80636 		strb	r3, [r7, #1542]
 596:.\mem1.c      ****                     
 597:.\mem1.c      ****                     newWave[i] = newVal;
 2519              		.loc 1 597 0
 2520 0184 07F10402 		add	r2, r7, #4
 2521 0188 D7F84C36 		ldr	r3, [r7, #1612]
 2522 018c D318     		adds	r3, r2, r3
 2523 018e 97F80626 		ldrb	r2, [r7, #1542]
 2524 0192 1A70     		strb	r2, [r3, #0]
 2525              	.LBE3:
 587:.\mem1.c      ****               for(i = 0; i < WAVE_SIZE; i++)
 2526              		.loc 1 587 0
 2527 0194 D7F84C36 		ldr	r3, [r7, #1612]
 2528 0198 03F10103 		add	r3, r3, #1
 2529 019c C7F84C36 		str	r3, [r7, #1612]
 2530              	.L142:
 587:.\mem1.c      ****               for(i = 0; i < WAVE_SIZE; i++)
 2531              		.loc 1 587 0 is_stmt 0 discriminator 1
 2532 01a0 D7F84C36 		ldr	r3, [r7, #1612]
 2533 01a4 FE2B     		cmp	r3, #254
 2534 01a6 9DDD     		ble	.L145
 598:.\mem1.c      ****     	        }
 599:.\mem1.c      ****         
ARM GAS  C:\Users\Brian\AppData\Local\Temp\ccoW3fAZ.s 			page 56


 600:.\mem1.c      ****                 uint8 Zeroes[WAVE_SIZE];
 601:.\mem1.c      ****                 memset(Zeroes, 0, WAVE_SIZE);
 2535              		.loc 1 601 0 is_stmt 1
 2536 01a8 07F58273 		add	r3, r7, #260
 2537 01ac 1846     		mov	r0, r3
 2538 01ae 4FF00001 		mov	r1, #0
 2539 01b2 4FF0FF02 		mov	r2, #255
 2540 01b6 FFF7FEFF 		bl	memset
 602:.\mem1.c      ****                 
 603:.\mem1.c      ****                 WaveDAC8_1_Wave2Setup(newWave, WAVE_SIZE);
 2541              		.loc 1 603 0
 2542 01ba 07F10403 		add	r3, r7, #4
 2543 01be 1846     		mov	r0, r3
 2544 01c0 4FF0FF01 		mov	r1, #255
 2545 01c4 FFF7FEFF 		bl	WaveDAC8_1_Wave2Setup
 2546 01c8 78E1     		b	.L140
 2547              	.L141:
 2548              	.LBE2:
 604:.\mem1.c      ****               
 605:.\mem1.c      ****             }
 606:.\mem1.c      ****             
 607:.\mem1.c      ****             else if (waveType == SQUARE)
 2549              		.loc 1 607 0
 2550 01ca 97F80B36 		ldrb	r3, [r7, #1547]	@ zero_extendqisi2
 2551 01ce 032B     		cmp	r3, #3
 2552 01d0 77D1     		bne	.L147
 2553              	.LBB4:
 608:.\mem1.c      ****             {
 609:.\mem1.c      ****               int i;
 610:.\mem1.c      ****               uint8 newWave[WAVE_SIZE];
 611:.\mem1.c      ****               for(i = 0; i < WAVE_SIZE; i++)
 2554              		.loc 1 611 0
 2555 01d2 4FF00003 		mov	r3, #0
 2556 01d6 C7F83C36 		str	r3, [r7, #1596]
 2557 01da 5DE0     		b	.L148
 2558              	.L151:
 2559              	.LBB5:
 612:.\mem1.c      ****                 {
 613:.\mem1.c      ****                     double val;
 614:.\mem1.c      ****                     
 615:.\mem1.c      ****                     val = (((double)SQUAREWave[i]) * (((double)amp)/255.0)) + (double)dcB;
 2560              		.loc 1 615 0
 2561 01dc 07F20442 		addw	r2, r7, #1028
 2562 01e0 D7F83C36 		ldr	r3, [r7, #1596]
 2563 01e4 D318     		adds	r3, r2, r3
 2564 01e6 1B78     		ldrb	r3, [r3, #0]	@ zero_extendqisi2
 2565 01e8 1846     		mov	r0, r3
 2566 01ea FFF7FEFF 		bl	__aeabi_ui2d
 2567 01ee 0446     		mov	r4, r0
 2568 01f0 0D46     		mov	r5, r1
 2569 01f2 97F80A36 		ldrb	r3, [r7, #1546]	@ zero_extendqisi2
 2570 01f6 1846     		mov	r0, r3
 2571 01f8 FFF7FEFF 		bl	__aeabi_ui2d
 2572 01fc 0246     		mov	r2, r0
 2573 01fe 0B46     		mov	r3, r1
 2574 0200 1046     		mov	r0, r2
 2575 0202 1946     		mov	r1, r3
ARM GAS  C:\Users\Brian\AppData\Local\Temp\ccoW3fAZ.s 			page 57


 2576 0204 72A3     		adr	r3, .L165
 2577 0206 D3E90023 		ldrd	r2, [r3]
 2578 020a FFF7FEFF 		bl	__aeabi_ddiv
 2579 020e 0246     		mov	r2, r0
 2580 0210 0B46     		mov	r3, r1
 2581 0212 2046     		mov	r0, r4
 2582 0214 2946     		mov	r1, r5
 2583 0216 FFF7FEFF 		bl	__aeabi_dmul
 2584 021a 0246     		mov	r2, r0
 2585 021c 0B46     		mov	r3, r1
 2586 021e 1446     		mov	r4, r2
 2587 0220 1D46     		mov	r5, r3
 2588 0222 97F80736 		ldrb	r3, [r7, #1543]	@ zero_extendqisi2
 2589 0226 1846     		mov	r0, r3
 2590 0228 FFF7FEFF 		bl	__aeabi_ui2d
 2591 022c 0246     		mov	r2, r0
 2592 022e 0B46     		mov	r3, r1
 2593 0230 2046     		mov	r0, r4
 2594 0232 2946     		mov	r1, r5
 2595 0234 FFF7FEFF 		bl	__aeabi_dadd
 2596 0238 0246     		mov	r2, r0
 2597 023a 0B46     		mov	r3, r1
 2598 023c 07F5C661 		add	r1, r7, #1584
 2599 0240 C1E90023 		strd	r2, [r1]
 616:.\mem1.c      ****                     
 617:.\mem1.c      ****                     if(val > 255){val = 255;}
 2600              		.loc 1 617 0
 2601 0244 07F5C663 		add	r3, r7, #1584
 2602 0248 D3E90001 		ldrd	r0, [r3]
 2603 024c 60A3     		adr	r3, .L165
 2604 024e D3E90023 		ldrd	r2, [r3]
 2605 0252 FFF7FEFF 		bl	__aeabi_dcmpgt
 2606 0256 0346     		mov	r3, r0
 2607 0258 002B     		cmp	r3, #0
 2608 025a 06D0     		beq	.L149
 2609              	.L162:
 2610              		.loc 1 617 0 is_stmt 0 discriminator 1
 2611 025c 5CA3     		adr	r3, .L165
 2612 025e D3E90023 		ldrd	r2, [r3]
 2613 0262 07F5C661 		add	r1, r7, #1584
 2614 0266 C1E90023 		strd	r2, [r1]
 2615              	.L149:
 618:.\mem1.c      ****                     
 619:.\mem1.c      ****                     uint8 newVal = (uint8) val; 
 2616              		.loc 1 619 0 is_stmt 1
 2617 026a 07F5C663 		add	r3, r7, #1584
 2618 026e D3E90001 		ldrd	r0, [r3]
 2619 0272 FFF7FEFF 		bl	__aeabi_d2uiz
 2620 0276 0346     		mov	r3, r0
 2621 0278 87F80536 		strb	r3, [r7, #1541]
 620:.\mem1.c      ****                     
 621:.\mem1.c      ****                     newWave[i] = newVal;
 2622              		.loc 1 621 0
 2623 027c 07F10402 		add	r2, r7, #4
 2624 0280 D7F83C36 		ldr	r3, [r7, #1596]
 2625 0284 D318     		adds	r3, r2, r3
 2626 0286 97F80526 		ldrb	r2, [r7, #1541]
ARM GAS  C:\Users\Brian\AppData\Local\Temp\ccoW3fAZ.s 			page 58


 2627 028a 1A70     		strb	r2, [r3, #0]
 2628              	.LBE5:
 611:.\mem1.c      ****               for(i = 0; i < WAVE_SIZE; i++)
 2629              		.loc 1 611 0
 2630 028c D7F83C36 		ldr	r3, [r7, #1596]
 2631 0290 03F10103 		add	r3, r3, #1
 2632 0294 C7F83C36 		str	r3, [r7, #1596]
 2633              	.L148:
 611:.\mem1.c      ****               for(i = 0; i < WAVE_SIZE; i++)
 2634              		.loc 1 611 0 is_stmt 0 discriminator 1
 2635 0298 D7F83C36 		ldr	r3, [r7, #1596]
 2636 029c FE2B     		cmp	r3, #254
 2637 029e 9DDD     		ble	.L151
 622:.\mem1.c      ****                     
 623:.\mem1.c      ****     	        }
 624:.\mem1.c      ****                 
 625:.\mem1.c      ****                 uint8 Zeroes[WAVE_SIZE];
 626:.\mem1.c      ****                 memset(Zeroes, 0, WAVE_SIZE);
 2638              		.loc 1 626 0 is_stmt 1
 2639 02a0 07F58273 		add	r3, r7, #260
 2640 02a4 1846     		mov	r0, r3
 2641 02a6 4FF00001 		mov	r1, #0
 2642 02aa 4FF0FF02 		mov	r2, #255
 2643 02ae FFF7FEFF 		bl	memset
 627:.\mem1.c      ****                 
 628:.\mem1.c      ****                 WaveDAC8_1_Wave2Setup(newWave, WAVE_SIZE);
 2644              		.loc 1 628 0
 2645 02b2 07F10403 		add	r3, r7, #4
 2646 02b6 1846     		mov	r0, r3
 2647 02b8 4FF0FF01 		mov	r1, #255
 2648 02bc FFF7FEFF 		bl	WaveDAC8_1_Wave2Setup
 2649 02c0 FCE0     		b	.L140
 2650              	.L147:
 2651              	.LBE4:
 629:.\mem1.c      ****                 
 630:.\mem1.c      ****             }
 631:.\mem1.c      ****             
 632:.\mem1.c      ****             else if (waveType == TRIANGLE)
 2652              		.loc 1 632 0
 2653 02c2 97F80B36 		ldrb	r3, [r7, #1547]	@ zero_extendqisi2
 2654 02c6 052B     		cmp	r3, #5
 2655 02c8 77D1     		bne	.L152
 2656              	.LBB6:
 633:.\mem1.c      ****             {
 634:.\mem1.c      ****               int i;
 635:.\mem1.c      ****               uint8 newWave[WAVE_SIZE];
 636:.\mem1.c      ****               for(i = 0; i < WAVE_SIZE; i++)
 2657              		.loc 1 636 0
 2658 02ca 4FF00003 		mov	r3, #0
 2659 02ce C7F82C36 		str	r3, [r7, #1580]
 2660 02d2 5DE0     		b	.L153
 2661              	.L156:
 2662              	.LBB7:
 637:.\mem1.c      ****                 {
 638:.\mem1.c      ****                     double val;
 639:.\mem1.c      ****                     
 640:.\mem1.c      ****                     val = (((double)TRIANGLEWave[i]) * (((double)amp)/255.0)) + (double)dcB;
ARM GAS  C:\Users\Brian\AppData\Local\Temp\ccoW3fAZ.s 			page 59


 2663              		.loc 1 640 0
 2664 02d4 07F54172 		add	r2, r7, #772
 2665 02d8 D7F82C36 		ldr	r3, [r7, #1580]
 2666 02dc D318     		adds	r3, r2, r3
 2667 02de 1B78     		ldrb	r3, [r3, #0]	@ zero_extendqisi2
 2668 02e0 1846     		mov	r0, r3
 2669 02e2 FFF7FEFF 		bl	__aeabi_ui2d
 2670 02e6 0446     		mov	r4, r0
 2671 02e8 0D46     		mov	r5, r1
 2672 02ea 97F80A36 		ldrb	r3, [r7, #1546]	@ zero_extendqisi2
 2673 02ee 1846     		mov	r0, r3
 2674 02f0 FFF7FEFF 		bl	__aeabi_ui2d
 2675 02f4 0246     		mov	r2, r0
 2676 02f6 0B46     		mov	r3, r1
 2677 02f8 1046     		mov	r0, r2
 2678 02fa 1946     		mov	r1, r3
 2679 02fc 34A3     		adr	r3, .L165
 2680 02fe D3E90023 		ldrd	r2, [r3]
 2681 0302 FFF7FEFF 		bl	__aeabi_ddiv
 2682 0306 0246     		mov	r2, r0
 2683 0308 0B46     		mov	r3, r1
 2684 030a 2046     		mov	r0, r4
 2685 030c 2946     		mov	r1, r5
 2686 030e FFF7FEFF 		bl	__aeabi_dmul
 2687 0312 0246     		mov	r2, r0
 2688 0314 0B46     		mov	r3, r1
 2689 0316 1446     		mov	r4, r2
 2690 0318 1D46     		mov	r5, r3
 2691 031a 97F80736 		ldrb	r3, [r7, #1543]	@ zero_extendqisi2
 2692 031e 1846     		mov	r0, r3
 2693 0320 FFF7FEFF 		bl	__aeabi_ui2d
 2694 0324 0246     		mov	r2, r0
 2695 0326 0B46     		mov	r3, r1
 2696 0328 2046     		mov	r0, r4
 2697 032a 2946     		mov	r1, r5
 2698 032c FFF7FEFF 		bl	__aeabi_dadd
 2699 0330 0246     		mov	r2, r0
 2700 0332 0B46     		mov	r3, r1
 2701 0334 07F5C461 		add	r1, r7, #1568
 2702 0338 C1E90023 		strd	r2, [r1]
 641:.\mem1.c      ****                             
 642:.\mem1.c      ****                     if(val > 255){val = 255;}
 2703              		.loc 1 642 0
 2704 033c 07F5C463 		add	r3, r7, #1568
 2705 0340 D3E90001 		ldrd	r0, [r3]
 2706 0344 22A3     		adr	r3, .L165
 2707 0346 D3E90023 		ldrd	r2, [r3]
 2708 034a FFF7FEFF 		bl	__aeabi_dcmpgt
 2709 034e 0346     		mov	r3, r0
 2710 0350 002B     		cmp	r3, #0
 2711 0352 06D0     		beq	.L154
 2712              	.L163:
 2713              		.loc 1 642 0 is_stmt 0 discriminator 1
 2714 0354 1EA3     		adr	r3, .L165
 2715 0356 D3E90023 		ldrd	r2, [r3]
 2716 035a 07F5C461 		add	r1, r7, #1568
 2717 035e C1E90023 		strd	r2, [r1]
ARM GAS  C:\Users\Brian\AppData\Local\Temp\ccoW3fAZ.s 			page 60


 2718              	.L154:
 643:.\mem1.c      ****                     
 644:.\mem1.c      ****                     uint8 newVal = (uint8) val; 
 2719              		.loc 1 644 0 is_stmt 1
 2720 0362 07F5C463 		add	r3, r7, #1568
 2721 0366 D3E90001 		ldrd	r0, [r3]
 2722 036a FFF7FEFF 		bl	__aeabi_d2uiz
 2723 036e 0346     		mov	r3, r0
 2724 0370 87F80436 		strb	r3, [r7, #1540]
 645:.\mem1.c      ****                     
 646:.\mem1.c      ****                     newWave[i] = newVal;
 2725              		.loc 1 646 0
 2726 0374 07F10402 		add	r2, r7, #4
 2727 0378 D7F82C36 		ldr	r3, [r7, #1580]
 2728 037c D318     		adds	r3, r2, r3
 2729 037e 97F80426 		ldrb	r2, [r7, #1540]
 2730 0382 1A70     		strb	r2, [r3, #0]
 2731              	.LBE7:
 636:.\mem1.c      ****               for(i = 0; i < WAVE_SIZE; i++)
 2732              		.loc 1 636 0
 2733 0384 D7F82C36 		ldr	r3, [r7, #1580]
 2734 0388 03F10103 		add	r3, r3, #1
 2735 038c C7F82C36 		str	r3, [r7, #1580]
 2736              	.L153:
 636:.\mem1.c      ****               for(i = 0; i < WAVE_SIZE; i++)
 2737              		.loc 1 636 0 is_stmt 0 discriminator 1
 2738 0390 D7F82C36 		ldr	r3, [r7, #1580]
 2739 0394 FE2B     		cmp	r3, #254
 2740 0396 9DDD     		ble	.L156
 647:.\mem1.c      ****     	        }
 648:.\mem1.c      ****         
 649:.\mem1.c      ****                 uint8 Zeroes[WAVE_SIZE];
 650:.\mem1.c      ****                 memset(Zeroes, 0, WAVE_SIZE);
 2741              		.loc 1 650 0 is_stmt 1
 2742 0398 07F58273 		add	r3, r7, #260
 2743 039c 1846     		mov	r0, r3
 2744 039e 4FF00001 		mov	r1, #0
 2745 03a2 4FF0FF02 		mov	r2, #255
 2746 03a6 FFF7FEFF 		bl	memset
 651:.\mem1.c      ****                 
 652:.\mem1.c      ****                 WaveDAC8_1_Wave2Setup(newWave, WAVE_SIZE);
 2747              		.loc 1 652 0
 2748 03aa 07F10403 		add	r3, r7, #4
 2749 03ae 1846     		mov	r0, r3
 2750 03b0 4FF0FF01 		mov	r1, #255
 2751 03b4 FFF7FEFF 		bl	WaveDAC8_1_Wave2Setup
 2752 03b8 80E0     		b	.L140
 2753              	.L152:
 2754              	.LBE6:
 653:.\mem1.c      ****                 
 654:.\mem1.c      ****             }
 655:.\mem1.c      ****             
 656:.\mem1.c      ****             else if (waveType == SAWTOOTH)
 2755              		.loc 1 656 0
 2756 03ba 97F80B36 		ldrb	r3, [r7, #1547]	@ zero_extendqisi2
 2757 03be 072B     		cmp	r3, #7
 2758 03c0 7CD1     		bne	.L140
ARM GAS  C:\Users\Brian\AppData\Local\Temp\ccoW3fAZ.s 			page 61


 2759              	.LBB8:
 657:.\mem1.c      ****             {
 658:.\mem1.c      ****                   int i;
 659:.\mem1.c      ****                   uint8 newWave[WAVE_SIZE];
 660:.\mem1.c      ****                   for(i = 0; i < WAVE_SIZE; i++)
 2760              		.loc 1 660 0
 2761 03c2 4FF00003 		mov	r3, #0
 2762 03c6 C7F81C36 		str	r3, [r7, #1564]
 2763 03ca 63E0     		b	.L157
 2764              	.L166:
 2765 03cc AFF30080 		.align	3
 2766              	.L165:
 2767 03d0 00000000 		.word	0
 2768 03d4 00E06F40 		.word	1081073664
 2769              	.L160:
 2770              	.LBB9:
 661:.\mem1.c      ****                     {
 662:.\mem1.c      ****                         double val;
 663:.\mem1.c      ****                         
 664:.\mem1.c      ****                         val = (((double)SAWTOOTHWave[i]) * (((double)amp)/255.0)) + (double)dcB;  
 2771              		.loc 1 664 0
 2772 03d8 07F50172 		add	r2, r7, #516
 2773 03dc D7F81C36 		ldr	r3, [r7, #1564]
 2774 03e0 D318     		adds	r3, r2, r3
 2775 03e2 1B78     		ldrb	r3, [r3, #0]	@ zero_extendqisi2
 2776 03e4 1846     		mov	r0, r3
 2777 03e6 FFF7FEFF 		bl	__aeabi_ui2d
 2778 03ea 0446     		mov	r4, r0
 2779 03ec 0D46     		mov	r5, r1
 2780 03ee 97F80A36 		ldrb	r3, [r7, #1546]	@ zero_extendqisi2
 2781 03f2 1846     		mov	r0, r3
 2782 03f4 FFF7FEFF 		bl	__aeabi_ui2d
 2783 03f8 0246     		mov	r2, r0
 2784 03fa 0B46     		mov	r3, r1
 2785 03fc 1046     		mov	r0, r2
 2786 03fe 1946     		mov	r1, r3
 2787 0400 31A3     		adr	r3, .L167
 2788 0402 D3E90023 		ldrd	r2, [r3]
 2789 0406 FFF7FEFF 		bl	__aeabi_ddiv
 2790 040a 0246     		mov	r2, r0
 2791 040c 0B46     		mov	r3, r1
 2792 040e 2046     		mov	r0, r4
 2793 0410 2946     		mov	r1, r5
 2794 0412 FFF7FEFF 		bl	__aeabi_dmul
 2795 0416 0246     		mov	r2, r0
 2796 0418 0B46     		mov	r3, r1
 2797 041a 1446     		mov	r4, r2
 2798 041c 1D46     		mov	r5, r3
 2799 041e 97F80736 		ldrb	r3, [r7, #1543]	@ zero_extendqisi2
 2800 0422 1846     		mov	r0, r3
 2801 0424 FFF7FEFF 		bl	__aeabi_ui2d
 2802 0428 0246     		mov	r2, r0
 2803 042a 0B46     		mov	r3, r1
 2804 042c 2046     		mov	r0, r4
 2805 042e 2946     		mov	r1, r5
 2806 0430 FFF7FEFF 		bl	__aeabi_dadd
 2807 0434 0246     		mov	r2, r0
ARM GAS  C:\Users\Brian\AppData\Local\Temp\ccoW3fAZ.s 			page 62


 2808 0436 0B46     		mov	r3, r1
 2809 0438 07F5C261 		add	r1, r7, #1552
 2810 043c C1E90023 		strd	r2, [r1]
 665:.\mem1.c      ****                         
 666:.\mem1.c      ****                         if(val > 255){val = 255;}
 2811              		.loc 1 666 0
 2812 0440 07F5C263 		add	r3, r7, #1552
 2813 0444 D3E90001 		ldrd	r0, [r3]
 2814 0448 1FA3     		adr	r3, .L167
 2815 044a D3E90023 		ldrd	r2, [r3]
 2816 044e FFF7FEFF 		bl	__aeabi_dcmpgt
 2817 0452 0346     		mov	r3, r0
 2818 0454 002B     		cmp	r3, #0
 2819 0456 06D0     		beq	.L158
 2820              	.L164:
 2821              		.loc 1 666 0 is_stmt 0 discriminator 1
 2822 0458 1BA3     		adr	r3, .L167
 2823 045a D3E90023 		ldrd	r2, [r3]
 2824 045e 07F5C261 		add	r1, r7, #1552
 2825 0462 C1E90023 		strd	r2, [r1]
 2826              	.L158:
 667:.\mem1.c      ****                         
 668:.\mem1.c      ****                         uint8 newVal = (uint8) val; 
 2827              		.loc 1 668 0 is_stmt 1
 2828 0466 07F5C263 		add	r3, r7, #1552
 2829 046a D3E90001 		ldrd	r0, [r3]
 2830 046e FFF7FEFF 		bl	__aeabi_d2uiz
 2831 0472 0346     		mov	r3, r0
 2832 0474 87F80336 		strb	r3, [r7, #1539]
 669:.\mem1.c      ****                         newWave[i] = newVal;
 2833              		.loc 1 669 0
 2834 0478 07F10402 		add	r2, r7, #4
 2835 047c D7F81C36 		ldr	r3, [r7, #1564]
 2836 0480 D318     		adds	r3, r2, r3
 2837 0482 97F80326 		ldrb	r2, [r7, #1539]
 2838 0486 1A70     		strb	r2, [r3, #0]
 2839              	.LBE9:
 660:.\mem1.c      ****                   for(i = 0; i < WAVE_SIZE; i++)
 2840              		.loc 1 660 0
 2841 0488 D7F81C36 		ldr	r3, [r7, #1564]
 2842 048c 03F10103 		add	r3, r3, #1
 2843 0490 C7F81C36 		str	r3, [r7, #1564]
 2844              	.L157:
 660:.\mem1.c      ****                   for(i = 0; i < WAVE_SIZE; i++)
 2845              		.loc 1 660 0 is_stmt 0 discriminator 1
 2846 0494 D7F81C36 		ldr	r3, [r7, #1564]
 2847 0498 FE2B     		cmp	r3, #254
 2848 049a 9DDD     		ble	.L160
 670:.\mem1.c      ****         	        }
 671:.\mem1.c      ****             
 672:.\mem1.c      ****                     uint8 Zeroes[WAVE_SIZE];
 673:.\mem1.c      ****                     memset(Zeroes, 0, WAVE_SIZE);
 2849              		.loc 1 673 0 is_stmt 1
 2850 049c 07F58273 		add	r3, r7, #260
 2851 04a0 1846     		mov	r0, r3
 2852 04a2 4FF00001 		mov	r1, #0
 2853 04a6 4FF0FF02 		mov	r2, #255
ARM GAS  C:\Users\Brian\AppData\Local\Temp\ccoW3fAZ.s 			page 63


 2854 04aa FFF7FEFF 		bl	memset
 674:.\mem1.c      ****                     
 675:.\mem1.c      ****                     WaveDAC8_1_Wave2Setup(newWave, WAVE_SIZE);
 2855              		.loc 1 675 0
 2856 04ae 07F10403 		add	r3, r7, #4
 2857 04b2 1846     		mov	r0, r3
 2858 04b4 4FF0FF01 		mov	r1, #255
 2859 04b8 FFF7FEFF 		bl	WaveDAC8_1_Wave2Setup
 2860              	.L140:
 2861              	.LBE8:
 676:.\mem1.c      ****                     
 677:.\mem1.c      ****             }
 678:.\mem1.c      ****             
 679:.\mem1.c      ****             
 680:.\mem1.c      ****             
 681:.\mem1.c      ****         }
 2862              		.loc 1 681 0
 2863 04bc 07F5CA67 		add	r7, r7, #1616
 2864 04c0 BD46     		mov	sp, r7
 2865 04c2 B0BD     		pop	{r4, r5, r7, pc}
 2866              	.L168:
 2867 04c4 AFF30080 		.align	3
 2868              	.L167:
 2869 04c8 00000000 		.word	0
 2870 04cc 00E06F40 		.word	1081073664
 2871              		.cfi_endproc
 2872              	.LFE64:
 2873              		.size	Generate_Wave, .-Generate_Wave
 2874              		.section	.text.PWM_Control_0,"ax",%progbits
 2875              		.align	2
 2876              		.global	PWM_Control_0
 2877              		.thumb
 2878              		.thumb_func
 2879              		.type	PWM_Control_0, %function
 2880              	PWM_Control_0:
 2881              	.LFB65:
 682:.\mem1.c      ****     #endif    
 683:.\mem1.c      ****     
 684:.\mem1.c      **** /****************************************************************************************//**
 685:.\mem1.c      **** *  @brief Contains usage scenarios of the first PWM component for use by a Master device. 
 686:.\mem1.c      **** *
 687:.\mem1.c      **** *  @param cmd: 8-bit number describing a desired usage of a function associated 
 688:.\mem1.c      **** *              with the first PWM component
 689:.\mem1.c      **** *  @param val: 16-bit number containing a value that is to be written to that 
 690:.\mem1.c      **** *              function, or modify the component's operation, if applicable.
 691:.\mem1.c      **** *
 692:.\mem1.c      **** *********************************************************************************************/
 693:.\mem1.c      ****  
 694:.\mem1.c      ****     #ifdef CY_PWM_PWM_1_H
 695:.\mem1.c      ****         void PWM_Control_0(uint8 cmd, uint16 val)
 696:.\mem1.c      ****         {
 2882              		.loc 1 696 0
 2883              		.cfi_startproc
 2884              		@ args = 0, pretend = 0, frame = 16
 2885              		@ frame_needed = 1, uses_anonymous_args = 0
 2886 0000 80B5     		push	{r7, lr}
 2887              	.LCFI27:
ARM GAS  C:\Users\Brian\AppData\Local\Temp\ccoW3fAZ.s 			page 64


 2888              		.cfi_def_cfa_offset 8
 2889              		.cfi_offset 7, -8
 2890              		.cfi_offset 14, -4
 2891 0002 84B0     		sub	sp, sp, #16
 2892              	.LCFI28:
 2893              		.cfi_def_cfa_offset 24
 2894 0004 00AF     		add	r7, sp, #0
 2895              	.LCFI29:
 2896              		.cfi_def_cfa_register 7
 2897 0006 0246     		mov	r2, r0
 2898 0008 0B46     		mov	r3, r1
 2899 000a FA71     		strb	r2, [r7, #7]
 2900 000c BB80     		strh	r3, [r7, #4]	@ movhi
 697:.\mem1.c      ****             uint32 result = MAX_32;
 2901              		.loc 1 697 0
 2902 000e 4FF0FF33 		mov	r3, #-1
 2903 0012 FB60     		str	r3, [r7, #12]
 698:.\mem1.c      ****             bool return_flag = 0;
 2904              		.loc 1 698 0
 2905 0014 4FF00003 		mov	r3, #0
 2906 0018 FB72     		strb	r3, [r7, #11]
 699:.\mem1.c      ****             
 700:.\mem1.c      ****             switch(cmd)
 2907              		.loc 1 700 0
 2908 001a FB79     		ldrb	r3, [r7, #7]	@ zero_extendqisi2
 2909 001c 1A2B     		cmp	r3, #26
 2910 001e 62D8     		bhi	.L170
 2911 0020 01A2     		adr	r2, .L180
 2912 0022 52F823F0 		ldr	pc, [r2, r3, lsl #2]
 2913 0026 00BF     		.align	2
 2914              	.L180:
 2915 0028 95000000 		.word	.L171+1
 2916 002c 9B000000 		.word	.L172+1
 2917 0030 E7000000 		.word	.L170+1
 2918 0034 E7000000 		.word	.L170+1
 2919 0038 E7000000 		.word	.L170+1
 2920 003c E7000000 		.word	.L170+1
 2921 0040 E7000000 		.word	.L170+1
 2922 0044 E7000000 		.word	.L170+1
 2923 0048 E7000000 		.word	.L170+1
 2924 004c E7000000 		.word	.L170+1
 2925 0050 E7000000 		.word	.L170+1
 2926 0054 E7000000 		.word	.L170+1
 2927 0058 A1000000 		.word	.L173+1
 2928 005c AB000000 		.word	.L174+1
 2929 0060 BB000000 		.word	.L175+1
 2930 0064 C5000000 		.word	.L176+1
 2931 0068 E7000000 		.word	.L170+1
 2932 006c E7000000 		.word	.L170+1
 2933 0070 E7000000 		.word	.L170+1
 2934 0074 E7000000 		.word	.L170+1
 2935 0078 E7000000 		.word	.L170+1
 2936 007c E7000000 		.word	.L170+1
 2937 0080 E7000000 		.word	.L170+1
 2938 0084 E7000000 		.word	.L170+1
 2939 0088 D5000000 		.word	.L177+1
 2940 008c DB000000 		.word	.L178+1
ARM GAS  C:\Users\Brian\AppData\Local\Temp\ccoW3fAZ.s 			page 65


 2941 0090 E1000000 		.word	.L179+1
 2942              	.L171:
 701:.\mem1.c      ****             {
 702:.\mem1.c      ****                 case 0x00: PWM_1_Start(); break;
 2943              		.loc 1 702 0
 2944 0094 FFF7FEFF 		bl	PWM_1_Start
 2945 0098 25E0     		b	.L170
 2946              	.L172:
 703:.\mem1.c      ****                 case 0x01: PWM_1_Stop(); break;
 2947              		.loc 1 703 0
 2948 009a FFF7FEFF 		bl	PWM_1_Stop
 2949 009e 22E0     		b	.L170
 2950              	.L173:
 704:.\mem1.c      ****                 case 0x0C: PWM_1_WritePeriod(val); break;
 2951              		.loc 1 704 0
 2952 00a0 BB88     		ldrh	r3, [r7, #4]
 2953 00a2 1846     		mov	r0, r3
 2954 00a4 FFF7FEFF 		bl	PWM_1_WritePeriod
 2955 00a8 1DE0     		b	.L170
 2956              	.L174:
 705:.\mem1.c      ****                 case 0x0D: result = PWM_1_ReadPeriod(); return_flag = 1; break;
 2957              		.loc 1 705 0
 2958 00aa FFF7FEFF 		bl	PWM_1_ReadPeriod
 2959 00ae 0346     		mov	r3, r0
 2960 00b0 FB60     		str	r3, [r7, #12]
 2961 00b2 4FF00103 		mov	r3, #1
 2962 00b6 FB72     		strb	r3, [r7, #11]
 2963 00b8 15E0     		b	.L170
 2964              	.L175:
 706:.\mem1.c      ****                 case 0x0E: PWM_1_WriteCompare(val); break;
 2965              		.loc 1 706 0
 2966 00ba BB88     		ldrh	r3, [r7, #4]
 2967 00bc 1846     		mov	r0, r3
 2968 00be FFF7FEFF 		bl	PWM_1_WriteCompare
 2969 00c2 10E0     		b	.L170
 2970              	.L176:
 707:.\mem1.c      ****                 case 0x0F: result  = PWM_1_ReadCompare(); return_flag = 1; break;
 2971              		.loc 1 707 0
 2972 00c4 FFF7FEFF 		bl	PWM_1_ReadCompare
 2973 00c8 0346     		mov	r3, r0
 2974 00ca FB60     		str	r3, [r7, #12]
 2975 00cc 4FF00103 		mov	r3, #1
 2976 00d0 FB72     		strb	r3, [r7, #11]
 2977 00d2 08E0     		b	.L170
 2978              	.L177:
 708:.\mem1.c      ****                 //case 0x14: PWM_1_WriteDeadTime(val); break;
 709:.\mem1.c      ****                 //case 0x15: result = PWM_1_ReadDeadTime(); break; 
 710:.\mem1.c      ****                 // 0x16: PWM_1_WriteKillTime(val); break;
 711:.\mem1.c      ****                 //case 0x17: result = PWM_1_ReadKillTime(); break; 
 712:.\mem1.c      ****                 case 0x18: PWM_1_ClearFIFO(); break; 
 2979              		.loc 1 712 0
 2980 00d4 FFF7FEFF 		bl	PWM_1_ClearFIFO
 2981 00d8 05E0     		b	.L170
 2982              	.L178:
 713:.\mem1.c      ****                 case 0x19: PWM_1_Sleep(); break; 
 2983              		.loc 1 713 0
 2984 00da FFF7FEFF 		bl	PWM_1_Sleep
ARM GAS  C:\Users\Brian\AppData\Local\Temp\ccoW3fAZ.s 			page 66


 2985 00de 02E0     		b	.L170
 2986              	.L179:
 714:.\mem1.c      ****                 case 0x1A: PWM_1_Wakeup(); break; 
 2987              		.loc 1 714 0
 2988 00e0 FFF7FEFF 		bl	PWM_1_Wakeup
 2989 00e4 00BF     		nop
 2990              	.L170:
 715:.\mem1.c      ****                 
 716:.\mem1.c      ****             }
 717:.\mem1.c      ****             
 718:.\mem1.c      ****             if (return_flag)
 2991              		.loc 1 718 0
 2992 00e6 FB7A     		ldrb	r3, [r7, #11]	@ zero_extendqisi2
 2993 00e8 002B     		cmp	r3, #0
 2994 00ea 02D0     		beq	.L169
 719:.\mem1.c      ****                 {
 720:.\mem1.c      ****                     WriteTo_Pi(result);
 2995              		.loc 1 720 0
 2996 00ec F868     		ldr	r0, [r7, #12]
 2997 00ee FFF7FEFF 		bl	WriteTo_Pi
 2998              	.L169:
 721:.\mem1.c      ****                 }
 722:.\mem1.c      ****         }
 2999              		.loc 1 722 0
 3000 00f2 07F11007 		add	r7, r7, #16
 3001 00f6 BD46     		mov	sp, r7
 3002 00f8 80BD     		pop	{r7, pc}
 3003              		.cfi_endproc
 3004              	.LFE65:
 3005              		.size	PWM_Control_0, .-PWM_Control_0
 3006 00fa 00BF     		.section	.text.PWM_Control_1,"ax",%progbits
 3007              		.align	2
 3008              		.global	PWM_Control_1
 3009              		.thumb
 3010              		.thumb_func
 3011              		.type	PWM_Control_1, %function
 3012              	PWM_Control_1:
 3013              	.LFB66:
 723:.\mem1.c      ****     #endif
 724:.\mem1.c      **** /****************************************************************************************//**
 725:.\mem1.c      **** *  @brief Contains usage scenarios of the second PWM component for use by a Master device. 
 726:.\mem1.c      **** *
 727:.\mem1.c      **** *  @param cmd: 8-bit number describing a desired usage of a function associated 
 728:.\mem1.c      **** *              with the second PWM component
 729:.\mem1.c      **** *  @param val: 16-bit number containing a value that is to be written to that 
 730:.\mem1.c      **** *              function, or modify the component's operation, if applicable.
 731:.\mem1.c      **** *
 732:.\mem1.c      **** *********************************************************************************************/
 733:.\mem1.c      ****     
 734:.\mem1.c      ****      #ifdef CY_PWM_PWM_2_H
 735:.\mem1.c      ****         void PWM_Control_1(uint8 cmd, uint16 val)
 736:.\mem1.c      ****         {
 3014              		.loc 1 736 0
 3015              		.cfi_startproc
 3016              		@ args = 0, pretend = 0, frame = 16
 3017              		@ frame_needed = 1, uses_anonymous_args = 0
 3018 0000 80B5     		push	{r7, lr}
ARM GAS  C:\Users\Brian\AppData\Local\Temp\ccoW3fAZ.s 			page 67


 3019              	.LCFI30:
 3020              		.cfi_def_cfa_offset 8
 3021              		.cfi_offset 7, -8
 3022              		.cfi_offset 14, -4
 3023 0002 84B0     		sub	sp, sp, #16
 3024              	.LCFI31:
 3025              		.cfi_def_cfa_offset 24
 3026 0004 00AF     		add	r7, sp, #0
 3027              	.LCFI32:
 3028              		.cfi_def_cfa_register 7
 3029 0006 0246     		mov	r2, r0
 3030 0008 0B46     		mov	r3, r1
 3031 000a FA71     		strb	r2, [r7, #7]
 3032 000c BB80     		strh	r3, [r7, #4]	@ movhi
 737:.\mem1.c      ****             uint32 result = MAX_32;
 3033              		.loc 1 737 0
 3034 000e 4FF0FF33 		mov	r3, #-1
 3035 0012 FB60     		str	r3, [r7, #12]
 738:.\mem1.c      ****             bool return_flag = 0;
 3036              		.loc 1 738 0
 3037 0014 4FF00003 		mov	r3, #0
 3038 0018 FB72     		strb	r3, [r7, #11]
 739:.\mem1.c      ****             
 740:.\mem1.c      ****             switch(cmd)
 3039              		.loc 1 740 0
 3040 001a FB79     		ldrb	r3, [r7, #7]	@ zero_extendqisi2
 3041 001c 1A2B     		cmp	r3, #26
 3042 001e 62D8     		bhi	.L183
 3043 0020 01A2     		adr	r2, .L193
 3044 0022 52F823F0 		ldr	pc, [r2, r3, lsl #2]
 3045 0026 00BF     		.align	2
 3046              	.L193:
 3047 0028 95000000 		.word	.L184+1
 3048 002c 9B000000 		.word	.L185+1
 3049 0030 E7000000 		.word	.L183+1
 3050 0034 E7000000 		.word	.L183+1
 3051 0038 E7000000 		.word	.L183+1
 3052 003c E7000000 		.word	.L183+1
 3053 0040 E7000000 		.word	.L183+1
 3054 0044 E7000000 		.word	.L183+1
 3055 0048 E7000000 		.word	.L183+1
 3056 004c E7000000 		.word	.L183+1
 3057 0050 E7000000 		.word	.L183+1
 3058 0054 E7000000 		.word	.L183+1
 3059 0058 A1000000 		.word	.L186+1
 3060 005c AB000000 		.word	.L187+1
 3061 0060 BB000000 		.word	.L188+1
 3062 0064 C5000000 		.word	.L189+1
 3063 0068 E7000000 		.word	.L183+1
 3064 006c E7000000 		.word	.L183+1
 3065 0070 E7000000 		.word	.L183+1
 3066 0074 E7000000 		.word	.L183+1
 3067 0078 E7000000 		.word	.L183+1
 3068 007c E7000000 		.word	.L183+1
 3069 0080 E7000000 		.word	.L183+1
 3070 0084 E7000000 		.word	.L183+1
 3071 0088 D5000000 		.word	.L190+1
ARM GAS  C:\Users\Brian\AppData\Local\Temp\ccoW3fAZ.s 			page 68


 3072 008c DB000000 		.word	.L191+1
 3073 0090 E1000000 		.word	.L192+1
 3074              	.L184:
 741:.\mem1.c      ****             {
 742:.\mem1.c      ****                 case 0x00: PWM_2_Start(); break;
 3075              		.loc 1 742 0
 3076 0094 FFF7FEFF 		bl	PWM_2_Start
 3077 0098 25E0     		b	.L183
 3078              	.L185:
 743:.\mem1.c      ****                 case 0x01: PWM_2_Stop(); break;
 3079              		.loc 1 743 0
 3080 009a FFF7FEFF 		bl	PWM_2_Stop
 3081 009e 22E0     		b	.L183
 3082              	.L186:
 744:.\mem1.c      ****                 case 0x0C: PWM_2_WritePeriod(val); break;
 3083              		.loc 1 744 0
 3084 00a0 BB88     		ldrh	r3, [r7, #4]
 3085 00a2 1846     		mov	r0, r3
 3086 00a4 FFF7FEFF 		bl	PWM_2_WritePeriod
 3087 00a8 1DE0     		b	.L183
 3088              	.L187:
 745:.\mem1.c      ****                 case 0x0D: result = PWM_2_ReadPeriod(); return_flag = 1; break;
 3089              		.loc 1 745 0
 3090 00aa FFF7FEFF 		bl	PWM_2_ReadPeriod
 3091 00ae 0346     		mov	r3, r0
 3092 00b0 FB60     		str	r3, [r7, #12]
 3093 00b2 4FF00103 		mov	r3, #1
 3094 00b6 FB72     		strb	r3, [r7, #11]
 3095 00b8 15E0     		b	.L183
 3096              	.L188:
 746:.\mem1.c      ****                 case 0x0E: PWM_2_WriteCompare(val); break;
 3097              		.loc 1 746 0
 3098 00ba BB88     		ldrh	r3, [r7, #4]
 3099 00bc 1846     		mov	r0, r3
 3100 00be FFF7FEFF 		bl	PWM_2_WriteCompare
 3101 00c2 10E0     		b	.L183
 3102              	.L189:
 747:.\mem1.c      ****                 case 0x0F: result  = PWM_2_ReadCompare(); return_flag = 1; break;
 3103              		.loc 1 747 0
 3104 00c4 FFF7FEFF 		bl	PWM_2_ReadCompare
 3105 00c8 0346     		mov	r3, r0
 3106 00ca FB60     		str	r3, [r7, #12]
 3107 00cc 4FF00103 		mov	r3, #1
 3108 00d0 FB72     		strb	r3, [r7, #11]
 3109 00d2 08E0     		b	.L183
 3110              	.L190:
 748:.\mem1.c      ****                 //case 0x14: PWM_2_WriteDeadTime(val); break;
 749:.\mem1.c      ****                 //case 0x15: result = PWM_2_ReadDeadTime(); break; 
 750:.\mem1.c      ****                 // 0x16: PWM_2_WriteKillTime(val); break;
 751:.\mem1.c      ****                 //case 0x17: result = PWM_2_ReadKillTime(); break; 
 752:.\mem1.c      ****                 case 0x18: PWM_2_ClearFIFO(); break; 
 3111              		.loc 1 752 0
 3112 00d4 FFF7FEFF 		bl	PWM_2_ClearFIFO
 3113 00d8 05E0     		b	.L183
 3114              	.L191:
 753:.\mem1.c      ****                 case 0x19: PWM_2_Sleep(); break; 
 3115              		.loc 1 753 0
ARM GAS  C:\Users\Brian\AppData\Local\Temp\ccoW3fAZ.s 			page 69


 3116 00da FFF7FEFF 		bl	PWM_2_Sleep
 3117 00de 02E0     		b	.L183
 3118              	.L192:
 754:.\mem1.c      ****                 case 0x1A: PWM_2_Wakeup(); break; 
 3119              		.loc 1 754 0
 3120 00e0 FFF7FEFF 		bl	PWM_2_Wakeup
 3121 00e4 00BF     		nop
 3122              	.L183:
 755:.\mem1.c      ****                 
 756:.\mem1.c      ****             }
 757:.\mem1.c      ****             
 758:.\mem1.c      ****             if (return_flag)
 3123              		.loc 1 758 0
 3124 00e6 FB7A     		ldrb	r3, [r7, #11]	@ zero_extendqisi2
 3125 00e8 002B     		cmp	r3, #0
 3126 00ea 02D0     		beq	.L182
 759:.\mem1.c      ****                 {
 760:.\mem1.c      ****                     WriteTo_Pi(result);
 3127              		.loc 1 760 0
 3128 00ec F868     		ldr	r0, [r7, #12]
 3129 00ee FFF7FEFF 		bl	WriteTo_Pi
 3130              	.L182:
 761:.\mem1.c      ****                 } 
 762:.\mem1.c      ****         }
 3131              		.loc 1 762 0
 3132 00f2 07F11007 		add	r7, r7, #16
 3133 00f6 BD46     		mov	sp, r7
 3134 00f8 80BD     		pop	{r7, pc}
 3135              		.cfi_endproc
 3136              	.LFE66:
 3137              		.size	PWM_Control_1, .-PWM_Control_1
 3138 00fa 00BF     		.section	.text.PWM_Control_2,"ax",%progbits
 3139              		.align	2
 3140              		.global	PWM_Control_2
 3141              		.thumb
 3142              		.thumb_func
 3143              		.type	PWM_Control_2, %function
 3144              	PWM_Control_2:
 3145              	.LFB67:
 763:.\mem1.c      ****     #endif
 764:.\mem1.c      **** /****************************************************************************************//**
 765:.\mem1.c      **** *  @brief Contains usage scenarios of the third PWM component for use by a Master device. 
 766:.\mem1.c      **** *
 767:.\mem1.c      **** *  @param cmd: 8-bit number describing a desired usage of a function associated 
 768:.\mem1.c      **** *              with the third PWM component
 769:.\mem1.c      **** *  @param val: 16-bit number containing a value that is to be written to that 
 770:.\mem1.c      **** *              function, or modify the component's operation, if applicable.
 771:.\mem1.c      **** *
 772:.\mem1.c      **** *********************************************************************************************/
 773:.\mem1.c      ****      #ifdef CY_PWM_PWM_3_H
 774:.\mem1.c      ****         void PWM_Control_2(uint8 cmd, uint16 val)
 775:.\mem1.c      ****         {
 3146              		.loc 1 775 0
 3147              		.cfi_startproc
 3148              		@ args = 0, pretend = 0, frame = 16
 3149              		@ frame_needed = 1, uses_anonymous_args = 0
 3150 0000 80B5     		push	{r7, lr}
ARM GAS  C:\Users\Brian\AppData\Local\Temp\ccoW3fAZ.s 			page 70


 3151              	.LCFI33:
 3152              		.cfi_def_cfa_offset 8
 3153              		.cfi_offset 7, -8
 3154              		.cfi_offset 14, -4
 3155 0002 84B0     		sub	sp, sp, #16
 3156              	.LCFI34:
 3157              		.cfi_def_cfa_offset 24
 3158 0004 00AF     		add	r7, sp, #0
 3159              	.LCFI35:
 3160              		.cfi_def_cfa_register 7
 3161 0006 0246     		mov	r2, r0
 3162 0008 0B46     		mov	r3, r1
 3163 000a FA71     		strb	r2, [r7, #7]
 3164 000c BB80     		strh	r3, [r7, #4]	@ movhi
 776:.\mem1.c      ****             uint32 result = MAX_32;
 3165              		.loc 1 776 0
 3166 000e 4FF0FF33 		mov	r3, #-1
 3167 0012 FB60     		str	r3, [r7, #12]
 777:.\mem1.c      ****             bool return_flag = 0;
 3168              		.loc 1 777 0
 3169 0014 4FF00003 		mov	r3, #0
 3170 0018 FB72     		strb	r3, [r7, #11]
 778:.\mem1.c      ****             
 779:.\mem1.c      ****             switch(cmd)
 3171              		.loc 1 779 0
 3172 001a FB79     		ldrb	r3, [r7, #7]	@ zero_extendqisi2
 3173 001c 1A2B     		cmp	r3, #26
 3174 001e 62D8     		bhi	.L196
 3175 0020 01A2     		adr	r2, .L206
 3176 0022 52F823F0 		ldr	pc, [r2, r3, lsl #2]
 3177 0026 00BF     		.align	2
 3178              	.L206:
 3179 0028 95000000 		.word	.L197+1
 3180 002c 9B000000 		.word	.L198+1
 3181 0030 E7000000 		.word	.L196+1
 3182 0034 E7000000 		.word	.L196+1
 3183 0038 E7000000 		.word	.L196+1
 3184 003c E7000000 		.word	.L196+1
 3185 0040 E7000000 		.word	.L196+1
 3186 0044 E7000000 		.word	.L196+1
 3187 0048 E7000000 		.word	.L196+1
 3188 004c E7000000 		.word	.L196+1
 3189 0050 E7000000 		.word	.L196+1
 3190 0054 E7000000 		.word	.L196+1
 3191 0058 A1000000 		.word	.L199+1
 3192 005c AB000000 		.word	.L200+1
 3193 0060 BB000000 		.word	.L201+1
 3194 0064 C5000000 		.word	.L202+1
 3195 0068 E7000000 		.word	.L196+1
 3196 006c E7000000 		.word	.L196+1
 3197 0070 E7000000 		.word	.L196+1
 3198 0074 E7000000 		.word	.L196+1
 3199 0078 E7000000 		.word	.L196+1
 3200 007c E7000000 		.word	.L196+1
 3201 0080 E7000000 		.word	.L196+1
 3202 0084 E7000000 		.word	.L196+1
 3203 0088 D5000000 		.word	.L203+1
ARM GAS  C:\Users\Brian\AppData\Local\Temp\ccoW3fAZ.s 			page 71


 3204 008c DB000000 		.word	.L204+1
 3205 0090 E1000000 		.word	.L205+1
 3206              	.L197:
 780:.\mem1.c      ****             {
 781:.\mem1.c      ****                 case 0x00: PWM_3_Start(); break;
 3207              		.loc 1 781 0
 3208 0094 FFF7FEFF 		bl	PWM_3_Start
 3209 0098 25E0     		b	.L196
 3210              	.L198:
 782:.\mem1.c      ****                 case 0x01: PWM_3_Stop(); break;
 3211              		.loc 1 782 0
 3212 009a FFF7FEFF 		bl	PWM_3_Stop
 3213 009e 22E0     		b	.L196
 3214              	.L199:
 783:.\mem1.c      ****                 case 0x0C: PWM_3_WritePeriod(val); break;
 3215              		.loc 1 783 0
 3216 00a0 BB88     		ldrh	r3, [r7, #4]
 3217 00a2 1846     		mov	r0, r3
 3218 00a4 FFF7FEFF 		bl	PWM_3_WritePeriod
 3219 00a8 1DE0     		b	.L196
 3220              	.L200:
 784:.\mem1.c      ****                 case 0x0D: result = PWM_3_ReadPeriod(); return_flag = 1; break;
 3221              		.loc 1 784 0
 3222 00aa FFF7FEFF 		bl	PWM_3_ReadPeriod
 3223 00ae 0346     		mov	r3, r0
 3224 00b0 FB60     		str	r3, [r7, #12]
 3225 00b2 4FF00103 		mov	r3, #1
 3226 00b6 FB72     		strb	r3, [r7, #11]
 3227 00b8 15E0     		b	.L196
 3228              	.L201:
 785:.\mem1.c      ****                 case 0x0E: PWM_3_WriteCompare(val); break;
 3229              		.loc 1 785 0
 3230 00ba BB88     		ldrh	r3, [r7, #4]
 3231 00bc 1846     		mov	r0, r3
 3232 00be FFF7FEFF 		bl	PWM_3_WriteCompare
 3233 00c2 10E0     		b	.L196
 3234              	.L202:
 786:.\mem1.c      ****                 case 0x0F: result  = PWM_3_ReadCompare(); return_flag = 1; break;
 3235              		.loc 1 786 0
 3236 00c4 FFF7FEFF 		bl	PWM_3_ReadCompare
 3237 00c8 0346     		mov	r3, r0
 3238 00ca FB60     		str	r3, [r7, #12]
 3239 00cc 4FF00103 		mov	r3, #1
 3240 00d0 FB72     		strb	r3, [r7, #11]
 3241 00d2 08E0     		b	.L196
 3242              	.L203:
 787:.\mem1.c      ****                 //case 0x14: PWM_3_WriteDeadTime(val); break;
 788:.\mem1.c      ****                 //case 0x15: result = PWM_3_ReadDeadTime(); break; 
 789:.\mem1.c      ****                 // 0x16: PWM_3_WriteKillTime(val); break;
 790:.\mem1.c      ****                 //case 0x17: result = PWM_3_ReadKillTime(); break; 
 791:.\mem1.c      ****                 case 0x18: PWM_3_ClearFIFO(); break; 
 3243              		.loc 1 791 0
 3244 00d4 FFF7FEFF 		bl	PWM_3_ClearFIFO
 3245 00d8 05E0     		b	.L196
 3246              	.L204:
 792:.\mem1.c      ****                 case 0x19: PWM_3_Sleep(); break; 
 3247              		.loc 1 792 0
ARM GAS  C:\Users\Brian\AppData\Local\Temp\ccoW3fAZ.s 			page 72


 3248 00da FFF7FEFF 		bl	PWM_3_Sleep
 3249 00de 02E0     		b	.L196
 3250              	.L205:
 793:.\mem1.c      ****                 case 0x1A: PWM_3_Wakeup(); break; 
 3251              		.loc 1 793 0
 3252 00e0 FFF7FEFF 		bl	PWM_3_Wakeup
 3253 00e4 00BF     		nop
 3254              	.L196:
 794:.\mem1.c      ****                 
 795:.\mem1.c      ****             }
 796:.\mem1.c      ****             
 797:.\mem1.c      ****             if (return_flag)
 3255              		.loc 1 797 0
 3256 00e6 FB7A     		ldrb	r3, [r7, #11]	@ zero_extendqisi2
 3257 00e8 002B     		cmp	r3, #0
 3258 00ea 02D0     		beq	.L195
 798:.\mem1.c      ****                 {
 799:.\mem1.c      ****                     WriteTo_Pi(result);
 3259              		.loc 1 799 0
 3260 00ec F868     		ldr	r0, [r7, #12]
 3261 00ee FFF7FEFF 		bl	WriteTo_Pi
 3262              	.L195:
 800:.\mem1.c      ****                 } 
 801:.\mem1.c      ****         }
 3263              		.loc 1 801 0
 3264 00f2 07F11007 		add	r7, r7, #16
 3265 00f6 BD46     		mov	sp, r7
 3266 00f8 80BD     		pop	{r7, pc}
 3267              		.cfi_endproc
 3268              	.LFE67:
 3269              		.size	PWM_Control_2, .-PWM_Control_2
 3270 00fa 00BF     		.section	.text.PWM_Control_3,"ax",%progbits
 3271              		.align	2
 3272              		.global	PWM_Control_3
 3273              		.thumb
 3274              		.thumb_func
 3275              		.type	PWM_Control_3, %function
 3276              	PWM_Control_3:
 3277              	.LFB68:
 802:.\mem1.c      ****     #endif
 803:.\mem1.c      **** /****************************************************************************************//**
 804:.\mem1.c      **** *  @brief Contains usage scenarios of the fourth PWM component for use by a Master device. 
 805:.\mem1.c      **** *
 806:.\mem1.c      **** *  @param cmd: 8-bit number describing a desired usage of a function associated 
 807:.\mem1.c      **** *              with the fourth PWM component
 808:.\mem1.c      **** *  @param val: 16-bit number containing a value that is to be written to that 
 809:.\mem1.c      **** *              function, or modify the component's operation, if applicable.
 810:.\mem1.c      **** *
 811:.\mem1.c      **** *********************************************************************************************/
 812:.\mem1.c      ****      #ifdef CY_PWM_PWM_4_H
 813:.\mem1.c      ****         void PWM_Control_3(uint8 cmd, uint16 val)
 814:.\mem1.c      ****         {
 3278              		.loc 1 814 0
 3279              		.cfi_startproc
 3280              		@ args = 0, pretend = 0, frame = 16
 3281              		@ frame_needed = 1, uses_anonymous_args = 0
 3282 0000 80B5     		push	{r7, lr}
ARM GAS  C:\Users\Brian\AppData\Local\Temp\ccoW3fAZ.s 			page 73


 3283              	.LCFI36:
 3284              		.cfi_def_cfa_offset 8
 3285              		.cfi_offset 7, -8
 3286              		.cfi_offset 14, -4
 3287 0002 84B0     		sub	sp, sp, #16
 3288              	.LCFI37:
 3289              		.cfi_def_cfa_offset 24
 3290 0004 00AF     		add	r7, sp, #0
 3291              	.LCFI38:
 3292              		.cfi_def_cfa_register 7
 3293 0006 0246     		mov	r2, r0
 3294 0008 0B46     		mov	r3, r1
 3295 000a FA71     		strb	r2, [r7, #7]
 3296 000c BB80     		strh	r3, [r7, #4]	@ movhi
 815:.\mem1.c      ****             uint32 result = MAX_32;
 3297              		.loc 1 815 0
 3298 000e 4FF0FF33 		mov	r3, #-1
 3299 0012 FB60     		str	r3, [r7, #12]
 816:.\mem1.c      ****             bool return_flag = 0;
 3300              		.loc 1 816 0
 3301 0014 4FF00003 		mov	r3, #0
 3302 0018 FB72     		strb	r3, [r7, #11]
 817:.\mem1.c      ****             
 818:.\mem1.c      ****             switch(cmd)
 3303              		.loc 1 818 0
 3304 001a FB79     		ldrb	r3, [r7, #7]	@ zero_extendqisi2
 3305 001c 1A2B     		cmp	r3, #26
 3306 001e 62D8     		bhi	.L209
 3307 0020 01A2     		adr	r2, .L219
 3308 0022 52F823F0 		ldr	pc, [r2, r3, lsl #2]
 3309 0026 00BF     		.align	2
 3310              	.L219:
 3311 0028 95000000 		.word	.L210+1
 3312 002c 9B000000 		.word	.L211+1
 3313 0030 E7000000 		.word	.L209+1
 3314 0034 E7000000 		.word	.L209+1
 3315 0038 E7000000 		.word	.L209+1
 3316 003c E7000000 		.word	.L209+1
 3317 0040 E7000000 		.word	.L209+1
 3318 0044 E7000000 		.word	.L209+1
 3319 0048 E7000000 		.word	.L209+1
 3320 004c E7000000 		.word	.L209+1
 3321 0050 E7000000 		.word	.L209+1
 3322 0054 E7000000 		.word	.L209+1
 3323 0058 A1000000 		.word	.L212+1
 3324 005c AB000000 		.word	.L213+1
 3325 0060 BB000000 		.word	.L214+1
 3326 0064 C5000000 		.word	.L215+1
 3327 0068 E7000000 		.word	.L209+1
 3328 006c E7000000 		.word	.L209+1
 3329 0070 E7000000 		.word	.L209+1
 3330 0074 E7000000 		.word	.L209+1
 3331 0078 E7000000 		.word	.L209+1
 3332 007c E7000000 		.word	.L209+1
 3333 0080 E7000000 		.word	.L209+1
 3334 0084 E7000000 		.word	.L209+1
 3335 0088 D5000000 		.word	.L216+1
ARM GAS  C:\Users\Brian\AppData\Local\Temp\ccoW3fAZ.s 			page 74


 3336 008c DB000000 		.word	.L217+1
 3337 0090 E1000000 		.word	.L218+1
 3338              	.L210:
 819:.\mem1.c      ****             {
 820:.\mem1.c      ****                 case 0x00: PWM_4_Start(); break;
 3339              		.loc 1 820 0
 3340 0094 FFF7FEFF 		bl	PWM_4_Start
 3341 0098 25E0     		b	.L209
 3342              	.L211:
 821:.\mem1.c      ****                 case 0x01: PWM_4_Stop(); break;
 3343              		.loc 1 821 0
 3344 009a FFF7FEFF 		bl	PWM_4_Stop
 3345 009e 22E0     		b	.L209
 3346              	.L212:
 822:.\mem1.c      ****                 case 0x0C: PWM_4_WritePeriod(val); break;
 3347              		.loc 1 822 0
 3348 00a0 BB88     		ldrh	r3, [r7, #4]
 3349 00a2 1846     		mov	r0, r3
 3350 00a4 FFF7FEFF 		bl	PWM_4_WritePeriod
 3351 00a8 1DE0     		b	.L209
 3352              	.L213:
 823:.\mem1.c      ****                 case 0x0D: result = PWM_4_ReadPeriod(); return_flag = 1; break;
 3353              		.loc 1 823 0
 3354 00aa FFF7FEFF 		bl	PWM_4_ReadPeriod
 3355 00ae 0346     		mov	r3, r0
 3356 00b0 FB60     		str	r3, [r7, #12]
 3357 00b2 4FF00103 		mov	r3, #1
 3358 00b6 FB72     		strb	r3, [r7, #11]
 3359 00b8 15E0     		b	.L209
 3360              	.L214:
 824:.\mem1.c      ****                 case 0x0E: PWM_4_WriteCompare(val); break;
 3361              		.loc 1 824 0
 3362 00ba BB88     		ldrh	r3, [r7, #4]
 3363 00bc 1846     		mov	r0, r3
 3364 00be FFF7FEFF 		bl	PWM_4_WriteCompare
 3365 00c2 10E0     		b	.L209
 3366              	.L215:
 825:.\mem1.c      ****                 case 0x0F: result  = PWM_4_ReadCompare(); return_flag = 1; break;
 3367              		.loc 1 825 0
 3368 00c4 FFF7FEFF 		bl	PWM_4_ReadCompare
 3369 00c8 0346     		mov	r3, r0
 3370 00ca FB60     		str	r3, [r7, #12]
 3371 00cc 4FF00103 		mov	r3, #1
 3372 00d0 FB72     		strb	r3, [r7, #11]
 3373 00d2 08E0     		b	.L209
 3374              	.L216:
 826:.\mem1.c      ****                 //case 0x14: PWM_4_WriteDeadTime(val); break;
 827:.\mem1.c      ****                 //case 0x15: result = PWM_4_ReadDeadTime(); break; 
 828:.\mem1.c      ****                 // 0x16: PWM_4_WriteKillTime(val); break;
 829:.\mem1.c      ****                 //case 0x17: result = PWM_4_ReadKillTime(); break; 
 830:.\mem1.c      ****                 case 0x18: PWM_4_ClearFIFO(); break; 
 3375              		.loc 1 830 0
 3376 00d4 FFF7FEFF 		bl	PWM_4_ClearFIFO
 3377 00d8 05E0     		b	.L209
 3378              	.L217:
 831:.\mem1.c      ****                 case 0x19: PWM_4_Sleep(); break; 
 3379              		.loc 1 831 0
ARM GAS  C:\Users\Brian\AppData\Local\Temp\ccoW3fAZ.s 			page 75


 3380 00da FFF7FEFF 		bl	PWM_4_Sleep
 3381 00de 02E0     		b	.L209
 3382              	.L218:
 832:.\mem1.c      ****                 case 0x1A: PWM_4_Wakeup(); break; 
 3383              		.loc 1 832 0
 3384 00e0 FFF7FEFF 		bl	PWM_4_Wakeup
 3385 00e4 00BF     		nop
 3386              	.L209:
 833:.\mem1.c      ****                 
 834:.\mem1.c      ****             }
 835:.\mem1.c      ****             
 836:.\mem1.c      ****             if (return_flag)
 3387              		.loc 1 836 0
 3388 00e6 FB7A     		ldrb	r3, [r7, #11]	@ zero_extendqisi2
 3389 00e8 002B     		cmp	r3, #0
 3390 00ea 02D0     		beq	.L208
 837:.\mem1.c      ****                 {
 838:.\mem1.c      ****                     WriteTo_Pi(result);
 3391              		.loc 1 838 0
 3392 00ec F868     		ldr	r0, [r7, #12]
 3393 00ee FFF7FEFF 		bl	WriteTo_Pi
 3394              	.L208:
 839:.\mem1.c      ****                 } 
 840:.\mem1.c      ****         }
 3395              		.loc 1 840 0
 3396 00f2 07F11007 		add	r7, r7, #16
 3397 00f6 BD46     		mov	sp, r7
 3398 00f8 80BD     		pop	{r7, pc}
 3399              		.cfi_endproc
 3400              	.LFE68:
 3401              		.size	PWM_Control_3, .-PWM_Control_3
 3402 00fa 00BF     		.section	.text.PWM_Control_4,"ax",%progbits
 3403              		.align	2
 3404              		.global	PWM_Control_4
 3405              		.thumb
 3406              		.thumb_func
 3407              		.type	PWM_Control_4, %function
 3408              	PWM_Control_4:
 3409              	.LFB69:
 841:.\mem1.c      ****     #endif
 842:.\mem1.c      ****     
 843:.\mem1.c      **** /****************************************************************************************//**
 844:.\mem1.c      **** *  @brief Contains usage scenarios of the fifth PWM component for use by a Master device. 
 845:.\mem1.c      **** *
 846:.\mem1.c      **** *  @param cmd: 8-bit number describing a desired usage of a function associated 
 847:.\mem1.c      **** *              with the fifth PWM component
 848:.\mem1.c      **** *  @param val: 16-bit number containing a value that is to be written to that 
 849:.\mem1.c      **** *              function, or modify the component's operation, if applicable.
 850:.\mem1.c      **** *
 851:.\mem1.c      **** *********************************************************************************************/
 852:.\mem1.c      ****     
 853:.\mem1.c      ****      #ifdef CY_PWM_PWM_5_H
 854:.\mem1.c      ****         void PWM_Control_4(uint8 cmd, uint16 val)
 855:.\mem1.c      ****         {
 3410              		.loc 1 855 0
 3411              		.cfi_startproc
 3412              		@ args = 0, pretend = 0, frame = 16
ARM GAS  C:\Users\Brian\AppData\Local\Temp\ccoW3fAZ.s 			page 76


 3413              		@ frame_needed = 1, uses_anonymous_args = 0
 3414 0000 80B5     		push	{r7, lr}
 3415              	.LCFI39:
 3416              		.cfi_def_cfa_offset 8
 3417              		.cfi_offset 7, -8
 3418              		.cfi_offset 14, -4
 3419 0002 84B0     		sub	sp, sp, #16
 3420              	.LCFI40:
 3421              		.cfi_def_cfa_offset 24
 3422 0004 00AF     		add	r7, sp, #0
 3423              	.LCFI41:
 3424              		.cfi_def_cfa_register 7
 3425 0006 0246     		mov	r2, r0
 3426 0008 0B46     		mov	r3, r1
 3427 000a FA71     		strb	r2, [r7, #7]
 3428 000c BB80     		strh	r3, [r7, #4]	@ movhi
 856:.\mem1.c      ****             uint32 result = MAX_32;
 3429              		.loc 1 856 0
 3430 000e 4FF0FF33 		mov	r3, #-1
 3431 0012 FB60     		str	r3, [r7, #12]
 857:.\mem1.c      ****             bool return_flag = 0;
 3432              		.loc 1 857 0
 3433 0014 4FF00003 		mov	r3, #0
 3434 0018 FB72     		strb	r3, [r7, #11]
 858:.\mem1.c      ****             
 859:.\mem1.c      ****             switch(cmd)
 3435              		.loc 1 859 0
 3436 001a FB79     		ldrb	r3, [r7, #7]	@ zero_extendqisi2
 3437 001c 1A2B     		cmp	r3, #26
 3438 001e 62D8     		bhi	.L222
 3439 0020 01A2     		adr	r2, .L232
 3440 0022 52F823F0 		ldr	pc, [r2, r3, lsl #2]
 3441 0026 00BF     		.align	2
 3442              	.L232:
 3443 0028 95000000 		.word	.L223+1
 3444 002c 9B000000 		.word	.L224+1
 3445 0030 E7000000 		.word	.L222+1
 3446 0034 E7000000 		.word	.L222+1
 3447 0038 E7000000 		.word	.L222+1
 3448 003c E7000000 		.word	.L222+1
 3449 0040 E7000000 		.word	.L222+1
 3450 0044 E7000000 		.word	.L222+1
 3451 0048 E7000000 		.word	.L222+1
 3452 004c E7000000 		.word	.L222+1
 3453 0050 E7000000 		.word	.L222+1
 3454 0054 E7000000 		.word	.L222+1
 3455 0058 A1000000 		.word	.L225+1
 3456 005c AB000000 		.word	.L226+1
 3457 0060 BB000000 		.word	.L227+1
 3458 0064 C5000000 		.word	.L228+1
 3459 0068 E7000000 		.word	.L222+1
 3460 006c E7000000 		.word	.L222+1
 3461 0070 E7000000 		.word	.L222+1
 3462 0074 E7000000 		.word	.L222+1
 3463 0078 E7000000 		.word	.L222+1
 3464 007c E7000000 		.word	.L222+1
 3465 0080 E7000000 		.word	.L222+1
ARM GAS  C:\Users\Brian\AppData\Local\Temp\ccoW3fAZ.s 			page 77


 3466 0084 E7000000 		.word	.L222+1
 3467 0088 D5000000 		.word	.L229+1
 3468 008c DB000000 		.word	.L230+1
 3469 0090 E1000000 		.word	.L231+1
 3470              	.L223:
 860:.\mem1.c      ****             {
 861:.\mem1.c      ****                 case 0x00: PWM_5_Start(); break;
 3471              		.loc 1 861 0
 3472 0094 FFF7FEFF 		bl	PWM_5_Start
 3473 0098 25E0     		b	.L222
 3474              	.L224:
 862:.\mem1.c      ****                 case 0x01: PWM_5_Stop(); break;
 3475              		.loc 1 862 0
 3476 009a FFF7FEFF 		bl	PWM_5_Stop
 3477 009e 22E0     		b	.L222
 3478              	.L225:
 863:.\mem1.c      ****                 case 0x0C: PWM_5_WritePeriod(val); break;
 3479              		.loc 1 863 0
 3480 00a0 BB88     		ldrh	r3, [r7, #4]
 3481 00a2 1846     		mov	r0, r3
 3482 00a4 FFF7FEFF 		bl	PWM_5_WritePeriod
 3483 00a8 1DE0     		b	.L222
 3484              	.L226:
 864:.\mem1.c      ****                 case 0x0D: result = PWM_5_ReadPeriod(); return_flag = 1; break;
 3485              		.loc 1 864 0
 3486 00aa FFF7FEFF 		bl	PWM_5_ReadPeriod
 3487 00ae 0346     		mov	r3, r0
 3488 00b0 FB60     		str	r3, [r7, #12]
 3489 00b2 4FF00103 		mov	r3, #1
 3490 00b6 FB72     		strb	r3, [r7, #11]
 3491 00b8 15E0     		b	.L222
 3492              	.L227:
 865:.\mem1.c      ****                 case 0x0E: PWM_5_WriteCompare(val); break;
 3493              		.loc 1 865 0
 3494 00ba BB88     		ldrh	r3, [r7, #4]
 3495 00bc 1846     		mov	r0, r3
 3496 00be FFF7FEFF 		bl	PWM_5_WriteCompare
 3497 00c2 10E0     		b	.L222
 3498              	.L228:
 866:.\mem1.c      ****                 case 0x0F: result  = PWM_5_ReadCompare(); return_flag = 1; break;
 3499              		.loc 1 866 0
 3500 00c4 FFF7FEFF 		bl	PWM_5_ReadCompare
 3501 00c8 0346     		mov	r3, r0
 3502 00ca FB60     		str	r3, [r7, #12]
 3503 00cc 4FF00103 		mov	r3, #1
 3504 00d0 FB72     		strb	r3, [r7, #11]
 3505 00d2 08E0     		b	.L222
 3506              	.L229:
 867:.\mem1.c      ****                 //case 0x14: PWM_5_WriteDeadTime(val); break;
 868:.\mem1.c      ****                 //case 0x15: result = PWM_5_ReadDeadTime(); break; 
 869:.\mem1.c      ****                 // 0x16: PWM_5_WriteKillTime(val); break;
 870:.\mem1.c      ****                 //case 0x17: result = PWM_5_ReadKillTime(); break; 
 871:.\mem1.c      ****                 case 0x18: PWM_5_ClearFIFO(); break; 
 3507              		.loc 1 871 0
 3508 00d4 FFF7FEFF 		bl	PWM_5_ClearFIFO
 3509 00d8 05E0     		b	.L222
 3510              	.L230:
ARM GAS  C:\Users\Brian\AppData\Local\Temp\ccoW3fAZ.s 			page 78


 872:.\mem1.c      ****                 case 0x19: PWM_5_Sleep(); break; 
 3511              		.loc 1 872 0
 3512 00da FFF7FEFF 		bl	PWM_5_Sleep
 3513 00de 02E0     		b	.L222
 3514              	.L231:
 873:.\mem1.c      ****                 case 0x1A: PWM_5_Wakeup(); break; 
 3515              		.loc 1 873 0
 3516 00e0 FFF7FEFF 		bl	PWM_5_Wakeup
 3517 00e4 00BF     		nop
 3518              	.L222:
 874:.\mem1.c      ****                 
 875:.\mem1.c      ****             }
 876:.\mem1.c      ****             
 877:.\mem1.c      ****             if (return_flag)
 3519              		.loc 1 877 0
 3520 00e6 FB7A     		ldrb	r3, [r7, #11]	@ zero_extendqisi2
 3521 00e8 002B     		cmp	r3, #0
 3522 00ea 02D0     		beq	.L221
 878:.\mem1.c      ****                 {
 879:.\mem1.c      ****                     WriteTo_Pi(result);
 3523              		.loc 1 879 0
 3524 00ec F868     		ldr	r0, [r7, #12]
 3525 00ee FFF7FEFF 		bl	WriteTo_Pi
 3526              	.L221:
 880:.\mem1.c      ****                 } 
 881:.\mem1.c      ****         }
 3527              		.loc 1 881 0
 3528 00f2 07F11007 		add	r7, r7, #16
 3529 00f6 BD46     		mov	sp, r7
 3530 00f8 80BD     		pop	{r7, pc}
 3531              		.cfi_endproc
 3532              	.LFE69:
 3533              		.size	PWM_Control_4, .-PWM_Control_4
 3534 00fa 00BF     		.section	.text.PWM_Control_5,"ax",%progbits
 3535              		.align	2
 3536              		.global	PWM_Control_5
 3537              		.thumb
 3538              		.thumb_func
 3539              		.type	PWM_Control_5, %function
 3540              	PWM_Control_5:
 3541              	.LFB70:
 882:.\mem1.c      ****     #endif
 883:.\mem1.c      ****     
 884:.\mem1.c      **** /****************************************************************************************//**
 885:.\mem1.c      **** *  @brief Contains usage scenarios of the sixth PWM component for use by a Master device. 
 886:.\mem1.c      **** *
 887:.\mem1.c      **** *  @param cmd: 8-bit number describing a desired usage of a function associated 
 888:.\mem1.c      **** *              with the sixth PWM component
 889:.\mem1.c      **** *  @param val: 16-bit number containing a value that is to be written to that 
 890:.\mem1.c      **** *              function, or modify the component's operation, if applicable.
 891:.\mem1.c      **** *
 892:.\mem1.c      **** *********************************************************************************************/
 893:.\mem1.c      ****     
 894:.\mem1.c      ****      #ifdef CY_PWM_PWM_6_H
 895:.\mem1.c      ****         void PWM_Control_5(uint8 cmd, uint16 val)
 896:.\mem1.c      ****         {
 3542              		.loc 1 896 0
ARM GAS  C:\Users\Brian\AppData\Local\Temp\ccoW3fAZ.s 			page 79


 3543              		.cfi_startproc
 3544              		@ args = 0, pretend = 0, frame = 16
 3545              		@ frame_needed = 1, uses_anonymous_args = 0
 3546 0000 80B5     		push	{r7, lr}
 3547              	.LCFI42:
 3548              		.cfi_def_cfa_offset 8
 3549              		.cfi_offset 7, -8
 3550              		.cfi_offset 14, -4
 3551 0002 84B0     		sub	sp, sp, #16
 3552              	.LCFI43:
 3553              		.cfi_def_cfa_offset 24
 3554 0004 00AF     		add	r7, sp, #0
 3555              	.LCFI44:
 3556              		.cfi_def_cfa_register 7
 3557 0006 0246     		mov	r2, r0
 3558 0008 0B46     		mov	r3, r1
 3559 000a FA71     		strb	r2, [r7, #7]
 3560 000c BB80     		strh	r3, [r7, #4]	@ movhi
 897:.\mem1.c      ****             uint32 result = MAX_32;
 3561              		.loc 1 897 0
 3562 000e 4FF0FF33 		mov	r3, #-1
 3563 0012 FB60     		str	r3, [r7, #12]
 898:.\mem1.c      ****             bool return_flag = 0;
 3564              		.loc 1 898 0
 3565 0014 4FF00003 		mov	r3, #0
 3566 0018 FB72     		strb	r3, [r7, #11]
 899:.\mem1.c      ****             
 900:.\mem1.c      ****             switch(cmd)
 3567              		.loc 1 900 0
 3568 001a FB79     		ldrb	r3, [r7, #7]	@ zero_extendqisi2
 3569 001c 1A2B     		cmp	r3, #26
 3570 001e 62D8     		bhi	.L235
 3571 0020 01A2     		adr	r2, .L245
 3572 0022 52F823F0 		ldr	pc, [r2, r3, lsl #2]
 3573 0026 00BF     		.align	2
 3574              	.L245:
 3575 0028 95000000 		.word	.L236+1
 3576 002c 9B000000 		.word	.L237+1
 3577 0030 E7000000 		.word	.L235+1
 3578 0034 E7000000 		.word	.L235+1
 3579 0038 E7000000 		.word	.L235+1
 3580 003c E7000000 		.word	.L235+1
 3581 0040 E7000000 		.word	.L235+1
 3582 0044 E7000000 		.word	.L235+1
 3583 0048 E7000000 		.word	.L235+1
 3584 004c E7000000 		.word	.L235+1
 3585 0050 E7000000 		.word	.L235+1
 3586 0054 E7000000 		.word	.L235+1
 3587 0058 A1000000 		.word	.L238+1
 3588 005c AB000000 		.word	.L239+1
 3589 0060 BB000000 		.word	.L240+1
 3590 0064 C5000000 		.word	.L241+1
 3591 0068 E7000000 		.word	.L235+1
 3592 006c E7000000 		.word	.L235+1
 3593 0070 E7000000 		.word	.L235+1
 3594 0074 E7000000 		.word	.L235+1
 3595 0078 E7000000 		.word	.L235+1
ARM GAS  C:\Users\Brian\AppData\Local\Temp\ccoW3fAZ.s 			page 80


 3596 007c E7000000 		.word	.L235+1
 3597 0080 E7000000 		.word	.L235+1
 3598 0084 E7000000 		.word	.L235+1
 3599 0088 D5000000 		.word	.L242+1
 3600 008c DB000000 		.word	.L243+1
 3601 0090 E1000000 		.word	.L244+1
 3602              	.L236:
 901:.\mem1.c      ****             {
 902:.\mem1.c      ****                 case 0x00: PWM_6_Start(); break;
 3603              		.loc 1 902 0
 3604 0094 FFF7FEFF 		bl	PWM_6_Start
 3605 0098 25E0     		b	.L235
 3606              	.L237:
 903:.\mem1.c      ****                 case 0x01: PWM_6_Stop(); break;
 3607              		.loc 1 903 0
 3608 009a FFF7FEFF 		bl	PWM_6_Stop
 3609 009e 22E0     		b	.L235
 3610              	.L238:
 904:.\mem1.c      ****                 case 0x0C: PWM_6_WritePeriod(val); break;
 3611              		.loc 1 904 0
 3612 00a0 BB88     		ldrh	r3, [r7, #4]
 3613 00a2 1846     		mov	r0, r3
 3614 00a4 FFF7FEFF 		bl	PWM_6_WritePeriod
 3615 00a8 1DE0     		b	.L235
 3616              	.L239:
 905:.\mem1.c      ****                 case 0x0D: result = PWM_6_ReadPeriod(); return_flag = 1; break;
 3617              		.loc 1 905 0
 3618 00aa FFF7FEFF 		bl	PWM_6_ReadPeriod
 3619 00ae 0346     		mov	r3, r0
 3620 00b0 FB60     		str	r3, [r7, #12]
 3621 00b2 4FF00103 		mov	r3, #1
 3622 00b6 FB72     		strb	r3, [r7, #11]
 3623 00b8 15E0     		b	.L235
 3624              	.L240:
 906:.\mem1.c      ****                 case 0x0E: PWM_6_WriteCompare(val); break;
 3625              		.loc 1 906 0
 3626 00ba BB88     		ldrh	r3, [r7, #4]
 3627 00bc 1846     		mov	r0, r3
 3628 00be FFF7FEFF 		bl	PWM_6_WriteCompare
 3629 00c2 10E0     		b	.L235
 3630              	.L241:
 907:.\mem1.c      ****                 case 0x0F: result  = PWM_6_ReadCompare(); return_flag = 1; break;
 3631              		.loc 1 907 0
 3632 00c4 FFF7FEFF 		bl	PWM_6_ReadCompare
 3633 00c8 0346     		mov	r3, r0
 3634 00ca FB60     		str	r3, [r7, #12]
 3635 00cc 4FF00103 		mov	r3, #1
 3636 00d0 FB72     		strb	r3, [r7, #11]
 3637 00d2 08E0     		b	.L235
 3638              	.L242:
 908:.\mem1.c      ****                 //case 0x14: PWM_6_WriteDeadTime(val); break;
 909:.\mem1.c      ****                 //case 0x15: result = PWM_6_ReadDeadTime(); break; 
 910:.\mem1.c      ****                 // 0x16: PWM_6_WriteKillTime(val); break;
 911:.\mem1.c      ****                 //case 0x17: result = PWM_6_ReadKillTime(); break; 
 912:.\mem1.c      ****                 case 0x18: PWM_6_ClearFIFO(); break; 
 3639              		.loc 1 912 0
 3640 00d4 FFF7FEFF 		bl	PWM_6_ClearFIFO
ARM GAS  C:\Users\Brian\AppData\Local\Temp\ccoW3fAZ.s 			page 81


 3641 00d8 05E0     		b	.L235
 3642              	.L243:
 913:.\mem1.c      ****                 case 0x19: PWM_6_Sleep(); break; 
 3643              		.loc 1 913 0
 3644 00da FFF7FEFF 		bl	PWM_6_Sleep
 3645 00de 02E0     		b	.L235
 3646              	.L244:
 914:.\mem1.c      ****                 case 0x1A: PWM_6_Wakeup(); break; 
 3647              		.loc 1 914 0
 3648 00e0 FFF7FEFF 		bl	PWM_6_Wakeup
 3649 00e4 00BF     		nop
 3650              	.L235:
 915:.\mem1.c      ****             }
 916:.\mem1.c      ****             
 917:.\mem1.c      ****             if (return_flag)
 3651              		.loc 1 917 0
 3652 00e6 FB7A     		ldrb	r3, [r7, #11]	@ zero_extendqisi2
 3653 00e8 002B     		cmp	r3, #0
 3654 00ea 02D0     		beq	.L234
 918:.\mem1.c      ****                 {
 919:.\mem1.c      ****                     WriteTo_Pi(result);
 3655              		.loc 1 919 0
 3656 00ec F868     		ldr	r0, [r7, #12]
 3657 00ee FFF7FEFF 		bl	WriteTo_Pi
 3658              	.L234:
 920:.\mem1.c      ****                 } 
 921:.\mem1.c      ****         }
 3659              		.loc 1 921 0
 3660 00f2 07F11007 		add	r7, r7, #16
 3661 00f6 BD46     		mov	sp, r7
 3662 00f8 80BD     		pop	{r7, pc}
 3663              		.cfi_endproc
 3664              	.LFE70:
 3665              		.size	PWM_Control_5, .-PWM_Control_5
 3666 00fa 00BF     		.section	.text.PWM_Control_6,"ax",%progbits
 3667              		.align	2
 3668              		.global	PWM_Control_6
 3669              		.thumb
 3670              		.thumb_func
 3671              		.type	PWM_Control_6, %function
 3672              	PWM_Control_6:
 3673              	.LFB71:
 922:.\mem1.c      ****         
 923:.\mem1.c      ****     #endif
 924:.\mem1.c      ****  /****************************************************************************************//**
 925:.\mem1.c      **** *  @brief Contains usage scenarios of the seventh PWM component for use by a Master device. 
 926:.\mem1.c      **** *
 927:.\mem1.c      **** *  @param cmd: 8-bit number describing a desired usage of a function associated 
 928:.\mem1.c      **** *              with the seventh PWM component
 929:.\mem1.c      **** *  @param val: 16-bit number containing a value that is to be written to that 
 930:.\mem1.c      **** *              function, or modify the component's operation, if applicable.
 931:.\mem1.c      **** *
 932:.\mem1.c      **** *********************************************************************************************/
 933:.\mem1.c      ****     
 934:.\mem1.c      ****      #ifdef CY_PWM_PWM_7_H
 935:.\mem1.c      ****         void PWM_Control_6(uint8 cmd, uint16 val)
 936:.\mem1.c      ****         {
ARM GAS  C:\Users\Brian\AppData\Local\Temp\ccoW3fAZ.s 			page 82


 3674              		.loc 1 936 0
 3675              		.cfi_startproc
 3676              		@ args = 0, pretend = 0, frame = 16
 3677              		@ frame_needed = 1, uses_anonymous_args = 0
 3678 0000 80B5     		push	{r7, lr}
 3679              	.LCFI45:
 3680              		.cfi_def_cfa_offset 8
 3681              		.cfi_offset 7, -8
 3682              		.cfi_offset 14, -4
 3683 0002 84B0     		sub	sp, sp, #16
 3684              	.LCFI46:
 3685              		.cfi_def_cfa_offset 24
 3686 0004 00AF     		add	r7, sp, #0
 3687              	.LCFI47:
 3688              		.cfi_def_cfa_register 7
 3689 0006 0246     		mov	r2, r0
 3690 0008 0B46     		mov	r3, r1
 3691 000a FA71     		strb	r2, [r7, #7]
 3692 000c BB80     		strh	r3, [r7, #4]	@ movhi
 937:.\mem1.c      ****             uint32 result = MAX_32;
 3693              		.loc 1 937 0
 3694 000e 4FF0FF33 		mov	r3, #-1
 3695 0012 FB60     		str	r3, [r7, #12]
 938:.\mem1.c      ****             bool return_flag = 0;
 3696              		.loc 1 938 0
 3697 0014 4FF00003 		mov	r3, #0
 3698 0018 FB72     		strb	r3, [r7, #11]
 939:.\mem1.c      ****             
 940:.\mem1.c      ****             switch(cmd)
 3699              		.loc 1 940 0
 3700 001a FB79     		ldrb	r3, [r7, #7]	@ zero_extendqisi2
 3701 001c 1A2B     		cmp	r3, #26
 3702 001e 62D8     		bhi	.L248
 3703 0020 01A2     		adr	r2, .L258
 3704 0022 52F823F0 		ldr	pc, [r2, r3, lsl #2]
 3705 0026 00BF     		.align	2
 3706              	.L258:
 3707 0028 95000000 		.word	.L249+1
 3708 002c 9B000000 		.word	.L250+1
 3709 0030 E7000000 		.word	.L248+1
 3710 0034 E7000000 		.word	.L248+1
 3711 0038 E7000000 		.word	.L248+1
 3712 003c E7000000 		.word	.L248+1
 3713 0040 E7000000 		.word	.L248+1
 3714 0044 E7000000 		.word	.L248+1
 3715 0048 E7000000 		.word	.L248+1
 3716 004c E7000000 		.word	.L248+1
 3717 0050 E7000000 		.word	.L248+1
 3718 0054 E7000000 		.word	.L248+1
 3719 0058 A1000000 		.word	.L251+1
 3720 005c AB000000 		.word	.L252+1
 3721 0060 BB000000 		.word	.L253+1
 3722 0064 C5000000 		.word	.L254+1
 3723 0068 E7000000 		.word	.L248+1
 3724 006c E7000000 		.word	.L248+1
 3725 0070 E7000000 		.word	.L248+1
 3726 0074 E7000000 		.word	.L248+1
ARM GAS  C:\Users\Brian\AppData\Local\Temp\ccoW3fAZ.s 			page 83


 3727 0078 E7000000 		.word	.L248+1
 3728 007c E7000000 		.word	.L248+1
 3729 0080 E7000000 		.word	.L248+1
 3730 0084 E7000000 		.word	.L248+1
 3731 0088 D5000000 		.word	.L255+1
 3732 008c DB000000 		.word	.L256+1
 3733 0090 E1000000 		.word	.L257+1
 3734              	.L249:
 941:.\mem1.c      ****             {
 942:.\mem1.c      ****                 case 0x00: PWM_7_Start(); break;
 3735              		.loc 1 942 0
 3736 0094 FFF7FEFF 		bl	PWM_7_Start
 3737 0098 25E0     		b	.L248
 3738              	.L250:
 943:.\mem1.c      ****                 case 0x01: PWM_7_Stop(); break;
 3739              		.loc 1 943 0
 3740 009a FFF7FEFF 		bl	PWM_7_Stop
 3741 009e 22E0     		b	.L248
 3742              	.L251:
 944:.\mem1.c      ****                 case 0x0C: PWM_7_WritePeriod(val); break;
 3743              		.loc 1 944 0
 3744 00a0 BB88     		ldrh	r3, [r7, #4]
 3745 00a2 1846     		mov	r0, r3
 3746 00a4 FFF7FEFF 		bl	PWM_7_WritePeriod
 3747 00a8 1DE0     		b	.L248
 3748              	.L252:
 945:.\mem1.c      ****                 case 0x0D: result = PWM_7_ReadPeriod(); return_flag = 1; break;
 3749              		.loc 1 945 0
 3750 00aa FFF7FEFF 		bl	PWM_7_ReadPeriod
 3751 00ae 0346     		mov	r3, r0
 3752 00b0 FB60     		str	r3, [r7, #12]
 3753 00b2 4FF00103 		mov	r3, #1
 3754 00b6 FB72     		strb	r3, [r7, #11]
 3755 00b8 15E0     		b	.L248
 3756              	.L253:
 946:.\mem1.c      ****                 case 0x0E: PWM_7_WriteCompare(val); break;
 3757              		.loc 1 946 0
 3758 00ba BB88     		ldrh	r3, [r7, #4]
 3759 00bc 1846     		mov	r0, r3
 3760 00be FFF7FEFF 		bl	PWM_7_WriteCompare
 3761 00c2 10E0     		b	.L248
 3762              	.L254:
 947:.\mem1.c      ****                 case 0x0F: result  = PWM_7_ReadCompare(); return_flag = 1; break;
 3763              		.loc 1 947 0
 3764 00c4 FFF7FEFF 		bl	PWM_7_ReadCompare
 3765 00c8 0346     		mov	r3, r0
 3766 00ca FB60     		str	r3, [r7, #12]
 3767 00cc 4FF00103 		mov	r3, #1
 3768 00d0 FB72     		strb	r3, [r7, #11]
 3769 00d2 08E0     		b	.L248
 3770              	.L255:
 948:.\mem1.c      ****                 //case 0x14: PWM_7_WriteDeadTime(val); break;
 949:.\mem1.c      ****                 //case 0x15: result = PWM_7_ReadDeadTime(); break; 
 950:.\mem1.c      ****                 // 0x16: PWM_7_WriteKillTime(val); break;
 951:.\mem1.c      ****                 //case 0x17: result = PWM_7_ReadKillTime(); break; 
 952:.\mem1.c      ****                 case 0x18: PWM_7_ClearFIFO(); break; 
 3771              		.loc 1 952 0
ARM GAS  C:\Users\Brian\AppData\Local\Temp\ccoW3fAZ.s 			page 84


 3772 00d4 FFF7FEFF 		bl	PWM_7_ClearFIFO
 3773 00d8 05E0     		b	.L248
 3774              	.L256:
 953:.\mem1.c      ****                 case 0x19: PWM_7_Sleep(); break; 
 3775              		.loc 1 953 0
 3776 00da FFF7FEFF 		bl	PWM_7_Sleep
 3777 00de 02E0     		b	.L248
 3778              	.L257:
 954:.\mem1.c      ****                 case 0x1A: PWM_7_Wakeup(); break; 
 3779              		.loc 1 954 0
 3780 00e0 FFF7FEFF 		bl	PWM_7_Wakeup
 3781 00e4 00BF     		nop
 3782              	.L248:
 955:.\mem1.c      ****             }
 956:.\mem1.c      ****             
 957:.\mem1.c      ****             if (return_flag)
 3783              		.loc 1 957 0
 3784 00e6 FB7A     		ldrb	r3, [r7, #11]	@ zero_extendqisi2
 3785 00e8 002B     		cmp	r3, #0
 3786 00ea 02D0     		beq	.L247
 958:.\mem1.c      ****                 {
 959:.\mem1.c      ****                     WriteTo_Pi(result);
 3787              		.loc 1 959 0
 3788 00ec F868     		ldr	r0, [r7, #12]
 3789 00ee FFF7FEFF 		bl	WriteTo_Pi
 3790              	.L247:
 960:.\mem1.c      ****                 }
 961:.\mem1.c      ****         }
 3791              		.loc 1 961 0
 3792 00f2 07F11007 		add	r7, r7, #16
 3793 00f6 BD46     		mov	sp, r7
 3794 00f8 80BD     		pop	{r7, pc}
 3795              		.cfi_endproc
 3796              	.LFE71:
 3797              		.size	PWM_Control_6, .-PWM_Control_6
 3798 00fa 00BF     		.section	.text.PWM_Control_7,"ax",%progbits
 3799              		.align	2
 3800              		.global	PWM_Control_7
 3801              		.thumb
 3802              		.thumb_func
 3803              		.type	PWM_Control_7, %function
 3804              	PWM_Control_7:
 3805              	.LFB72:
 962:.\mem1.c      ****     #endif
 963:.\mem1.c      **** /****************************************************************************************//**
 964:.\mem1.c      **** *  @brief Contains usage scenarios of the eighth PWM component for use by a Master device. 
 965:.\mem1.c      **** *
 966:.\mem1.c      **** *  @param cmd: 8-bit number describing a desired usage of a function associated 
 967:.\mem1.c      **** *              with the eighth PWM component
 968:.\mem1.c      **** *  @param val: 16-bit number containing a value that is to be written to that 
 969:.\mem1.c      **** *              function, or modify the component's operation, if applicable.
 970:.\mem1.c      **** *
 971:.\mem1.c      **** *********************************************************************************************/
 972:.\mem1.c      ****      #ifdef CY_PWM_PWM_8_H
 973:.\mem1.c      ****         void PWM_Control_7(uint8 cmd, uint16 val)
 974:.\mem1.c      ****         {
 3806              		.loc 1 974 0
ARM GAS  C:\Users\Brian\AppData\Local\Temp\ccoW3fAZ.s 			page 85


 3807              		.cfi_startproc
 3808              		@ args = 0, pretend = 0, frame = 16
 3809              		@ frame_needed = 1, uses_anonymous_args = 0
 3810 0000 80B5     		push	{r7, lr}
 3811              	.LCFI48:
 3812              		.cfi_def_cfa_offset 8
 3813              		.cfi_offset 7, -8
 3814              		.cfi_offset 14, -4
 3815 0002 84B0     		sub	sp, sp, #16
 3816              	.LCFI49:
 3817              		.cfi_def_cfa_offset 24
 3818 0004 00AF     		add	r7, sp, #0
 3819              	.LCFI50:
 3820              		.cfi_def_cfa_register 7
 3821 0006 0246     		mov	r2, r0
 3822 0008 0B46     		mov	r3, r1
 3823 000a FA71     		strb	r2, [r7, #7]
 3824 000c BB80     		strh	r3, [r7, #4]	@ movhi
 975:.\mem1.c      ****             uint32 result = MAX_32;
 3825              		.loc 1 975 0
 3826 000e 4FF0FF33 		mov	r3, #-1
 3827 0012 FB60     		str	r3, [r7, #12]
 976:.\mem1.c      ****             bool return_flag = 0;
 3828              		.loc 1 976 0
 3829 0014 4FF00003 		mov	r3, #0
 3830 0018 FB72     		strb	r3, [r7, #11]
 977:.\mem1.c      ****             
 978:.\mem1.c      ****             switch(cmd)
 3831              		.loc 1 978 0
 3832 001a FB79     		ldrb	r3, [r7, #7]	@ zero_extendqisi2
 3833 001c 1A2B     		cmp	r3, #26
 3834 001e 62D8     		bhi	.L261
 3835 0020 01A2     		adr	r2, .L271
 3836 0022 52F823F0 		ldr	pc, [r2, r3, lsl #2]
 3837 0026 00BF     		.align	2
 3838              	.L271:
 3839 0028 95000000 		.word	.L262+1
 3840 002c 9B000000 		.word	.L263+1
 3841 0030 E7000000 		.word	.L261+1
 3842 0034 E7000000 		.word	.L261+1
 3843 0038 E7000000 		.word	.L261+1
 3844 003c E7000000 		.word	.L261+1
 3845 0040 E7000000 		.word	.L261+1
 3846 0044 E7000000 		.word	.L261+1
 3847 0048 E7000000 		.word	.L261+1
 3848 004c E7000000 		.word	.L261+1
 3849 0050 E7000000 		.word	.L261+1
 3850 0054 E7000000 		.word	.L261+1
 3851 0058 A1000000 		.word	.L264+1
 3852 005c AB000000 		.word	.L265+1
 3853 0060 BB000000 		.word	.L266+1
 3854 0064 C5000000 		.word	.L267+1
 3855 0068 E7000000 		.word	.L261+1
 3856 006c E7000000 		.word	.L261+1
 3857 0070 E7000000 		.word	.L261+1
 3858 0074 E7000000 		.word	.L261+1
 3859 0078 E7000000 		.word	.L261+1
ARM GAS  C:\Users\Brian\AppData\Local\Temp\ccoW3fAZ.s 			page 86


 3860 007c E7000000 		.word	.L261+1
 3861 0080 E7000000 		.word	.L261+1
 3862 0084 E7000000 		.word	.L261+1
 3863 0088 D5000000 		.word	.L268+1
 3864 008c DB000000 		.word	.L269+1
 3865 0090 E1000000 		.word	.L270+1
 3866              	.L262:
 979:.\mem1.c      ****             {
 980:.\mem1.c      ****                 case 0x00: PWM_8_Start(); break;
 3867              		.loc 1 980 0
 3868 0094 FFF7FEFF 		bl	PWM_8_Start
 3869 0098 25E0     		b	.L261
 3870              	.L263:
 981:.\mem1.c      ****                 case 0x01: PWM_8_Stop(); break;
 3871              		.loc 1 981 0
 3872 009a FFF7FEFF 		bl	PWM_8_Stop
 3873 009e 22E0     		b	.L261
 3874              	.L264:
 982:.\mem1.c      ****                 case 0x0C: PWM_8_WritePeriod(val); break;
 3875              		.loc 1 982 0
 3876 00a0 BB88     		ldrh	r3, [r7, #4]
 3877 00a2 1846     		mov	r0, r3
 3878 00a4 FFF7FEFF 		bl	PWM_8_WritePeriod
 3879 00a8 1DE0     		b	.L261
 3880              	.L265:
 983:.\mem1.c      ****                 case 0x0D: result = PWM_8_ReadPeriod(); return_flag = 1; break;
 3881              		.loc 1 983 0
 3882 00aa FFF7FEFF 		bl	PWM_8_ReadPeriod
 3883 00ae 0346     		mov	r3, r0
 3884 00b0 FB60     		str	r3, [r7, #12]
 3885 00b2 4FF00103 		mov	r3, #1
 3886 00b6 FB72     		strb	r3, [r7, #11]
 3887 00b8 15E0     		b	.L261
 3888              	.L266:
 984:.\mem1.c      ****                 case 0x0E: PWM_8_WriteCompare(val); break;
 3889              		.loc 1 984 0
 3890 00ba BB88     		ldrh	r3, [r7, #4]
 3891 00bc 1846     		mov	r0, r3
 3892 00be FFF7FEFF 		bl	PWM_8_WriteCompare
 3893 00c2 10E0     		b	.L261
 3894              	.L267:
 985:.\mem1.c      ****                 case 0x0F: result  = PWM_8_ReadCompare(); return_flag = 1; break;
 3895              		.loc 1 985 0
 3896 00c4 FFF7FEFF 		bl	PWM_8_ReadCompare
 3897 00c8 0346     		mov	r3, r0
 3898 00ca FB60     		str	r3, [r7, #12]
 3899 00cc 4FF00103 		mov	r3, #1
 3900 00d0 FB72     		strb	r3, [r7, #11]
 3901 00d2 08E0     		b	.L261
 3902              	.L268:
 986:.\mem1.c      ****                 //case 0x14: PWM_8_WriteDeadTime(val); break;
 987:.\mem1.c      ****                 //case 0x15: result = PWM_8_ReadDeadTime(); break; 
 988:.\mem1.c      ****                 // 0x16: PWM_8_WriteKillTime(val); break;
 989:.\mem1.c      ****                 //case 0x17: result = PWM_8_ReadKillTime(); break; 
 990:.\mem1.c      ****                 case 0x18: PWM_8_ClearFIFO(); break; 
 3903              		.loc 1 990 0
 3904 00d4 FFF7FEFF 		bl	PWM_8_ClearFIFO
ARM GAS  C:\Users\Brian\AppData\Local\Temp\ccoW3fAZ.s 			page 87


 3905 00d8 05E0     		b	.L261
 3906              	.L269:
 991:.\mem1.c      ****                 case 0x19: PWM_8_Sleep(); break; 
 3907              		.loc 1 991 0
 3908 00da FFF7FEFF 		bl	PWM_8_Sleep
 3909 00de 02E0     		b	.L261
 3910              	.L270:
 992:.\mem1.c      ****                 case 0x1A: PWM_8_Wakeup(); break;
 3911              		.loc 1 992 0
 3912 00e0 FFF7FEFF 		bl	PWM_8_Wakeup
 3913 00e4 00BF     		nop
 3914              	.L261:
 993:.\mem1.c      ****             }
 994:.\mem1.c      ****             
 995:.\mem1.c      ****             if (return_flag)
 3915              		.loc 1 995 0
 3916 00e6 FB7A     		ldrb	r3, [r7, #11]	@ zero_extendqisi2
 3917 00e8 002B     		cmp	r3, #0
 3918 00ea 02D0     		beq	.L260
 996:.\mem1.c      ****                 {
 997:.\mem1.c      ****                     WriteTo_Pi(result);
 3919              		.loc 1 997 0
 3920 00ec F868     		ldr	r0, [r7, #12]
 3921 00ee FFF7FEFF 		bl	WriteTo_Pi
 3922              	.L260:
 998:.\mem1.c      ****                 }
 999:.\mem1.c      ****         }
 3923              		.loc 1 999 0
 3924 00f2 07F11007 		add	r7, r7, #16
 3925 00f6 BD46     		mov	sp, r7
 3926 00f8 80BD     		pop	{r7, pc}
 3927              		.cfi_endproc
 3928              	.LFE72:
 3929              		.size	PWM_Control_7, .-PWM_Control_7
 3930 00fa 00BF     		.section	.text.Input_Control0,"ax",%progbits
 3931              		.align	2
 3932              		.global	Input_Control0
 3933              		.thumb
 3934              		.thumb_func
 3935              		.type	Input_Control0, %function
 3936              	Input_Control0:
 3937              	.LFB73:
1000:.\mem1.c      ****     #endif
1001:.\mem1.c      ****     
1002:.\mem1.c      **** /****************************************************************************************//**
1003:.\mem1.c      **** *  @brief Contains usage scenarios of the first status register for use by a Master device. 
1004:.\mem1.c      **** *
1005:.\mem1.c      **** *  @param cmd: 8-bit number describing a desired usage of a function associated 
1006:.\mem1.c      **** *              with the first status register
1007:.\mem1.c      **** *
1008:.\mem1.c      **** *********************************************************************************************/
1009:.\mem1.c      ****     
1010:.\mem1.c      ****     #ifdef CY_STATUS_REG_Status_Reg_1_H 
1011:.\mem1.c      ****         #if !defined(Status_Reg_1_sts_sts_reg__REMOVED)
1012:.\mem1.c      ****             void Input_Control0(uint8 cmd)
1013:.\mem1.c      ****             {
 3938              		.loc 1 1013 0
ARM GAS  C:\Users\Brian\AppData\Local\Temp\ccoW3fAZ.s 			page 88


 3939              		.cfi_startproc
 3940              		@ args = 0, pretend = 0, frame = 16
 3941              		@ frame_needed = 1, uses_anonymous_args = 0
 3942 0000 80B5     		push	{r7, lr}
 3943              	.LCFI51:
 3944              		.cfi_def_cfa_offset 8
 3945              		.cfi_offset 7, -8
 3946              		.cfi_offset 14, -4
 3947 0002 84B0     		sub	sp, sp, #16
 3948              	.LCFI52:
 3949              		.cfi_def_cfa_offset 24
 3950 0004 00AF     		add	r7, sp, #0
 3951              	.LCFI53:
 3952              		.cfi_def_cfa_register 7
 3953 0006 0346     		mov	r3, r0
 3954 0008 FB71     		strb	r3, [r7, #7]
1014:.\mem1.c      ****                 uint32 result = MAX_32; 
 3955              		.loc 1 1014 0
 3956 000a 4FF0FF33 		mov	r3, #-1
 3957 000e FB60     		str	r3, [r7, #12]
1015:.\mem1.c      ****                 bool return_flag = 0;
 3958              		.loc 1 1015 0
 3959 0010 4FF00003 		mov	r3, #0
 3960 0014 FB72     		strb	r3, [r7, #11]
1016:.\mem1.c      ****                 
1017:.\mem1.c      ****                 switch(cmd)
 3961              		.loc 1 1017 0
 3962 0016 FB79     		ldrb	r3, [r7, #7]	@ zero_extendqisi2
 3963 0018 002B     		cmp	r3, #0
 3964 001a 07D1     		bne	.L274
 3965              	.L275:
1018:.\mem1.c      ****                 {
1019:.\mem1.c      ****                     case 0x00: result = Status_Reg_1_Read(); return_flag = 1; break;
 3966              		.loc 1 1019 0
 3967 001c FFF7FEFF 		bl	Status_Reg_1_Read
 3968 0020 0346     		mov	r3, r0
 3969 0022 FB60     		str	r3, [r7, #12]
 3970 0024 4FF00103 		mov	r3, #1
 3971 0028 FB72     		strb	r3, [r7, #11]
 3972 002a 00BF     		nop
 3973              	.L274:
1020:.\mem1.c      ****                 }
1021:.\mem1.c      ****                 
1022:.\mem1.c      ****                 if (return_flag)
 3974              		.loc 1 1022 0
 3975 002c FB7A     		ldrb	r3, [r7, #11]	@ zero_extendqisi2
 3976 002e 002B     		cmp	r3, #0
 3977 0030 02D0     		beq	.L273
1023:.\mem1.c      ****                 {
1024:.\mem1.c      ****                     WriteTo_Pi(result);
 3978              		.loc 1 1024 0
 3979 0032 F868     		ldr	r0, [r7, #12]
 3980 0034 FFF7FEFF 		bl	WriteTo_Pi
 3981              	.L273:
1025:.\mem1.c      ****                 }
1026:.\mem1.c      ****             }
 3982              		.loc 1 1026 0
ARM GAS  C:\Users\Brian\AppData\Local\Temp\ccoW3fAZ.s 			page 89


 3983 0038 07F11007 		add	r7, r7, #16
 3984 003c BD46     		mov	sp, r7
 3985 003e 80BD     		pop	{r7, pc}
 3986              		.cfi_endproc
 3987              	.LFE73:
 3988              		.size	Input_Control0, .-Input_Control0
 3989              		.section	.text.Input_Control1,"ax",%progbits
 3990              		.align	2
 3991              		.global	Input_Control1
 3992              		.thumb
 3993              		.thumb_func
 3994              		.type	Input_Control1, %function
 3995              	Input_Control1:
 3996              	.LFB74:
1027:.\mem1.c      ****         #endif
1028:.\mem1.c      ****     #endif
1029:.\mem1.c      ****     
1030:.\mem1.c      ****  /****************************************************************************************//**
1031:.\mem1.c      **** *  @brief Contains usage scenarios of the second status register for use by a Master device. 
1032:.\mem1.c      **** *
1033:.\mem1.c      **** *  @param cmd: 8-bit number describing a desired usage of a function associated 
1034:.\mem1.c      **** *              with the second status register
1035:.\mem1.c      **** *
1036:.\mem1.c      **** *********************************************************************************************/
1037:.\mem1.c      ****     
1038:.\mem1.c      ****      #ifdef CY_STATUS_REG_Status_Reg_2_H 
1039:.\mem1.c      ****         #if !defined(Status_Reg_2_sts_sts_reg__REMOVED)
1040:.\mem1.c      ****             void Input_Control1(uint8 cmd)
1041:.\mem1.c      ****             {
 3997              		.loc 1 1041 0
 3998              		.cfi_startproc
 3999              		@ args = 0, pretend = 0, frame = 16
 4000              		@ frame_needed = 1, uses_anonymous_args = 0
 4001 0000 80B5     		push	{r7, lr}
 4002              	.LCFI54:
 4003              		.cfi_def_cfa_offset 8
 4004              		.cfi_offset 7, -8
 4005              		.cfi_offset 14, -4
 4006 0002 84B0     		sub	sp, sp, #16
 4007              	.LCFI55:
 4008              		.cfi_def_cfa_offset 24
 4009 0004 00AF     		add	r7, sp, #0
 4010              	.LCFI56:
 4011              		.cfi_def_cfa_register 7
 4012 0006 0346     		mov	r3, r0
 4013 0008 FB71     		strb	r3, [r7, #7]
1042:.\mem1.c      ****                 uint32 result = MAX_32; 
 4014              		.loc 1 1042 0
 4015 000a 4FF0FF33 		mov	r3, #-1
 4016 000e FB60     		str	r3, [r7, #12]
1043:.\mem1.c      ****                 bool return_flag = 0;
 4017              		.loc 1 1043 0
 4018 0010 4FF00003 		mov	r3, #0
 4019 0014 FB72     		strb	r3, [r7, #11]
1044:.\mem1.c      ****                 
1045:.\mem1.c      ****                 switch(cmd)
 4020              		.loc 1 1045 0
ARM GAS  C:\Users\Brian\AppData\Local\Temp\ccoW3fAZ.s 			page 90


 4021 0016 FB79     		ldrb	r3, [r7, #7]	@ zero_extendqisi2
 4022 0018 002B     		cmp	r3, #0
 4023 001a 07D1     		bne	.L278
 4024              	.L279:
1046:.\mem1.c      ****                 {
1047:.\mem1.c      ****                     case 0x00: result = Status_Reg_2_Read(); return_flag = 1; break;
 4025              		.loc 1 1047 0
 4026 001c FFF7FEFF 		bl	Status_Reg_2_Read
 4027 0020 0346     		mov	r3, r0
 4028 0022 FB60     		str	r3, [r7, #12]
 4029 0024 4FF00103 		mov	r3, #1
 4030 0028 FB72     		strb	r3, [r7, #11]
 4031 002a 00BF     		nop
 4032              	.L278:
1048:.\mem1.c      ****                 }
1049:.\mem1.c      ****                 
1050:.\mem1.c      ****                 if (return_flag)
 4033              		.loc 1 1050 0
 4034 002c FB7A     		ldrb	r3, [r7, #11]	@ zero_extendqisi2
 4035 002e 002B     		cmp	r3, #0
 4036 0030 02D0     		beq	.L277
1051:.\mem1.c      ****                 {
1052:.\mem1.c      ****                     WriteTo_Pi(result);
 4037              		.loc 1 1052 0
 4038 0032 F868     		ldr	r0, [r7, #12]
 4039 0034 FFF7FEFF 		bl	WriteTo_Pi
 4040              	.L277:
1053:.\mem1.c      ****                 } 
1054:.\mem1.c      ****             }
 4041              		.loc 1 1054 0
 4042 0038 07F11007 		add	r7, r7, #16
 4043 003c BD46     		mov	sp, r7
 4044 003e 80BD     		pop	{r7, pc}
 4045              		.cfi_endproc
 4046              	.LFE74:
 4047              		.size	Input_Control1, .-Input_Control1
 4048              		.section	.text.Input_Control2,"ax",%progbits
 4049              		.align	2
 4050              		.global	Input_Control2
 4051              		.thumb
 4052              		.thumb_func
 4053              		.type	Input_Control2, %function
 4054              	Input_Control2:
 4055              	.LFB75:
1055:.\mem1.c      ****         #endif
1056:.\mem1.c      ****     #endif
1057:.\mem1.c      ****     
1058:.\mem1.c      **** /****************************************************************************************//**
1059:.\mem1.c      **** *  @brief Contains usage scenarios of the third status register for use by a Master device. 
1060:.\mem1.c      **** *
1061:.\mem1.c      **** *  @param cmd: 8-bit number describing a desired usage of a function associated 
1062:.\mem1.c      **** *              with the third status register
1063:.\mem1.c      **** *
1064:.\mem1.c      **** *********************************************************************************************/
1065:.\mem1.c      ****     
1066:.\mem1.c      ****     #ifdef CY_STATUS_REG_Status_Reg_3_H 
1067:.\mem1.c      ****         #if !defined(Status_Reg_3_sts_sts_reg__REMOVED)
ARM GAS  C:\Users\Brian\AppData\Local\Temp\ccoW3fAZ.s 			page 91


1068:.\mem1.c      ****             void Input_Control2(uint8 cmd)
1069:.\mem1.c      ****             {
 4056              		.loc 1 1069 0
 4057              		.cfi_startproc
 4058              		@ args = 0, pretend = 0, frame = 16
 4059              		@ frame_needed = 1, uses_anonymous_args = 0
 4060 0000 80B5     		push	{r7, lr}
 4061              	.LCFI57:
 4062              		.cfi_def_cfa_offset 8
 4063              		.cfi_offset 7, -8
 4064              		.cfi_offset 14, -4
 4065 0002 84B0     		sub	sp, sp, #16
 4066              	.LCFI58:
 4067              		.cfi_def_cfa_offset 24
 4068 0004 00AF     		add	r7, sp, #0
 4069              	.LCFI59:
 4070              		.cfi_def_cfa_register 7
 4071 0006 0346     		mov	r3, r0
 4072 0008 FB71     		strb	r3, [r7, #7]
1070:.\mem1.c      ****                 uint32 result = MAX_32; 
 4073              		.loc 1 1070 0
 4074 000a 4FF0FF33 		mov	r3, #-1
 4075 000e FB60     		str	r3, [r7, #12]
1071:.\mem1.c      ****                 bool return_flag = 0;
 4076              		.loc 1 1071 0
 4077 0010 4FF00003 		mov	r3, #0
 4078 0014 FB72     		strb	r3, [r7, #11]
1072:.\mem1.c      ****                 
1073:.\mem1.c      ****                 switch(cmd)
 4079              		.loc 1 1073 0
 4080 0016 FB79     		ldrb	r3, [r7, #7]	@ zero_extendqisi2
 4081 0018 002B     		cmp	r3, #0
 4082 001a 07D1     		bne	.L282
 4083              	.L283:
1074:.\mem1.c      ****                 {
1075:.\mem1.c      ****                     case 0x00: result = Status_Reg_3_Read(); return_flag = 1; break;
 4084              		.loc 1 1075 0
 4085 001c FFF7FEFF 		bl	Status_Reg_3_Read
 4086 0020 0346     		mov	r3, r0
 4087 0022 FB60     		str	r3, [r7, #12]
 4088 0024 4FF00103 		mov	r3, #1
 4089 0028 FB72     		strb	r3, [r7, #11]
 4090 002a 00BF     		nop
 4091              	.L282:
1076:.\mem1.c      ****                 }
1077:.\mem1.c      ****                 
1078:.\mem1.c      ****                 if (return_flag)
 4092              		.loc 1 1078 0
 4093 002c FB7A     		ldrb	r3, [r7, #11]	@ zero_extendqisi2
 4094 002e 002B     		cmp	r3, #0
 4095 0030 02D0     		beq	.L281
1079:.\mem1.c      ****                 {
1080:.\mem1.c      ****                     WriteTo_Pi(result);
 4096              		.loc 1 1080 0
 4097 0032 F868     		ldr	r0, [r7, #12]
 4098 0034 FFF7FEFF 		bl	WriteTo_Pi
 4099              	.L281:
ARM GAS  C:\Users\Brian\AppData\Local\Temp\ccoW3fAZ.s 			page 92


1081:.\mem1.c      ****                 } 
1082:.\mem1.c      ****             }
 4100              		.loc 1 1082 0
 4101 0038 07F11007 		add	r7, r7, #16
 4102 003c BD46     		mov	sp, r7
 4103 003e 80BD     		pop	{r7, pc}
 4104              		.cfi_endproc
 4105              	.LFE75:
 4106              		.size	Input_Control2, .-Input_Control2
 4107              		.section	.text.Output_Control0,"ax",%progbits
 4108              		.align	2
 4109              		.global	Output_Control0
 4110              		.thumb
 4111              		.thumb_func
 4112              		.type	Output_Control0, %function
 4113              	Output_Control0:
 4114              	.LFB76:
1083:.\mem1.c      ****         #endif
1084:.\mem1.c      ****     #endif
1085:.\mem1.c      ****     
1086:.\mem1.c      **** /****************************************************************************************//**
1087:.\mem1.c      **** *  @brief Contains usage scenarios of the first control register for use by a Master device. 
1088:.\mem1.c      **** *
1089:.\mem1.c      **** *  @param cmd: 8-bit number describing a desired usage of a function associated 
1090:.\mem1.c      **** *              with the first control register
1091:.\mem1.c      **** *  @param val: 16-bit number containing a value that is to be written to that 
1092:.\mem1.c      **** *              function, or modify the component's operation, if applicable.
1093:.\mem1.c      **** *
1094:.\mem1.c      **** *********************************************************************************************/
1095:.\mem1.c      ****     
1096:.\mem1.c      ****     
1097:.\mem1.c      ****     #ifdef CY_CONTROL_REG_Control_Reg_1_H
1098:.\mem1.c      ****         #if !defined(Control_Reg_1_Sync_ctrl_reg__REMOVED)
1099:.\mem1.c      ****             void Output_Control0(uint8 cmd, uint16 val)
1100:.\mem1.c      ****             {
 4115              		.loc 1 1100 0
 4116              		.cfi_startproc
 4117              		@ args = 0, pretend = 0, frame = 16
 4118              		@ frame_needed = 1, uses_anonymous_args = 0
 4119 0000 80B5     		push	{r7, lr}
 4120              	.LCFI60:
 4121              		.cfi_def_cfa_offset 8
 4122              		.cfi_offset 7, -8
 4123              		.cfi_offset 14, -4
 4124 0002 84B0     		sub	sp, sp, #16
 4125              	.LCFI61:
 4126              		.cfi_def_cfa_offset 24
 4127 0004 00AF     		add	r7, sp, #0
 4128              	.LCFI62:
 4129              		.cfi_def_cfa_register 7
 4130 0006 0246     		mov	r2, r0
 4131 0008 0B46     		mov	r3, r1
 4132 000a FA71     		strb	r2, [r7, #7]
 4133 000c BB80     		strh	r3, [r7, #4]	@ movhi
1101:.\mem1.c      ****                 uint32 result = MAX_32; 
 4134              		.loc 1 1101 0
 4135 000e 4FF0FF33 		mov	r3, #-1
ARM GAS  C:\Users\Brian\AppData\Local\Temp\ccoW3fAZ.s 			page 93


 4136 0012 FB60     		str	r3, [r7, #12]
1102:.\mem1.c      ****                 bool return_flag = 0;
 4137              		.loc 1 1102 0
 4138 0014 4FF00003 		mov	r3, #0
 4139 0018 FB72     		strb	r3, [r7, #11]
1103:.\mem1.c      ****               
1104:.\mem1.c      ****                 
1105:.\mem1.c      ****                 switch(cmd)
 4140              		.loc 1 1105 0
 4141 001a FB79     		ldrb	r3, [r7, #7]	@ zero_extendqisi2
 4142 001c 002B     		cmp	r3, #0
 4143 001e 02D0     		beq	.L287
 4144 0020 012B     		cmp	r3, #1
 4145 0022 08D0     		beq	.L288
 4146 0024 0DE0     		b	.L286
 4147              	.L287:
1106:.\mem1.c      ****                 {
1107:.\mem1.c      ****                     case 0x00: result = Control_Reg_1_Read(); return_flag = 1; break;
 4148              		.loc 1 1107 0
 4149 0026 FFF7FEFF 		bl	Control_Reg_1_Read
 4150 002a 0346     		mov	r3, r0
 4151 002c FB60     		str	r3, [r7, #12]
 4152 002e 4FF00103 		mov	r3, #1
 4153 0032 FB72     		strb	r3, [r7, #11]
 4154 0034 05E0     		b	.L286
 4155              	.L288:
1108:.\mem1.c      ****                     case 0x01: Control_Reg_1_Write(val); break; 
 4156              		.loc 1 1108 0
 4157 0036 BB88     		ldrh	r3, [r7, #4]	@ movhi
 4158 0038 DBB2     		uxtb	r3, r3
 4159 003a 1846     		mov	r0, r3
 4160 003c FFF7FEFF 		bl	Control_Reg_1_Write
 4161 0040 00BF     		nop
 4162              	.L286:
1109:.\mem1.c      ****                 }
1110:.\mem1.c      ****                 
1111:.\mem1.c      ****                 if (return_flag)
 4163              		.loc 1 1111 0
 4164 0042 FB7A     		ldrb	r3, [r7, #11]	@ zero_extendqisi2
 4165 0044 002B     		cmp	r3, #0
 4166 0046 02D0     		beq	.L285
1112:.\mem1.c      ****                 {
1113:.\mem1.c      ****                     WriteTo_Pi(result);
 4167              		.loc 1 1113 0
 4168 0048 F868     		ldr	r0, [r7, #12]
 4169 004a FFF7FEFF 		bl	WriteTo_Pi
 4170              	.L285:
1114:.\mem1.c      ****                 } 
1115:.\mem1.c      ****             }
 4171              		.loc 1 1115 0
 4172 004e 07F11007 		add	r7, r7, #16
 4173 0052 BD46     		mov	sp, r7
 4174 0054 80BD     		pop	{r7, pc}
 4175              		.cfi_endproc
 4176              	.LFE76:
 4177              		.size	Output_Control0, .-Output_Control0
 4178 0056 00BF     		.section	.text.Output_Control1,"ax",%progbits
ARM GAS  C:\Users\Brian\AppData\Local\Temp\ccoW3fAZ.s 			page 94


 4179              		.align	2
 4180              		.global	Output_Control1
 4181              		.thumb
 4182              		.thumb_func
 4183              		.type	Output_Control1, %function
 4184              	Output_Control1:
 4185              	.LFB77:
1116:.\mem1.c      ****         #endif
1117:.\mem1.c      ****     #endif
1118:.\mem1.c      ****     
1119:.\mem1.c      **** /****************************************************************************************//**
1120:.\mem1.c      **** *  @brief Contains usage scenarios of the second control register for use by a Master device. 
1121:.\mem1.c      **** *
1122:.\mem1.c      **** *  @param cmd: 8-bit number describing a desired usage of a function associated 
1123:.\mem1.c      **** *              with the second control register
1124:.\mem1.c      **** *  @param val: 16-bit number containing a value that is to be written to that 
1125:.\mem1.c      **** *              function, or modify the component's operation, if applicable.
1126:.\mem1.c      **** *
1127:.\mem1.c      **** *********************************************************************************************/
1128:.\mem1.c      ****     
1129:.\mem1.c      ****     #ifdef CY_CONTROL_REG_Control_Reg_2_H
1130:.\mem1.c      ****         #if !defined(Control_Reg_2_Sync_ctrl_reg__REMOVED)
1131:.\mem1.c      ****             void Output_Control1(uint8 cmd, uint16 val)
1132:.\mem1.c      ****             {
 4186              		.loc 1 1132 0
 4187              		.cfi_startproc
 4188              		@ args = 0, pretend = 0, frame = 16
 4189              		@ frame_needed = 1, uses_anonymous_args = 0
 4190 0000 80B5     		push	{r7, lr}
 4191              	.LCFI63:
 4192              		.cfi_def_cfa_offset 8
 4193              		.cfi_offset 7, -8
 4194              		.cfi_offset 14, -4
 4195 0002 84B0     		sub	sp, sp, #16
 4196              	.LCFI64:
 4197              		.cfi_def_cfa_offset 24
 4198 0004 00AF     		add	r7, sp, #0
 4199              	.LCFI65:
 4200              		.cfi_def_cfa_register 7
 4201 0006 0246     		mov	r2, r0
 4202 0008 0B46     		mov	r3, r1
 4203 000a FA71     		strb	r2, [r7, #7]
 4204 000c BB80     		strh	r3, [r7, #4]	@ movhi
1133:.\mem1.c      ****                 uint32 result = MAX_32; 
 4205              		.loc 1 1133 0
 4206 000e 4FF0FF33 		mov	r3, #-1
 4207 0012 FB60     		str	r3, [r7, #12]
1134:.\mem1.c      ****                 bool return_flag = 0;
 4208              		.loc 1 1134 0
 4209 0014 4FF00003 		mov	r3, #0
 4210 0018 FB72     		strb	r3, [r7, #11]
1135:.\mem1.c      ****                 
1136:.\mem1.c      ****                 switch(cmd)
 4211              		.loc 1 1136 0
 4212 001a FB79     		ldrb	r3, [r7, #7]	@ zero_extendqisi2
 4213 001c 002B     		cmp	r3, #0
 4214 001e 02D0     		beq	.L292
ARM GAS  C:\Users\Brian\AppData\Local\Temp\ccoW3fAZ.s 			page 95


 4215 0020 012B     		cmp	r3, #1
 4216 0022 08D0     		beq	.L293
 4217 0024 0DE0     		b	.L291
 4218              	.L292:
1137:.\mem1.c      ****                 {
1138:.\mem1.c      ****                     case 0x00: result = Control_Reg_2_Read(); return_flag = 1; break;
 4219              		.loc 1 1138 0
 4220 0026 FFF7FEFF 		bl	Control_Reg_2_Read
 4221 002a 0346     		mov	r3, r0
 4222 002c FB60     		str	r3, [r7, #12]
 4223 002e 4FF00103 		mov	r3, #1
 4224 0032 FB72     		strb	r3, [r7, #11]
 4225 0034 05E0     		b	.L291
 4226              	.L293:
1139:.\mem1.c      ****                     case 0x01: Control_Reg_2_Write(val); break; 
 4227              		.loc 1 1139 0
 4228 0036 BB88     		ldrh	r3, [r7, #4]	@ movhi
 4229 0038 DBB2     		uxtb	r3, r3
 4230 003a 1846     		mov	r0, r3
 4231 003c FFF7FEFF 		bl	Control_Reg_2_Write
 4232 0040 00BF     		nop
 4233              	.L291:
1140:.\mem1.c      ****                 }
1141:.\mem1.c      ****                 
1142:.\mem1.c      ****                 if (return_flag)
 4234              		.loc 1 1142 0
 4235 0042 FB7A     		ldrb	r3, [r7, #11]	@ zero_extendqisi2
 4236 0044 002B     		cmp	r3, #0
 4237 0046 02D0     		beq	.L290
1143:.\mem1.c      ****                 {
1144:.\mem1.c      ****                     WriteTo_Pi(result);
 4238              		.loc 1 1144 0
 4239 0048 F868     		ldr	r0, [r7, #12]
 4240 004a FFF7FEFF 		bl	WriteTo_Pi
 4241              	.L290:
1145:.\mem1.c      ****                 } 
1146:.\mem1.c      ****             }
 4242              		.loc 1 1146 0
 4243 004e 07F11007 		add	r7, r7, #16
 4244 0052 BD46     		mov	sp, r7
 4245 0054 80BD     		pop	{r7, pc}
 4246              		.cfi_endproc
 4247              	.LFE77:
 4248              		.size	Output_Control1, .-Output_Control1
 4249 0056 00BF     		.section	.text.Output_Control2,"ax",%progbits
 4250              		.align	2
 4251              		.global	Output_Control2
 4252              		.thumb
 4253              		.thumb_func
 4254              		.type	Output_Control2, %function
 4255              	Output_Control2:
 4256              	.LFB78:
1147:.\mem1.c      ****         #endif
1148:.\mem1.c      ****     #endif
1149:.\mem1.c      ****     
1150:.\mem1.c      **** /****************************************************************************************//**
1151:.\mem1.c      **** *  @brief Contains usage scenarios of the third control register for use by a Master device. 
ARM GAS  C:\Users\Brian\AppData\Local\Temp\ccoW3fAZ.s 			page 96


1152:.\mem1.c      **** *
1153:.\mem1.c      **** *  @param cmd: 8-bit number describing a desired usage of a function associated 
1154:.\mem1.c      **** *              with the third control register
1155:.\mem1.c      **** *  @param val: 16-bit number containing a value that is to be written to that 
1156:.\mem1.c      **** *              function, or modify the component's operation, if applicable.
1157:.\mem1.c      **** *
1158:.\mem1.c      **** *********************************************************************************************/
1159:.\mem1.c      ****     
1160:.\mem1.c      ****     #ifdef CY_CONTROL_REG_Control_Reg_3_H
1161:.\mem1.c      ****         #if !defined(Control_Reg_3_Sync_ctrl_reg__REMOVED)
1162:.\mem1.c      ****             void Output_Control2(uint8 cmd, uint16 val)
1163:.\mem1.c      ****             {
 4257              		.loc 1 1163 0
 4258              		.cfi_startproc
 4259              		@ args = 0, pretend = 0, frame = 16
 4260              		@ frame_needed = 1, uses_anonymous_args = 0
 4261 0000 80B5     		push	{r7, lr}
 4262              	.LCFI66:
 4263              		.cfi_def_cfa_offset 8
 4264              		.cfi_offset 7, -8
 4265              		.cfi_offset 14, -4
 4266 0002 84B0     		sub	sp, sp, #16
 4267              	.LCFI67:
 4268              		.cfi_def_cfa_offset 24
 4269 0004 00AF     		add	r7, sp, #0
 4270              	.LCFI68:
 4271              		.cfi_def_cfa_register 7
 4272 0006 0246     		mov	r2, r0
 4273 0008 0B46     		mov	r3, r1
 4274 000a FA71     		strb	r2, [r7, #7]
 4275 000c BB80     		strh	r3, [r7, #4]	@ movhi
1164:.\mem1.c      ****                 uint32 result = MAX_32; 
 4276              		.loc 1 1164 0
 4277 000e 4FF0FF33 		mov	r3, #-1
 4278 0012 FB60     		str	r3, [r7, #12]
1165:.\mem1.c      ****                 bool return_flag = 0;
 4279              		.loc 1 1165 0
 4280 0014 4FF00003 		mov	r3, #0
 4281 0018 FB72     		strb	r3, [r7, #11]
1166:.\mem1.c      ****                 
1167:.\mem1.c      ****                 switch(cmd)
 4282              		.loc 1 1167 0
 4283 001a FB79     		ldrb	r3, [r7, #7]	@ zero_extendqisi2
 4284 001c 002B     		cmp	r3, #0
 4285 001e 02D0     		beq	.L297
 4286 0020 012B     		cmp	r3, #1
 4287 0022 08D0     		beq	.L298
 4288 0024 0DE0     		b	.L296
 4289              	.L297:
1168:.\mem1.c      ****                 {
1169:.\mem1.c      ****                     case 0x00: result = Control_Reg_3_Read(); return_flag = 1; break;
 4290              		.loc 1 1169 0
 4291 0026 FFF7FEFF 		bl	Control_Reg_3_Read
 4292 002a 0346     		mov	r3, r0
 4293 002c FB60     		str	r3, [r7, #12]
 4294 002e 4FF00103 		mov	r3, #1
 4295 0032 FB72     		strb	r3, [r7, #11]
ARM GAS  C:\Users\Brian\AppData\Local\Temp\ccoW3fAZ.s 			page 97


 4296 0034 05E0     		b	.L296
 4297              	.L298:
1170:.\mem1.c      ****                     case 0x01: Control_Reg_3_Write(val); break; 
 4298              		.loc 1 1170 0
 4299 0036 BB88     		ldrh	r3, [r7, #4]	@ movhi
 4300 0038 DBB2     		uxtb	r3, r3
 4301 003a 1846     		mov	r0, r3
 4302 003c FFF7FEFF 		bl	Control_Reg_3_Write
 4303 0040 00BF     		nop
 4304              	.L296:
1171:.\mem1.c      ****                 }
1172:.\mem1.c      ****                 
1173:.\mem1.c      ****                 if (return_flag)
 4305              		.loc 1 1173 0
 4306 0042 FB7A     		ldrb	r3, [r7, #11]	@ zero_extendqisi2
 4307 0044 002B     		cmp	r3, #0
 4308 0046 02D0     		beq	.L295
1174:.\mem1.c      ****                 {
1175:.\mem1.c      ****                     WriteTo_Pi(result);
 4309              		.loc 1 1175 0
 4310 0048 F868     		ldr	r0, [r7, #12]
 4311 004a FFF7FEFF 		bl	WriteTo_Pi
 4312              	.L295:
1176:.\mem1.c      ****                 } 
1177:.\mem1.c      ****             }
 4313              		.loc 1 1177 0
 4314 004e 07F11007 		add	r7, r7, #16
 4315 0052 BD46     		mov	sp, r7
 4316 0054 80BD     		pop	{r7, pc}
 4317              		.cfi_endproc
 4318              	.LFE78:
 4319              		.size	Output_Control2, .-Output_Control2
 4320 0056 00BF     		.section	.text.ReadFrom_Pi,"ax",%progbits
 4321              		.align	2
 4322              		.global	ReadFrom_Pi
 4323              		.thumb
 4324              		.thumb_func
 4325              		.type	ReadFrom_Pi, %function
 4326              	ReadFrom_Pi:
 4327              	.LFB79:
1178:.\mem1.c      ****         #endif
1179:.\mem1.c      ****     #endif
1180:.\mem1.c      ****     
1181:.\mem1.c      **** /****************************************************************************************//**
1182:.\mem1.c      **** *  @brief receives 4 bytes of data from a Master Device, merges them into a 32 bit number, and
1183:.\mem1.c      **** *         returns the result
1184:.\mem1.c      **** *
1185:.\mem1.c      **** *  @return: 32-bit number which contains all 4 bytes of transferred data, where the MSB is the 
1186:.\mem1.c      ****             first item received.
1187:.\mem1.c      **** *
1188:.\mem1.c      **** *********************************************************************************************/
1189:.\mem1.c      ****     
1190:.\mem1.c      ****     uint32 ReadFrom_Pi(void)
1191:.\mem1.c      ****     {   
 4328              		.loc 1 1191 0
 4329              		.cfi_startproc
 4330              		@ args = 0, pretend = 0, frame = 8
ARM GAS  C:\Users\Brian\AppData\Local\Temp\ccoW3fAZ.s 			page 98


 4331              		@ frame_needed = 1, uses_anonymous_args = 0
 4332 0000 80B5     		push	{r7, lr}
 4333              	.LCFI69:
 4334              		.cfi_def_cfa_offset 8
 4335              		.cfi_offset 7, -8
 4336              		.cfi_offset 14, -4
 4337 0002 82B0     		sub	sp, sp, #8
 4338              	.LCFI70:
 4339              		.cfi_def_cfa_offset 16
 4340 0004 00AF     		add	r7, sp, #0
 4341              	.LCFI71:
 4342              		.cfi_def_cfa_register 7
1192:.\mem1.c      ****         uint8 addr = 0;
 4343              		.loc 1 1192 0
 4344 0006 4FF00003 		mov	r3, #0
 4345 000a FB71     		strb	r3, [r7, #7]
1193:.\mem1.c      ****         uint8 cmd = 0;
 4346              		.loc 1 1193 0
 4347 000c 4FF00003 		mov	r3, #0
 4348 0010 BB71     		strb	r3, [r7, #6]
1194:.\mem1.c      ****         uint8 dat_lo = 0;
 4349              		.loc 1 1194 0
 4350 0012 4FF00003 		mov	r3, #0
 4351 0016 7B71     		strb	r3, [r7, #5]
1195:.\mem1.c      ****         uint8 dat_hi = 0;
 4352              		.loc 1 1195 0
 4353 0018 4FF00003 		mov	r3, #0
 4354 001c 3B71     		strb	r3, [r7, #4]
1196:.\mem1.c      ****         
1197:.\mem1.c      ****         while(!SPIS_1_GetRxBufferSize()){/* Wait until the Rx buffer isn't empty */}
 4355              		.loc 1 1197 0
 4356 001e 00BF     		nop
 4357              	.L301:
 4358              		.loc 1 1197 0 is_stmt 0 discriminator 1
 4359 0020 FFF7FEFF 		bl	SPIS_1_GetRxBufferSize
 4360 0024 0346     		mov	r3, r0
 4361 0026 002B     		cmp	r3, #0
 4362 0028 FAD0     		beq	.L301
1198:.\mem1.c      ****             addr = SPIS_1_ReadRxData();
 4363              		.loc 1 1198 0 is_stmt 1
 4364 002a FFF7FEFF 		bl	SPIS_1_ReadRxData
 4365 002e 0346     		mov	r3, r0
 4366 0030 FB71     		strb	r3, [r7, #7]
1199:.\mem1.c      **** 	    while(!SPIS_1_GetRxBufferSize()){/* Wait until the Rx buffer isn't empty */}
 4367              		.loc 1 1199 0
 4368 0032 00BF     		nop
 4369              	.L302:
 4370              		.loc 1 1199 0 is_stmt 0 discriminator 1
 4371 0034 FFF7FEFF 		bl	SPIS_1_GetRxBufferSize
 4372 0038 0346     		mov	r3, r0
 4373 003a 002B     		cmp	r3, #0
 4374 003c FAD0     		beq	.L302
1200:.\mem1.c      **** 	        cmd = SPIS_1_ReadRxData();
 4375              		.loc 1 1200 0 is_stmt 1
 4376 003e FFF7FEFF 		bl	SPIS_1_ReadRxData
 4377 0042 0346     		mov	r3, r0
 4378 0044 BB71     		strb	r3, [r7, #6]
ARM GAS  C:\Users\Brian\AppData\Local\Temp\ccoW3fAZ.s 			page 99


1201:.\mem1.c      **** 	    while(!SPIS_1_GetRxBufferSize()){/* Wait until the Rx buffer isn't empty */}
 4379              		.loc 1 1201 0
 4380 0046 00BF     		nop
 4381              	.L303:
 4382              		.loc 1 1201 0 is_stmt 0 discriminator 1
 4383 0048 FFF7FEFF 		bl	SPIS_1_GetRxBufferSize
 4384 004c 0346     		mov	r3, r0
 4385 004e 002B     		cmp	r3, #0
 4386 0050 FAD0     		beq	.L303
1202:.\mem1.c      **** 	        dat_lo = SPIS_1_ReadRxData();
 4387              		.loc 1 1202 0 is_stmt 1
 4388 0052 FFF7FEFF 		bl	SPIS_1_ReadRxData
 4389 0056 0346     		mov	r3, r0
 4390 0058 7B71     		strb	r3, [r7, #5]
1203:.\mem1.c      ****         while(!SPIS_1_GetRxBufferSize()){/* Wait until the Rx buffer isn't empty */}
 4391              		.loc 1 1203 0
 4392 005a 00BF     		nop
 4393              	.L304:
 4394              		.loc 1 1203 0 is_stmt 0 discriminator 1
 4395 005c FFF7FEFF 		bl	SPIS_1_GetRxBufferSize
 4396 0060 0346     		mov	r3, r0
 4397 0062 002B     		cmp	r3, #0
 4398 0064 FAD0     		beq	.L304
1204:.\mem1.c      **** 	        dat_hi = SPIS_1_ReadRxData();
 4399              		.loc 1 1204 0 is_stmt 1
 4400 0066 FFF7FEFF 		bl	SPIS_1_ReadRxData
 4401 006a 0346     		mov	r3, r0
 4402 006c 3B71     		strb	r3, [r7, #4]
1205:.\mem1.c      ****         
1206:.\mem1.c      ****         uint32 input = (((addr<<24)|(cmd<<16))|(dat_lo<<8))|(dat_hi);
 4403              		.loc 1 1206 0
 4404 006e FB79     		ldrb	r3, [r7, #7]	@ zero_extendqisi2
 4405 0070 4FEA0362 		lsl	r2, r3, #24
 4406 0074 BB79     		ldrb	r3, [r7, #6]	@ zero_extendqisi2
 4407 0076 4FEA0343 		lsl	r3, r3, #16
 4408 007a 1A43     		orrs	r2, r2, r3
 4409 007c 7B79     		ldrb	r3, [r7, #5]	@ zero_extendqisi2
 4410 007e 4FEA0323 		lsl	r3, r3, #8
 4411 0082 1A43     		orrs	r2, r2, r3
 4412 0084 3B79     		ldrb	r3, [r7, #4]	@ zero_extendqisi2
 4413 0086 1343     		orrs	r3, r3, r2
 4414 0088 3B60     		str	r3, [r7, #0]
1207:.\mem1.c      ****         return input;
 4415              		.loc 1 1207 0
 4416 008a 3B68     		ldr	r3, [r7, #0]
1208:.\mem1.c      ****     }
 4417              		.loc 1 1208 0
 4418 008c 1846     		mov	r0, r3
 4419 008e 07F10807 		add	r7, r7, #8
 4420 0092 BD46     		mov	sp, r7
 4421 0094 80BD     		pop	{r7, pc}
 4422              		.cfi_endproc
 4423              	.LFE79:
 4424              		.size	ReadFrom_Pi, .-ReadFrom_Pi
 4425 0096 00BF     		.section	.text.WriteTo_Pi,"ax",%progbits
 4426              		.align	2
 4427              		.global	WriteTo_Pi
ARM GAS  C:\Users\Brian\AppData\Local\Temp\ccoW3fAZ.s 			page 100


 4428              		.thumb
 4429              		.thumb_func
 4430              		.type	WriteTo_Pi, %function
 4431              	WriteTo_Pi:
 4432              	.LFB80:
1209:.\mem1.c      ****     
1210:.\mem1.c      **** /****************************************************************************************//**
1211:.\mem1.c      **** *  @brief Writes data back to the Master device when appropriate. 
1212:.\mem1.c      **** *
1213:.\mem1.c      **** *  @param dat: 32-bit number which is to be sent to the Master device. It is split into 4
1214:.\mem1.c      **** *              individual bytes, and transferred one at a time starting with the lowest byte
1215:.\mem1.c      **** *
1216:.\mem1.c      **** *********************************************************************************************/
1217:.\mem1.c      ****     
1218:.\mem1.c      ****     void WriteTo_Pi(uint32 dat)
1219:.\mem1.c      ****     {
 4433              		.loc 1 1219 0
 4434              		.cfi_startproc
 4435              		@ args = 0, pretend = 0, frame = 16
 4436              		@ frame_needed = 1, uses_anonymous_args = 0
 4437 0000 80B5     		push	{r7, lr}
 4438              	.LCFI72:
 4439              		.cfi_def_cfa_offset 8
 4440              		.cfi_offset 7, -8
 4441              		.cfi_offset 14, -4
 4442 0002 84B0     		sub	sp, sp, #16
 4443              	.LCFI73:
 4444              		.cfi_def_cfa_offset 24
 4445 0004 00AF     		add	r7, sp, #0
 4446              	.LCFI74:
 4447              		.cfi_def_cfa_register 7
 4448 0006 7860     		str	r0, [r7, #4]
1220:.\mem1.c      ****         
1221:.\mem1.c      ****         #ifdef CY_SPIS_SPIS_1_H
1222:.\mem1.c      ****             uint8 out_hi = (dat & 0xFF000000)>>24;
 4449              		.loc 1 1222 0
 4450 0008 7B68     		ldr	r3, [r7, #4]
 4451 000a 4FEA1363 		lsr	r3, r3, #24
 4452 000e FB73     		strb	r3, [r7, #15]
1223:.\mem1.c      ****             uint8 out_mid_hi = (dat & 0x00FF0000)>>16;
 4453              		.loc 1 1223 0
 4454 0010 7B68     		ldr	r3, [r7, #4]
 4455 0012 03F47F03 		and	r3, r3, #16711680
 4456 0016 4FEA1343 		lsr	r3, r3, #16
 4457 001a BB73     		strb	r3, [r7, #14]
1224:.\mem1.c      ****             uint8 out_mid_lo = (dat & 0x0000FF00)>>8;
 4458              		.loc 1 1224 0
 4459 001c 7B68     		ldr	r3, [r7, #4]
 4460 001e 03F47F43 		and	r3, r3, #65280
 4461 0022 4FEA1323 		lsr	r3, r3, #8
 4462 0026 7B73     		strb	r3, [r7, #13]
1225:.\mem1.c      ****             uint8 out_lo = dat & 0x000000FF;
 4463              		.loc 1 1225 0
 4464 0028 7B68     		ldr	r3, [r7, #4]
 4465 002a 3B73     		strb	r3, [r7, #12]
1226:.\mem1.c      ****             
1227:.\mem1.c      **** 
ARM GAS  C:\Users\Brian\AppData\Local\Temp\ccoW3fAZ.s 			page 101


1228:.\mem1.c      ****             SPIS_1_ClearTxBuffer();
 4466              		.loc 1 1228 0
 4467 002c FFF7FEFF 		bl	SPIS_1_ClearTxBuffer
1229:.\mem1.c      ****             SPIS_1_ClearFIFO();    //Clear the SPI buffers
 4468              		.loc 1 1229 0
 4469 0030 FFF7FEFF 		bl	SPIS_1_ClearFIFO
1230:.\mem1.c      ****             SPIS_1_ClearRxBuffer();
 4470              		.loc 1 1230 0
 4471 0034 FFF7FEFF 		bl	SPIS_1_ClearRxBuffer
1231:.\mem1.c      ****             
1232:.\mem1.c      ****             uint8 SPI_buffer[3] = {out_mid_lo, out_mid_hi, out_hi};
 4472              		.loc 1 1232 0
 4473 0038 7B7B     		ldrb	r3, [r7, #13]
 4474 003a 3B72     		strb	r3, [r7, #8]
 4475 003c BB7B     		ldrb	r3, [r7, #14]
 4476 003e 7B72     		strb	r3, [r7, #9]
 4477 0040 FB7B     		ldrb	r3, [r7, #15]
 4478 0042 BB72     		strb	r3, [r7, #10]
1233:.\mem1.c      ****             SPIS_1_WriteTxDataZero(out_lo);
 4479              		.loc 1 1233 0
 4480 0044 3B7B     		ldrb	r3, [r7, #12]	@ zero_extendqisi2
 4481 0046 1846     		mov	r0, r3
 4482 0048 FFF7FEFF 		bl	SPIS_1_WriteTxDataZero
1234:.\mem1.c      ****             SPIS_1_PutArray(SPI_buffer, 3);
 4483              		.loc 1 1234 0
 4484 004c 07F10803 		add	r3, r7, #8
 4485 0050 1846     		mov	r0, r3
 4486 0052 4FF00301 		mov	r1, #3
 4487 0056 FFF7FEFF 		bl	SPIS_1_PutArray
1235:.\mem1.c      ****            
1236:.\mem1.c      ****             while(!(SPIS_1_ReadTxStatus() & SPIS_1_STS_SPI_DONE)); //Wait until Tx buffer empties
 4488              		.loc 1 1236 0
 4489 005a 00BF     		nop
 4490              	.L307:
 4491              		.loc 1 1236 0 is_stmt 0 discriminator 1
 4492 005c FFF7FEFF 		bl	SPIS_1_ReadTxStatus
 4493 0060 0346     		mov	r3, r0
 4494 0062 03F00103 		and	r3, r3, #1
 4495 0066 002B     		cmp	r3, #0
 4496 0068 F8D0     		beq	.L307
1237:.\mem1.c      ****             
1238:.\mem1.c      ****         #endif
1239:.\mem1.c      ****     }
 4497              		.loc 1 1239 0 is_stmt 1
 4498 006a 07F11007 		add	r7, r7, #16
 4499 006e BD46     		mov	sp, r7
 4500 0070 80BD     		pop	{r7, pc}
 4501              		.cfi_endproc
 4502              	.LFE80:
 4503              		.size	WriteTo_Pi, .-WriteTo_Pi
 4504 0072 00BF     		.text
 4505              	.Letext0:
 4506              		.file 2 "c:\\program files (x86)\\cypress\\psoc creator\\3.0\\psoc creator\\import\\gnu_cs\\arm\\4
 4507              		.file 3 "./Generated_Source/PSoC5/cytypes.h"
 4508              		.file 4 "./Generated_Source/PSoC5/core_cm3.h"
 4509              		.section	.debug_info,"",%progbits
 4510              	.Ldebug_info0:
ARM GAS  C:\Users\Brian\AppData\Local\Temp\ccoW3fAZ.s 			page 102


 4511 0000 5F0B0000 		.4byte	0xb5f
 4512 0004 0200     		.2byte	0x2
 4513 0006 00000000 		.4byte	.Ldebug_abbrev0
 4514 000a 04       		.byte	0x4
 4515 000b 01       		.uleb128 0x1
 4516 000c AD020000 		.4byte	.LASF63
 4517 0010 01       		.byte	0x1
 4518 0011 E9000000 		.4byte	.LASF64
 4519 0015 F6020000 		.4byte	.LASF65
 4520 0019 00000000 		.4byte	.Ldebug_ranges0+0
 4521 001d 00000000 		.4byte	0
 4522 0021 00000000 		.4byte	0
 4523 0025 00000000 		.4byte	.Ldebug_line0
 4524 0029 02       		.uleb128 0x2
 4525 002a 01       		.byte	0x1
 4526 002b 06       		.byte	0x6
 4527 002c D3010000 		.4byte	.LASF0
 4528 0030 02       		.uleb128 0x2
 4529 0031 01       		.byte	0x1
 4530 0032 08       		.byte	0x8
 4531 0033 C5010000 		.4byte	.LASF1
 4532 0037 02       		.uleb128 0x2
 4533 0038 02       		.byte	0x2
 4534 0039 05       		.byte	0x5
 4535 003a 26000000 		.4byte	.LASF2
 4536 003e 02       		.uleb128 0x2
 4537 003f 02       		.byte	0x2
 4538 0040 07       		.byte	0x7
 4539 0041 38020000 		.4byte	.LASF3
 4540 0045 03       		.uleb128 0x3
 4541 0046 50020000 		.4byte	.LASF9
 4542 004a 02       		.byte	0x2
 4543 004b 4F       		.byte	0x4f
 4544 004c 50000000 		.4byte	0x50
 4545 0050 02       		.uleb128 0x2
 4546 0051 04       		.byte	0x4
 4547 0052 05       		.byte	0x5
 4548 0053 23010000 		.4byte	.LASF4
 4549 0057 02       		.uleb128 0x2
 4550 0058 04       		.byte	0x4
 4551 0059 07       		.byte	0x7
 4552 005a 94020000 		.4byte	.LASF5
 4553 005e 02       		.uleb128 0x2
 4554 005f 08       		.byte	0x8
 4555 0060 05       		.byte	0x5
 4556 0061 01010000 		.4byte	.LASF6
 4557 0065 02       		.uleb128 0x2
 4558 0066 08       		.byte	0x8
 4559 0067 07       		.byte	0x7
 4560 0068 DF010000 		.4byte	.LASF7
 4561 006c 04       		.uleb128 0x4
 4562 006d 04       		.byte	0x4
 4563 006e 05       		.byte	0x5
 4564 006f 696E7400 		.ascii	"int\000"
 4565 0073 02       		.uleb128 0x2
 4566 0074 04       		.byte	0x4
 4567 0075 07       		.byte	0x7
ARM GAS  C:\Users\Brian\AppData\Local\Temp\ccoW3fAZ.s 			page 103


 4568 0076 04020000 		.4byte	.LASF8
 4569 007a 03       		.uleb128 0x3
 4570 007b B4010000 		.4byte	.LASF10
 4571 007f 03       		.byte	0x3
 4572 0080 5B       		.byte	0x5b
 4573 0081 30000000 		.4byte	0x30
 4574 0085 03       		.uleb128 0x3
 4575 0086 86000000 		.4byte	.LASF11
 4576 008a 03       		.byte	0x3
 4577 008b 5C       		.byte	0x5c
 4578 008c 3E000000 		.4byte	0x3e
 4579 0090 03       		.uleb128 0x3
 4580 0091 8D020000 		.4byte	.LASF12
 4581 0095 03       		.byte	0x3
 4582 0096 5D       		.byte	0x5d
 4583 0097 57000000 		.4byte	0x57
 4584 009b 02       		.uleb128 0x2
 4585 009c 04       		.byte	0x4
 4586 009d 04       		.byte	0x4
 4587 009e F2000000 		.4byte	.LASF13
 4588 00a2 02       		.uleb128 0x2
 4589 00a3 08       		.byte	0x8
 4590 00a4 04       		.byte	0x4
 4591 00a5 A6020000 		.4byte	.LASF14
 4592 00a9 02       		.uleb128 0x2
 4593 00aa 01       		.byte	0x1
 4594 00ab 08       		.byte	0x8
 4595 00ac 4B020000 		.4byte	.LASF15
 4596 00b0 02       		.uleb128 0x2
 4597 00b1 04       		.byte	0x4
 4598 00b2 07       		.byte	0x7
 4599 00b3 41000000 		.4byte	.LASF16
 4600 00b7 05       		.uleb128 0x5
 4601 00b8 01       		.byte	0x1
 4602 00b9 F8000000 		.4byte	.LASF18
 4603 00bd 01       		.byte	0x1
 4604 00be 23       		.byte	0x23
 4605 00bf 01       		.byte	0x1
 4606 00c0 00000000 		.4byte	.LFB56
 4607 00c4 9E010000 		.4byte	.LFE56
 4608 00c8 00000000 		.4byte	.LLST0
 4609 00cc 01       		.byte	0x1
 4610 00cd FC000000 		.4byte	0xfc
 4611 00d1 06       		.uleb128 0x6
 4612 00d2 2C010000 		.4byte	.LASF17
 4613 00d6 01       		.byte	0x1
 4614 00d7 23       		.byte	0x23
 4615 00d8 7A000000 		.4byte	0x7a
 4616 00dc 02       		.byte	0x2
 4617 00dd 91       		.byte	0x91
 4618 00de 77       		.sleb128 -9
 4619 00df 07       		.uleb128 0x7
 4620 00e0 636D6400 		.ascii	"cmd\000"
 4621 00e4 01       		.byte	0x1
 4622 00e5 23       		.byte	0x23
 4623 00e6 7A000000 		.4byte	0x7a
 4624 00ea 02       		.byte	0x2
ARM GAS  C:\Users\Brian\AppData\Local\Temp\ccoW3fAZ.s 			page 104


 4625 00eb 91       		.byte	0x91
 4626 00ec 76       		.sleb128 -10
 4627 00ed 07       		.uleb128 0x7
 4628 00ee 64617400 		.ascii	"dat\000"
 4629 00f2 01       		.byte	0x1
 4630 00f3 23       		.byte	0x23
 4631 00f4 85000000 		.4byte	0x85
 4632 00f8 02       		.byte	0x2
 4633 00f9 91       		.byte	0x91
 4634 00fa 74       		.sleb128 -12
 4635 00fb 00       		.byte	0
 4636 00fc 05       		.uleb128 0x5
 4637 00fd 01       		.byte	0x1
 4638 00fe 67020000 		.4byte	.LASF19
 4639 0102 01       		.byte	0x1
 4640 0103 AF       		.byte	0xaf
 4641 0104 01       		.byte	0x1
 4642 0105 00000000 		.4byte	.LFB57
 4643 0109 54010000 		.4byte	.LFE57
 4644 010d 38000000 		.4byte	.LLST1
 4645 0111 01       		.byte	0x1
 4646 0112 4F010000 		.4byte	0x14f
 4647 0116 07       		.uleb128 0x7
 4648 0117 636D6400 		.ascii	"cmd\000"
 4649 011b 01       		.byte	0x1
 4650 011c AF       		.byte	0xaf
 4651 011d 7A000000 		.4byte	0x7a
 4652 0121 02       		.byte	0x2
 4653 0122 91       		.byte	0x91
 4654 0123 6F       		.sleb128 -17
 4655 0124 07       		.uleb128 0x7
 4656 0125 76616C00 		.ascii	"val\000"
 4657 0129 01       		.byte	0x1
 4658 012a AF       		.byte	0xaf
 4659 012b 85000000 		.4byte	0x85
 4660 012f 02       		.byte	0x2
 4661 0130 91       		.byte	0x91
 4662 0131 6C       		.sleb128 -20
 4663 0132 08       		.uleb128 0x8
 4664 0133 10000000 		.4byte	.LASF20
 4665 0137 01       		.byte	0x1
 4666 0138 B1       		.byte	0xb1
 4667 0139 90000000 		.4byte	0x90
 4668 013d 02       		.byte	0x2
 4669 013e 91       		.byte	0x91
 4670 013f 74       		.sleb128 -12
 4671 0140 08       		.uleb128 0x8
 4672 0141 7A020000 		.4byte	.LASF21
 4673 0145 01       		.byte	0x1
 4674 0146 B2       		.byte	0xb2
 4675 0147 4F010000 		.4byte	0x14f
 4676 014b 02       		.byte	0x2
 4677 014c 91       		.byte	0x91
 4678 014d 73       		.sleb128 -13
 4679 014e 00       		.byte	0
 4680 014f 02       		.uleb128 0x2
 4681 0150 01       		.byte	0x1
ARM GAS  C:\Users\Brian\AppData\Local\Temp\ccoW3fAZ.s 			page 105


 4682 0151 02       		.byte	0x2
 4683 0152 58020000 		.4byte	.LASF22
 4684 0156 05       		.uleb128 0x5
 4685 0157 01       		.byte	0x1
 4686 0158 A3010000 		.4byte	.LASF23
 4687 015c 01       		.byte	0x1
 4688 015d DE       		.byte	0xde
 4689 015e 01       		.byte	0x1
 4690 015f 00000000 		.4byte	.LFB58
 4691 0163 2A010000 		.4byte	.LFE58
 4692 0167 70000000 		.4byte	.LLST2
 4693 016b 01       		.byte	0x1
 4694 016c A9010000 		.4byte	0x1a9
 4695 0170 07       		.uleb128 0x7
 4696 0171 636D6400 		.ascii	"cmd\000"
 4697 0175 01       		.byte	0x1
 4698 0176 DE       		.byte	0xde
 4699 0177 7A000000 		.4byte	0x7a
 4700 017b 02       		.byte	0x2
 4701 017c 91       		.byte	0x91
 4702 017d 6F       		.sleb128 -17
 4703 017e 07       		.uleb128 0x7
 4704 017f 76616C00 		.ascii	"val\000"
 4705 0183 01       		.byte	0x1
 4706 0184 DE       		.byte	0xde
 4707 0185 85000000 		.4byte	0x85
 4708 0189 02       		.byte	0x2
 4709 018a 91       		.byte	0x91
 4710 018b 6C       		.sleb128 -20
 4711 018c 08       		.uleb128 0x8
 4712 018d 10000000 		.4byte	.LASF20
 4713 0191 01       		.byte	0x1
 4714 0192 E0       		.byte	0xe0
 4715 0193 90000000 		.4byte	0x90
 4716 0197 02       		.byte	0x2
 4717 0198 91       		.byte	0x91
 4718 0199 74       		.sleb128 -12
 4719 019a 08       		.uleb128 0x8
 4720 019b 7A020000 		.4byte	.LASF21
 4721 019f 01       		.byte	0x1
 4722 01a0 E1       		.byte	0xe1
 4723 01a1 4F010000 		.4byte	0x14f
 4724 01a5 02       		.byte	0x2
 4725 01a6 91       		.byte	0x91
 4726 01a7 73       		.sleb128 -13
 4727 01a8 00       		.byte	0
 4728 01a9 09       		.uleb128 0x9
 4729 01aa 01       		.byte	0x1
 4730 01ab 9C000000 		.4byte	.LASF24
 4731 01af 01       		.byte	0x1
 4732 01b0 0601     		.2byte	0x106
 4733 01b2 01       		.byte	0x1
 4734 01b3 00000000 		.4byte	.LFB59
 4735 01b7 2A010000 		.4byte	.LFE59
 4736 01bb A8000000 		.4byte	.LLST3
 4737 01bf 01       		.byte	0x1
 4738 01c0 01020000 		.4byte	0x201
ARM GAS  C:\Users\Brian\AppData\Local\Temp\ccoW3fAZ.s 			page 106


 4739 01c4 0A       		.uleb128 0xa
 4740 01c5 636D6400 		.ascii	"cmd\000"
 4741 01c9 01       		.byte	0x1
 4742 01ca 0601     		.2byte	0x106
 4743 01cc 7A000000 		.4byte	0x7a
 4744 01d0 02       		.byte	0x2
 4745 01d1 91       		.byte	0x91
 4746 01d2 6F       		.sleb128 -17
 4747 01d3 0A       		.uleb128 0xa
 4748 01d4 76616C00 		.ascii	"val\000"
 4749 01d8 01       		.byte	0x1
 4750 01d9 0601     		.2byte	0x106
 4751 01db 85000000 		.4byte	0x85
 4752 01df 02       		.byte	0x2
 4753 01e0 91       		.byte	0x91
 4754 01e1 6C       		.sleb128 -20
 4755 01e2 0B       		.uleb128 0xb
 4756 01e3 10000000 		.4byte	.LASF20
 4757 01e7 01       		.byte	0x1
 4758 01e8 0801     		.2byte	0x108
 4759 01ea 90000000 		.4byte	0x90
 4760 01ee 02       		.byte	0x2
 4761 01ef 91       		.byte	0x91
 4762 01f0 74       		.sleb128 -12
 4763 01f1 0B       		.uleb128 0xb
 4764 01f2 7A020000 		.4byte	.LASF21
 4765 01f6 01       		.byte	0x1
 4766 01f7 0901     		.2byte	0x109
 4767 01f9 4F010000 		.4byte	0x14f
 4768 01fd 02       		.byte	0x2
 4769 01fe 91       		.byte	0x91
 4770 01ff 73       		.sleb128 -13
 4771 0200 00       		.byte	0
 4772 0201 09       		.uleb128 0x9
 4773 0202 01       		.byte	0x1
 4774 0203 F6010000 		.4byte	.LASF25
 4775 0207 01       		.byte	0x1
 4776 0208 2F01     		.2byte	0x12f
 4777 020a 01       		.byte	0x1
 4778 020b 00000000 		.4byte	.LFB60
 4779 020f BC000000 		.4byte	.LFE60
 4780 0213 E0000000 		.4byte	.LLST4
 4781 0217 01       		.byte	0x1
 4782 0218 59020000 		.4byte	0x259
 4783 021c 0A       		.uleb128 0xa
 4784 021d 636D6400 		.ascii	"cmd\000"
 4785 0221 01       		.byte	0x1
 4786 0222 2F01     		.2byte	0x12f
 4787 0224 7A000000 		.4byte	0x7a
 4788 0228 02       		.byte	0x2
 4789 0229 91       		.byte	0x91
 4790 022a 6F       		.sleb128 -17
 4791 022b 0A       		.uleb128 0xa
 4792 022c 76616C00 		.ascii	"val\000"
 4793 0230 01       		.byte	0x1
 4794 0231 2F01     		.2byte	0x12f
 4795 0233 85000000 		.4byte	0x85
ARM GAS  C:\Users\Brian\AppData\Local\Temp\ccoW3fAZ.s 			page 107


 4796 0237 02       		.byte	0x2
 4797 0238 91       		.byte	0x91
 4798 0239 6C       		.sleb128 -20
 4799 023a 0B       		.uleb128 0xb
 4800 023b 10000000 		.4byte	.LASF20
 4801 023f 01       		.byte	0x1
 4802 0240 3101     		.2byte	0x131
 4803 0242 90000000 		.4byte	0x90
 4804 0246 02       		.byte	0x2
 4805 0247 91       		.byte	0x91
 4806 0248 74       		.sleb128 -12
 4807 0249 0B       		.uleb128 0xb
 4808 024a 7A020000 		.4byte	.LASF21
 4809 024e 01       		.byte	0x1
 4810 024f 3201     		.2byte	0x132
 4811 0251 4F010000 		.4byte	0x14f
 4812 0255 02       		.byte	0x2
 4813 0256 91       		.byte	0x91
 4814 0257 73       		.sleb128 -13
 4815 0258 00       		.byte	0
 4816 0259 09       		.uleb128 0x9
 4817 025a 01       		.byte	0x1
 4818 025b 1F020000 		.4byte	.LASF26
 4819 025f 01       		.byte	0x1
 4820 0260 5301     		.2byte	0x153
 4821 0262 01       		.byte	0x1
 4822 0263 00000000 		.4byte	.LFB61
 4823 0267 BC000000 		.4byte	.LFE61
 4824 026b 18010000 		.4byte	.LLST5
 4825 026f 01       		.byte	0x1
 4826 0270 B1020000 		.4byte	0x2b1
 4827 0274 0A       		.uleb128 0xa
 4828 0275 636D6400 		.ascii	"cmd\000"
 4829 0279 01       		.byte	0x1
 4830 027a 5301     		.2byte	0x153
 4831 027c 7A000000 		.4byte	0x7a
 4832 0280 02       		.byte	0x2
 4833 0281 91       		.byte	0x91
 4834 0282 6F       		.sleb128 -17
 4835 0283 0A       		.uleb128 0xa
 4836 0284 76616C00 		.ascii	"val\000"
 4837 0288 01       		.byte	0x1
 4838 0289 5301     		.2byte	0x153
 4839 028b 85000000 		.4byte	0x85
 4840 028f 02       		.byte	0x2
 4841 0290 91       		.byte	0x91
 4842 0291 6C       		.sleb128 -20
 4843 0292 0B       		.uleb128 0xb
 4844 0293 10000000 		.4byte	.LASF20
 4845 0297 01       		.byte	0x1
 4846 0298 5501     		.2byte	0x155
 4847 029a 90000000 		.4byte	0x90
 4848 029e 02       		.byte	0x2
 4849 029f 91       		.byte	0x91
 4850 02a0 74       		.sleb128 -12
 4851 02a1 0B       		.uleb128 0xb
 4852 02a2 7A020000 		.4byte	.LASF21
ARM GAS  C:\Users\Brian\AppData\Local\Temp\ccoW3fAZ.s 			page 108


 4853 02a6 01       		.byte	0x1
 4854 02a7 5601     		.2byte	0x156
 4855 02a9 4F010000 		.4byte	0x14f
 4856 02ad 02       		.byte	0x2
 4857 02ae 91       		.byte	0x91
 4858 02af 73       		.sleb128 -13
 4859 02b0 00       		.byte	0
 4860 02b1 09       		.uleb128 0x9
 4861 02b2 01       		.byte	0x1
 4862 02b3 11020000 		.4byte	.LASF27
 4863 02b7 01       		.byte	0x1
 4864 02b8 7801     		.2byte	0x178
 4865 02ba 01       		.byte	0x1
 4866 02bb 00000000 		.4byte	.LFB62
 4867 02bf F0000000 		.4byte	.LFE62
 4868 02c3 50010000 		.4byte	.LLST6
 4869 02c7 01       		.byte	0x1
 4870 02c8 09030000 		.4byte	0x309
 4871 02cc 0A       		.uleb128 0xa
 4872 02cd 636D6400 		.ascii	"cmd\000"
 4873 02d1 01       		.byte	0x1
 4874 02d2 7801     		.2byte	0x178
 4875 02d4 7A000000 		.4byte	0x7a
 4876 02d8 02       		.byte	0x2
 4877 02d9 91       		.byte	0x91
 4878 02da 6F       		.sleb128 -17
 4879 02db 0A       		.uleb128 0xa
 4880 02dc 76616C00 		.ascii	"val\000"
 4881 02e0 01       		.byte	0x1
 4882 02e1 7801     		.2byte	0x178
 4883 02e3 85000000 		.4byte	0x85
 4884 02e7 02       		.byte	0x2
 4885 02e8 91       		.byte	0x91
 4886 02e9 6C       		.sleb128 -20
 4887 02ea 0B       		.uleb128 0xb
 4888 02eb 10000000 		.4byte	.LASF20
 4889 02ef 01       		.byte	0x1
 4890 02f0 7A01     		.2byte	0x17a
 4891 02f2 90000000 		.4byte	0x90
 4892 02f6 02       		.byte	0x2
 4893 02f7 91       		.byte	0x91
 4894 02f8 74       		.sleb128 -12
 4895 02f9 0B       		.uleb128 0xb
 4896 02fa 7A020000 		.4byte	.LASF21
 4897 02fe 01       		.byte	0x1
 4898 02ff 7B01     		.2byte	0x17b
 4899 0301 4F010000 		.4byte	0x14f
 4900 0305 02       		.byte	0x2
 4901 0306 91       		.byte	0x91
 4902 0307 73       		.sleb128 -13
 4903 0308 00       		.byte	0
 4904 0309 09       		.uleb128 0x9
 4905 030a 01       		.byte	0x1
 4906 030b 00000000 		.4byte	.LASF28
 4907 030f 01       		.byte	0x1
 4908 0310 CA01     		.2byte	0x1ca
 4909 0312 01       		.byte	0x1
ARM GAS  C:\Users\Brian\AppData\Local\Temp\ccoW3fAZ.s 			page 109


 4910 0313 00000000 		.4byte	.LFB63
 4911 0317 D6000000 		.4byte	.LFE63
 4912 031b 88010000 		.4byte	.LLST7
 4913 031f 01       		.byte	0x1
 4914 0320 61030000 		.4byte	0x361
 4915 0324 0A       		.uleb128 0xa
 4916 0325 636D6400 		.ascii	"cmd\000"
 4917 0329 01       		.byte	0x1
 4918 032a CA01     		.2byte	0x1ca
 4919 032c 7A000000 		.4byte	0x7a
 4920 0330 02       		.byte	0x2
 4921 0331 91       		.byte	0x91
 4922 0332 6F       		.sleb128 -17
 4923 0333 0A       		.uleb128 0xa
 4924 0334 76616C00 		.ascii	"val\000"
 4925 0338 01       		.byte	0x1
 4926 0339 CA01     		.2byte	0x1ca
 4927 033b 85000000 		.4byte	0x85
 4928 033f 02       		.byte	0x2
 4929 0340 91       		.byte	0x91
 4930 0341 6C       		.sleb128 -20
 4931 0342 0B       		.uleb128 0xb
 4932 0343 10000000 		.4byte	.LASF20
 4933 0347 01       		.byte	0x1
 4934 0348 CC01     		.2byte	0x1cc
 4935 034a 90000000 		.4byte	0x90
 4936 034e 02       		.byte	0x2
 4937 034f 91       		.byte	0x91
 4938 0350 74       		.sleb128 -12
 4939 0351 0B       		.uleb128 0xb
 4940 0352 7A020000 		.4byte	.LASF21
 4941 0356 01       		.byte	0x1
 4942 0357 CD01     		.2byte	0x1cd
 4943 0359 4F010000 		.4byte	0x14f
 4944 035d 02       		.byte	0x2
 4945 035e 91       		.byte	0x91
 4946 035f 73       		.sleb128 -13
 4947 0360 00       		.byte	0
 4948 0361 09       		.uleb128 0x9
 4949 0362 01       		.byte	0x1
 4950 0363 69000000 		.4byte	.LASF29
 4951 0367 01       		.byte	0x1
 4952 0368 F001     		.2byte	0x1f0
 4953 036a 01       		.byte	0x1
 4954 036b 00000000 		.4byte	.LFB64
 4955 036f D0040000 		.4byte	.LFE64
 4956 0373 C0010000 		.4byte	.LLST8
 4957 0377 01       		.byte	0x1
 4958 0378 AB050000 		.4byte	0x5ab
 4959 037c 0B       		.uleb128 0xb
 4960 037d 30000000 		.4byte	.LASF30
 4961 0381 01       		.byte	0x1
 4962 0382 F301     		.2byte	0x1f3
 4963 0384 90000000 		.4byte	0x90
 4964 0388 03       		.byte	0x3
 4965 0389 91       		.byte	0x91
 4966 038a AC7F     		.sleb128 -84
ARM GAS  C:\Users\Brian\AppData\Local\Temp\ccoW3fAZ.s 			page 110


 4967 038c 0B       		.uleb128 0xb
 4968 038d 31010000 		.4byte	.LASF31
 4969 0391 01       		.byte	0x1
 4970 0392 F501     		.2byte	0x1f5
 4971 0394 7A000000 		.4byte	0x7a
 4972 0398 03       		.byte	0x3
 4973 0399 91       		.byte	0x91
 4974 039a AB7F     		.sleb128 -85
 4975 039c 0C       		.uleb128 0xc
 4976 039d 616D7000 		.ascii	"amp\000"
 4977 03a1 01       		.byte	0x1
 4978 03a2 F601     		.2byte	0x1f6
 4979 03a4 7A000000 		.4byte	0x7a
 4980 03a8 03       		.byte	0x3
 4981 03a9 91       		.byte	0x91
 4982 03aa AA7F     		.sleb128 -86
 4983 03ac 0B       		.uleb128 0xb
 4984 03ad 4F030000 		.4byte	.LASF32
 4985 03b1 01       		.byte	0x1
 4986 03b2 F701     		.2byte	0x1f7
 4987 03b4 7A000000 		.4byte	0x7a
 4988 03b8 03       		.byte	0x3
 4989 03b9 91       		.byte	0x91
 4990 03ba A97F     		.sleb128 -87
 4991 03bc 0B       		.uleb128 0xb
 4992 03bd 49030000 		.4byte	.LASF33
 4993 03c1 01       		.byte	0x1
 4994 03c2 F801     		.2byte	0x1f8
 4995 03c4 7A000000 		.4byte	0x7a
 4996 03c8 03       		.byte	0x3
 4997 03c9 91       		.byte	0x91
 4998 03ca A87F     		.sleb128 -88
 4999 03cc 0C       		.uleb128 0xc
 5000 03cd 64634200 		.ascii	"dcB\000"
 5001 03d1 01       		.byte	0x1
 5002 03d2 FA01     		.2byte	0x1fa
 5003 03d4 7A000000 		.4byte	0x7a
 5004 03d8 03       		.byte	0x3
 5005 03d9 91       		.byte	0x91
 5006 03da A77F     		.sleb128 -89
 5007 03dc 0B       		.uleb128 0xb
 5008 03dd 5E020000 		.4byte	.LASF34
 5009 03e1 01       		.byte	0x1
 5010 03e2 0402     		.2byte	0x204
 5011 03e4 AB050000 		.4byte	0x5ab
 5012 03e8 03       		.byte	0x3
 5013 03e9 91       		.byte	0x91
 5014 03ea A47D     		.sleb128 -348
 5015 03ec 0B       		.uleb128 0xb
 5016 03ed 37030000 		.4byte	.LASF35
 5017 03f1 01       		.byte	0x1
 5018 03f2 1602     		.2byte	0x216
 5019 03f4 AB050000 		.4byte	0x5ab
 5020 03f8 03       		.byte	0x3
 5021 03f9 91       		.byte	0x91
 5022 03fa A47B     		.sleb128 -604
 5023 03fc 0B       		.uleb128 0xb
ARM GAS  C:\Users\Brian\AppData\Local\Temp\ccoW3fAZ.s 			page 111


 5024 03fd 16010000 		.4byte	.LASF36
 5025 0401 01       		.byte	0x1
 5026 0402 2502     		.2byte	0x225
 5027 0404 AB050000 		.4byte	0x5ab
 5028 0408 03       		.byte	0x3
 5029 0409 91       		.byte	0x91
 5030 040a A479     		.sleb128 -860
 5031 040c 0B       		.uleb128 0xb
 5032 040d 4A000000 		.4byte	.LASF37
 5033 0411 01       		.byte	0x1
 5034 0412 3502     		.2byte	0x235
 5035 0414 AB050000 		.4byte	0x5ab
 5036 0418 03       		.byte	0x3
 5037 0419 91       		.byte	0x91
 5038 041a A477     		.sleb128 -1116
 5039 041c 0D       		.uleb128 0xd
 5040 041d DA000000 		.4byte	.LBB2
 5041 0421 CA010000 		.4byte	.LBE2
 5042 0425 80040000 		.4byte	0x480
 5043 0429 0C       		.uleb128 0xc
 5044 042a 6900     		.ascii	"i\000"
 5045 042c 01       		.byte	0x1
 5046 042d 4902     		.2byte	0x249
 5047 042f 6C000000 		.4byte	0x6c
 5048 0433 02       		.byte	0x2
 5049 0434 91       		.byte	0x91
 5050 0435 6C       		.sleb128 -20
 5051 0436 0B       		.uleb128 0xb
 5052 0437 62030000 		.4byte	.LASF38
 5053 043b 01       		.byte	0x1
 5054 043c 4A02     		.2byte	0x24a
 5055 043e AB050000 		.4byte	0x5ab
 5056 0442 03       		.byte	0x3
 5057 0443 91       		.byte	0x91
 5058 0444 A473     		.sleb128 -1628
 5059 0446 0B       		.uleb128 0xb
 5060 0447 86020000 		.4byte	.LASF39
 5061 044b 01       		.byte	0x1
 5062 044c 5802     		.2byte	0x258
 5063 044e AB050000 		.4byte	0x5ab
 5064 0452 03       		.byte	0x3
 5065 0453 91       		.byte	0x91
 5066 0454 A475     		.sleb128 -1372
 5067 0456 0E       		.uleb128 0xe
 5068 0457 E4000000 		.4byte	.LBB3
 5069 045b 94010000 		.4byte	.LBE3
 5070 045f 0C       		.uleb128 0xc
 5071 0460 76616C00 		.ascii	"val\000"
 5072 0464 01       		.byte	0x1
 5073 0465 4D02     		.2byte	0x24d
 5074 0467 A2000000 		.4byte	0xa2
 5075 046b 02       		.byte	0x2
 5076 046c 91       		.byte	0x91
 5077 046d 60       		.sleb128 -32
 5078 046e 0B       		.uleb128 0xb
 5079 046f 57000000 		.4byte	.LASF40
 5080 0473 01       		.byte	0x1
ARM GAS  C:\Users\Brian\AppData\Local\Temp\ccoW3fAZ.s 			page 112


 5081 0474 5302     		.2byte	0x253
 5082 0476 7A000000 		.4byte	0x7a
 5083 047a 03       		.byte	0x3
 5084 047b 91       		.byte	0x91
 5085 047c A67F     		.sleb128 -90
 5086 047e 00       		.byte	0
 5087 047f 00       		.byte	0
 5088 0480 0D       		.uleb128 0xd
 5089 0481 D2010000 		.4byte	.LBB4
 5090 0485 C2020000 		.4byte	.LBE4
 5091 0489 E4040000 		.4byte	0x4e4
 5092 048d 0C       		.uleb128 0xc
 5093 048e 6900     		.ascii	"i\000"
 5094 0490 01       		.byte	0x1
 5095 0491 6102     		.2byte	0x261
 5096 0493 6C000000 		.4byte	0x6c
 5097 0497 02       		.byte	0x2
 5098 0498 91       		.byte	0x91
 5099 0499 5C       		.sleb128 -36
 5100 049a 0B       		.uleb128 0xb
 5101 049b 62030000 		.4byte	.LASF38
 5102 049f 01       		.byte	0x1
 5103 04a0 6202     		.2byte	0x262
 5104 04a2 AB050000 		.4byte	0x5ab
 5105 04a6 03       		.byte	0x3
 5106 04a7 91       		.byte	0x91
 5107 04a8 A473     		.sleb128 -1628
 5108 04aa 0B       		.uleb128 0xb
 5109 04ab 86020000 		.4byte	.LASF39
 5110 04af 01       		.byte	0x1
 5111 04b0 7102     		.2byte	0x271
 5112 04b2 AB050000 		.4byte	0x5ab
 5113 04b6 03       		.byte	0x3
 5114 04b7 91       		.byte	0x91
 5115 04b8 A475     		.sleb128 -1372
 5116 04ba 0E       		.uleb128 0xe
 5117 04bb DC010000 		.4byte	.LBB5
 5118 04bf 8C020000 		.4byte	.LBE5
 5119 04c3 0C       		.uleb128 0xc
 5120 04c4 76616C00 		.ascii	"val\000"
 5121 04c8 01       		.byte	0x1
 5122 04c9 6502     		.2byte	0x265
 5123 04cb A2000000 		.4byte	0xa2
 5124 04cf 02       		.byte	0x2
 5125 04d0 91       		.byte	0x91
 5126 04d1 50       		.sleb128 -48
 5127 04d2 0B       		.uleb128 0xb
 5128 04d3 57000000 		.4byte	.LASF40
 5129 04d7 01       		.byte	0x1
 5130 04d8 6B02     		.2byte	0x26b
 5131 04da 7A000000 		.4byte	0x7a
 5132 04de 03       		.byte	0x3
 5133 04df 91       		.byte	0x91
 5134 04e0 A57F     		.sleb128 -91
 5135 04e2 00       		.byte	0
 5136 04e3 00       		.byte	0
 5137 04e4 0D       		.uleb128 0xd
ARM GAS  C:\Users\Brian\AppData\Local\Temp\ccoW3fAZ.s 			page 113


 5138 04e5 CA020000 		.4byte	.LBB6
 5139 04e9 BA030000 		.4byte	.LBE6
 5140 04ed 48050000 		.4byte	0x548
 5141 04f1 0C       		.uleb128 0xc
 5142 04f2 6900     		.ascii	"i\000"
 5143 04f4 01       		.byte	0x1
 5144 04f5 7A02     		.2byte	0x27a
 5145 04f7 6C000000 		.4byte	0x6c
 5146 04fb 02       		.byte	0x2
 5147 04fc 91       		.byte	0x91
 5148 04fd 4C       		.sleb128 -52
 5149 04fe 0B       		.uleb128 0xb
 5150 04ff 62030000 		.4byte	.LASF38
 5151 0503 01       		.byte	0x1
 5152 0504 7B02     		.2byte	0x27b
 5153 0506 AB050000 		.4byte	0x5ab
 5154 050a 03       		.byte	0x3
 5155 050b 91       		.byte	0x91
 5156 050c A473     		.sleb128 -1628
 5157 050e 0B       		.uleb128 0xb
 5158 050f 86020000 		.4byte	.LASF39
 5159 0513 01       		.byte	0x1
 5160 0514 8902     		.2byte	0x289
 5161 0516 AB050000 		.4byte	0x5ab
 5162 051a 03       		.byte	0x3
 5163 051b 91       		.byte	0x91
 5164 051c A475     		.sleb128 -1372
 5165 051e 0E       		.uleb128 0xe
 5166 051f D4020000 		.4byte	.LBB7
 5167 0523 84030000 		.4byte	.LBE7
 5168 0527 0C       		.uleb128 0xc
 5169 0528 76616C00 		.ascii	"val\000"
 5170 052c 01       		.byte	0x1
 5171 052d 7E02     		.2byte	0x27e
 5172 052f A2000000 		.4byte	0xa2
 5173 0533 02       		.byte	0x2
 5174 0534 91       		.byte	0x91
 5175 0535 40       		.sleb128 -64
 5176 0536 0B       		.uleb128 0xb
 5177 0537 57000000 		.4byte	.LASF40
 5178 053b 01       		.byte	0x1
 5179 053c 8402     		.2byte	0x284
 5180 053e 7A000000 		.4byte	0x7a
 5181 0542 03       		.byte	0x3
 5182 0543 91       		.byte	0x91
 5183 0544 A47F     		.sleb128 -92
 5184 0546 00       		.byte	0
 5185 0547 00       		.byte	0
 5186 0548 0E       		.uleb128 0xe
 5187 0549 C2030000 		.4byte	.LBB8
 5188 054d BC040000 		.4byte	.LBE8
 5189 0551 0C       		.uleb128 0xc
 5190 0552 6900     		.ascii	"i\000"
 5191 0554 01       		.byte	0x1
 5192 0555 9202     		.2byte	0x292
 5193 0557 6C000000 		.4byte	0x6c
 5194 055b 03       		.byte	0x3
ARM GAS  C:\Users\Brian\AppData\Local\Temp\ccoW3fAZ.s 			page 114


 5195 055c 91       		.byte	0x91
 5196 055d BC7F     		.sleb128 -68
 5197 055f 0B       		.uleb128 0xb
 5198 0560 62030000 		.4byte	.LASF38
 5199 0564 01       		.byte	0x1
 5200 0565 9302     		.2byte	0x293
 5201 0567 AB050000 		.4byte	0x5ab
 5202 056b 03       		.byte	0x3
 5203 056c 91       		.byte	0x91
 5204 056d A473     		.sleb128 -1628
 5205 056f 0B       		.uleb128 0xb
 5206 0570 86020000 		.4byte	.LASF39
 5207 0574 01       		.byte	0x1
 5208 0575 A002     		.2byte	0x2a0
 5209 0577 AB050000 		.4byte	0x5ab
 5210 057b 03       		.byte	0x3
 5211 057c 91       		.byte	0x91
 5212 057d A475     		.sleb128 -1372
 5213 057f 0E       		.uleb128 0xe
 5214 0580 D8030000 		.4byte	.LBB9
 5215 0584 88040000 		.4byte	.LBE9
 5216 0588 0C       		.uleb128 0xc
 5217 0589 76616C00 		.ascii	"val\000"
 5218 058d 01       		.byte	0x1
 5219 058e 9602     		.2byte	0x296
 5220 0590 A2000000 		.4byte	0xa2
 5221 0594 03       		.byte	0x3
 5222 0595 91       		.byte	0x91
 5223 0596 B07F     		.sleb128 -80
 5224 0598 0B       		.uleb128 0xb
 5225 0599 57000000 		.4byte	.LASF40
 5226 059d 01       		.byte	0x1
 5227 059e 9C02     		.2byte	0x29c
 5228 05a0 7A000000 		.4byte	0x7a
 5229 05a4 03       		.byte	0x3
 5230 05a5 91       		.byte	0x91
 5231 05a6 A37F     		.sleb128 -93
 5232 05a8 00       		.byte	0
 5233 05a9 00       		.byte	0
 5234 05aa 00       		.byte	0
 5235 05ab 0F       		.uleb128 0xf
 5236 05ac 7A000000 		.4byte	0x7a
 5237 05b0 BB050000 		.4byte	0x5bb
 5238 05b4 10       		.uleb128 0x10
 5239 05b5 B0000000 		.4byte	0xb0
 5240 05b9 FE       		.byte	0xfe
 5241 05ba 00       		.byte	0
 5242 05bb 09       		.uleb128 0x9
 5243 05bc 01       		.byte	0x1
 5244 05bd 41010000 		.4byte	.LASF41
 5245 05c1 01       		.byte	0x1
 5246 05c2 B702     		.2byte	0x2b7
 5247 05c4 01       		.byte	0x1
 5248 05c5 00000000 		.4byte	.LFB65
 5249 05c9 FA000000 		.4byte	.LFE65
 5250 05cd FA010000 		.4byte	.LLST9
 5251 05d1 01       		.byte	0x1
ARM GAS  C:\Users\Brian\AppData\Local\Temp\ccoW3fAZ.s 			page 115


 5252 05d2 13060000 		.4byte	0x613
 5253 05d6 0A       		.uleb128 0xa
 5254 05d7 636D6400 		.ascii	"cmd\000"
 5255 05db 01       		.byte	0x1
 5256 05dc B702     		.2byte	0x2b7
 5257 05de 7A000000 		.4byte	0x7a
 5258 05e2 02       		.byte	0x2
 5259 05e3 91       		.byte	0x91
 5260 05e4 6F       		.sleb128 -17
 5261 05e5 0A       		.uleb128 0xa
 5262 05e6 76616C00 		.ascii	"val\000"
 5263 05ea 01       		.byte	0x1
 5264 05eb B702     		.2byte	0x2b7
 5265 05ed 85000000 		.4byte	0x85
 5266 05f1 02       		.byte	0x2
 5267 05f2 91       		.byte	0x91
 5268 05f3 6C       		.sleb128 -20
 5269 05f4 0B       		.uleb128 0xb
 5270 05f5 10000000 		.4byte	.LASF20
 5271 05f9 01       		.byte	0x1
 5272 05fa B902     		.2byte	0x2b9
 5273 05fc 90000000 		.4byte	0x90
 5274 0600 02       		.byte	0x2
 5275 0601 91       		.byte	0x91
 5276 0602 74       		.sleb128 -12
 5277 0603 0B       		.uleb128 0xb
 5278 0604 7A020000 		.4byte	.LASF21
 5279 0608 01       		.byte	0x1
 5280 0609 BA02     		.2byte	0x2ba
 5281 060b 4F010000 		.4byte	0x14f
 5282 060f 02       		.byte	0x2
 5283 0610 91       		.byte	0x91
 5284 0611 73       		.sleb128 -13
 5285 0612 00       		.byte	0
 5286 0613 09       		.uleb128 0x9
 5287 0614 01       		.byte	0x1
 5288 0615 4F010000 		.4byte	.LASF42
 5289 0619 01       		.byte	0x1
 5290 061a DF02     		.2byte	0x2df
 5291 061c 01       		.byte	0x1
 5292 061d 00000000 		.4byte	.LFB66
 5293 0621 FA000000 		.4byte	.LFE66
 5294 0625 32020000 		.4byte	.LLST10
 5295 0629 01       		.byte	0x1
 5296 062a 6B060000 		.4byte	0x66b
 5297 062e 0A       		.uleb128 0xa
 5298 062f 636D6400 		.ascii	"cmd\000"
 5299 0633 01       		.byte	0x1
 5300 0634 DF02     		.2byte	0x2df
 5301 0636 7A000000 		.4byte	0x7a
 5302 063a 02       		.byte	0x2
 5303 063b 91       		.byte	0x91
 5304 063c 6F       		.sleb128 -17
 5305 063d 0A       		.uleb128 0xa
 5306 063e 76616C00 		.ascii	"val\000"
 5307 0642 01       		.byte	0x1
 5308 0643 DF02     		.2byte	0x2df
ARM GAS  C:\Users\Brian\AppData\Local\Temp\ccoW3fAZ.s 			page 116


 5309 0645 85000000 		.4byte	0x85
 5310 0649 02       		.byte	0x2
 5311 064a 91       		.byte	0x91
 5312 064b 6C       		.sleb128 -20
 5313 064c 0B       		.uleb128 0xb
 5314 064d 10000000 		.4byte	.LASF20
 5315 0651 01       		.byte	0x1
 5316 0652 E102     		.2byte	0x2e1
 5317 0654 90000000 		.4byte	0x90
 5318 0658 02       		.byte	0x2
 5319 0659 91       		.byte	0x91
 5320 065a 74       		.sleb128 -12
 5321 065b 0B       		.uleb128 0xb
 5322 065c 7A020000 		.4byte	.LASF21
 5323 0660 01       		.byte	0x1
 5324 0661 E202     		.2byte	0x2e2
 5325 0663 4F010000 		.4byte	0x14f
 5326 0667 02       		.byte	0x2
 5327 0668 91       		.byte	0x91
 5328 0669 73       		.sleb128 -13
 5329 066a 00       		.byte	0
 5330 066b 09       		.uleb128 0x9
 5331 066c 01       		.byte	0x1
 5332 066d 5D010000 		.4byte	.LASF43
 5333 0671 01       		.byte	0x1
 5334 0672 0603     		.2byte	0x306
 5335 0674 01       		.byte	0x1
 5336 0675 00000000 		.4byte	.LFB67
 5337 0679 FA000000 		.4byte	.LFE67
 5338 067d 6A020000 		.4byte	.LLST11
 5339 0681 01       		.byte	0x1
 5340 0682 C3060000 		.4byte	0x6c3
 5341 0686 0A       		.uleb128 0xa
 5342 0687 636D6400 		.ascii	"cmd\000"
 5343 068b 01       		.byte	0x1
 5344 068c 0603     		.2byte	0x306
 5345 068e 7A000000 		.4byte	0x7a
 5346 0692 02       		.byte	0x2
 5347 0693 91       		.byte	0x91
 5348 0694 6F       		.sleb128 -17
 5349 0695 0A       		.uleb128 0xa
 5350 0696 76616C00 		.ascii	"val\000"
 5351 069a 01       		.byte	0x1
 5352 069b 0603     		.2byte	0x306
 5353 069d 85000000 		.4byte	0x85
 5354 06a1 02       		.byte	0x2
 5355 06a2 91       		.byte	0x91
 5356 06a3 6C       		.sleb128 -20
 5357 06a4 0B       		.uleb128 0xb
 5358 06a5 10000000 		.4byte	.LASF20
 5359 06a9 01       		.byte	0x1
 5360 06aa 0803     		.2byte	0x308
 5361 06ac 90000000 		.4byte	0x90
 5362 06b0 02       		.byte	0x2
 5363 06b1 91       		.byte	0x91
 5364 06b2 74       		.sleb128 -12
 5365 06b3 0B       		.uleb128 0xb
ARM GAS  C:\Users\Brian\AppData\Local\Temp\ccoW3fAZ.s 			page 117


 5366 06b4 7A020000 		.4byte	.LASF21
 5367 06b8 01       		.byte	0x1
 5368 06b9 0903     		.2byte	0x309
 5369 06bb 4F010000 		.4byte	0x14f
 5370 06bf 02       		.byte	0x2
 5371 06c0 91       		.byte	0x91
 5372 06c1 73       		.sleb128 -13
 5373 06c2 00       		.byte	0
 5374 06c3 09       		.uleb128 0x9
 5375 06c4 01       		.byte	0x1
 5376 06c5 6B010000 		.4byte	.LASF44
 5377 06c9 01       		.byte	0x1
 5378 06ca 2D03     		.2byte	0x32d
 5379 06cc 01       		.byte	0x1
 5380 06cd 00000000 		.4byte	.LFB68
 5381 06d1 FA000000 		.4byte	.LFE68
 5382 06d5 A2020000 		.4byte	.LLST12
 5383 06d9 01       		.byte	0x1
 5384 06da 1B070000 		.4byte	0x71b
 5385 06de 0A       		.uleb128 0xa
 5386 06df 636D6400 		.ascii	"cmd\000"
 5387 06e3 01       		.byte	0x1
 5388 06e4 2D03     		.2byte	0x32d
 5389 06e6 7A000000 		.4byte	0x7a
 5390 06ea 02       		.byte	0x2
 5391 06eb 91       		.byte	0x91
 5392 06ec 6F       		.sleb128 -17
 5393 06ed 0A       		.uleb128 0xa
 5394 06ee 76616C00 		.ascii	"val\000"
 5395 06f2 01       		.byte	0x1
 5396 06f3 2D03     		.2byte	0x32d
 5397 06f5 85000000 		.4byte	0x85
 5398 06f9 02       		.byte	0x2
 5399 06fa 91       		.byte	0x91
 5400 06fb 6C       		.sleb128 -20
 5401 06fc 0B       		.uleb128 0xb
 5402 06fd 10000000 		.4byte	.LASF20
 5403 0701 01       		.byte	0x1
 5404 0702 2F03     		.2byte	0x32f
 5405 0704 90000000 		.4byte	0x90
 5406 0708 02       		.byte	0x2
 5407 0709 91       		.byte	0x91
 5408 070a 74       		.sleb128 -12
 5409 070b 0B       		.uleb128 0xb
 5410 070c 7A020000 		.4byte	.LASF21
 5411 0710 01       		.byte	0x1
 5412 0711 3003     		.2byte	0x330
 5413 0713 4F010000 		.4byte	0x14f
 5414 0717 02       		.byte	0x2
 5415 0718 91       		.byte	0x91
 5416 0719 73       		.sleb128 -13
 5417 071a 00       		.byte	0
 5418 071b 09       		.uleb128 0x9
 5419 071c 01       		.byte	0x1
 5420 071d 79010000 		.4byte	.LASF45
 5421 0721 01       		.byte	0x1
 5422 0722 5603     		.2byte	0x356
ARM GAS  C:\Users\Brian\AppData\Local\Temp\ccoW3fAZ.s 			page 118


 5423 0724 01       		.byte	0x1
 5424 0725 00000000 		.4byte	.LFB69
 5425 0729 FA000000 		.4byte	.LFE69
 5426 072d DA020000 		.4byte	.LLST13
 5427 0731 01       		.byte	0x1
 5428 0732 73070000 		.4byte	0x773
 5429 0736 0A       		.uleb128 0xa
 5430 0737 636D6400 		.ascii	"cmd\000"
 5431 073b 01       		.byte	0x1
 5432 073c 5603     		.2byte	0x356
 5433 073e 7A000000 		.4byte	0x7a
 5434 0742 02       		.byte	0x2
 5435 0743 91       		.byte	0x91
 5436 0744 6F       		.sleb128 -17
 5437 0745 0A       		.uleb128 0xa
 5438 0746 76616C00 		.ascii	"val\000"
 5439 074a 01       		.byte	0x1
 5440 074b 5603     		.2byte	0x356
 5441 074d 85000000 		.4byte	0x85
 5442 0751 02       		.byte	0x2
 5443 0752 91       		.byte	0x91
 5444 0753 6C       		.sleb128 -20
 5445 0754 0B       		.uleb128 0xb
 5446 0755 10000000 		.4byte	.LASF20
 5447 0759 01       		.byte	0x1
 5448 075a 5803     		.2byte	0x358
 5449 075c 90000000 		.4byte	0x90
 5450 0760 02       		.byte	0x2
 5451 0761 91       		.byte	0x91
 5452 0762 74       		.sleb128 -12
 5453 0763 0B       		.uleb128 0xb
 5454 0764 7A020000 		.4byte	.LASF21
 5455 0768 01       		.byte	0x1
 5456 0769 5903     		.2byte	0x359
 5457 076b 4F010000 		.4byte	0x14f
 5458 076f 02       		.byte	0x2
 5459 0770 91       		.byte	0x91
 5460 0771 73       		.sleb128 -13
 5461 0772 00       		.byte	0
 5462 0773 09       		.uleb128 0x9
 5463 0774 01       		.byte	0x1
 5464 0775 87010000 		.4byte	.LASF46
 5465 0779 01       		.byte	0x1
 5466 077a 7F03     		.2byte	0x37f
 5467 077c 01       		.byte	0x1
 5468 077d 00000000 		.4byte	.LFB70
 5469 0781 FA000000 		.4byte	.LFE70
 5470 0785 12030000 		.4byte	.LLST14
 5471 0789 01       		.byte	0x1
 5472 078a CB070000 		.4byte	0x7cb
 5473 078e 0A       		.uleb128 0xa
 5474 078f 636D6400 		.ascii	"cmd\000"
 5475 0793 01       		.byte	0x1
 5476 0794 7F03     		.2byte	0x37f
 5477 0796 7A000000 		.4byte	0x7a
 5478 079a 02       		.byte	0x2
 5479 079b 91       		.byte	0x91
ARM GAS  C:\Users\Brian\AppData\Local\Temp\ccoW3fAZ.s 			page 119


 5480 079c 6F       		.sleb128 -17
 5481 079d 0A       		.uleb128 0xa
 5482 079e 76616C00 		.ascii	"val\000"
 5483 07a2 01       		.byte	0x1
 5484 07a3 7F03     		.2byte	0x37f
 5485 07a5 85000000 		.4byte	0x85
 5486 07a9 02       		.byte	0x2
 5487 07aa 91       		.byte	0x91
 5488 07ab 6C       		.sleb128 -20
 5489 07ac 0B       		.uleb128 0xb
 5490 07ad 10000000 		.4byte	.LASF20
 5491 07b1 01       		.byte	0x1
 5492 07b2 8103     		.2byte	0x381
 5493 07b4 90000000 		.4byte	0x90
 5494 07b8 02       		.byte	0x2
 5495 07b9 91       		.byte	0x91
 5496 07ba 74       		.sleb128 -12
 5497 07bb 0B       		.uleb128 0xb
 5498 07bc 7A020000 		.4byte	.LASF21
 5499 07c0 01       		.byte	0x1
 5500 07c1 8203     		.2byte	0x382
 5501 07c3 4F010000 		.4byte	0x14f
 5502 07c7 02       		.byte	0x2
 5503 07c8 91       		.byte	0x91
 5504 07c9 73       		.sleb128 -13
 5505 07ca 00       		.byte	0
 5506 07cb 09       		.uleb128 0x9
 5507 07cc 01       		.byte	0x1
 5508 07cd 95010000 		.4byte	.LASF47
 5509 07d1 01       		.byte	0x1
 5510 07d2 A703     		.2byte	0x3a7
 5511 07d4 01       		.byte	0x1
 5512 07d5 00000000 		.4byte	.LFB71
 5513 07d9 FA000000 		.4byte	.LFE71
 5514 07dd 4A030000 		.4byte	.LLST15
 5515 07e1 01       		.byte	0x1
 5516 07e2 23080000 		.4byte	0x823
 5517 07e6 0A       		.uleb128 0xa
 5518 07e7 636D6400 		.ascii	"cmd\000"
 5519 07eb 01       		.byte	0x1
 5520 07ec A703     		.2byte	0x3a7
 5521 07ee 7A000000 		.4byte	0x7a
 5522 07f2 02       		.byte	0x2
 5523 07f3 91       		.byte	0x91
 5524 07f4 6F       		.sleb128 -17
 5525 07f5 0A       		.uleb128 0xa
 5526 07f6 76616C00 		.ascii	"val\000"
 5527 07fa 01       		.byte	0x1
 5528 07fb A703     		.2byte	0x3a7
 5529 07fd 85000000 		.4byte	0x85
 5530 0801 02       		.byte	0x2
 5531 0802 91       		.byte	0x91
 5532 0803 6C       		.sleb128 -20
 5533 0804 0B       		.uleb128 0xb
 5534 0805 10000000 		.4byte	.LASF20
 5535 0809 01       		.byte	0x1
 5536 080a A903     		.2byte	0x3a9
ARM GAS  C:\Users\Brian\AppData\Local\Temp\ccoW3fAZ.s 			page 120


 5537 080c 90000000 		.4byte	0x90
 5538 0810 02       		.byte	0x2
 5539 0811 91       		.byte	0x91
 5540 0812 74       		.sleb128 -12
 5541 0813 0B       		.uleb128 0xb
 5542 0814 7A020000 		.4byte	.LASF21
 5543 0818 01       		.byte	0x1
 5544 0819 AA03     		.2byte	0x3aa
 5545 081b 4F010000 		.4byte	0x14f
 5546 081f 02       		.byte	0x2
 5547 0820 91       		.byte	0x91
 5548 0821 73       		.sleb128 -13
 5549 0822 00       		.byte	0
 5550 0823 09       		.uleb128 0x9
 5551 0824 01       		.byte	0x1
 5552 0825 6A030000 		.4byte	.LASF48
 5553 0829 01       		.byte	0x1
 5554 082a CD03     		.2byte	0x3cd
 5555 082c 01       		.byte	0x1
 5556 082d 00000000 		.4byte	.LFB72
 5557 0831 FA000000 		.4byte	.LFE72
 5558 0835 82030000 		.4byte	.LLST16
 5559 0839 01       		.byte	0x1
 5560 083a 7B080000 		.4byte	0x87b
 5561 083e 0A       		.uleb128 0xa
 5562 083f 636D6400 		.ascii	"cmd\000"
 5563 0843 01       		.byte	0x1
 5564 0844 CD03     		.2byte	0x3cd
 5565 0846 7A000000 		.4byte	0x7a
 5566 084a 02       		.byte	0x2
 5567 084b 91       		.byte	0x91
 5568 084c 6F       		.sleb128 -17
 5569 084d 0A       		.uleb128 0xa
 5570 084e 76616C00 		.ascii	"val\000"
 5571 0852 01       		.byte	0x1
 5572 0853 CD03     		.2byte	0x3cd
 5573 0855 85000000 		.4byte	0x85
 5574 0859 02       		.byte	0x2
 5575 085a 91       		.byte	0x91
 5576 085b 6C       		.sleb128 -20
 5577 085c 0B       		.uleb128 0xb
 5578 085d 10000000 		.4byte	.LASF20
 5579 0861 01       		.byte	0x1
 5580 0862 CF03     		.2byte	0x3cf
 5581 0864 90000000 		.4byte	0x90
 5582 0868 02       		.byte	0x2
 5583 0869 91       		.byte	0x91
 5584 086a 74       		.sleb128 -12
 5585 086b 0B       		.uleb128 0xb
 5586 086c 7A020000 		.4byte	.LASF21
 5587 0870 01       		.byte	0x1
 5588 0871 D003     		.2byte	0x3d0
 5589 0873 4F010000 		.4byte	0x14f
 5590 0877 02       		.byte	0x2
 5591 0878 91       		.byte	0x91
 5592 0879 73       		.sleb128 -13
 5593 087a 00       		.byte	0
ARM GAS  C:\Users\Brian\AppData\Local\Temp\ccoW3fAZ.s 			page 121


 5594 087b 09       		.uleb128 0x9
 5595 087c 01       		.byte	0x1
 5596 087d 77000000 		.4byte	.LASF49
 5597 0881 01       		.byte	0x1
 5598 0882 F403     		.2byte	0x3f4
 5599 0884 01       		.byte	0x1
 5600 0885 00000000 		.4byte	.LFB73
 5601 0889 40000000 		.4byte	.LFE73
 5602 088d BA030000 		.4byte	.LLST17
 5603 0891 01       		.byte	0x1
 5604 0892 C4080000 		.4byte	0x8c4
 5605 0896 0A       		.uleb128 0xa
 5606 0897 636D6400 		.ascii	"cmd\000"
 5607 089b 01       		.byte	0x1
 5608 089c F403     		.2byte	0x3f4
 5609 089e 7A000000 		.4byte	0x7a
 5610 08a2 02       		.byte	0x2
 5611 08a3 91       		.byte	0x91
 5612 08a4 6F       		.sleb128 -17
 5613 08a5 0B       		.uleb128 0xb
 5614 08a6 10000000 		.4byte	.LASF20
 5615 08aa 01       		.byte	0x1
 5616 08ab F603     		.2byte	0x3f6
 5617 08ad 90000000 		.4byte	0x90
 5618 08b1 02       		.byte	0x2
 5619 08b2 91       		.byte	0x91
 5620 08b3 74       		.sleb128 -12
 5621 08b4 0B       		.uleb128 0xb
 5622 08b5 7A020000 		.4byte	.LASF21
 5623 08b9 01       		.byte	0x1
 5624 08ba F703     		.2byte	0x3f7
 5625 08bc 4F010000 		.4byte	0x14f
 5626 08c0 02       		.byte	0x2
 5627 08c1 91       		.byte	0x91
 5628 08c2 73       		.sleb128 -13
 5629 08c3 00       		.byte	0
 5630 08c4 09       		.uleb128 0x9
 5631 08c5 01       		.byte	0x1
 5632 08c6 17000000 		.4byte	.LASF50
 5633 08ca 01       		.byte	0x1
 5634 08cb 1004     		.2byte	0x410
 5635 08cd 01       		.byte	0x1
 5636 08ce 00000000 		.4byte	.LFB74
 5637 08d2 40000000 		.4byte	.LFE74
 5638 08d6 F2030000 		.4byte	.LLST18
 5639 08da 01       		.byte	0x1
 5640 08db 0D090000 		.4byte	0x90d
 5641 08df 0A       		.uleb128 0xa
 5642 08e0 636D6400 		.ascii	"cmd\000"
 5643 08e4 01       		.byte	0x1
 5644 08e5 1004     		.2byte	0x410
 5645 08e7 7A000000 		.4byte	0x7a
 5646 08eb 02       		.byte	0x2
 5647 08ec 91       		.byte	0x91
 5648 08ed 6F       		.sleb128 -17
 5649 08ee 0B       		.uleb128 0xb
 5650 08ef 10000000 		.4byte	.LASF20
ARM GAS  C:\Users\Brian\AppData\Local\Temp\ccoW3fAZ.s 			page 122


 5651 08f3 01       		.byte	0x1
 5652 08f4 1204     		.2byte	0x412
 5653 08f6 90000000 		.4byte	0x90
 5654 08fa 02       		.byte	0x2
 5655 08fb 91       		.byte	0x91
 5656 08fc 74       		.sleb128 -12
 5657 08fd 0B       		.uleb128 0xb
 5658 08fe 7A020000 		.4byte	.LASF21
 5659 0902 01       		.byte	0x1
 5660 0903 1304     		.2byte	0x413
 5661 0905 4F010000 		.4byte	0x14f
 5662 0909 02       		.byte	0x2
 5663 090a 91       		.byte	0x91
 5664 090b 73       		.sleb128 -13
 5665 090c 00       		.byte	0
 5666 090d 09       		.uleb128 0x9
 5667 090e 01       		.byte	0x1
 5668 090f 8D000000 		.4byte	.LASF51
 5669 0913 01       		.byte	0x1
 5670 0914 2C04     		.2byte	0x42c
 5671 0916 01       		.byte	0x1
 5672 0917 00000000 		.4byte	.LFB75
 5673 091b 40000000 		.4byte	.LFE75
 5674 091f 2A040000 		.4byte	.LLST19
 5675 0923 01       		.byte	0x1
 5676 0924 56090000 		.4byte	0x956
 5677 0928 0A       		.uleb128 0xa
 5678 0929 636D6400 		.ascii	"cmd\000"
 5679 092d 01       		.byte	0x1
 5680 092e 2C04     		.2byte	0x42c
 5681 0930 7A000000 		.4byte	0x7a
 5682 0934 02       		.byte	0x2
 5683 0935 91       		.byte	0x91
 5684 0936 6F       		.sleb128 -17
 5685 0937 0B       		.uleb128 0xb
 5686 0938 10000000 		.4byte	.LASF20
 5687 093c 01       		.byte	0x1
 5688 093d 2E04     		.2byte	0x42e
 5689 093f 90000000 		.4byte	0x90
 5690 0943 02       		.byte	0x2
 5691 0944 91       		.byte	0x91
 5692 0945 74       		.sleb128 -12
 5693 0946 0B       		.uleb128 0xb
 5694 0947 7A020000 		.4byte	.LASF21
 5695 094b 01       		.byte	0x1
 5696 094c 2F04     		.2byte	0x42f
 5697 094e 4F010000 		.4byte	0x14f
 5698 0952 02       		.byte	0x2
 5699 0953 91       		.byte	0x91
 5700 0954 73       		.sleb128 -13
 5701 0955 00       		.byte	0
 5702 0956 09       		.uleb128 0x9
 5703 0957 01       		.byte	0x1
 5704 0958 AD000000 		.4byte	.LASF52
 5705 095c 01       		.byte	0x1
 5706 095d 4B04     		.2byte	0x44b
 5707 095f 01       		.byte	0x1
ARM GAS  C:\Users\Brian\AppData\Local\Temp\ccoW3fAZ.s 			page 123


 5708 0960 00000000 		.4byte	.LFB76
 5709 0964 56000000 		.4byte	.LFE76
 5710 0968 62040000 		.4byte	.LLST20
 5711 096c 01       		.byte	0x1
 5712 096d AE090000 		.4byte	0x9ae
 5713 0971 0A       		.uleb128 0xa
 5714 0972 636D6400 		.ascii	"cmd\000"
 5715 0976 01       		.byte	0x1
 5716 0977 4B04     		.2byte	0x44b
 5717 0979 7A000000 		.4byte	0x7a
 5718 097d 02       		.byte	0x2
 5719 097e 91       		.byte	0x91
 5720 097f 6F       		.sleb128 -17
 5721 0980 0A       		.uleb128 0xa
 5722 0981 76616C00 		.ascii	"val\000"
 5723 0985 01       		.byte	0x1
 5724 0986 4B04     		.2byte	0x44b
 5725 0988 85000000 		.4byte	0x85
 5726 098c 02       		.byte	0x2
 5727 098d 91       		.byte	0x91
 5728 098e 6C       		.sleb128 -20
 5729 098f 0B       		.uleb128 0xb
 5730 0990 10000000 		.4byte	.LASF20
 5731 0994 01       		.byte	0x1
 5732 0995 4D04     		.2byte	0x44d
 5733 0997 90000000 		.4byte	0x90
 5734 099b 02       		.byte	0x2
 5735 099c 91       		.byte	0x91
 5736 099d 74       		.sleb128 -12
 5737 099e 0B       		.uleb128 0xb
 5738 099f 7A020000 		.4byte	.LASF21
 5739 09a3 01       		.byte	0x1
 5740 09a4 4E04     		.2byte	0x44e
 5741 09a6 4F010000 		.4byte	0x14f
 5742 09aa 02       		.byte	0x2
 5743 09ab 91       		.byte	0x91
 5744 09ac 73       		.sleb128 -13
 5745 09ad 00       		.byte	0
 5746 09ae 09       		.uleb128 0x9
 5747 09af 01       		.byte	0x1
 5748 09b0 BD000000 		.4byte	.LASF53
 5749 09b4 01       		.byte	0x1
 5750 09b5 6B04     		.2byte	0x46b
 5751 09b7 01       		.byte	0x1
 5752 09b8 00000000 		.4byte	.LFB77
 5753 09bc 56000000 		.4byte	.LFE77
 5754 09c0 9A040000 		.4byte	.LLST21
 5755 09c4 01       		.byte	0x1
 5756 09c5 060A0000 		.4byte	0xa06
 5757 09c9 0A       		.uleb128 0xa
 5758 09ca 636D6400 		.ascii	"cmd\000"
 5759 09ce 01       		.byte	0x1
 5760 09cf 6B04     		.2byte	0x46b
 5761 09d1 7A000000 		.4byte	0x7a
 5762 09d5 02       		.byte	0x2
 5763 09d6 91       		.byte	0x91
 5764 09d7 6F       		.sleb128 -17
ARM GAS  C:\Users\Brian\AppData\Local\Temp\ccoW3fAZ.s 			page 124


 5765 09d8 0A       		.uleb128 0xa
 5766 09d9 76616C00 		.ascii	"val\000"
 5767 09dd 01       		.byte	0x1
 5768 09de 6B04     		.2byte	0x46b
 5769 09e0 85000000 		.4byte	0x85
 5770 09e4 02       		.byte	0x2
 5771 09e5 91       		.byte	0x91
 5772 09e6 6C       		.sleb128 -20
 5773 09e7 0B       		.uleb128 0xb
 5774 09e8 10000000 		.4byte	.LASF20
 5775 09ec 01       		.byte	0x1
 5776 09ed 6D04     		.2byte	0x46d
 5777 09ef 90000000 		.4byte	0x90
 5778 09f3 02       		.byte	0x2
 5779 09f4 91       		.byte	0x91
 5780 09f5 74       		.sleb128 -12
 5781 09f6 0B       		.uleb128 0xb
 5782 09f7 7A020000 		.4byte	.LASF21
 5783 09fb 01       		.byte	0x1
 5784 09fc 6E04     		.2byte	0x46e
 5785 09fe 4F010000 		.4byte	0x14f
 5786 0a02 02       		.byte	0x2
 5787 0a03 91       		.byte	0x91
 5788 0a04 73       		.sleb128 -13
 5789 0a05 00       		.byte	0
 5790 0a06 09       		.uleb128 0x9
 5791 0a07 01       		.byte	0x1
 5792 0a08 CD000000 		.4byte	.LASF54
 5793 0a0c 01       		.byte	0x1
 5794 0a0d 8A04     		.2byte	0x48a
 5795 0a0f 01       		.byte	0x1
 5796 0a10 00000000 		.4byte	.LFB78
 5797 0a14 56000000 		.4byte	.LFE78
 5798 0a18 D2040000 		.4byte	.LLST22
 5799 0a1c 01       		.byte	0x1
 5800 0a1d 5E0A0000 		.4byte	0xa5e
 5801 0a21 0A       		.uleb128 0xa
 5802 0a22 636D6400 		.ascii	"cmd\000"
 5803 0a26 01       		.byte	0x1
 5804 0a27 8A04     		.2byte	0x48a
 5805 0a29 7A000000 		.4byte	0x7a
 5806 0a2d 02       		.byte	0x2
 5807 0a2e 91       		.byte	0x91
 5808 0a2f 6F       		.sleb128 -17
 5809 0a30 0A       		.uleb128 0xa
 5810 0a31 76616C00 		.ascii	"val\000"
 5811 0a35 01       		.byte	0x1
 5812 0a36 8A04     		.2byte	0x48a
 5813 0a38 85000000 		.4byte	0x85
 5814 0a3c 02       		.byte	0x2
 5815 0a3d 91       		.byte	0x91
 5816 0a3e 6C       		.sleb128 -20
 5817 0a3f 0B       		.uleb128 0xb
 5818 0a40 10000000 		.4byte	.LASF20
 5819 0a44 01       		.byte	0x1
 5820 0a45 8C04     		.2byte	0x48c
 5821 0a47 90000000 		.4byte	0x90
ARM GAS  C:\Users\Brian\AppData\Local\Temp\ccoW3fAZ.s 			page 125


 5822 0a4b 02       		.byte	0x2
 5823 0a4c 91       		.byte	0x91
 5824 0a4d 74       		.sleb128 -12
 5825 0a4e 0B       		.uleb128 0xb
 5826 0a4f 7A020000 		.4byte	.LASF21
 5827 0a53 01       		.byte	0x1
 5828 0a54 8D04     		.2byte	0x48d
 5829 0a56 4F010000 		.4byte	0x14f
 5830 0a5a 02       		.byte	0x2
 5831 0a5b 91       		.byte	0x91
 5832 0a5c 73       		.sleb128 -13
 5833 0a5d 00       		.byte	0
 5834 0a5e 11       		.uleb128 0x11
 5835 0a5f 01       		.byte	0x1
 5836 0a60 DD000000 		.4byte	.LASF66
 5837 0a64 01       		.byte	0x1
 5838 0a65 A604     		.2byte	0x4a6
 5839 0a67 01       		.byte	0x1
 5840 0a68 90000000 		.4byte	0x90
 5841 0a6c 00000000 		.4byte	.LFB79
 5842 0a70 96000000 		.4byte	.LFE79
 5843 0a74 0A050000 		.4byte	.LLST23
 5844 0a78 01       		.byte	0x1
 5845 0a79 C90A0000 		.4byte	0xac9
 5846 0a7d 0B       		.uleb128 0xb
 5847 0a7e 2C010000 		.4byte	.LASF17
 5848 0a82 01       		.byte	0x1
 5849 0a83 A804     		.2byte	0x4a8
 5850 0a85 7A000000 		.4byte	0x7a
 5851 0a89 02       		.byte	0x2
 5852 0a8a 91       		.byte	0x91
 5853 0a8b 77       		.sleb128 -9
 5854 0a8c 0C       		.uleb128 0xc
 5855 0a8d 636D6400 		.ascii	"cmd\000"
 5856 0a91 01       		.byte	0x1
 5857 0a92 A904     		.2byte	0x4a9
 5858 0a94 7A000000 		.4byte	0x7a
 5859 0a98 02       		.byte	0x2
 5860 0a99 91       		.byte	0x91
 5861 0a9a 76       		.sleb128 -10
 5862 0a9b 0B       		.uleb128 0xb
 5863 0a9c 78030000 		.4byte	.LASF55
 5864 0aa0 01       		.byte	0x1
 5865 0aa1 AA04     		.2byte	0x4aa
 5866 0aa3 7A000000 		.4byte	0x7a
 5867 0aa7 02       		.byte	0x2
 5868 0aa8 91       		.byte	0x91
 5869 0aa9 75       		.sleb128 -11
 5870 0aaa 0B       		.uleb128 0xb
 5871 0aab 42030000 		.4byte	.LASF56
 5872 0aaf 01       		.byte	0x1
 5873 0ab0 AB04     		.2byte	0x4ab
 5874 0ab2 7A000000 		.4byte	0x7a
 5875 0ab6 02       		.byte	0x2
 5876 0ab7 91       		.byte	0x91
 5877 0ab8 74       		.sleb128 -12
 5878 0ab9 0B       		.uleb128 0xb
ARM GAS  C:\Users\Brian\AppData\Local\Temp\ccoW3fAZ.s 			page 126


 5879 0aba 30000000 		.4byte	.LASF30
 5880 0abe 01       		.byte	0x1
 5881 0abf B604     		.2byte	0x4b6
 5882 0ac1 90000000 		.4byte	0x90
 5883 0ac5 02       		.byte	0x2
 5884 0ac6 91       		.byte	0x91
 5885 0ac7 70       		.sleb128 -16
 5886 0ac8 00       		.byte	0
 5887 0ac9 09       		.uleb128 0x9
 5888 0aca 01       		.byte	0x1
 5889 0acb 2D020000 		.4byte	.LASF57
 5890 0acf 01       		.byte	0x1
 5891 0ad0 C204     		.2byte	0x4c2
 5892 0ad2 01       		.byte	0x1
 5893 0ad3 00000000 		.4byte	.LFB80
 5894 0ad7 72000000 		.4byte	.LFE80
 5895 0adb 42050000 		.4byte	.LLST24
 5896 0adf 01       		.byte	0x1
 5897 0ae0 3F0B0000 		.4byte	0xb3f
 5898 0ae4 0A       		.uleb128 0xa
 5899 0ae5 64617400 		.ascii	"dat\000"
 5900 0ae9 01       		.byte	0x1
 5901 0aea C204     		.2byte	0x4c2
 5902 0aec 90000000 		.4byte	0x90
 5903 0af0 02       		.byte	0x2
 5904 0af1 91       		.byte	0x91
 5905 0af2 6C       		.sleb128 -20
 5906 0af3 0B       		.uleb128 0xb
 5907 0af4 0F010000 		.4byte	.LASF58
 5908 0af8 01       		.byte	0x1
 5909 0af9 C604     		.2byte	0x4c6
 5910 0afb 7A000000 		.4byte	0x7a
 5911 0aff 02       		.byte	0x2
 5912 0b00 91       		.byte	0x91
 5913 0b01 77       		.sleb128 -9
 5914 0b02 0B       		.uleb128 0xb
 5915 0b03 36000000 		.4byte	.LASF59
 5916 0b07 01       		.byte	0x1
 5917 0b08 C704     		.2byte	0x4c7
 5918 0b0a 7A000000 		.4byte	0x7a
 5919 0b0e 02       		.byte	0x2
 5920 0b0f 91       		.byte	0x91
 5921 0b10 76       		.sleb128 -10
 5922 0b11 0B       		.uleb128 0xb
 5923 0b12 5E000000 		.4byte	.LASF60
 5924 0b16 01       		.byte	0x1
 5925 0b17 C804     		.2byte	0x4c8
 5926 0b19 7A000000 		.4byte	0x7a
 5927 0b1d 02       		.byte	0x2
 5928 0b1e 91       		.byte	0x91
 5929 0b1f 75       		.sleb128 -11
 5930 0b20 0B       		.uleb128 0xb
 5931 0b21 3A010000 		.4byte	.LASF61
 5932 0b25 01       		.byte	0x1
 5933 0b26 C904     		.2byte	0x4c9
 5934 0b28 7A000000 		.4byte	0x7a
 5935 0b2c 02       		.byte	0x2
ARM GAS  C:\Users\Brian\AppData\Local\Temp\ccoW3fAZ.s 			page 127


 5936 0b2d 91       		.byte	0x91
 5937 0b2e 74       		.sleb128 -12
 5938 0b2f 0B       		.uleb128 0xb
 5939 0b30 BA010000 		.4byte	.LASF62
 5940 0b34 01       		.byte	0x1
 5941 0b35 D004     		.2byte	0x4d0
 5942 0b37 3F0B0000 		.4byte	0xb3f
 5943 0b3b 02       		.byte	0x2
 5944 0b3c 91       		.byte	0x91
 5945 0b3d 70       		.sleb128 -16
 5946 0b3e 00       		.byte	0
 5947 0b3f 0F       		.uleb128 0xf
 5948 0b40 7A000000 		.4byte	0x7a
 5949 0b44 4F0B0000 		.4byte	0xb4f
 5950 0b48 10       		.uleb128 0x10
 5951 0b49 B0000000 		.4byte	0xb0
 5952 0b4d 02       		.byte	0x2
 5953 0b4e 00       		.byte	0
 5954 0b4f 12       		.uleb128 0x12
 5955 0b50 55030000 		.4byte	.LASF67
 5956 0b54 04       		.byte	0x4
 5957 0b55 1606     		.2byte	0x616
 5958 0b57 5D0B0000 		.4byte	0xb5d
 5959 0b5b 01       		.byte	0x1
 5960 0b5c 01       		.byte	0x1
 5961 0b5d 13       		.uleb128 0x13
 5962 0b5e 45000000 		.4byte	0x45
 5963 0b62 00       		.byte	0
 5964              		.section	.debug_abbrev,"",%progbits
 5965              	.Ldebug_abbrev0:
 5966 0000 01       		.uleb128 0x1
 5967 0001 11       		.uleb128 0x11
 5968 0002 01       		.byte	0x1
 5969 0003 25       		.uleb128 0x25
 5970 0004 0E       		.uleb128 0xe
 5971 0005 13       		.uleb128 0x13
 5972 0006 0B       		.uleb128 0xb
 5973 0007 03       		.uleb128 0x3
 5974 0008 0E       		.uleb128 0xe
 5975 0009 1B       		.uleb128 0x1b
 5976 000a 0E       		.uleb128 0xe
 5977 000b 55       		.uleb128 0x55
 5978 000c 06       		.uleb128 0x6
 5979 000d 11       		.uleb128 0x11
 5980 000e 01       		.uleb128 0x1
 5981 000f 52       		.uleb128 0x52
 5982 0010 01       		.uleb128 0x1
 5983 0011 10       		.uleb128 0x10
 5984 0012 06       		.uleb128 0x6
 5985 0013 00       		.byte	0
 5986 0014 00       		.byte	0
 5987 0015 02       		.uleb128 0x2
 5988 0016 24       		.uleb128 0x24
 5989 0017 00       		.byte	0
 5990 0018 0B       		.uleb128 0xb
 5991 0019 0B       		.uleb128 0xb
 5992 001a 3E       		.uleb128 0x3e
ARM GAS  C:\Users\Brian\AppData\Local\Temp\ccoW3fAZ.s 			page 128


 5993 001b 0B       		.uleb128 0xb
 5994 001c 03       		.uleb128 0x3
 5995 001d 0E       		.uleb128 0xe
 5996 001e 00       		.byte	0
 5997 001f 00       		.byte	0
 5998 0020 03       		.uleb128 0x3
 5999 0021 16       		.uleb128 0x16
 6000 0022 00       		.byte	0
 6001 0023 03       		.uleb128 0x3
 6002 0024 0E       		.uleb128 0xe
 6003 0025 3A       		.uleb128 0x3a
 6004 0026 0B       		.uleb128 0xb
 6005 0027 3B       		.uleb128 0x3b
 6006 0028 0B       		.uleb128 0xb
 6007 0029 49       		.uleb128 0x49
 6008 002a 13       		.uleb128 0x13
 6009 002b 00       		.byte	0
 6010 002c 00       		.byte	0
 6011 002d 04       		.uleb128 0x4
 6012 002e 24       		.uleb128 0x24
 6013 002f 00       		.byte	0
 6014 0030 0B       		.uleb128 0xb
 6015 0031 0B       		.uleb128 0xb
 6016 0032 3E       		.uleb128 0x3e
 6017 0033 0B       		.uleb128 0xb
 6018 0034 03       		.uleb128 0x3
 6019 0035 08       		.uleb128 0x8
 6020 0036 00       		.byte	0
 6021 0037 00       		.byte	0
 6022 0038 05       		.uleb128 0x5
 6023 0039 2E       		.uleb128 0x2e
 6024 003a 01       		.byte	0x1
 6025 003b 3F       		.uleb128 0x3f
 6026 003c 0C       		.uleb128 0xc
 6027 003d 03       		.uleb128 0x3
 6028 003e 0E       		.uleb128 0xe
 6029 003f 3A       		.uleb128 0x3a
 6030 0040 0B       		.uleb128 0xb
 6031 0041 3B       		.uleb128 0x3b
 6032 0042 0B       		.uleb128 0xb
 6033 0043 27       		.uleb128 0x27
 6034 0044 0C       		.uleb128 0xc
 6035 0045 11       		.uleb128 0x11
 6036 0046 01       		.uleb128 0x1
 6037 0047 12       		.uleb128 0x12
 6038 0048 01       		.uleb128 0x1
 6039 0049 40       		.uleb128 0x40
 6040 004a 06       		.uleb128 0x6
 6041 004b 9642     		.uleb128 0x2116
 6042 004d 0C       		.uleb128 0xc
 6043 004e 01       		.uleb128 0x1
 6044 004f 13       		.uleb128 0x13
 6045 0050 00       		.byte	0
 6046 0051 00       		.byte	0
 6047 0052 06       		.uleb128 0x6
 6048 0053 05       		.uleb128 0x5
 6049 0054 00       		.byte	0
ARM GAS  C:\Users\Brian\AppData\Local\Temp\ccoW3fAZ.s 			page 129


 6050 0055 03       		.uleb128 0x3
 6051 0056 0E       		.uleb128 0xe
 6052 0057 3A       		.uleb128 0x3a
 6053 0058 0B       		.uleb128 0xb
 6054 0059 3B       		.uleb128 0x3b
 6055 005a 0B       		.uleb128 0xb
 6056 005b 49       		.uleb128 0x49
 6057 005c 13       		.uleb128 0x13
 6058 005d 02       		.uleb128 0x2
 6059 005e 0A       		.uleb128 0xa
 6060 005f 00       		.byte	0
 6061 0060 00       		.byte	0
 6062 0061 07       		.uleb128 0x7
 6063 0062 05       		.uleb128 0x5
 6064 0063 00       		.byte	0
 6065 0064 03       		.uleb128 0x3
 6066 0065 08       		.uleb128 0x8
 6067 0066 3A       		.uleb128 0x3a
 6068 0067 0B       		.uleb128 0xb
 6069 0068 3B       		.uleb128 0x3b
 6070 0069 0B       		.uleb128 0xb
 6071 006a 49       		.uleb128 0x49
 6072 006b 13       		.uleb128 0x13
 6073 006c 02       		.uleb128 0x2
 6074 006d 0A       		.uleb128 0xa
 6075 006e 00       		.byte	0
 6076 006f 00       		.byte	0
 6077 0070 08       		.uleb128 0x8
 6078 0071 34       		.uleb128 0x34
 6079 0072 00       		.byte	0
 6080 0073 03       		.uleb128 0x3
 6081 0074 0E       		.uleb128 0xe
 6082 0075 3A       		.uleb128 0x3a
 6083 0076 0B       		.uleb128 0xb
 6084 0077 3B       		.uleb128 0x3b
 6085 0078 0B       		.uleb128 0xb
 6086 0079 49       		.uleb128 0x49
 6087 007a 13       		.uleb128 0x13
 6088 007b 02       		.uleb128 0x2
 6089 007c 0A       		.uleb128 0xa
 6090 007d 00       		.byte	0
 6091 007e 00       		.byte	0
 6092 007f 09       		.uleb128 0x9
 6093 0080 2E       		.uleb128 0x2e
 6094 0081 01       		.byte	0x1
 6095 0082 3F       		.uleb128 0x3f
 6096 0083 0C       		.uleb128 0xc
 6097 0084 03       		.uleb128 0x3
 6098 0085 0E       		.uleb128 0xe
 6099 0086 3A       		.uleb128 0x3a
 6100 0087 0B       		.uleb128 0xb
 6101 0088 3B       		.uleb128 0x3b
 6102 0089 05       		.uleb128 0x5
 6103 008a 27       		.uleb128 0x27
 6104 008b 0C       		.uleb128 0xc
 6105 008c 11       		.uleb128 0x11
 6106 008d 01       		.uleb128 0x1
ARM GAS  C:\Users\Brian\AppData\Local\Temp\ccoW3fAZ.s 			page 130


 6107 008e 12       		.uleb128 0x12
 6108 008f 01       		.uleb128 0x1
 6109 0090 40       		.uleb128 0x40
 6110 0091 06       		.uleb128 0x6
 6111 0092 9642     		.uleb128 0x2116
 6112 0094 0C       		.uleb128 0xc
 6113 0095 01       		.uleb128 0x1
 6114 0096 13       		.uleb128 0x13
 6115 0097 00       		.byte	0
 6116 0098 00       		.byte	0
 6117 0099 0A       		.uleb128 0xa
 6118 009a 05       		.uleb128 0x5
 6119 009b 00       		.byte	0
 6120 009c 03       		.uleb128 0x3
 6121 009d 08       		.uleb128 0x8
 6122 009e 3A       		.uleb128 0x3a
 6123 009f 0B       		.uleb128 0xb
 6124 00a0 3B       		.uleb128 0x3b
 6125 00a1 05       		.uleb128 0x5
 6126 00a2 49       		.uleb128 0x49
 6127 00a3 13       		.uleb128 0x13
 6128 00a4 02       		.uleb128 0x2
 6129 00a5 0A       		.uleb128 0xa
 6130 00a6 00       		.byte	0
 6131 00a7 00       		.byte	0
 6132 00a8 0B       		.uleb128 0xb
 6133 00a9 34       		.uleb128 0x34
 6134 00aa 00       		.byte	0
 6135 00ab 03       		.uleb128 0x3
 6136 00ac 0E       		.uleb128 0xe
 6137 00ad 3A       		.uleb128 0x3a
 6138 00ae 0B       		.uleb128 0xb
 6139 00af 3B       		.uleb128 0x3b
 6140 00b0 05       		.uleb128 0x5
 6141 00b1 49       		.uleb128 0x49
 6142 00b2 13       		.uleb128 0x13
 6143 00b3 02       		.uleb128 0x2
 6144 00b4 0A       		.uleb128 0xa
 6145 00b5 00       		.byte	0
 6146 00b6 00       		.byte	0
 6147 00b7 0C       		.uleb128 0xc
 6148 00b8 34       		.uleb128 0x34
 6149 00b9 00       		.byte	0
 6150 00ba 03       		.uleb128 0x3
 6151 00bb 08       		.uleb128 0x8
 6152 00bc 3A       		.uleb128 0x3a
 6153 00bd 0B       		.uleb128 0xb
 6154 00be 3B       		.uleb128 0x3b
 6155 00bf 05       		.uleb128 0x5
 6156 00c0 49       		.uleb128 0x49
 6157 00c1 13       		.uleb128 0x13
 6158 00c2 02       		.uleb128 0x2
 6159 00c3 0A       		.uleb128 0xa
 6160 00c4 00       		.byte	0
 6161 00c5 00       		.byte	0
 6162 00c6 0D       		.uleb128 0xd
 6163 00c7 0B       		.uleb128 0xb
ARM GAS  C:\Users\Brian\AppData\Local\Temp\ccoW3fAZ.s 			page 131


 6164 00c8 01       		.byte	0x1
 6165 00c9 11       		.uleb128 0x11
 6166 00ca 01       		.uleb128 0x1
 6167 00cb 12       		.uleb128 0x12
 6168 00cc 01       		.uleb128 0x1
 6169 00cd 01       		.uleb128 0x1
 6170 00ce 13       		.uleb128 0x13
 6171 00cf 00       		.byte	0
 6172 00d0 00       		.byte	0
 6173 00d1 0E       		.uleb128 0xe
 6174 00d2 0B       		.uleb128 0xb
 6175 00d3 01       		.byte	0x1
 6176 00d4 11       		.uleb128 0x11
 6177 00d5 01       		.uleb128 0x1
 6178 00d6 12       		.uleb128 0x12
 6179 00d7 01       		.uleb128 0x1
 6180 00d8 00       		.byte	0
 6181 00d9 00       		.byte	0
 6182 00da 0F       		.uleb128 0xf
 6183 00db 01       		.uleb128 0x1
 6184 00dc 01       		.byte	0x1
 6185 00dd 49       		.uleb128 0x49
 6186 00de 13       		.uleb128 0x13
 6187 00df 01       		.uleb128 0x1
 6188 00e0 13       		.uleb128 0x13
 6189 00e1 00       		.byte	0
 6190 00e2 00       		.byte	0
 6191 00e3 10       		.uleb128 0x10
 6192 00e4 21       		.uleb128 0x21
 6193 00e5 00       		.byte	0
 6194 00e6 49       		.uleb128 0x49
 6195 00e7 13       		.uleb128 0x13
 6196 00e8 2F       		.uleb128 0x2f
 6197 00e9 0B       		.uleb128 0xb
 6198 00ea 00       		.byte	0
 6199 00eb 00       		.byte	0
 6200 00ec 11       		.uleb128 0x11
 6201 00ed 2E       		.uleb128 0x2e
 6202 00ee 01       		.byte	0x1
 6203 00ef 3F       		.uleb128 0x3f
 6204 00f0 0C       		.uleb128 0xc
 6205 00f1 03       		.uleb128 0x3
 6206 00f2 0E       		.uleb128 0xe
 6207 00f3 3A       		.uleb128 0x3a
 6208 00f4 0B       		.uleb128 0xb
 6209 00f5 3B       		.uleb128 0x3b
 6210 00f6 05       		.uleb128 0x5
 6211 00f7 27       		.uleb128 0x27
 6212 00f8 0C       		.uleb128 0xc
 6213 00f9 49       		.uleb128 0x49
 6214 00fa 13       		.uleb128 0x13
 6215 00fb 11       		.uleb128 0x11
 6216 00fc 01       		.uleb128 0x1
 6217 00fd 12       		.uleb128 0x12
 6218 00fe 01       		.uleb128 0x1
 6219 00ff 40       		.uleb128 0x40
 6220 0100 06       		.uleb128 0x6
ARM GAS  C:\Users\Brian\AppData\Local\Temp\ccoW3fAZ.s 			page 132


 6221 0101 9642     		.uleb128 0x2116
 6222 0103 0C       		.uleb128 0xc
 6223 0104 01       		.uleb128 0x1
 6224 0105 13       		.uleb128 0x13
 6225 0106 00       		.byte	0
 6226 0107 00       		.byte	0
 6227 0108 12       		.uleb128 0x12
 6228 0109 34       		.uleb128 0x34
 6229 010a 00       		.byte	0
 6230 010b 03       		.uleb128 0x3
 6231 010c 0E       		.uleb128 0xe
 6232 010d 3A       		.uleb128 0x3a
 6233 010e 0B       		.uleb128 0xb
 6234 010f 3B       		.uleb128 0x3b
 6235 0110 05       		.uleb128 0x5
 6236 0111 49       		.uleb128 0x49
 6237 0112 13       		.uleb128 0x13
 6238 0113 3F       		.uleb128 0x3f
 6239 0114 0C       		.uleb128 0xc
 6240 0115 3C       		.uleb128 0x3c
 6241 0116 0C       		.uleb128 0xc
 6242 0117 00       		.byte	0
 6243 0118 00       		.byte	0
 6244 0119 13       		.uleb128 0x13
 6245 011a 35       		.uleb128 0x35
 6246 011b 00       		.byte	0
 6247 011c 49       		.uleb128 0x49
 6248 011d 13       		.uleb128 0x13
 6249 011e 00       		.byte	0
 6250 011f 00       		.byte	0
 6251 0120 00       		.byte	0
 6252              		.section	.debug_loc,"",%progbits
 6253              	.Ldebug_loc0:
 6254              	.LLST0:
 6255 0000 00000000 		.4byte	.LFB56
 6256 0004 02000000 		.4byte	.LCFI0
 6257 0008 0200     		.2byte	0x2
 6258 000a 7D       		.byte	0x7d
 6259 000b 00       		.sleb128 0
 6260 000c 02000000 		.4byte	.LCFI0
 6261 0010 04000000 		.4byte	.LCFI1
 6262 0014 0200     		.2byte	0x2
 6263 0016 7D       		.byte	0x7d
 6264 0017 08       		.sleb128 8
 6265 0018 04000000 		.4byte	.LCFI1
 6266 001c 06000000 		.4byte	.LCFI2
 6267 0020 0200     		.2byte	0x2
 6268 0022 7D       		.byte	0x7d
 6269 0023 10       		.sleb128 16
 6270 0024 06000000 		.4byte	.LCFI2
 6271 0028 9E010000 		.4byte	.LFE56
 6272 002c 0200     		.2byte	0x2
 6273 002e 77       		.byte	0x77
 6274 002f 10       		.sleb128 16
 6275 0030 00000000 		.4byte	0
 6276 0034 00000000 		.4byte	0
 6277              	.LLST1:
ARM GAS  C:\Users\Brian\AppData\Local\Temp\ccoW3fAZ.s 			page 133


 6278 0038 00000000 		.4byte	.LFB57
 6279 003c 02000000 		.4byte	.LCFI3
 6280 0040 0200     		.2byte	0x2
 6281 0042 7D       		.byte	0x7d
 6282 0043 00       		.sleb128 0
 6283 0044 02000000 		.4byte	.LCFI3
 6284 0048 04000000 		.4byte	.LCFI4
 6285 004c 0200     		.2byte	0x2
 6286 004e 7D       		.byte	0x7d
 6287 004f 08       		.sleb128 8
 6288 0050 04000000 		.4byte	.LCFI4
 6289 0054 06000000 		.4byte	.LCFI5
 6290 0058 0200     		.2byte	0x2
 6291 005a 7D       		.byte	0x7d
 6292 005b 18       		.sleb128 24
 6293 005c 06000000 		.4byte	.LCFI5
 6294 0060 54010000 		.4byte	.LFE57
 6295 0064 0200     		.2byte	0x2
 6296 0066 77       		.byte	0x77
 6297 0067 18       		.sleb128 24
 6298 0068 00000000 		.4byte	0
 6299 006c 00000000 		.4byte	0
 6300              	.LLST2:
 6301 0070 00000000 		.4byte	.LFB58
 6302 0074 02000000 		.4byte	.LCFI6
 6303 0078 0200     		.2byte	0x2
 6304 007a 7D       		.byte	0x7d
 6305 007b 00       		.sleb128 0
 6306 007c 02000000 		.4byte	.LCFI6
 6307 0080 04000000 		.4byte	.LCFI7
 6308 0084 0200     		.2byte	0x2
 6309 0086 7D       		.byte	0x7d
 6310 0087 08       		.sleb128 8
 6311 0088 04000000 		.4byte	.LCFI7
 6312 008c 06000000 		.4byte	.LCFI8
 6313 0090 0200     		.2byte	0x2
 6314 0092 7D       		.byte	0x7d
 6315 0093 18       		.sleb128 24
 6316 0094 06000000 		.4byte	.LCFI8
 6317 0098 2A010000 		.4byte	.LFE58
 6318 009c 0200     		.2byte	0x2
 6319 009e 77       		.byte	0x77
 6320 009f 18       		.sleb128 24
 6321 00a0 00000000 		.4byte	0
 6322 00a4 00000000 		.4byte	0
 6323              	.LLST3:
 6324 00a8 00000000 		.4byte	.LFB59
 6325 00ac 02000000 		.4byte	.LCFI9
 6326 00b0 0200     		.2byte	0x2
 6327 00b2 7D       		.byte	0x7d
 6328 00b3 00       		.sleb128 0
 6329 00b4 02000000 		.4byte	.LCFI9
 6330 00b8 04000000 		.4byte	.LCFI10
 6331 00bc 0200     		.2byte	0x2
 6332 00be 7D       		.byte	0x7d
 6333 00bf 08       		.sleb128 8
 6334 00c0 04000000 		.4byte	.LCFI10
ARM GAS  C:\Users\Brian\AppData\Local\Temp\ccoW3fAZ.s 			page 134


 6335 00c4 06000000 		.4byte	.LCFI11
 6336 00c8 0200     		.2byte	0x2
 6337 00ca 7D       		.byte	0x7d
 6338 00cb 18       		.sleb128 24
 6339 00cc 06000000 		.4byte	.LCFI11
 6340 00d0 2A010000 		.4byte	.LFE59
 6341 00d4 0200     		.2byte	0x2
 6342 00d6 77       		.byte	0x77
 6343 00d7 18       		.sleb128 24
 6344 00d8 00000000 		.4byte	0
 6345 00dc 00000000 		.4byte	0
 6346              	.LLST4:
 6347 00e0 00000000 		.4byte	.LFB60
 6348 00e4 02000000 		.4byte	.LCFI12
 6349 00e8 0200     		.2byte	0x2
 6350 00ea 7D       		.byte	0x7d
 6351 00eb 00       		.sleb128 0
 6352 00ec 02000000 		.4byte	.LCFI12
 6353 00f0 04000000 		.4byte	.LCFI13
 6354 00f4 0200     		.2byte	0x2
 6355 00f6 7D       		.byte	0x7d
 6356 00f7 08       		.sleb128 8
 6357 00f8 04000000 		.4byte	.LCFI13
 6358 00fc 06000000 		.4byte	.LCFI14
 6359 0100 0200     		.2byte	0x2
 6360 0102 7D       		.byte	0x7d
 6361 0103 18       		.sleb128 24
 6362 0104 06000000 		.4byte	.LCFI14
 6363 0108 BC000000 		.4byte	.LFE60
 6364 010c 0200     		.2byte	0x2
 6365 010e 77       		.byte	0x77
 6366 010f 18       		.sleb128 24
 6367 0110 00000000 		.4byte	0
 6368 0114 00000000 		.4byte	0
 6369              	.LLST5:
 6370 0118 00000000 		.4byte	.LFB61
 6371 011c 02000000 		.4byte	.LCFI15
 6372 0120 0200     		.2byte	0x2
 6373 0122 7D       		.byte	0x7d
 6374 0123 00       		.sleb128 0
 6375 0124 02000000 		.4byte	.LCFI15
 6376 0128 04000000 		.4byte	.LCFI16
 6377 012c 0200     		.2byte	0x2
 6378 012e 7D       		.byte	0x7d
 6379 012f 08       		.sleb128 8
 6380 0130 04000000 		.4byte	.LCFI16
 6381 0134 06000000 		.4byte	.LCFI17
 6382 0138 0200     		.2byte	0x2
 6383 013a 7D       		.byte	0x7d
 6384 013b 18       		.sleb128 24
 6385 013c 06000000 		.4byte	.LCFI17
 6386 0140 BC000000 		.4byte	.LFE61
 6387 0144 0200     		.2byte	0x2
 6388 0146 77       		.byte	0x77
 6389 0147 18       		.sleb128 24
 6390 0148 00000000 		.4byte	0
 6391 014c 00000000 		.4byte	0
ARM GAS  C:\Users\Brian\AppData\Local\Temp\ccoW3fAZ.s 			page 135


 6392              	.LLST6:
 6393 0150 00000000 		.4byte	.LFB62
 6394 0154 02000000 		.4byte	.LCFI18
 6395 0158 0200     		.2byte	0x2
 6396 015a 7D       		.byte	0x7d
 6397 015b 00       		.sleb128 0
 6398 015c 02000000 		.4byte	.LCFI18
 6399 0160 04000000 		.4byte	.LCFI19
 6400 0164 0200     		.2byte	0x2
 6401 0166 7D       		.byte	0x7d
 6402 0167 08       		.sleb128 8
 6403 0168 04000000 		.4byte	.LCFI19
 6404 016c 06000000 		.4byte	.LCFI20
 6405 0170 0200     		.2byte	0x2
 6406 0172 7D       		.byte	0x7d
 6407 0173 18       		.sleb128 24
 6408 0174 06000000 		.4byte	.LCFI20
 6409 0178 F0000000 		.4byte	.LFE62
 6410 017c 0200     		.2byte	0x2
 6411 017e 77       		.byte	0x77
 6412 017f 18       		.sleb128 24
 6413 0180 00000000 		.4byte	0
 6414 0184 00000000 		.4byte	0
 6415              	.LLST7:
 6416 0188 00000000 		.4byte	.LFB63
 6417 018c 02000000 		.4byte	.LCFI21
 6418 0190 0200     		.2byte	0x2
 6419 0192 7D       		.byte	0x7d
 6420 0193 00       		.sleb128 0
 6421 0194 02000000 		.4byte	.LCFI21
 6422 0198 04000000 		.4byte	.LCFI22
 6423 019c 0200     		.2byte	0x2
 6424 019e 7D       		.byte	0x7d
 6425 019f 08       		.sleb128 8
 6426 01a0 04000000 		.4byte	.LCFI22
 6427 01a4 06000000 		.4byte	.LCFI23
 6428 01a8 0200     		.2byte	0x2
 6429 01aa 7D       		.byte	0x7d
 6430 01ab 18       		.sleb128 24
 6431 01ac 06000000 		.4byte	.LCFI23
 6432 01b0 D6000000 		.4byte	.LFE63
 6433 01b4 0200     		.2byte	0x2
 6434 01b6 77       		.byte	0x77
 6435 01b7 18       		.sleb128 24
 6436 01b8 00000000 		.4byte	0
 6437 01bc 00000000 		.4byte	0
 6438              	.LLST8:
 6439 01c0 00000000 		.4byte	.LFB64
 6440 01c4 02000000 		.4byte	.LCFI24
 6441 01c8 0200     		.2byte	0x2
 6442 01ca 7D       		.byte	0x7d
 6443 01cb 00       		.sleb128 0
 6444 01cc 02000000 		.4byte	.LCFI24
 6445 01d0 06000000 		.4byte	.LCFI25
 6446 01d4 0200     		.2byte	0x2
 6447 01d6 7D       		.byte	0x7d
 6448 01d7 10       		.sleb128 16
ARM GAS  C:\Users\Brian\AppData\Local\Temp\ccoW3fAZ.s 			page 136


 6449 01d8 06000000 		.4byte	.LCFI25
 6450 01dc 08000000 		.4byte	.LCFI26
 6451 01e0 0300     		.2byte	0x3
 6452 01e2 7D       		.byte	0x7d
 6453 01e3 E00C     		.sleb128 1632
 6454 01e5 08000000 		.4byte	.LCFI26
 6455 01e9 D0040000 		.4byte	.LFE64
 6456 01ed 0300     		.2byte	0x3
 6457 01ef 77       		.byte	0x77
 6458 01f0 E00C     		.sleb128 1632
 6459 01f2 00000000 		.4byte	0
 6460 01f6 00000000 		.4byte	0
 6461              	.LLST9:
 6462 01fa 00000000 		.4byte	.LFB65
 6463 01fe 02000000 		.4byte	.LCFI27
 6464 0202 0200     		.2byte	0x2
 6465 0204 7D       		.byte	0x7d
 6466 0205 00       		.sleb128 0
 6467 0206 02000000 		.4byte	.LCFI27
 6468 020a 04000000 		.4byte	.LCFI28
 6469 020e 0200     		.2byte	0x2
 6470 0210 7D       		.byte	0x7d
 6471 0211 08       		.sleb128 8
 6472 0212 04000000 		.4byte	.LCFI28
 6473 0216 06000000 		.4byte	.LCFI29
 6474 021a 0200     		.2byte	0x2
 6475 021c 7D       		.byte	0x7d
 6476 021d 18       		.sleb128 24
 6477 021e 06000000 		.4byte	.LCFI29
 6478 0222 FA000000 		.4byte	.LFE65
 6479 0226 0200     		.2byte	0x2
 6480 0228 77       		.byte	0x77
 6481 0229 18       		.sleb128 24
 6482 022a 00000000 		.4byte	0
 6483 022e 00000000 		.4byte	0
 6484              	.LLST10:
 6485 0232 00000000 		.4byte	.LFB66
 6486 0236 02000000 		.4byte	.LCFI30
 6487 023a 0200     		.2byte	0x2
 6488 023c 7D       		.byte	0x7d
 6489 023d 00       		.sleb128 0
 6490 023e 02000000 		.4byte	.LCFI30
 6491 0242 04000000 		.4byte	.LCFI31
 6492 0246 0200     		.2byte	0x2
 6493 0248 7D       		.byte	0x7d
 6494 0249 08       		.sleb128 8
 6495 024a 04000000 		.4byte	.LCFI31
 6496 024e 06000000 		.4byte	.LCFI32
 6497 0252 0200     		.2byte	0x2
 6498 0254 7D       		.byte	0x7d
 6499 0255 18       		.sleb128 24
 6500 0256 06000000 		.4byte	.LCFI32
 6501 025a FA000000 		.4byte	.LFE66
 6502 025e 0200     		.2byte	0x2
 6503 0260 77       		.byte	0x77
 6504 0261 18       		.sleb128 24
 6505 0262 00000000 		.4byte	0
ARM GAS  C:\Users\Brian\AppData\Local\Temp\ccoW3fAZ.s 			page 137


 6506 0266 00000000 		.4byte	0
 6507              	.LLST11:
 6508 026a 00000000 		.4byte	.LFB67
 6509 026e 02000000 		.4byte	.LCFI33
 6510 0272 0200     		.2byte	0x2
 6511 0274 7D       		.byte	0x7d
 6512 0275 00       		.sleb128 0
 6513 0276 02000000 		.4byte	.LCFI33
 6514 027a 04000000 		.4byte	.LCFI34
 6515 027e 0200     		.2byte	0x2
 6516 0280 7D       		.byte	0x7d
 6517 0281 08       		.sleb128 8
 6518 0282 04000000 		.4byte	.LCFI34
 6519 0286 06000000 		.4byte	.LCFI35
 6520 028a 0200     		.2byte	0x2
 6521 028c 7D       		.byte	0x7d
 6522 028d 18       		.sleb128 24
 6523 028e 06000000 		.4byte	.LCFI35
 6524 0292 FA000000 		.4byte	.LFE67
 6525 0296 0200     		.2byte	0x2
 6526 0298 77       		.byte	0x77
 6527 0299 18       		.sleb128 24
 6528 029a 00000000 		.4byte	0
 6529 029e 00000000 		.4byte	0
 6530              	.LLST12:
 6531 02a2 00000000 		.4byte	.LFB68
 6532 02a6 02000000 		.4byte	.LCFI36
 6533 02aa 0200     		.2byte	0x2
 6534 02ac 7D       		.byte	0x7d
 6535 02ad 00       		.sleb128 0
 6536 02ae 02000000 		.4byte	.LCFI36
 6537 02b2 04000000 		.4byte	.LCFI37
 6538 02b6 0200     		.2byte	0x2
 6539 02b8 7D       		.byte	0x7d
 6540 02b9 08       		.sleb128 8
 6541 02ba 04000000 		.4byte	.LCFI37
 6542 02be 06000000 		.4byte	.LCFI38
 6543 02c2 0200     		.2byte	0x2
 6544 02c4 7D       		.byte	0x7d
 6545 02c5 18       		.sleb128 24
 6546 02c6 06000000 		.4byte	.LCFI38
 6547 02ca FA000000 		.4byte	.LFE68
 6548 02ce 0200     		.2byte	0x2
 6549 02d0 77       		.byte	0x77
 6550 02d1 18       		.sleb128 24
 6551 02d2 00000000 		.4byte	0
 6552 02d6 00000000 		.4byte	0
 6553              	.LLST13:
 6554 02da 00000000 		.4byte	.LFB69
 6555 02de 02000000 		.4byte	.LCFI39
 6556 02e2 0200     		.2byte	0x2
 6557 02e4 7D       		.byte	0x7d
 6558 02e5 00       		.sleb128 0
 6559 02e6 02000000 		.4byte	.LCFI39
 6560 02ea 04000000 		.4byte	.LCFI40
 6561 02ee 0200     		.2byte	0x2
 6562 02f0 7D       		.byte	0x7d
ARM GAS  C:\Users\Brian\AppData\Local\Temp\ccoW3fAZ.s 			page 138


 6563 02f1 08       		.sleb128 8
 6564 02f2 04000000 		.4byte	.LCFI40
 6565 02f6 06000000 		.4byte	.LCFI41
 6566 02fa 0200     		.2byte	0x2
 6567 02fc 7D       		.byte	0x7d
 6568 02fd 18       		.sleb128 24
 6569 02fe 06000000 		.4byte	.LCFI41
 6570 0302 FA000000 		.4byte	.LFE69
 6571 0306 0200     		.2byte	0x2
 6572 0308 77       		.byte	0x77
 6573 0309 18       		.sleb128 24
 6574 030a 00000000 		.4byte	0
 6575 030e 00000000 		.4byte	0
 6576              	.LLST14:
 6577 0312 00000000 		.4byte	.LFB70
 6578 0316 02000000 		.4byte	.LCFI42
 6579 031a 0200     		.2byte	0x2
 6580 031c 7D       		.byte	0x7d
 6581 031d 00       		.sleb128 0
 6582 031e 02000000 		.4byte	.LCFI42
 6583 0322 04000000 		.4byte	.LCFI43
 6584 0326 0200     		.2byte	0x2
 6585 0328 7D       		.byte	0x7d
 6586 0329 08       		.sleb128 8
 6587 032a 04000000 		.4byte	.LCFI43
 6588 032e 06000000 		.4byte	.LCFI44
 6589 0332 0200     		.2byte	0x2
 6590 0334 7D       		.byte	0x7d
 6591 0335 18       		.sleb128 24
 6592 0336 06000000 		.4byte	.LCFI44
 6593 033a FA000000 		.4byte	.LFE70
 6594 033e 0200     		.2byte	0x2
 6595 0340 77       		.byte	0x77
 6596 0341 18       		.sleb128 24
 6597 0342 00000000 		.4byte	0
 6598 0346 00000000 		.4byte	0
 6599              	.LLST15:
 6600 034a 00000000 		.4byte	.LFB71
 6601 034e 02000000 		.4byte	.LCFI45
 6602 0352 0200     		.2byte	0x2
 6603 0354 7D       		.byte	0x7d
 6604 0355 00       		.sleb128 0
 6605 0356 02000000 		.4byte	.LCFI45
 6606 035a 04000000 		.4byte	.LCFI46
 6607 035e 0200     		.2byte	0x2
 6608 0360 7D       		.byte	0x7d
 6609 0361 08       		.sleb128 8
 6610 0362 04000000 		.4byte	.LCFI46
 6611 0366 06000000 		.4byte	.LCFI47
 6612 036a 0200     		.2byte	0x2
 6613 036c 7D       		.byte	0x7d
 6614 036d 18       		.sleb128 24
 6615 036e 06000000 		.4byte	.LCFI47
 6616 0372 FA000000 		.4byte	.LFE71
 6617 0376 0200     		.2byte	0x2
 6618 0378 77       		.byte	0x77
 6619 0379 18       		.sleb128 24
ARM GAS  C:\Users\Brian\AppData\Local\Temp\ccoW3fAZ.s 			page 139


 6620 037a 00000000 		.4byte	0
 6621 037e 00000000 		.4byte	0
 6622              	.LLST16:
 6623 0382 00000000 		.4byte	.LFB72
 6624 0386 02000000 		.4byte	.LCFI48
 6625 038a 0200     		.2byte	0x2
 6626 038c 7D       		.byte	0x7d
 6627 038d 00       		.sleb128 0
 6628 038e 02000000 		.4byte	.LCFI48
 6629 0392 04000000 		.4byte	.LCFI49
 6630 0396 0200     		.2byte	0x2
 6631 0398 7D       		.byte	0x7d
 6632 0399 08       		.sleb128 8
 6633 039a 04000000 		.4byte	.LCFI49
 6634 039e 06000000 		.4byte	.LCFI50
 6635 03a2 0200     		.2byte	0x2
 6636 03a4 7D       		.byte	0x7d
 6637 03a5 18       		.sleb128 24
 6638 03a6 06000000 		.4byte	.LCFI50
 6639 03aa FA000000 		.4byte	.LFE72
 6640 03ae 0200     		.2byte	0x2
 6641 03b0 77       		.byte	0x77
 6642 03b1 18       		.sleb128 24
 6643 03b2 00000000 		.4byte	0
 6644 03b6 00000000 		.4byte	0
 6645              	.LLST17:
 6646 03ba 00000000 		.4byte	.LFB73
 6647 03be 02000000 		.4byte	.LCFI51
 6648 03c2 0200     		.2byte	0x2
 6649 03c4 7D       		.byte	0x7d
 6650 03c5 00       		.sleb128 0
 6651 03c6 02000000 		.4byte	.LCFI51
 6652 03ca 04000000 		.4byte	.LCFI52
 6653 03ce 0200     		.2byte	0x2
 6654 03d0 7D       		.byte	0x7d
 6655 03d1 08       		.sleb128 8
 6656 03d2 04000000 		.4byte	.LCFI52
 6657 03d6 06000000 		.4byte	.LCFI53
 6658 03da 0200     		.2byte	0x2
 6659 03dc 7D       		.byte	0x7d
 6660 03dd 18       		.sleb128 24
 6661 03de 06000000 		.4byte	.LCFI53
 6662 03e2 40000000 		.4byte	.LFE73
 6663 03e6 0200     		.2byte	0x2
 6664 03e8 77       		.byte	0x77
 6665 03e9 18       		.sleb128 24
 6666 03ea 00000000 		.4byte	0
 6667 03ee 00000000 		.4byte	0
 6668              	.LLST18:
 6669 03f2 00000000 		.4byte	.LFB74
 6670 03f6 02000000 		.4byte	.LCFI54
 6671 03fa 0200     		.2byte	0x2
 6672 03fc 7D       		.byte	0x7d
 6673 03fd 00       		.sleb128 0
 6674 03fe 02000000 		.4byte	.LCFI54
 6675 0402 04000000 		.4byte	.LCFI55
 6676 0406 0200     		.2byte	0x2
ARM GAS  C:\Users\Brian\AppData\Local\Temp\ccoW3fAZ.s 			page 140


 6677 0408 7D       		.byte	0x7d
 6678 0409 08       		.sleb128 8
 6679 040a 04000000 		.4byte	.LCFI55
 6680 040e 06000000 		.4byte	.LCFI56
 6681 0412 0200     		.2byte	0x2
 6682 0414 7D       		.byte	0x7d
 6683 0415 18       		.sleb128 24
 6684 0416 06000000 		.4byte	.LCFI56
 6685 041a 40000000 		.4byte	.LFE74
 6686 041e 0200     		.2byte	0x2
 6687 0420 77       		.byte	0x77
 6688 0421 18       		.sleb128 24
 6689 0422 00000000 		.4byte	0
 6690 0426 00000000 		.4byte	0
 6691              	.LLST19:
 6692 042a 00000000 		.4byte	.LFB75
 6693 042e 02000000 		.4byte	.LCFI57
 6694 0432 0200     		.2byte	0x2
 6695 0434 7D       		.byte	0x7d
 6696 0435 00       		.sleb128 0
 6697 0436 02000000 		.4byte	.LCFI57
 6698 043a 04000000 		.4byte	.LCFI58
 6699 043e 0200     		.2byte	0x2
 6700 0440 7D       		.byte	0x7d
 6701 0441 08       		.sleb128 8
 6702 0442 04000000 		.4byte	.LCFI58
 6703 0446 06000000 		.4byte	.LCFI59
 6704 044a 0200     		.2byte	0x2
 6705 044c 7D       		.byte	0x7d
 6706 044d 18       		.sleb128 24
 6707 044e 06000000 		.4byte	.LCFI59
 6708 0452 40000000 		.4byte	.LFE75
 6709 0456 0200     		.2byte	0x2
 6710 0458 77       		.byte	0x77
 6711 0459 18       		.sleb128 24
 6712 045a 00000000 		.4byte	0
 6713 045e 00000000 		.4byte	0
 6714              	.LLST20:
 6715 0462 00000000 		.4byte	.LFB76
 6716 0466 02000000 		.4byte	.LCFI60
 6717 046a 0200     		.2byte	0x2
 6718 046c 7D       		.byte	0x7d
 6719 046d 00       		.sleb128 0
 6720 046e 02000000 		.4byte	.LCFI60
 6721 0472 04000000 		.4byte	.LCFI61
 6722 0476 0200     		.2byte	0x2
 6723 0478 7D       		.byte	0x7d
 6724 0479 08       		.sleb128 8
 6725 047a 04000000 		.4byte	.LCFI61
 6726 047e 06000000 		.4byte	.LCFI62
 6727 0482 0200     		.2byte	0x2
 6728 0484 7D       		.byte	0x7d
 6729 0485 18       		.sleb128 24
 6730 0486 06000000 		.4byte	.LCFI62
 6731 048a 56000000 		.4byte	.LFE76
 6732 048e 0200     		.2byte	0x2
 6733 0490 77       		.byte	0x77
ARM GAS  C:\Users\Brian\AppData\Local\Temp\ccoW3fAZ.s 			page 141


 6734 0491 18       		.sleb128 24
 6735 0492 00000000 		.4byte	0
 6736 0496 00000000 		.4byte	0
 6737              	.LLST21:
 6738 049a 00000000 		.4byte	.LFB77
 6739 049e 02000000 		.4byte	.LCFI63
 6740 04a2 0200     		.2byte	0x2
 6741 04a4 7D       		.byte	0x7d
 6742 04a5 00       		.sleb128 0
 6743 04a6 02000000 		.4byte	.LCFI63
 6744 04aa 04000000 		.4byte	.LCFI64
 6745 04ae 0200     		.2byte	0x2
 6746 04b0 7D       		.byte	0x7d
 6747 04b1 08       		.sleb128 8
 6748 04b2 04000000 		.4byte	.LCFI64
 6749 04b6 06000000 		.4byte	.LCFI65
 6750 04ba 0200     		.2byte	0x2
 6751 04bc 7D       		.byte	0x7d
 6752 04bd 18       		.sleb128 24
 6753 04be 06000000 		.4byte	.LCFI65
 6754 04c2 56000000 		.4byte	.LFE77
 6755 04c6 0200     		.2byte	0x2
 6756 04c8 77       		.byte	0x77
 6757 04c9 18       		.sleb128 24
 6758 04ca 00000000 		.4byte	0
 6759 04ce 00000000 		.4byte	0
 6760              	.LLST22:
 6761 04d2 00000000 		.4byte	.LFB78
 6762 04d6 02000000 		.4byte	.LCFI66
 6763 04da 0200     		.2byte	0x2
 6764 04dc 7D       		.byte	0x7d
 6765 04dd 00       		.sleb128 0
 6766 04de 02000000 		.4byte	.LCFI66
 6767 04e2 04000000 		.4byte	.LCFI67
 6768 04e6 0200     		.2byte	0x2
 6769 04e8 7D       		.byte	0x7d
 6770 04e9 08       		.sleb128 8
 6771 04ea 04000000 		.4byte	.LCFI67
 6772 04ee 06000000 		.4byte	.LCFI68
 6773 04f2 0200     		.2byte	0x2
 6774 04f4 7D       		.byte	0x7d
 6775 04f5 18       		.sleb128 24
 6776 04f6 06000000 		.4byte	.LCFI68
 6777 04fa 56000000 		.4byte	.LFE78
 6778 04fe 0200     		.2byte	0x2
 6779 0500 77       		.byte	0x77
 6780 0501 18       		.sleb128 24
 6781 0502 00000000 		.4byte	0
 6782 0506 00000000 		.4byte	0
 6783              	.LLST23:
 6784 050a 00000000 		.4byte	.LFB79
 6785 050e 02000000 		.4byte	.LCFI69
 6786 0512 0200     		.2byte	0x2
 6787 0514 7D       		.byte	0x7d
 6788 0515 00       		.sleb128 0
 6789 0516 02000000 		.4byte	.LCFI69
 6790 051a 04000000 		.4byte	.LCFI70
ARM GAS  C:\Users\Brian\AppData\Local\Temp\ccoW3fAZ.s 			page 142


 6791 051e 0200     		.2byte	0x2
 6792 0520 7D       		.byte	0x7d
 6793 0521 08       		.sleb128 8
 6794 0522 04000000 		.4byte	.LCFI70
 6795 0526 06000000 		.4byte	.LCFI71
 6796 052a 0200     		.2byte	0x2
 6797 052c 7D       		.byte	0x7d
 6798 052d 10       		.sleb128 16
 6799 052e 06000000 		.4byte	.LCFI71
 6800 0532 96000000 		.4byte	.LFE79
 6801 0536 0200     		.2byte	0x2
 6802 0538 77       		.byte	0x77
 6803 0539 10       		.sleb128 16
 6804 053a 00000000 		.4byte	0
 6805 053e 00000000 		.4byte	0
 6806              	.LLST24:
 6807 0542 00000000 		.4byte	.LFB80
 6808 0546 02000000 		.4byte	.LCFI72
 6809 054a 0200     		.2byte	0x2
 6810 054c 7D       		.byte	0x7d
 6811 054d 00       		.sleb128 0
 6812 054e 02000000 		.4byte	.LCFI72
 6813 0552 04000000 		.4byte	.LCFI73
 6814 0556 0200     		.2byte	0x2
 6815 0558 7D       		.byte	0x7d
 6816 0559 08       		.sleb128 8
 6817 055a 04000000 		.4byte	.LCFI73
 6818 055e 06000000 		.4byte	.LCFI74
 6819 0562 0200     		.2byte	0x2
 6820 0564 7D       		.byte	0x7d
 6821 0565 18       		.sleb128 24
 6822 0566 06000000 		.4byte	.LCFI74
 6823 056a 72000000 		.4byte	.LFE80
 6824 056e 0200     		.2byte	0x2
 6825 0570 77       		.byte	0x77
 6826 0571 18       		.sleb128 24
 6827 0572 00000000 		.4byte	0
 6828 0576 00000000 		.4byte	0
 6829              		.section	.debug_aranges,"",%progbits
 6830 0000 DC000000 		.4byte	0xdc
 6831 0004 0200     		.2byte	0x2
 6832 0006 00000000 		.4byte	.Ldebug_info0
 6833 000a 04       		.byte	0x4
 6834 000b 00       		.byte	0
 6835 000c 0000     		.2byte	0
 6836 000e 0000     		.2byte	0
 6837 0010 00000000 		.4byte	.LFB56
 6838 0014 9E010000 		.4byte	.LFE56-.LFB56
 6839 0018 00000000 		.4byte	.LFB57
 6840 001c 54010000 		.4byte	.LFE57-.LFB57
 6841 0020 00000000 		.4byte	.LFB58
 6842 0024 2A010000 		.4byte	.LFE58-.LFB58
 6843 0028 00000000 		.4byte	.LFB59
 6844 002c 2A010000 		.4byte	.LFE59-.LFB59
 6845 0030 00000000 		.4byte	.LFB60
 6846 0034 BC000000 		.4byte	.LFE60-.LFB60
 6847 0038 00000000 		.4byte	.LFB61
ARM GAS  C:\Users\Brian\AppData\Local\Temp\ccoW3fAZ.s 			page 143


 6848 003c BC000000 		.4byte	.LFE61-.LFB61
 6849 0040 00000000 		.4byte	.LFB62
 6850 0044 F0000000 		.4byte	.LFE62-.LFB62
 6851 0048 00000000 		.4byte	.LFB63
 6852 004c D6000000 		.4byte	.LFE63-.LFB63
 6853 0050 00000000 		.4byte	.LFB64
 6854 0054 D0040000 		.4byte	.LFE64-.LFB64
 6855 0058 00000000 		.4byte	.LFB65
 6856 005c FA000000 		.4byte	.LFE65-.LFB65
 6857 0060 00000000 		.4byte	.LFB66
 6858 0064 FA000000 		.4byte	.LFE66-.LFB66
 6859 0068 00000000 		.4byte	.LFB67
 6860 006c FA000000 		.4byte	.LFE67-.LFB67
 6861 0070 00000000 		.4byte	.LFB68
 6862 0074 FA000000 		.4byte	.LFE68-.LFB68
 6863 0078 00000000 		.4byte	.LFB69
 6864 007c FA000000 		.4byte	.LFE69-.LFB69
 6865 0080 00000000 		.4byte	.LFB70
 6866 0084 FA000000 		.4byte	.LFE70-.LFB70
 6867 0088 00000000 		.4byte	.LFB71
 6868 008c FA000000 		.4byte	.LFE71-.LFB71
 6869 0090 00000000 		.4byte	.LFB72
 6870 0094 FA000000 		.4byte	.LFE72-.LFB72
 6871 0098 00000000 		.4byte	.LFB73
 6872 009c 40000000 		.4byte	.LFE73-.LFB73
 6873 00a0 00000000 		.4byte	.LFB74
 6874 00a4 40000000 		.4byte	.LFE74-.LFB74
 6875 00a8 00000000 		.4byte	.LFB75
 6876 00ac 40000000 		.4byte	.LFE75-.LFB75
 6877 00b0 00000000 		.4byte	.LFB76
 6878 00b4 56000000 		.4byte	.LFE76-.LFB76
 6879 00b8 00000000 		.4byte	.LFB77
 6880 00bc 56000000 		.4byte	.LFE77-.LFB77
 6881 00c0 00000000 		.4byte	.LFB78
 6882 00c4 56000000 		.4byte	.LFE78-.LFB78
 6883 00c8 00000000 		.4byte	.LFB79
 6884 00cc 96000000 		.4byte	.LFE79-.LFB79
 6885 00d0 00000000 		.4byte	.LFB80
 6886 00d4 72000000 		.4byte	.LFE80-.LFB80
 6887 00d8 00000000 		.4byte	0
 6888 00dc 00000000 		.4byte	0
 6889              		.section	.debug_ranges,"",%progbits
 6890              	.Ldebug_ranges0:
 6891 0000 00000000 		.4byte	.LFB56
 6892 0004 9E010000 		.4byte	.LFE56
 6893 0008 00000000 		.4byte	.LFB57
 6894 000c 54010000 		.4byte	.LFE57
 6895 0010 00000000 		.4byte	.LFB58
 6896 0014 2A010000 		.4byte	.LFE58
 6897 0018 00000000 		.4byte	.LFB59
 6898 001c 2A010000 		.4byte	.LFE59
 6899 0020 00000000 		.4byte	.LFB60
 6900 0024 BC000000 		.4byte	.LFE60
 6901 0028 00000000 		.4byte	.LFB61
 6902 002c BC000000 		.4byte	.LFE61
 6903 0030 00000000 		.4byte	.LFB62
 6904 0034 F0000000 		.4byte	.LFE62
ARM GAS  C:\Users\Brian\AppData\Local\Temp\ccoW3fAZ.s 			page 144


 6905 0038 00000000 		.4byte	.LFB63
 6906 003c D6000000 		.4byte	.LFE63
 6907 0040 00000000 		.4byte	.LFB64
 6908 0044 D0040000 		.4byte	.LFE64
 6909 0048 00000000 		.4byte	.LFB65
 6910 004c FA000000 		.4byte	.LFE65
 6911 0050 00000000 		.4byte	.LFB66
 6912 0054 FA000000 		.4byte	.LFE66
 6913 0058 00000000 		.4byte	.LFB67
 6914 005c FA000000 		.4byte	.LFE67
 6915 0060 00000000 		.4byte	.LFB68
 6916 0064 FA000000 		.4byte	.LFE68
 6917 0068 00000000 		.4byte	.LFB69
 6918 006c FA000000 		.4byte	.LFE69
 6919 0070 00000000 		.4byte	.LFB70
 6920 0074 FA000000 		.4byte	.LFE70
 6921 0078 00000000 		.4byte	.LFB71
 6922 007c FA000000 		.4byte	.LFE71
 6923 0080 00000000 		.4byte	.LFB72
 6924 0084 FA000000 		.4byte	.LFE72
 6925 0088 00000000 		.4byte	.LFB73
 6926 008c 40000000 		.4byte	.LFE73
 6927 0090 00000000 		.4byte	.LFB74
 6928 0094 40000000 		.4byte	.LFE74
 6929 0098 00000000 		.4byte	.LFB75
 6930 009c 40000000 		.4byte	.LFE75
 6931 00a0 00000000 		.4byte	.LFB76
 6932 00a4 56000000 		.4byte	.LFE76
 6933 00a8 00000000 		.4byte	.LFB77
 6934 00ac 56000000 		.4byte	.LFE77
 6935 00b0 00000000 		.4byte	.LFB78
 6936 00b4 56000000 		.4byte	.LFE78
 6937 00b8 00000000 		.4byte	.LFB79
 6938 00bc 96000000 		.4byte	.LFE79
 6939 00c0 00000000 		.4byte	.LFB80
 6940 00c4 72000000 		.4byte	.LFE80
 6941 00c8 00000000 		.4byte	0
 6942 00cc 00000000 		.4byte	0
 6943              		.section	.debug_line,"",%progbits
 6944              	.Ldebug_line0:
 6945 0000 6B050000 		.section	.debug_str,"MS",%progbits,1
 6945      0200F900 
 6945      00000201 
 6945      FB0E0D00 
 6945      01010101 
 6946              	.LASF28:
 6947 0000 57415645 		.ascii	"WAVEDAC_Control\000"
 6947      4441435F 
 6947      436F6E74 
 6947      726F6C00 
 6948              	.LASF20:
 6949 0010 72657375 		.ascii	"result\000"
 6949      6C7400
 6950              	.LASF50:
 6951 0017 496E7075 		.ascii	"Input_Control1\000"
 6951      745F436F 
 6951      6E74726F 
ARM GAS  C:\Users\Brian\AppData\Local\Temp\ccoW3fAZ.s 			page 145


 6951      6C3100
 6952              	.LASF2:
 6953 0026 73686F72 		.ascii	"short int\000"
 6953      7420696E 
 6953      7400
 6954              	.LASF30:
 6955 0030 696E7075 		.ascii	"input\000"
 6955      7400
 6956              	.LASF59:
 6957 0036 6F75745F 		.ascii	"out_mid_hi\000"
 6957      6D69645F 
 6957      686900
 6958              	.LASF16:
 6959 0041 73697A65 		.ascii	"sizetype\000"
 6959      74797065 
 6959      00
 6960              	.LASF37:
 6961 004a 53415754 		.ascii	"SAWTOOTHWave\000"
 6961      4F4F5448 
 6961      57617665 
 6961      00
 6962              	.LASF40:
 6963 0057 6E657756 		.ascii	"newVal\000"
 6963      616C00
 6964              	.LASF60:
 6965 005e 6F75745F 		.ascii	"out_mid_lo\000"
 6965      6D69645F 
 6965      6C6F00
 6966              	.LASF29:
 6967 0069 47656E65 		.ascii	"Generate_Wave\000"
 6967      72617465 
 6967      5F576176 
 6967      6500
 6968              	.LASF49:
 6969 0077 496E7075 		.ascii	"Input_Control0\000"
 6969      745F436F 
 6969      6E74726F 
 6969      6C3000
 6970              	.LASF11:
 6971 0086 75696E74 		.ascii	"uint16\000"
 6971      313600
 6972              	.LASF51:
 6973 008d 496E7075 		.ascii	"Input_Control2\000"
 6973      745F436F 
 6973      6E74726F 
 6973      6C3200
 6974              	.LASF24:
 6975 009c 53415231 		.ascii	"SAR1_ADC_Control\000"
 6975      5F414443 
 6975      5F436F6E 
 6975      74726F6C 
 6975      00
 6976              	.LASF52:
 6977 00ad 4F757470 		.ascii	"Output_Control0\000"
 6977      75745F43 
 6977      6F6E7472 
 6977      6F6C3000 
ARM GAS  C:\Users\Brian\AppData\Local\Temp\ccoW3fAZ.s 			page 146


 6978              	.LASF53:
 6979 00bd 4F757470 		.ascii	"Output_Control1\000"
 6979      75745F43 
 6979      6F6E7472 
 6979      6F6C3100 
 6980              	.LASF54:
 6981 00cd 4F757470 		.ascii	"Output_Control2\000"
 6981      75745F43 
 6981      6F6E7472 
 6981      6F6C3200 
 6982              	.LASF66:
 6983 00dd 52656164 		.ascii	"ReadFrom_Pi\000"
 6983      46726F6D 
 6983      5F506900 
 6984              	.LASF64:
 6985 00e9 2E5C6D65 		.ascii	".\\mem1.c\000"
 6985      6D312E63 
 6985      00
 6986              	.LASF13:
 6987 00f2 666C6F61 		.ascii	"float\000"
 6987      7400
 6988              	.LASF18:
 6989 00f8 72656164 		.ascii	"readData\000"
 6989      44617461 
 6989      00
 6990              	.LASF6:
 6991 0101 6C6F6E67 		.ascii	"long long int\000"
 6991      206C6F6E 
 6991      6720696E 
 6991      7400
 6992              	.LASF58:
 6993 010f 6F75745F 		.ascii	"out_hi\000"
 6993      686900
 6994              	.LASF36:
 6995 0116 54524941 		.ascii	"TRIANGLEWave\000"
 6995      4E474C45 
 6995      57617665 
 6995      00
 6996              	.LASF4:
 6997 0123 6C6F6E67 		.ascii	"long int\000"
 6997      20696E74 
 6997      00
 6998              	.LASF17:
 6999 012c 61646472 		.ascii	"addr\000"
 6999      00
 7000              	.LASF31:
 7001 0131 77617665 		.ascii	"waveType\000"
 7001      54797065 
 7001      00
 7002              	.LASF61:
 7003 013a 6F75745F 		.ascii	"out_lo\000"
 7003      6C6F00
 7004              	.LASF41:
 7005 0141 50574D5F 		.ascii	"PWM_Control_0\000"
 7005      436F6E74 
 7005      726F6C5F 
 7005      3000
ARM GAS  C:\Users\Brian\AppData\Local\Temp\ccoW3fAZ.s 			page 147


 7006              	.LASF42:
 7007 014f 50574D5F 		.ascii	"PWM_Control_1\000"
 7007      436F6E74 
 7007      726F6C5F 
 7007      3100
 7008              	.LASF43:
 7009 015d 50574D5F 		.ascii	"PWM_Control_2\000"
 7009      436F6E74 
 7009      726F6C5F 
 7009      3200
 7010              	.LASF44:
 7011 016b 50574D5F 		.ascii	"PWM_Control_3\000"
 7011      436F6E74 
 7011      726F6C5F 
 7011      3300
 7012              	.LASF45:
 7013 0179 50574D5F 		.ascii	"PWM_Control_4\000"
 7013      436F6E74 
 7013      726F6C5F 
 7013      3400
 7014              	.LASF46:
 7015 0187 50574D5F 		.ascii	"PWM_Control_5\000"
 7015      436F6E74 
 7015      726F6C5F 
 7015      3500
 7016              	.LASF47:
 7017 0195 50574D5F 		.ascii	"PWM_Control_6\000"
 7017      436F6E74 
 7017      726F6C5F 
 7017      3600
 7018              	.LASF23:
 7019 01a3 53415230 		.ascii	"SAR0_ADC_Control\000"
 7019      5F414443 
 7019      5F436F6E 
 7019      74726F6C 
 7019      00
 7020              	.LASF10:
 7021 01b4 75696E74 		.ascii	"uint8\000"
 7021      3800
 7022              	.LASF62:
 7023 01ba 5350495F 		.ascii	"SPI_buffer\000"
 7023      62756666 
 7023      657200
 7024              	.LASF1:
 7025 01c5 756E7369 		.ascii	"unsigned char\000"
 7025      676E6564 
 7025      20636861 
 7025      7200
 7026              	.LASF0:
 7027 01d3 7369676E 		.ascii	"signed char\000"
 7027      65642063 
 7027      68617200 
 7028              	.LASF7:
 7029 01df 6C6F6E67 		.ascii	"long long unsigned int\000"
 7029      206C6F6E 
 7029      6720756E 
 7029      7369676E 
ARM GAS  C:\Users\Brian\AppData\Local\Temp\ccoW3fAZ.s 			page 148


 7029      65642069 
 7030              	.LASF25:
 7031 01f6 56444143 		.ascii	"VDAC0_Control\000"
 7031      305F436F 
 7031      6E74726F 
 7031      6C00
 7032              	.LASF8:
 7033 0204 756E7369 		.ascii	"unsigned int\000"
 7033      676E6564 
 7033      20696E74 
 7033      00
 7034              	.LASF27:
 7035 0211 49444143 		.ascii	"IDAC0_Control\000"
 7035      305F436F 
 7035      6E74726F 
 7035      6C00
 7036              	.LASF26:
 7037 021f 56444143 		.ascii	"VDAC1_Control\000"
 7037      315F436F 
 7037      6E74726F 
 7037      6C00
 7038              	.LASF57:
 7039 022d 57726974 		.ascii	"WriteTo_Pi\000"
 7039      65546F5F 
 7039      506900
 7040              	.LASF3:
 7041 0238 73686F72 		.ascii	"short unsigned int\000"
 7041      7420756E 
 7041      7369676E 
 7041      65642069 
 7041      6E7400
 7042              	.LASF15:
 7043 024b 63686172 		.ascii	"char\000"
 7043      00
 7044              	.LASF9:
 7045 0250 696E7433 		.ascii	"int32_t\000"
 7045      325F7400 
 7046              	.LASF22:
 7047 0258 5F426F6F 		.ascii	"_Bool\000"
 7047      6C00
 7048              	.LASF34:
 7049 025e 53494E45 		.ascii	"SINEWave\000"
 7049      57617665 
 7049      00
 7050              	.LASF19:
 7051 0267 44454C53 		.ascii	"DELSIG_ADC_Control\000"
 7051      49475F41 
 7051      44435F43 
 7051      6F6E7472 
 7051      6F6C00
 7052              	.LASF21:
 7053 027a 72657475 		.ascii	"return_flag\000"
 7053      726E5F66 
 7053      6C616700 
 7054              	.LASF39:
 7055 0286 5A65726F 		.ascii	"Zeroes\000"
 7055      657300
ARM GAS  C:\Users\Brian\AppData\Local\Temp\ccoW3fAZ.s 			page 149


 7056              	.LASF12:
 7057 028d 75696E74 		.ascii	"uint32\000"
 7057      333200
 7058              	.LASF5:
 7059 0294 6C6F6E67 		.ascii	"long unsigned int\000"
 7059      20756E73 
 7059      69676E65 
 7059      6420696E 
 7059      7400
 7060              	.LASF14:
 7061 02a6 646F7562 		.ascii	"double\000"
 7061      6C6500
 7062              	.LASF63:
 7063 02ad 474E5520 		.ascii	"GNU C 4.7.3 20130312 (release) [ARM/embedded-4_7-br"
 7063      4320342E 
 7063      372E3320 
 7063      32303133 
 7063      30333132 
 7064 02e0 616E6368 		.ascii	"anch revision 196615]\000"
 7064      20726576 
 7064      6973696F 
 7064      6E203139 
 7064      36363135 
 7065              	.LASF65:
 7066 02f6 433A5C55 		.ascii	"C:\\Users\\Brian\\Dropbox\\RPiSoC\\Projects\\PSoC_2"
 7066      73657273 
 7066      5C427269 
 7066      616E5C44 
 7066      726F7062 
 7067 0323 5F50695C 		.ascii	"_Pi\\PSoC_2_Pi.cydsn\000"
 7067      50536F43 
 7067      5F325F50 
 7067      692E6379 
 7067      64736E00 
 7068              	.LASF35:
 7069 0337 53515541 		.ascii	"SQUAREWave\000"
 7069      52455761 
 7069      766500
 7070              	.LASF56:
 7071 0342 6461745F 		.ascii	"dat_hi\000"
 7071      686900
 7072              	.LASF33:
 7073 0349 6463425F 		.ascii	"dcB_h\000"
 7073      6800
 7074              	.LASF32:
 7075 034f 6463425F 		.ascii	"dcB_l\000"
 7075      6C00
 7076              	.LASF67:
 7077 0355 49544D5F 		.ascii	"ITM_RxBuffer\000"
 7077      52784275 
 7077      66666572 
 7077      00
 7078              	.LASF38:
 7079 0362 6E657757 		.ascii	"newWave\000"
 7079      61766500 
 7080              	.LASF48:
 7081 036a 50574D5F 		.ascii	"PWM_Control_7\000"
ARM GAS  C:\Users\Brian\AppData\Local\Temp\ccoW3fAZ.s 			page 150


 7081      436F6E74 
 7081      726F6C5F 
 7081      3700
 7082              	.LASF55:
 7083 0378 6461745F 		.ascii	"dat_lo\000"
 7083      6C6F00
 7084              		.ident	"GCC: (GNU Tools for ARM Embedded Processors) 4.7.3 20130312 (release) [ARM/embedded-4_7-br
