ARM GAS  C:\Users\Brian\AppData\Local\Temp\cccja0gp.s 			page 1


   1              		.syntax unified
   2              		.cpu cortex-m3
   3              		.fpu softvfp
   4              		.eabi_attribute 20, 1
   5              		.eabi_attribute 21, 1
   6              		.eabi_attribute 23, 3
   7              		.eabi_attribute 24, 1
   8              		.eabi_attribute 25, 1
   9              		.eabi_attribute 26, 1
  10              		.eabi_attribute 30, 6
  11              		.eabi_attribute 34, 1
  12              		.eabi_attribute 18, 4
  13              		.thumb
  14              		.file	"Opamp_1_PM.c"
  15              		.text
  16              	.Ltext0:
  17              		.cfi_sections	.debug_frame
  18              		.bss
  19              		.align	2
  20              	Opamp_1_backup:
  21 0000 00       		.space	1
  22 0001 000000   		.section	.text.Opamp_1_SaveConfig,"ax",%progbits
  23              		.align	2
  24              		.global	Opamp_1_SaveConfig
  25              		.thumb
  26              		.thumb_func
  27              		.type	Opamp_1_SaveConfig, %function
  28              	Opamp_1_SaveConfig:
  29              	.LFB0:
  30              		.file 1 ".\\Generated_Source\\PSoC5\\Opamp_1_PM.c"
   1:.\Generated_Source\PSoC5/Opamp_1_PM.c **** /*******************************************************************************
   2:.\Generated_Source\PSoC5/Opamp_1_PM.c **** * File Name: Opamp_1_PM.c
   3:.\Generated_Source\PSoC5/Opamp_1_PM.c **** * Version 1.90
   4:.\Generated_Source\PSoC5/Opamp_1_PM.c **** *
   5:.\Generated_Source\PSoC5/Opamp_1_PM.c **** * Description:
   6:.\Generated_Source\PSoC5/Opamp_1_PM.c **** *  This file provides the power management source code to the API for the 
   7:.\Generated_Source\PSoC5/Opamp_1_PM.c **** *  OpAmp (Analog Buffer) component.
   8:.\Generated_Source\PSoC5/Opamp_1_PM.c **** *
   9:.\Generated_Source\PSoC5/Opamp_1_PM.c **** * Note:
  10:.\Generated_Source\PSoC5/Opamp_1_PM.c **** *
  11:.\Generated_Source\PSoC5/Opamp_1_PM.c **** ********************************************************************************
  12:.\Generated_Source\PSoC5/Opamp_1_PM.c **** * Copyright 2008-2012, Cypress Semiconductor Corporation.  All rights reserved.
  13:.\Generated_Source\PSoC5/Opamp_1_PM.c **** * You may use this file only in accordance with the license, terms, conditions, 
  14:.\Generated_Source\PSoC5/Opamp_1_PM.c **** * disclaimers, and limitations in the end user license agreement accompanying 
  15:.\Generated_Source\PSoC5/Opamp_1_PM.c **** * the software package with which this file was provided.
  16:.\Generated_Source\PSoC5/Opamp_1_PM.c **** *******************************************************************************/
  17:.\Generated_Source\PSoC5/Opamp_1_PM.c **** 
  18:.\Generated_Source\PSoC5/Opamp_1_PM.c **** #include "Opamp_1.h"
  19:.\Generated_Source\PSoC5/Opamp_1_PM.c **** 
  20:.\Generated_Source\PSoC5/Opamp_1_PM.c **** static Opamp_1_BACKUP_STRUCT  Opamp_1_backup;
  21:.\Generated_Source\PSoC5/Opamp_1_PM.c **** 
  22:.\Generated_Source\PSoC5/Opamp_1_PM.c **** 
  23:.\Generated_Source\PSoC5/Opamp_1_PM.c **** /*******************************************************************************  
  24:.\Generated_Source\PSoC5/Opamp_1_PM.c **** * Function Name: Opamp_1_SaveConfig
  25:.\Generated_Source\PSoC5/Opamp_1_PM.c **** ********************************************************************************
  26:.\Generated_Source\PSoC5/Opamp_1_PM.c **** *
  27:.\Generated_Source\PSoC5/Opamp_1_PM.c **** * Summary:
ARM GAS  C:\Users\Brian\AppData\Local\Temp\cccja0gp.s 			page 2


  28:.\Generated_Source\PSoC5/Opamp_1_PM.c **** *  Saves the current user configuration registers.
  29:.\Generated_Source\PSoC5/Opamp_1_PM.c **** * 
  30:.\Generated_Source\PSoC5/Opamp_1_PM.c **** * Parameters:
  31:.\Generated_Source\PSoC5/Opamp_1_PM.c **** *  void
  32:.\Generated_Source\PSoC5/Opamp_1_PM.c **** * 
  33:.\Generated_Source\PSoC5/Opamp_1_PM.c **** * Return:
  34:.\Generated_Source\PSoC5/Opamp_1_PM.c **** *  void
  35:.\Generated_Source\PSoC5/Opamp_1_PM.c **** *
  36:.\Generated_Source\PSoC5/Opamp_1_PM.c **** *******************************************************************************/
  37:.\Generated_Source\PSoC5/Opamp_1_PM.c **** void Opamp_1_SaveConfig(void) 
  38:.\Generated_Source\PSoC5/Opamp_1_PM.c **** {
  31              		.loc 1 38 0
  32              		.cfi_startproc
  33              		@ args = 0, pretend = 0, frame = 0
  34              		@ frame_needed = 1, uses_anonymous_args = 0
  35              		@ link register save eliminated.
  36 0000 80B4     		push	{r7}
  37              	.LCFI0:
  38              		.cfi_def_cfa_offset 4
  39              		.cfi_offset 7, -4
  40 0002 00AF     		add	r7, sp, #0
  41              	.LCFI1:
  42              		.cfi_def_cfa_register 7
  39:.\Generated_Source\PSoC5/Opamp_1_PM.c ****     /* Nothing to save as registers are System reset on retention flops */
  40:.\Generated_Source\PSoC5/Opamp_1_PM.c **** }
  43              		.loc 1 40 0
  44 0004 BD46     		mov	sp, r7
  45 0006 80BC     		pop	{r7}
  46 0008 7047     		bx	lr
  47              		.cfi_endproc
  48              	.LFE0:
  49              		.size	Opamp_1_SaveConfig, .-Opamp_1_SaveConfig
  50 000a 00BF     		.section	.text.Opamp_1_RestoreConfig,"ax",%progbits
  51              		.align	2
  52              		.global	Opamp_1_RestoreConfig
  53              		.thumb
  54              		.thumb_func
  55              		.type	Opamp_1_RestoreConfig, %function
  56              	Opamp_1_RestoreConfig:
  57              	.LFB1:
  41:.\Generated_Source\PSoC5/Opamp_1_PM.c **** 
  42:.\Generated_Source\PSoC5/Opamp_1_PM.c **** 
  43:.\Generated_Source\PSoC5/Opamp_1_PM.c **** /*******************************************************************************  
  44:.\Generated_Source\PSoC5/Opamp_1_PM.c **** * Function Name: Opamp_1_RestoreConfig
  45:.\Generated_Source\PSoC5/Opamp_1_PM.c **** ********************************************************************************
  46:.\Generated_Source\PSoC5/Opamp_1_PM.c **** *
  47:.\Generated_Source\PSoC5/Opamp_1_PM.c **** * Summary:
  48:.\Generated_Source\PSoC5/Opamp_1_PM.c **** *  Restores the current user configuration registers.
  49:.\Generated_Source\PSoC5/Opamp_1_PM.c **** *
  50:.\Generated_Source\PSoC5/Opamp_1_PM.c **** * Parameters:
  51:.\Generated_Source\PSoC5/Opamp_1_PM.c **** *  void
  52:.\Generated_Source\PSoC5/Opamp_1_PM.c **** *
  53:.\Generated_Source\PSoC5/Opamp_1_PM.c **** * Return:
  54:.\Generated_Source\PSoC5/Opamp_1_PM.c **** *  void
  55:.\Generated_Source\PSoC5/Opamp_1_PM.c **** *
  56:.\Generated_Source\PSoC5/Opamp_1_PM.c **** *******************************************************************************/
  57:.\Generated_Source\PSoC5/Opamp_1_PM.c **** void Opamp_1_RestoreConfig(void) 
ARM GAS  C:\Users\Brian\AppData\Local\Temp\cccja0gp.s 			page 3


  58:.\Generated_Source\PSoC5/Opamp_1_PM.c **** {
  58              		.loc 1 58 0
  59              		.cfi_startproc
  60              		@ args = 0, pretend = 0, frame = 0
  61              		@ frame_needed = 1, uses_anonymous_args = 0
  62              		@ link register save eliminated.
  63 0000 80B4     		push	{r7}
  64              	.LCFI2:
  65              		.cfi_def_cfa_offset 4
  66              		.cfi_offset 7, -4
  67 0002 00AF     		add	r7, sp, #0
  68              	.LCFI3:
  69              		.cfi_def_cfa_register 7
  59:.\Generated_Source\PSoC5/Opamp_1_PM.c ****     /* Nothing to restore */
  60:.\Generated_Source\PSoC5/Opamp_1_PM.c **** }
  70              		.loc 1 60 0
  71 0004 BD46     		mov	sp, r7
  72 0006 80BC     		pop	{r7}
  73 0008 7047     		bx	lr
  74              		.cfi_endproc
  75              	.LFE1:
  76              		.size	Opamp_1_RestoreConfig, .-Opamp_1_RestoreConfig
  77 000a 00BF     		.section	.text.Opamp_1_Sleep,"ax",%progbits
  78              		.align	2
  79              		.global	Opamp_1_Sleep
  80              		.thumb
  81              		.thumb_func
  82              		.type	Opamp_1_Sleep, %function
  83              	Opamp_1_Sleep:
  84              	.LFB2:
  61:.\Generated_Source\PSoC5/Opamp_1_PM.c **** 
  62:.\Generated_Source\PSoC5/Opamp_1_PM.c **** 
  63:.\Generated_Source\PSoC5/Opamp_1_PM.c **** /*******************************************************************************   
  64:.\Generated_Source\PSoC5/Opamp_1_PM.c **** * Function Name: Opamp_1_Sleep
  65:.\Generated_Source\PSoC5/Opamp_1_PM.c **** ********************************************************************************
  66:.\Generated_Source\PSoC5/Opamp_1_PM.c **** *
  67:.\Generated_Source\PSoC5/Opamp_1_PM.c **** * Summary:
  68:.\Generated_Source\PSoC5/Opamp_1_PM.c **** *  Disables block's operation and saves its configuration. Should be called 
  69:.\Generated_Source\PSoC5/Opamp_1_PM.c **** *  just prior to entering sleep.
  70:.\Generated_Source\PSoC5/Opamp_1_PM.c **** *
  71:.\Generated_Source\PSoC5/Opamp_1_PM.c **** * Parameters:
  72:.\Generated_Source\PSoC5/Opamp_1_PM.c **** *  void
  73:.\Generated_Source\PSoC5/Opamp_1_PM.c **** *
  74:.\Generated_Source\PSoC5/Opamp_1_PM.c **** * Return:
  75:.\Generated_Source\PSoC5/Opamp_1_PM.c **** *  void
  76:.\Generated_Source\PSoC5/Opamp_1_PM.c **** *
  77:.\Generated_Source\PSoC5/Opamp_1_PM.c **** * Global variables:
  78:.\Generated_Source\PSoC5/Opamp_1_PM.c **** *  Opamp_1_backup: The structure field 'enableState' is modified 
  79:.\Generated_Source\PSoC5/Opamp_1_PM.c **** *  depending on the enable state of the block before entering to sleep mode.
  80:.\Generated_Source\PSoC5/Opamp_1_PM.c **** *
  81:.\Generated_Source\PSoC5/Opamp_1_PM.c **** *******************************************************************************/
  82:.\Generated_Source\PSoC5/Opamp_1_PM.c **** void Opamp_1_Sleep(void) 
  83:.\Generated_Source\PSoC5/Opamp_1_PM.c **** {
  85              		.loc 1 83 0
  86              		.cfi_startproc
  87              		@ args = 0, pretend = 0, frame = 0
  88              		@ frame_needed = 1, uses_anonymous_args = 0
ARM GAS  C:\Users\Brian\AppData\Local\Temp\cccja0gp.s 			page 4


  89 0000 80B5     		push	{r7, lr}
  90              	.LCFI4:
  91              		.cfi_def_cfa_offset 8
  92              		.cfi_offset 7, -8
  93              		.cfi_offset 14, -4
  94 0002 00AF     		add	r7, sp, #0
  95              	.LCFI5:
  96              		.cfi_def_cfa_register 7
  84:.\Generated_Source\PSoC5/Opamp_1_PM.c ****     /* Save OpAmp enable state */
  85:.\Generated_Source\PSoC5/Opamp_1_PM.c ****     if((Opamp_1_PM_ACT_CFG_REG & Opamp_1_ACT_PWR_EN) != 0u)
  97              		.loc 1 85 0
  98 0004 44F2A433 		movw	r3, #17316
  99 0008 C4F20003 		movt	r3, 16384
 100 000c 1B78     		ldrb	r3, [r3, #0]
 101 000e DBB2     		uxtb	r3, r3
 102 0010 03F00403 		and	r3, r3, #4
 103 0014 002B     		cmp	r3, #0
 104 0016 09D0     		beq	.L4
  86:.\Generated_Source\PSoC5/Opamp_1_PM.c ****     {
  87:.\Generated_Source\PSoC5/Opamp_1_PM.c ****         /* Component is enabled */
  88:.\Generated_Source\PSoC5/Opamp_1_PM.c ****         Opamp_1_backup.enableState = 1u;
 105              		.loc 1 88 0
 106 0018 40F20003 		movw	r3, #:lower16:Opamp_1_backup
 107 001c C0F20003 		movt	r3, #:upper16:Opamp_1_backup
 108 0020 4FF00102 		mov	r2, #1
 109 0024 1A70     		strb	r2, [r3, #0]
  89:.\Generated_Source\PSoC5/Opamp_1_PM.c ****          /* Stops the component */
  90:.\Generated_Source\PSoC5/Opamp_1_PM.c ****          Opamp_1_Stop();
 110              		.loc 1 90 0
 111 0026 FFF7FEFF 		bl	Opamp_1_Stop
 112 002a 06E0     		b	.L5
 113              	.L4:
  91:.\Generated_Source\PSoC5/Opamp_1_PM.c ****     }
  92:.\Generated_Source\PSoC5/Opamp_1_PM.c ****     else
  93:.\Generated_Source\PSoC5/Opamp_1_PM.c ****     {
  94:.\Generated_Source\PSoC5/Opamp_1_PM.c ****         /* Component is disabled */
  95:.\Generated_Source\PSoC5/Opamp_1_PM.c ****         Opamp_1_backup.enableState = 0u;
 114              		.loc 1 95 0
 115 002c 40F20003 		movw	r3, #:lower16:Opamp_1_backup
 116 0030 C0F20003 		movt	r3, #:upper16:Opamp_1_backup
 117 0034 4FF00002 		mov	r2, #0
 118 0038 1A70     		strb	r2, [r3, #0]
 119              	.L5:
  96:.\Generated_Source\PSoC5/Opamp_1_PM.c ****     }
  97:.\Generated_Source\PSoC5/Opamp_1_PM.c ****     /* Saves the configuration */
  98:.\Generated_Source\PSoC5/Opamp_1_PM.c ****     Opamp_1_SaveConfig();
 120              		.loc 1 98 0
 121 003a FFF7FEFF 		bl	Opamp_1_SaveConfig
  99:.\Generated_Source\PSoC5/Opamp_1_PM.c **** }
 122              		.loc 1 99 0
 123 003e 80BD     		pop	{r7, pc}
 124              		.cfi_endproc
 125              	.LFE2:
 126              		.size	Opamp_1_Sleep, .-Opamp_1_Sleep
 127              		.section	.text.Opamp_1_Wakeup,"ax",%progbits
 128              		.align	2
 129              		.global	Opamp_1_Wakeup
ARM GAS  C:\Users\Brian\AppData\Local\Temp\cccja0gp.s 			page 5


 130              		.thumb
 131              		.thumb_func
 132              		.type	Opamp_1_Wakeup, %function
 133              	Opamp_1_Wakeup:
 134              	.LFB3:
 100:.\Generated_Source\PSoC5/Opamp_1_PM.c **** 
 101:.\Generated_Source\PSoC5/Opamp_1_PM.c **** 
 102:.\Generated_Source\PSoC5/Opamp_1_PM.c **** /*******************************************************************************  
 103:.\Generated_Source\PSoC5/Opamp_1_PM.c **** * Function Name: Opamp_1_Wakeup
 104:.\Generated_Source\PSoC5/Opamp_1_PM.c **** ********************************************************************************
 105:.\Generated_Source\PSoC5/Opamp_1_PM.c **** *
 106:.\Generated_Source\PSoC5/Opamp_1_PM.c **** * Summary:
 107:.\Generated_Source\PSoC5/Opamp_1_PM.c **** *  Enables block's operation and restores its configuration. Should be called
 108:.\Generated_Source\PSoC5/Opamp_1_PM.c **** *  just after awaking from sleep.
 109:.\Generated_Source\PSoC5/Opamp_1_PM.c **** *
 110:.\Generated_Source\PSoC5/Opamp_1_PM.c **** * Parameters:
 111:.\Generated_Source\PSoC5/Opamp_1_PM.c **** *  void
 112:.\Generated_Source\PSoC5/Opamp_1_PM.c **** *
 113:.\Generated_Source\PSoC5/Opamp_1_PM.c **** * Return:
 114:.\Generated_Source\PSoC5/Opamp_1_PM.c **** *  void
 115:.\Generated_Source\PSoC5/Opamp_1_PM.c **** *
 116:.\Generated_Source\PSoC5/Opamp_1_PM.c **** * Global variables:
 117:.\Generated_Source\PSoC5/Opamp_1_PM.c **** *  Opamp_1_backup: The structure field 'enableState' is used to 
 118:.\Generated_Source\PSoC5/Opamp_1_PM.c **** *  restore the enable state of block after wakeup from sleep mode.
 119:.\Generated_Source\PSoC5/Opamp_1_PM.c **** *
 120:.\Generated_Source\PSoC5/Opamp_1_PM.c **** *******************************************************************************/
 121:.\Generated_Source\PSoC5/Opamp_1_PM.c **** void Opamp_1_Wakeup(void) 
 122:.\Generated_Source\PSoC5/Opamp_1_PM.c **** {
 135              		.loc 1 122 0
 136              		.cfi_startproc
 137              		@ args = 0, pretend = 0, frame = 0
 138              		@ frame_needed = 1, uses_anonymous_args = 0
 139 0000 80B5     		push	{r7, lr}
 140              	.LCFI6:
 141              		.cfi_def_cfa_offset 8
 142              		.cfi_offset 7, -8
 143              		.cfi_offset 14, -4
 144 0002 00AF     		add	r7, sp, #0
 145              	.LCFI7:
 146              		.cfi_def_cfa_register 7
 123:.\Generated_Source\PSoC5/Opamp_1_PM.c ****     /* Restore the user configuration */
 124:.\Generated_Source\PSoC5/Opamp_1_PM.c ****     Opamp_1_RestoreConfig();
 147              		.loc 1 124 0
 148 0004 FFF7FEFF 		bl	Opamp_1_RestoreConfig
 125:.\Generated_Source\PSoC5/Opamp_1_PM.c **** 
 126:.\Generated_Source\PSoC5/Opamp_1_PM.c ****     /* Enables the component operation */
 127:.\Generated_Source\PSoC5/Opamp_1_PM.c ****     if(Opamp_1_backup.enableState == 1u)
 149              		.loc 1 127 0
 150 0008 40F20003 		movw	r3, #:lower16:Opamp_1_backup
 151 000c C0F20003 		movt	r3, #:upper16:Opamp_1_backup
 152 0010 1B78     		ldrb	r3, [r3, #0]	@ zero_extendqisi2
 153 0012 012B     		cmp	r3, #1
 154 0014 01D1     		bne	.L6
 128:.\Generated_Source\PSoC5/Opamp_1_PM.c ****     {
 129:.\Generated_Source\PSoC5/Opamp_1_PM.c ****         Opamp_1_Enable();
 155              		.loc 1 129 0
 156 0016 FFF7FEFF 		bl	Opamp_1_Enable
ARM GAS  C:\Users\Brian\AppData\Local\Temp\cccja0gp.s 			page 6


 157              	.L6:
 130:.\Generated_Source\PSoC5/Opamp_1_PM.c ****     } /* Do nothing if component was disable before */
 131:.\Generated_Source\PSoC5/Opamp_1_PM.c **** }
 158              		.loc 1 131 0
 159 001a 80BD     		pop	{r7, pc}
 160              		.cfi_endproc
 161              	.LFE3:
 162              		.size	Opamp_1_Wakeup, .-Opamp_1_Wakeup
 163              		.text
 164              	.Letext0:
 165              		.file 2 ".\\Generated_Source\\PSoC5\\cytypes.h"
 166              		.file 3 ".\\Generated_Source\\PSoC5\\Opamp_1.h"