ARM GAS  C:\Users\Brian\AppData\Local\Temp\ccZmbW1W.s 			page 1


   1              		.syntax unified
   2              		.cpu cortex-m3
   3              		.fpu softvfp
   4              		.eabi_attribute 20, 1
   5              		.eabi_attribute 21, 1
   6              		.eabi_attribute 23, 3
   7              		.eabi_attribute 24, 1
   8              		.eabi_attribute 25, 1
   9              		.eabi_attribute 26, 1
  10              		.eabi_attribute 30, 6
  11              		.eabi_attribute 34, 1
  12              		.eabi_attribute 18, 4
  13              		.thumb
  14              		.file	"Out_20.c"
  15              		.text
  16              	.Ltext0:
  17              		.cfi_sections	.debug_frame
  18              		.section	.text.Out_20_Write,"ax",%progbits
  19              		.align	2
  20              		.global	Out_20_Write
  21              		.thumb
  22              		.thumb_func
  23              		.type	Out_20_Write, %function
  24              	Out_20_Write:
  25              	.LFB0:
  26              		.file 1 ".\\Generated_Source\\PSoC5\\Out_20.c"
   1:.\Generated_Source\PSoC5/Out_20.c **** /*******************************************************************************
   2:.\Generated_Source\PSoC5/Out_20.c **** * File Name: Out_20.c  
   3:.\Generated_Source\PSoC5/Out_20.c **** * Version 2.0
   4:.\Generated_Source\PSoC5/Out_20.c **** *
   5:.\Generated_Source\PSoC5/Out_20.c **** * Description:
   6:.\Generated_Source\PSoC5/Out_20.c **** *  This file contains API to enable firmware control of a Pins component.
   7:.\Generated_Source\PSoC5/Out_20.c **** *
   8:.\Generated_Source\PSoC5/Out_20.c **** * Note:
   9:.\Generated_Source\PSoC5/Out_20.c **** *
  10:.\Generated_Source\PSoC5/Out_20.c **** ********************************************************************************
  11:.\Generated_Source\PSoC5/Out_20.c **** * Copyright 2008-2014, Cypress Semiconductor Corporation.  All rights reserved.
  12:.\Generated_Source\PSoC5/Out_20.c **** * You may use this file only in accordance with the license, terms, conditions, 
  13:.\Generated_Source\PSoC5/Out_20.c **** * disclaimers, and limitations in the end user license agreement accompanying 
  14:.\Generated_Source\PSoC5/Out_20.c **** * the software package with which this file was provided.
  15:.\Generated_Source\PSoC5/Out_20.c **** *******************************************************************************/
  16:.\Generated_Source\PSoC5/Out_20.c **** 
  17:.\Generated_Source\PSoC5/Out_20.c **** #include "cytypes.h"
  18:.\Generated_Source\PSoC5/Out_20.c **** #include "Out_20.h"
  19:.\Generated_Source\PSoC5/Out_20.c **** 
  20:.\Generated_Source\PSoC5/Out_20.c **** /* APIs are not generated for P15[7:6] on PSoC 5 */
  21:.\Generated_Source\PSoC5/Out_20.c **** #if !(CY_PSOC5A &&\
  22:.\Generated_Source\PSoC5/Out_20.c **** 	 Out_20__PORT == 15 && ((Out_20__MASK & 0xC0) != 0))
  23:.\Generated_Source\PSoC5/Out_20.c **** 
  24:.\Generated_Source\PSoC5/Out_20.c **** 
  25:.\Generated_Source\PSoC5/Out_20.c **** /*******************************************************************************
  26:.\Generated_Source\PSoC5/Out_20.c **** * Function Name: Out_20_Write
  27:.\Generated_Source\PSoC5/Out_20.c **** ********************************************************************************
  28:.\Generated_Source\PSoC5/Out_20.c **** *
  29:.\Generated_Source\PSoC5/Out_20.c **** * Summary:
  30:.\Generated_Source\PSoC5/Out_20.c **** *  Assign a new value to the digital port's data output register.  
  31:.\Generated_Source\PSoC5/Out_20.c **** *
ARM GAS  C:\Users\Brian\AppData\Local\Temp\ccZmbW1W.s 			page 2


  32:.\Generated_Source\PSoC5/Out_20.c **** * Parameters:  
  33:.\Generated_Source\PSoC5/Out_20.c **** *  prtValue:  The value to be assigned to the Digital Port. 
  34:.\Generated_Source\PSoC5/Out_20.c **** *
  35:.\Generated_Source\PSoC5/Out_20.c **** * Return: 
  36:.\Generated_Source\PSoC5/Out_20.c **** *  None
  37:.\Generated_Source\PSoC5/Out_20.c **** *  
  38:.\Generated_Source\PSoC5/Out_20.c **** *******************************************************************************/
  39:.\Generated_Source\PSoC5/Out_20.c **** void Out_20_Write(uint8 value) 
  40:.\Generated_Source\PSoC5/Out_20.c **** {
  27              		.loc 1 40 0
  28              		.cfi_startproc
  29              		@ args = 0, pretend = 0, frame = 16
  30              		@ frame_needed = 1, uses_anonymous_args = 0
  31              		@ link register save eliminated.
  32 0000 80B4     		push	{r7}
  33              	.LCFI0:
  34              		.cfi_def_cfa_offset 4
  35              		.cfi_offset 7, -4
  36 0002 85B0     		sub	sp, sp, #20
  37              	.LCFI1:
  38              		.cfi_def_cfa_offset 24
  39 0004 00AF     		add	r7, sp, #0
  40              	.LCFI2:
  41              		.cfi_def_cfa_register 7
  42 0006 0346     		mov	r3, r0
  43 0008 FB71     		strb	r3, [r7, #7]
  41:.\Generated_Source\PSoC5/Out_20.c ****     uint8 staticBits = (Out_20_DR & (uint8)(~Out_20_MASK));
  44              		.loc 1 41 0
  45 000a 45F22013 		movw	r3, #20768
  46 000e C4F20003 		movt	r3, 16384
  47 0012 1B78     		ldrb	r3, [r3, #0]
  48 0014 DBB2     		uxtb	r3, r3
  49 0016 03F07F03 		and	r3, r3, #127
  50 001a FB73     		strb	r3, [r7, #15]
  42:.\Generated_Source\PSoC5/Out_20.c ****     Out_20_DR = staticBits | ((uint8)(value << Out_20_SHIFT) & Out_20_MASK);
  51              		.loc 1 42 0
  52 001c 45F22013 		movw	r3, #20768
  53 0020 C4F20003 		movt	r3, 16384
  54 0024 FA79     		ldrb	r2, [r7, #7]
  55 0026 4FEAC212 		lsl	r2, r2, #7
  56 002a D1B2     		uxtb	r1, r2
  57 002c FA7B     		ldrb	r2, [r7, #15]
  58 002e 0A43     		orrs	r2, r2, r1
  59 0030 D2B2     		uxtb	r2, r2
  60 0032 1A70     		strb	r2, [r3, #0]
  43:.\Generated_Source\PSoC5/Out_20.c **** }
  61              		.loc 1 43 0
  62 0034 07F11407 		add	r7, r7, #20
  63 0038 BD46     		mov	sp, r7
  64 003a 80BC     		pop	{r7}
  65 003c 7047     		bx	lr
  66              		.cfi_endproc
  67              	.LFE0:
  68              		.size	Out_20_Write, .-Out_20_Write
  69 003e 00BF     		.section	.text.Out_20_SetDriveMode,"ax",%progbits
  70              		.align	2
  71              		.global	Out_20_SetDriveMode
ARM GAS  C:\Users\Brian\AppData\Local\Temp\ccZmbW1W.s 			page 3


  72              		.thumb
  73              		.thumb_func
  74              		.type	Out_20_SetDriveMode, %function
  75              	Out_20_SetDriveMode:
  76              	.LFB1:
  44:.\Generated_Source\PSoC5/Out_20.c **** 
  45:.\Generated_Source\PSoC5/Out_20.c **** 
  46:.\Generated_Source\PSoC5/Out_20.c **** /*******************************************************************************
  47:.\Generated_Source\PSoC5/Out_20.c **** * Function Name: Out_20_SetDriveMode
  48:.\Generated_Source\PSoC5/Out_20.c **** ********************************************************************************
  49:.\Generated_Source\PSoC5/Out_20.c **** *
  50:.\Generated_Source\PSoC5/Out_20.c **** * Summary:
  51:.\Generated_Source\PSoC5/Out_20.c **** *  Change the drive mode on the pins of the port.
  52:.\Generated_Source\PSoC5/Out_20.c **** * 
  53:.\Generated_Source\PSoC5/Out_20.c **** * Parameters:  
  54:.\Generated_Source\PSoC5/Out_20.c **** *  mode:  Change the pins to one of the following drive modes.
  55:.\Generated_Source\PSoC5/Out_20.c **** *
  56:.\Generated_Source\PSoC5/Out_20.c **** *  Out_20_DM_STRONG     Strong Drive 
  57:.\Generated_Source\PSoC5/Out_20.c **** *  Out_20_DM_OD_HI      Open Drain, Drives High 
  58:.\Generated_Source\PSoC5/Out_20.c **** *  Out_20_DM_OD_LO      Open Drain, Drives Low 
  59:.\Generated_Source\PSoC5/Out_20.c **** *  Out_20_DM_RES_UP     Resistive Pull Up 
  60:.\Generated_Source\PSoC5/Out_20.c **** *  Out_20_DM_RES_DWN    Resistive Pull Down 
  61:.\Generated_Source\PSoC5/Out_20.c **** *  Out_20_DM_RES_UPDWN  Resistive Pull Up/Down 
  62:.\Generated_Source\PSoC5/Out_20.c **** *  Out_20_DM_DIG_HIZ    High Impedance Digital 
  63:.\Generated_Source\PSoC5/Out_20.c **** *  Out_20_DM_ALG_HIZ    High Impedance Analog 
  64:.\Generated_Source\PSoC5/Out_20.c **** *
  65:.\Generated_Source\PSoC5/Out_20.c **** * Return: 
  66:.\Generated_Source\PSoC5/Out_20.c **** *  None
  67:.\Generated_Source\PSoC5/Out_20.c **** *
  68:.\Generated_Source\PSoC5/Out_20.c **** *******************************************************************************/
  69:.\Generated_Source\PSoC5/Out_20.c **** void Out_20_SetDriveMode(uint8 mode) 
  70:.\Generated_Source\PSoC5/Out_20.c **** {
  77              		.loc 1 70 0
  78              		.cfi_startproc
  79              		@ args = 0, pretend = 0, frame = 8
  80              		@ frame_needed = 1, uses_anonymous_args = 0
  81              		@ link register save eliminated.
  82 0000 80B4     		push	{r7}
  83              	.LCFI3:
  84              		.cfi_def_cfa_offset 4
  85              		.cfi_offset 7, -4
  86 0002 83B0     		sub	sp, sp, #12
  87              	.LCFI4:
  88              		.cfi_def_cfa_offset 16
  89 0004 00AF     		add	r7, sp, #0
  90              	.LCFI5:
  91              		.cfi_def_cfa_register 7
  92 0006 0346     		mov	r3, r0
  93 0008 FB71     		strb	r3, [r7, #7]
  71:.\Generated_Source\PSoC5/Out_20.c **** 	CyPins_SetPinDriveMode(Out_20_0, mode);
  94              		.loc 1 71 0
  95 000a 45F21703 		movw	r3, #20503
  96 000e C4F20003 		movt	r3, 16384
  97 0012 45F21702 		movw	r2, #20503
  98 0016 C4F20002 		movt	r2, 16384
  99 001a 1278     		ldrb	r2, [r2, #0]
 100 001c D2B2     		uxtb	r2, r2
ARM GAS  C:\Users\Brian\AppData\Local\Temp\ccZmbW1W.s 			page 4


 101 001e D2B2     		uxtb	r2, r2
 102 0020 22F00E02 		bic	r2, r2, #14
 103 0024 D1B2     		uxtb	r1, r2
 104 0026 FA79     		ldrb	r2, [r7, #7]	@ zero_extendqisi2
 105 0028 02F00E02 		and	r2, r2, #14
 106 002c D2B2     		uxtb	r2, r2
 107 002e 0A43     		orrs	r2, r2, r1
 108 0030 D2B2     		uxtb	r2, r2
 109 0032 D2B2     		uxtb	r2, r2
 110 0034 1A70     		strb	r2, [r3, #0]
  72:.\Generated_Source\PSoC5/Out_20.c **** }
 111              		.loc 1 72 0
 112 0036 07F10C07 		add	r7, r7, #12
 113 003a BD46     		mov	sp, r7
 114 003c 80BC     		pop	{r7}
 115 003e 7047     		bx	lr
 116              		.cfi_endproc
 117              	.LFE1:
 118              		.size	Out_20_SetDriveMode, .-Out_20_SetDriveMode
 119              		.section	.text.Out_20_Read,"ax",%progbits
 120              		.align	2
 121              		.global	Out_20_Read
 122              		.thumb
 123              		.thumb_func
 124              		.type	Out_20_Read, %function
 125              	Out_20_Read:
 126              	.LFB2:
  73:.\Generated_Source\PSoC5/Out_20.c **** 
  74:.\Generated_Source\PSoC5/Out_20.c **** 
  75:.\Generated_Source\PSoC5/Out_20.c **** /*******************************************************************************
  76:.\Generated_Source\PSoC5/Out_20.c **** * Function Name: Out_20_Read
  77:.\Generated_Source\PSoC5/Out_20.c **** ********************************************************************************
  78:.\Generated_Source\PSoC5/Out_20.c **** *
  79:.\Generated_Source\PSoC5/Out_20.c **** * Summary:
  80:.\Generated_Source\PSoC5/Out_20.c **** *  Read the current value on the pins of the Digital Port in right justified 
  81:.\Generated_Source\PSoC5/Out_20.c **** *  form.
  82:.\Generated_Source\PSoC5/Out_20.c **** *
  83:.\Generated_Source\PSoC5/Out_20.c **** * Parameters:  
  84:.\Generated_Source\PSoC5/Out_20.c **** *  None
  85:.\Generated_Source\PSoC5/Out_20.c **** *
  86:.\Generated_Source\PSoC5/Out_20.c **** * Return: 
  87:.\Generated_Source\PSoC5/Out_20.c **** *  Returns the current value of the Digital Port as a right justified number
  88:.\Generated_Source\PSoC5/Out_20.c **** *  
  89:.\Generated_Source\PSoC5/Out_20.c **** * Note:
  90:.\Generated_Source\PSoC5/Out_20.c **** *  Macro Out_20_ReadPS calls this function. 
  91:.\Generated_Source\PSoC5/Out_20.c **** *  
  92:.\Generated_Source\PSoC5/Out_20.c **** *******************************************************************************/
  93:.\Generated_Source\PSoC5/Out_20.c **** uint8 Out_20_Read(void) 
  94:.\Generated_Source\PSoC5/Out_20.c **** {
 127              		.loc 1 94 0
 128              		.cfi_startproc
 129              		@ args = 0, pretend = 0, frame = 0
 130              		@ frame_needed = 1, uses_anonymous_args = 0
 131              		@ link register save eliminated.
 132 0000 80B4     		push	{r7}
 133              	.LCFI6:
 134              		.cfi_def_cfa_offset 4
ARM GAS  C:\Users\Brian\AppData\Local\Temp\ccZmbW1W.s 			page 5


 135              		.cfi_offset 7, -4
 136 0002 00AF     		add	r7, sp, #0
 137              	.LCFI7:
 138              		.cfi_def_cfa_register 7
  95:.\Generated_Source\PSoC5/Out_20.c ****     return (Out_20_PS & Out_20_MASK) >> Out_20_SHIFT;
 139              		.loc 1 95 0
 140 0004 45F22113 		movw	r3, #20769
 141 0008 C4F20003 		movt	r3, 16384
 142 000c 1B78     		ldrb	r3, [r3, #0]
 143 000e DBB2     		uxtb	r3, r3
 144 0010 4FEAD313 		lsr	r3, r3, #7
 145 0014 DBB2     		uxtb	r3, r3
  96:.\Generated_Source\PSoC5/Out_20.c **** }
 146              		.loc 1 96 0
 147 0016 1846     		mov	r0, r3
 148 0018 BD46     		mov	sp, r7
 149 001a 80BC     		pop	{r7}
 150 001c 7047     		bx	lr
 151              		.cfi_endproc
 152              	.LFE2:
 153              		.size	Out_20_Read, .-Out_20_Read
 154 001e 00BF     		.section	.text.Out_20_ReadDataReg,"ax",%progbits
 155              		.align	2
 156              		.global	Out_20_ReadDataReg
 157              		.thumb
 158              		.thumb_func
 159              		.type	Out_20_ReadDataReg, %function
 160              	Out_20_ReadDataReg:
 161              	.LFB3:
  97:.\Generated_Source\PSoC5/Out_20.c **** 
  98:.\Generated_Source\PSoC5/Out_20.c **** 
  99:.\Generated_Source\PSoC5/Out_20.c **** /*******************************************************************************
 100:.\Generated_Source\PSoC5/Out_20.c **** * Function Name: Out_20_ReadDataReg
 101:.\Generated_Source\PSoC5/Out_20.c **** ********************************************************************************
 102:.\Generated_Source\PSoC5/Out_20.c **** *
 103:.\Generated_Source\PSoC5/Out_20.c **** * Summary:
 104:.\Generated_Source\PSoC5/Out_20.c **** *  Read the current value assigned to a Digital Port's data output register
 105:.\Generated_Source\PSoC5/Out_20.c **** *
 106:.\Generated_Source\PSoC5/Out_20.c **** * Parameters:  
 107:.\Generated_Source\PSoC5/Out_20.c **** *  None 
 108:.\Generated_Source\PSoC5/Out_20.c **** *
 109:.\Generated_Source\PSoC5/Out_20.c **** * Return: 
 110:.\Generated_Source\PSoC5/Out_20.c **** *  Returns the current value assigned to the Digital Port's data output register
 111:.\Generated_Source\PSoC5/Out_20.c **** *  
 112:.\Generated_Source\PSoC5/Out_20.c **** *******************************************************************************/
 113:.\Generated_Source\PSoC5/Out_20.c **** uint8 Out_20_ReadDataReg(void) 
 114:.\Generated_Source\PSoC5/Out_20.c **** {
 162              		.loc 1 114 0
 163              		.cfi_startproc
 164              		@ args = 0, pretend = 0, frame = 0
 165              		@ frame_needed = 1, uses_anonymous_args = 0
 166              		@ link register save eliminated.
 167 0000 80B4     		push	{r7}
 168              	.LCFI8:
 169              		.cfi_def_cfa_offset 4
 170              		.cfi_offset 7, -4
 171 0002 00AF     		add	r7, sp, #0
ARM GAS  C:\Users\Brian\AppData\Local\Temp\ccZmbW1W.s 			page 6


 172              	.LCFI9:
 173              		.cfi_def_cfa_register 7
 115:.\Generated_Source\PSoC5/Out_20.c ****     return (Out_20_DR & Out_20_MASK) >> Out_20_SHIFT;
 174              		.loc 1 115 0
 175 0004 45F22013 		movw	r3, #20768
 176 0008 C4F20003 		movt	r3, 16384
 177 000c 1B78     		ldrb	r3, [r3, #0]
 178 000e DBB2     		uxtb	r3, r3
 179 0010 4FEAD313 		lsr	r3, r3, #7
 180 0014 DBB2     		uxtb	r3, r3
 116:.\Generated_Source\PSoC5/Out_20.c **** }
 181              		.loc 1 116 0
 182 0016 1846     		mov	r0, r3
 183 0018 BD46     		mov	sp, r7
 184 001a 80BC     		pop	{r7}
 185 001c 7047     		bx	lr
 186              		.cfi_endproc
 187              	.LFE3:
 188              		.size	Out_20_ReadDataReg, .-Out_20_ReadDataReg
 189 001e 00BF     		.text
 190              	.Letext0:
 191              		.file 2 ".\\Generated_Source\\PSoC5\\cytypes.h"