ARM GAS  C:\Users\Brian\AppData\Local\Temp\cc9eEpjz.s 			page 1


   1              		.syntax unified
   2              		.cpu cortex-m3
   3              		.fpu softvfp
   4              		.eabi_attribute 20, 1
   5              		.eabi_attribute 21, 1
   6              		.eabi_attribute 23, 3
   7              		.eabi_attribute 24, 1
   8              		.eabi_attribute 25, 1
   9              		.eabi_attribute 26, 1
  10              		.eabi_attribute 30, 6
  11              		.eabi_attribute 34, 1
  12              		.eabi_attribute 18, 4
  13              		.thumb
  14              		.file	"Port_5.c"
  15              		.text
  16              	.Ltext0:
  17              		.cfi_sections	.debug_frame
  18              		.section	.text.Port_5_Write,"ax",%progbits
  19              		.align	2
  20              		.global	Port_5_Write
  21              		.thumb
  22              		.thumb_func
  23              		.type	Port_5_Write, %function
  24              	Port_5_Write:
  25              	.LFB0:
  26              		.file 1 ".\\Generated_Source\\PSoC5\\Port_5.c"
   1:.\Generated_Source\PSoC5/Port_5.c **** /*******************************************************************************
   2:.\Generated_Source\PSoC5/Port_5.c **** * File Name: Port_5.c  
   3:.\Generated_Source\PSoC5/Port_5.c **** * Version 2.0
   4:.\Generated_Source\PSoC5/Port_5.c **** *
   5:.\Generated_Source\PSoC5/Port_5.c **** * Description:
   6:.\Generated_Source\PSoC5/Port_5.c **** *  This file contains API to enable firmware control of a Pins component.
   7:.\Generated_Source\PSoC5/Port_5.c **** *
   8:.\Generated_Source\PSoC5/Port_5.c **** * Note:
   9:.\Generated_Source\PSoC5/Port_5.c **** *
  10:.\Generated_Source\PSoC5/Port_5.c **** ********************************************************************************
  11:.\Generated_Source\PSoC5/Port_5.c **** * Copyright 2008-2014, Cypress Semiconductor Corporation.  All rights reserved.
  12:.\Generated_Source\PSoC5/Port_5.c **** * You may use this file only in accordance with the license, terms, conditions, 
  13:.\Generated_Source\PSoC5/Port_5.c **** * disclaimers, and limitations in the end user license agreement accompanying 
  14:.\Generated_Source\PSoC5/Port_5.c **** * the software package with which this file was provided.
  15:.\Generated_Source\PSoC5/Port_5.c **** *******************************************************************************/
  16:.\Generated_Source\PSoC5/Port_5.c **** 
  17:.\Generated_Source\PSoC5/Port_5.c **** #include "cytypes.h"
  18:.\Generated_Source\PSoC5/Port_5.c **** #include "Port_5.h"
  19:.\Generated_Source\PSoC5/Port_5.c **** 
  20:.\Generated_Source\PSoC5/Port_5.c **** /* APIs are not generated for P15[7:6] on PSoC 5 */
  21:.\Generated_Source\PSoC5/Port_5.c **** #if !(CY_PSOC5A &&\
  22:.\Generated_Source\PSoC5/Port_5.c **** 	 Port_5__PORT == 15 && ((Port_5__MASK & 0xC0) != 0))
  23:.\Generated_Source\PSoC5/Port_5.c **** 
  24:.\Generated_Source\PSoC5/Port_5.c **** 
  25:.\Generated_Source\PSoC5/Port_5.c **** /*******************************************************************************
  26:.\Generated_Source\PSoC5/Port_5.c **** * Function Name: Port_5_Write
  27:.\Generated_Source\PSoC5/Port_5.c **** ********************************************************************************
  28:.\Generated_Source\PSoC5/Port_5.c **** *
  29:.\Generated_Source\PSoC5/Port_5.c **** * Summary:
  30:.\Generated_Source\PSoC5/Port_5.c **** *  Assign a new value to the digital port's data output register.  
  31:.\Generated_Source\PSoC5/Port_5.c **** *
ARM GAS  C:\Users\Brian\AppData\Local\Temp\cc9eEpjz.s 			page 2


  32:.\Generated_Source\PSoC5/Port_5.c **** * Parameters:  
  33:.\Generated_Source\PSoC5/Port_5.c **** *  prtValue:  The value to be assigned to the Digital Port. 
  34:.\Generated_Source\PSoC5/Port_5.c **** *
  35:.\Generated_Source\PSoC5/Port_5.c **** * Return: 
  36:.\Generated_Source\PSoC5/Port_5.c **** *  None
  37:.\Generated_Source\PSoC5/Port_5.c **** *  
  38:.\Generated_Source\PSoC5/Port_5.c **** *******************************************************************************/
  39:.\Generated_Source\PSoC5/Port_5.c **** void Port_5_Write(uint8 value) 
  40:.\Generated_Source\PSoC5/Port_5.c **** {
  27              		.loc 1 40 0
  28              		.cfi_startproc
  29              		@ args = 0, pretend = 0, frame = 16
  30              		@ frame_needed = 1, uses_anonymous_args = 0
  31              		@ link register save eliminated.
  32 0000 80B4     		push	{r7}
  33              	.LCFI0:
  34              		.cfi_def_cfa_offset 4
  35              		.cfi_offset 7, -4
  36 0002 85B0     		sub	sp, sp, #20
  37              	.LCFI1:
  38              		.cfi_def_cfa_offset 24
  39 0004 00AF     		add	r7, sp, #0
  40              	.LCFI2:
  41              		.cfi_def_cfa_register 7
  42 0006 0346     		mov	r3, r0
  43 0008 FB71     		strb	r3, [r7, #7]
  41:.\Generated_Source\PSoC5/Port_5.c ****     uint8 staticBits = (Port_5_DR & (uint8)(~Port_5_MASK));
  44              		.loc 1 41 0
  45 000a 45F25013 		movw	r3, #20816
  46 000e C4F20003 		movt	r3, 16384
  47 0012 1B78     		ldrb	r3, [r3, #0]
  48 0014 4FF00003 		mov	r3, #0
  49 0018 FB73     		strb	r3, [r7, #15]
  42:.\Generated_Source\PSoC5/Port_5.c ****     Port_5_DR = staticBits | ((uint8)(value << Port_5_SHIFT) & Port_5_MASK);
  50              		.loc 1 42 0
  51 001a 45F25013 		movw	r3, #20816
  52 001e C4F20003 		movt	r3, 16384
  53 0022 F97B     		ldrb	r1, [r7, #15]
  54 0024 FA79     		ldrb	r2, [r7, #7]
  55 0026 0A43     		orrs	r2, r2, r1
  56 0028 D2B2     		uxtb	r2, r2
  57 002a 1A70     		strb	r2, [r3, #0]
  43:.\Generated_Source\PSoC5/Port_5.c **** }
  58              		.loc 1 43 0
  59 002c 07F11407 		add	r7, r7, #20
  60 0030 BD46     		mov	sp, r7
  61 0032 80BC     		pop	{r7}
  62 0034 7047     		bx	lr
  63              		.cfi_endproc
  64              	.LFE0:
  65              		.size	Port_5_Write, .-Port_5_Write
  66 0036 00BF     		.section	.text.Port_5_SetDriveMode,"ax",%progbits
  67              		.align	2
  68              		.global	Port_5_SetDriveMode
  69              		.thumb
  70              		.thumb_func
  71              		.type	Port_5_SetDriveMode, %function
ARM GAS  C:\Users\Brian\AppData\Local\Temp\cc9eEpjz.s 			page 3


  72              	Port_5_SetDriveMode:
  73              	.LFB1:
  44:.\Generated_Source\PSoC5/Port_5.c **** 
  45:.\Generated_Source\PSoC5/Port_5.c **** 
  46:.\Generated_Source\PSoC5/Port_5.c **** /*******************************************************************************
  47:.\Generated_Source\PSoC5/Port_5.c **** * Function Name: Port_5_SetDriveMode
  48:.\Generated_Source\PSoC5/Port_5.c **** ********************************************************************************
  49:.\Generated_Source\PSoC5/Port_5.c **** *
  50:.\Generated_Source\PSoC5/Port_5.c **** * Summary:
  51:.\Generated_Source\PSoC5/Port_5.c **** *  Change the drive mode on the pins of the port.
  52:.\Generated_Source\PSoC5/Port_5.c **** * 
  53:.\Generated_Source\PSoC5/Port_5.c **** * Parameters:  
  54:.\Generated_Source\PSoC5/Port_5.c **** *  mode:  Change the pins to one of the following drive modes.
  55:.\Generated_Source\PSoC5/Port_5.c **** *
  56:.\Generated_Source\PSoC5/Port_5.c **** *  Port_5_DM_STRONG     Strong Drive 
  57:.\Generated_Source\PSoC5/Port_5.c **** *  Port_5_DM_OD_HI      Open Drain, Drives High 
  58:.\Generated_Source\PSoC5/Port_5.c **** *  Port_5_DM_OD_LO      Open Drain, Drives Low 
  59:.\Generated_Source\PSoC5/Port_5.c **** *  Port_5_DM_RES_UP     Resistive Pull Up 
  60:.\Generated_Source\PSoC5/Port_5.c **** *  Port_5_DM_RES_DWN    Resistive Pull Down 
  61:.\Generated_Source\PSoC5/Port_5.c **** *  Port_5_DM_RES_UPDWN  Resistive Pull Up/Down 
  62:.\Generated_Source\PSoC5/Port_5.c **** *  Port_5_DM_DIG_HIZ    High Impedance Digital 
  63:.\Generated_Source\PSoC5/Port_5.c **** *  Port_5_DM_ALG_HIZ    High Impedance Analog 
  64:.\Generated_Source\PSoC5/Port_5.c **** *
  65:.\Generated_Source\PSoC5/Port_5.c **** * Return: 
  66:.\Generated_Source\PSoC5/Port_5.c **** *  None
  67:.\Generated_Source\PSoC5/Port_5.c **** *
  68:.\Generated_Source\PSoC5/Port_5.c **** *******************************************************************************/
  69:.\Generated_Source\PSoC5/Port_5.c **** void Port_5_SetDriveMode(uint8 mode) 
  70:.\Generated_Source\PSoC5/Port_5.c **** {
  74              		.loc 1 70 0
  75              		.cfi_startproc
  76              		@ args = 0, pretend = 0, frame = 8
  77              		@ frame_needed = 1, uses_anonymous_args = 0
  78              		@ link register save eliminated.
  79 0000 80B4     		push	{r7}
  80              	.LCFI3:
  81              		.cfi_def_cfa_offset 4
  82              		.cfi_offset 7, -4
  83 0002 83B0     		sub	sp, sp, #12
  84              	.LCFI4:
  85              		.cfi_def_cfa_offset 16
  86 0004 00AF     		add	r7, sp, #0
  87              	.LCFI5:
  88              		.cfi_def_cfa_register 7
  89 0006 0346     		mov	r3, r0
  90 0008 FB71     		strb	r3, [r7, #7]
  71:.\Generated_Source\PSoC5/Port_5.c **** 	CyPins_SetPinDriveMode(Port_5_0, mode);
  91              		.loc 1 71 0
  92 000a 45F22803 		movw	r3, #20520
  93 000e C4F20003 		movt	r3, 16384
  94 0012 45F22802 		movw	r2, #20520
  95 0016 C4F20002 		movt	r2, 16384
  96 001a 1278     		ldrb	r2, [r2, #0]
  97 001c D2B2     		uxtb	r2, r2
  98 001e D2B2     		uxtb	r2, r2
  99 0020 22F00E02 		bic	r2, r2, #14
 100 0024 D1B2     		uxtb	r1, r2
ARM GAS  C:\Users\Brian\AppData\Local\Temp\cc9eEpjz.s 			page 4


 101 0026 FA79     		ldrb	r2, [r7, #7]	@ zero_extendqisi2
 102 0028 02F00E02 		and	r2, r2, #14
 103 002c D2B2     		uxtb	r2, r2
 104 002e 0A43     		orrs	r2, r2, r1
 105 0030 D2B2     		uxtb	r2, r2
 106 0032 D2B2     		uxtb	r2, r2
 107 0034 1A70     		strb	r2, [r3, #0]
  72:.\Generated_Source\PSoC5/Port_5.c **** 	CyPins_SetPinDriveMode(Port_5_1, mode);
 108              		.loc 1 72 0
 109 0036 45F22903 		movw	r3, #20521
 110 003a C4F20003 		movt	r3, 16384
 111 003e 45F22902 		movw	r2, #20521
 112 0042 C4F20002 		movt	r2, 16384
 113 0046 1278     		ldrb	r2, [r2, #0]
 114 0048 D2B2     		uxtb	r2, r2
 115 004a D2B2     		uxtb	r2, r2
 116 004c 22F00E02 		bic	r2, r2, #14
 117 0050 D1B2     		uxtb	r1, r2
 118 0052 FA79     		ldrb	r2, [r7, #7]	@ zero_extendqisi2
 119 0054 02F00E02 		and	r2, r2, #14
 120 0058 D2B2     		uxtb	r2, r2
 121 005a 0A43     		orrs	r2, r2, r1
 122 005c D2B2     		uxtb	r2, r2
 123 005e D2B2     		uxtb	r2, r2
 124 0060 1A70     		strb	r2, [r3, #0]
  73:.\Generated_Source\PSoC5/Port_5.c **** 	CyPins_SetPinDriveMode(Port_5_2, mode);
 125              		.loc 1 73 0
 126 0062 45F22A03 		movw	r3, #20522
 127 0066 C4F20003 		movt	r3, 16384
 128 006a 45F22A02 		movw	r2, #20522
 129 006e C4F20002 		movt	r2, 16384
 130 0072 1278     		ldrb	r2, [r2, #0]
 131 0074 D2B2     		uxtb	r2, r2
 132 0076 D2B2     		uxtb	r2, r2
 133 0078 22F00E02 		bic	r2, r2, #14
 134 007c D1B2     		uxtb	r1, r2
 135 007e FA79     		ldrb	r2, [r7, #7]	@ zero_extendqisi2
 136 0080 02F00E02 		and	r2, r2, #14
 137 0084 D2B2     		uxtb	r2, r2
 138 0086 0A43     		orrs	r2, r2, r1
 139 0088 D2B2     		uxtb	r2, r2
 140 008a D2B2     		uxtb	r2, r2
 141 008c 1A70     		strb	r2, [r3, #0]
  74:.\Generated_Source\PSoC5/Port_5.c **** 	CyPins_SetPinDriveMode(Port_5_3, mode);
 142              		.loc 1 74 0
 143 008e 45F22B03 		movw	r3, #20523
 144 0092 C4F20003 		movt	r3, 16384
 145 0096 45F22B02 		movw	r2, #20523
 146 009a C4F20002 		movt	r2, 16384
 147 009e 1278     		ldrb	r2, [r2, #0]
 148 00a0 D2B2     		uxtb	r2, r2
 149 00a2 D2B2     		uxtb	r2, r2
 150 00a4 22F00E02 		bic	r2, r2, #14
 151 00a8 D1B2     		uxtb	r1, r2
 152 00aa FA79     		ldrb	r2, [r7, #7]	@ zero_extendqisi2
 153 00ac 02F00E02 		and	r2, r2, #14
 154 00b0 D2B2     		uxtb	r2, r2
ARM GAS  C:\Users\Brian\AppData\Local\Temp\cc9eEpjz.s 			page 5


 155 00b2 0A43     		orrs	r2, r2, r1
 156 00b4 D2B2     		uxtb	r2, r2
 157 00b6 D2B2     		uxtb	r2, r2
 158 00b8 1A70     		strb	r2, [r3, #0]
  75:.\Generated_Source\PSoC5/Port_5.c **** 	CyPins_SetPinDriveMode(Port_5_4, mode);
 159              		.loc 1 75 0
 160 00ba 45F22C03 		movw	r3, #20524
 161 00be C4F20003 		movt	r3, 16384
 162 00c2 45F22C02 		movw	r2, #20524
 163 00c6 C4F20002 		movt	r2, 16384
 164 00ca 1278     		ldrb	r2, [r2, #0]
 165 00cc D2B2     		uxtb	r2, r2
 166 00ce D2B2     		uxtb	r2, r2
 167 00d0 22F00E02 		bic	r2, r2, #14
 168 00d4 D1B2     		uxtb	r1, r2
 169 00d6 FA79     		ldrb	r2, [r7, #7]	@ zero_extendqisi2
 170 00d8 02F00E02 		and	r2, r2, #14
 171 00dc D2B2     		uxtb	r2, r2
 172 00de 0A43     		orrs	r2, r2, r1
 173 00e0 D2B2     		uxtb	r2, r2
 174 00e2 D2B2     		uxtb	r2, r2
 175 00e4 1A70     		strb	r2, [r3, #0]
  76:.\Generated_Source\PSoC5/Port_5.c **** 	CyPins_SetPinDriveMode(Port_5_5, mode);
 176              		.loc 1 76 0
 177 00e6 45F22D03 		movw	r3, #20525
 178 00ea C4F20003 		movt	r3, 16384
 179 00ee 45F22D02 		movw	r2, #20525
 180 00f2 C4F20002 		movt	r2, 16384
 181 00f6 1278     		ldrb	r2, [r2, #0]
 182 00f8 D2B2     		uxtb	r2, r2
 183 00fa D2B2     		uxtb	r2, r2
 184 00fc 22F00E02 		bic	r2, r2, #14
 185 0100 D1B2     		uxtb	r1, r2
 186 0102 FA79     		ldrb	r2, [r7, #7]	@ zero_extendqisi2
 187 0104 02F00E02 		and	r2, r2, #14
 188 0108 D2B2     		uxtb	r2, r2
 189 010a 0A43     		orrs	r2, r2, r1
 190 010c D2B2     		uxtb	r2, r2
 191 010e D2B2     		uxtb	r2, r2
 192 0110 1A70     		strb	r2, [r3, #0]
  77:.\Generated_Source\PSoC5/Port_5.c **** 	CyPins_SetPinDriveMode(Port_5_6, mode);
 193              		.loc 1 77 0
 194 0112 45F22E03 		movw	r3, #20526
 195 0116 C4F20003 		movt	r3, 16384
 196 011a 45F22E02 		movw	r2, #20526
 197 011e C4F20002 		movt	r2, 16384
 198 0122 1278     		ldrb	r2, [r2, #0]
 199 0124 D2B2     		uxtb	r2, r2
 200 0126 D2B2     		uxtb	r2, r2
 201 0128 22F00E02 		bic	r2, r2, #14
 202 012c D1B2     		uxtb	r1, r2
 203 012e FA79     		ldrb	r2, [r7, #7]	@ zero_extendqisi2
 204 0130 02F00E02 		and	r2, r2, #14
 205 0134 D2B2     		uxtb	r2, r2
 206 0136 0A43     		orrs	r2, r2, r1
 207 0138 D2B2     		uxtb	r2, r2
 208 013a D2B2     		uxtb	r2, r2
ARM GAS  C:\Users\Brian\AppData\Local\Temp\cc9eEpjz.s 			page 6


 209 013c 1A70     		strb	r2, [r3, #0]
  78:.\Generated_Source\PSoC5/Port_5.c **** 	CyPins_SetPinDriveMode(Port_5_7, mode);
 210              		.loc 1 78 0
 211 013e 45F22F03 		movw	r3, #20527
 212 0142 C4F20003 		movt	r3, 16384
 213 0146 45F22F02 		movw	r2, #20527
 214 014a C4F20002 		movt	r2, 16384
 215 014e 1278     		ldrb	r2, [r2, #0]
 216 0150 D2B2     		uxtb	r2, r2
 217 0152 D2B2     		uxtb	r2, r2
 218 0154 22F00E02 		bic	r2, r2, #14
 219 0158 D1B2     		uxtb	r1, r2
 220 015a FA79     		ldrb	r2, [r7, #7]	@ zero_extendqisi2
 221 015c 02F00E02 		and	r2, r2, #14
 222 0160 D2B2     		uxtb	r2, r2
 223 0162 0A43     		orrs	r2, r2, r1
 224 0164 D2B2     		uxtb	r2, r2
 225 0166 D2B2     		uxtb	r2, r2
 226 0168 1A70     		strb	r2, [r3, #0]
  79:.\Generated_Source\PSoC5/Port_5.c **** }
 227              		.loc 1 79 0
 228 016a 07F10C07 		add	r7, r7, #12
 229 016e BD46     		mov	sp, r7
 230 0170 80BC     		pop	{r7}
 231 0172 7047     		bx	lr
 232              		.cfi_endproc
 233              	.LFE1:
 234              		.size	Port_5_SetDriveMode, .-Port_5_SetDriveMode
 235              		.section	.text.Port_5_Read,"ax",%progbits
 236              		.align	2
 237              		.global	Port_5_Read
 238              		.thumb
 239              		.thumb_func
 240              		.type	Port_5_Read, %function
 241              	Port_5_Read:
 242              	.LFB2:
  80:.\Generated_Source\PSoC5/Port_5.c **** 
  81:.\Generated_Source\PSoC5/Port_5.c **** 
  82:.\Generated_Source\PSoC5/Port_5.c **** /*******************************************************************************
  83:.\Generated_Source\PSoC5/Port_5.c **** * Function Name: Port_5_Read
  84:.\Generated_Source\PSoC5/Port_5.c **** ********************************************************************************
  85:.\Generated_Source\PSoC5/Port_5.c **** *
  86:.\Generated_Source\PSoC5/Port_5.c **** * Summary:
  87:.\Generated_Source\PSoC5/Port_5.c **** *  Read the current value on the pins of the Digital Port in right justified 
  88:.\Generated_Source\PSoC5/Port_5.c **** *  form.
  89:.\Generated_Source\PSoC5/Port_5.c **** *
  90:.\Generated_Source\PSoC5/Port_5.c **** * Parameters:  
  91:.\Generated_Source\PSoC5/Port_5.c **** *  None
  92:.\Generated_Source\PSoC5/Port_5.c **** *
  93:.\Generated_Source\PSoC5/Port_5.c **** * Return: 
  94:.\Generated_Source\PSoC5/Port_5.c **** *  Returns the current value of the Digital Port as a right justified number
  95:.\Generated_Source\PSoC5/Port_5.c **** *  
  96:.\Generated_Source\PSoC5/Port_5.c **** * Note:
  97:.\Generated_Source\PSoC5/Port_5.c **** *  Macro Port_5_ReadPS calls this function. 
  98:.\Generated_Source\PSoC5/Port_5.c **** *  
  99:.\Generated_Source\PSoC5/Port_5.c **** *******************************************************************************/
 100:.\Generated_Source\PSoC5/Port_5.c **** uint8 Port_5_Read(void) 
ARM GAS  C:\Users\Brian\AppData\Local\Temp\cc9eEpjz.s 			page 7


 101:.\Generated_Source\PSoC5/Port_5.c **** {
 243              		.loc 1 101 0
 244              		.cfi_startproc
 245              		@ args = 0, pretend = 0, frame = 0
 246              		@ frame_needed = 1, uses_anonymous_args = 0
 247              		@ link register save eliminated.
 248 0000 80B4     		push	{r7}
 249              	.LCFI6:
 250              		.cfi_def_cfa_offset 4
 251              		.cfi_offset 7, -4
 252 0002 00AF     		add	r7, sp, #0
 253              	.LCFI7:
 254              		.cfi_def_cfa_register 7
 102:.\Generated_Source\PSoC5/Port_5.c ****     return (Port_5_PS & Port_5_MASK) >> Port_5_SHIFT;
 255              		.loc 1 102 0
 256 0004 45F25113 		movw	r3, #20817
 257 0008 C4F20003 		movt	r3, 16384
 258 000c 1B78     		ldrb	r3, [r3, #0]
 259 000e DBB2     		uxtb	r3, r3
 103:.\Generated_Source\PSoC5/Port_5.c **** }
 260              		.loc 1 103 0
 261 0010 1846     		mov	r0, r3
 262 0012 BD46     		mov	sp, r7
 263 0014 80BC     		pop	{r7}
 264 0016 7047     		bx	lr
 265              		.cfi_endproc
 266              	.LFE2:
 267              		.size	Port_5_Read, .-Port_5_Read
 268              		.section	.text.Port_5_ReadDataReg,"ax",%progbits
 269              		.align	2
 270              		.global	Port_5_ReadDataReg
 271              		.thumb
 272              		.thumb_func
 273              		.type	Port_5_ReadDataReg, %function
 274              	Port_5_ReadDataReg:
 275              	.LFB3:
 104:.\Generated_Source\PSoC5/Port_5.c **** 
 105:.\Generated_Source\PSoC5/Port_5.c **** 
 106:.\Generated_Source\PSoC5/Port_5.c **** /*******************************************************************************
 107:.\Generated_Source\PSoC5/Port_5.c **** * Function Name: Port_5_ReadDataReg
 108:.\Generated_Source\PSoC5/Port_5.c **** ********************************************************************************
 109:.\Generated_Source\PSoC5/Port_5.c **** *
 110:.\Generated_Source\PSoC5/Port_5.c **** * Summary:
 111:.\Generated_Source\PSoC5/Port_5.c **** *  Read the current value assigned to a Digital Port's data output register
 112:.\Generated_Source\PSoC5/Port_5.c **** *
 113:.\Generated_Source\PSoC5/Port_5.c **** * Parameters:  
 114:.\Generated_Source\PSoC5/Port_5.c **** *  None 
 115:.\Generated_Source\PSoC5/Port_5.c **** *
 116:.\Generated_Source\PSoC5/Port_5.c **** * Return: 
 117:.\Generated_Source\PSoC5/Port_5.c **** *  Returns the current value assigned to the Digital Port's data output register
 118:.\Generated_Source\PSoC5/Port_5.c **** *  
 119:.\Generated_Source\PSoC5/Port_5.c **** *******************************************************************************/
 120:.\Generated_Source\PSoC5/Port_5.c **** uint8 Port_5_ReadDataReg(void) 
 121:.\Generated_Source\PSoC5/Port_5.c **** {
 276              		.loc 1 121 0
 277              		.cfi_startproc
 278              		@ args = 0, pretend = 0, frame = 0
ARM GAS  C:\Users\Brian\AppData\Local\Temp\cc9eEpjz.s 			page 8


 279              		@ frame_needed = 1, uses_anonymous_args = 0
 280              		@ link register save eliminated.
 281 0000 80B4     		push	{r7}
 282              	.LCFI8:
 283              		.cfi_def_cfa_offset 4
 284              		.cfi_offset 7, -4
 285 0002 00AF     		add	r7, sp, #0
 286              	.LCFI9:
 287              		.cfi_def_cfa_register 7
 122:.\Generated_Source\PSoC5/Port_5.c ****     return (Port_5_DR & Port_5_MASK) >> Port_5_SHIFT;
 288              		.loc 1 122 0
 289 0004 45F25013 		movw	r3, #20816
 290 0008 C4F20003 		movt	r3, 16384
 291 000c 1B78     		ldrb	r3, [r3, #0]
 292 000e DBB2     		uxtb	r3, r3
 123:.\Generated_Source\PSoC5/Port_5.c **** }
 293              		.loc 1 123 0
 294 0010 1846     		mov	r0, r3
 295 0012 BD46     		mov	sp, r7
 296 0014 80BC     		pop	{r7}
 297 0016 7047     		bx	lr
 298              		.cfi_endproc
 299              	.LFE3:
 300              		.size	Port_5_ReadDataReg, .-Port_5_ReadDataReg
 301              		.text
 302              	.Letext0:
 303              		.file 2 ".\\Generated_Source\\PSoC5\\cytypes.h"