ARM GAS  C:\Users\Brian\AppData\Local\Temp\ccp578GL.s 			page 1


   1              		.syntax unified
   2              		.cpu cortex-m3
   3              		.fpu softvfp
   4              		.eabi_attribute 20, 1
   5              		.eabi_attribute 21, 1
   6              		.eabi_attribute 23, 3
   7              		.eabi_attribute 24, 1
   8              		.eabi_attribute 25, 1
   9              		.eabi_attribute 26, 1
  10              		.eabi_attribute 30, 6
  11              		.eabi_attribute 34, 1
  12              		.eabi_attribute 18, 4
  13              		.thumb
  14              		.file	"Port_5_Control.c"
  15              		.text
  16              	.Ltext0:
  17              		.cfi_sections	.debug_frame
  18              		.section	.text.Port_5_Control_Write,"ax",%progbits
  19              		.align	2
  20              		.global	Port_5_Control_Write
  21              		.thumb
  22              		.thumb_func
  23              		.type	Port_5_Control_Write, %function
  24              	Port_5_Control_Write:
  25              	.LFB0:
  26              		.file 1 ".\\Generated_Source\\PSoC5\\Port_5_Control.c"
   1:.\Generated_Source\PSoC5/Port_5_Control.c **** /*******************************************************************************
   2:.\Generated_Source\PSoC5/Port_5_Control.c **** * File Name: Port_5_Control.c  
   3:.\Generated_Source\PSoC5/Port_5_Control.c **** * Version 1.70
   4:.\Generated_Source\PSoC5/Port_5_Control.c **** *
   5:.\Generated_Source\PSoC5/Port_5_Control.c **** * Description:
   6:.\Generated_Source\PSoC5/Port_5_Control.c **** *  This file contains API to enable firmware control of a Control Register.
   7:.\Generated_Source\PSoC5/Port_5_Control.c **** *
   8:.\Generated_Source\PSoC5/Port_5_Control.c **** * Note:
   9:.\Generated_Source\PSoC5/Port_5_Control.c **** *
  10:.\Generated_Source\PSoC5/Port_5_Control.c **** ********************************************************************************
  11:.\Generated_Source\PSoC5/Port_5_Control.c **** * Copyright 2008-2012, Cypress Semiconductor Corporation.  All rights reserved.
  12:.\Generated_Source\PSoC5/Port_5_Control.c **** * You may use this file only in accordance with the license, terms, conditions, 
  13:.\Generated_Source\PSoC5/Port_5_Control.c **** * disclaimers, and limitations in the end user license agreement accompanying 
  14:.\Generated_Source\PSoC5/Port_5_Control.c **** * the software package with which this file was provided.
  15:.\Generated_Source\PSoC5/Port_5_Control.c **** *******************************************************************************/
  16:.\Generated_Source\PSoC5/Port_5_Control.c **** 
  17:.\Generated_Source\PSoC5/Port_5_Control.c **** #include "Port_5_Control.h"
  18:.\Generated_Source\PSoC5/Port_5_Control.c **** 
  19:.\Generated_Source\PSoC5/Port_5_Control.c **** #if !defined(Port_5_Control_Sync_ctrl_reg__REMOVED) /* Check for removal by optimization */
  20:.\Generated_Source\PSoC5/Port_5_Control.c **** 
  21:.\Generated_Source\PSoC5/Port_5_Control.c **** /*******************************************************************************
  22:.\Generated_Source\PSoC5/Port_5_Control.c **** * Function Name: Port_5_Control_Write
  23:.\Generated_Source\PSoC5/Port_5_Control.c **** ********************************************************************************
  24:.\Generated_Source\PSoC5/Port_5_Control.c **** *
  25:.\Generated_Source\PSoC5/Port_5_Control.c **** * Summary:
  26:.\Generated_Source\PSoC5/Port_5_Control.c **** *  Write a byte to the Control Register.
  27:.\Generated_Source\PSoC5/Port_5_Control.c **** *
  28:.\Generated_Source\PSoC5/Port_5_Control.c **** * Parameters:
  29:.\Generated_Source\PSoC5/Port_5_Control.c **** *  control:  The value to be assigned to the Control Register.
  30:.\Generated_Source\PSoC5/Port_5_Control.c **** *
  31:.\Generated_Source\PSoC5/Port_5_Control.c **** * Return:
ARM GAS  C:\Users\Brian\AppData\Local\Temp\ccp578GL.s 			page 2


  32:.\Generated_Source\PSoC5/Port_5_Control.c **** *  None.
  33:.\Generated_Source\PSoC5/Port_5_Control.c **** *
  34:.\Generated_Source\PSoC5/Port_5_Control.c **** *******************************************************************************/
  35:.\Generated_Source\PSoC5/Port_5_Control.c **** void Port_5_Control_Write(uint8 control) 
  36:.\Generated_Source\PSoC5/Port_5_Control.c **** {
  27              		.loc 1 36 0
  28              		.cfi_startproc
  29              		@ args = 0, pretend = 0, frame = 8
  30              		@ frame_needed = 1, uses_anonymous_args = 0
  31              		@ link register save eliminated.
  32 0000 80B4     		push	{r7}
  33              	.LCFI0:
  34              		.cfi_def_cfa_offset 4
  35              		.cfi_offset 7, -4
  36 0002 83B0     		sub	sp, sp, #12
  37              	.LCFI1:
  38              		.cfi_def_cfa_offset 16
  39 0004 00AF     		add	r7, sp, #0
  40              	.LCFI2:
  41              		.cfi_def_cfa_register 7
  42 0006 0346     		mov	r3, r0
  43 0008 FB71     		strb	r3, [r7, #7]
  37:.\Generated_Source\PSoC5/Port_5_Control.c ****     Port_5_Control_Control = control;
  44              		.loc 1 37 0
  45 000a 46F27953 		movw	r3, #25977
  46 000e C4F20003 		movt	r3, 16384
  47 0012 FA79     		ldrb	r2, [r7, #7]
  48 0014 1A70     		strb	r2, [r3, #0]
  38:.\Generated_Source\PSoC5/Port_5_Control.c **** }
  49              		.loc 1 38 0
  50 0016 07F10C07 		add	r7, r7, #12
  51 001a BD46     		mov	sp, r7
  52 001c 80BC     		pop	{r7}
  53 001e 7047     		bx	lr
  54              		.cfi_endproc
  55              	.LFE0:
  56              		.size	Port_5_Control_Write, .-Port_5_Control_Write
  57              		.section	.text.Port_5_Control_Read,"ax",%progbits
  58              		.align	2
  59              		.global	Port_5_Control_Read
  60              		.thumb
  61              		.thumb_func
  62              		.type	Port_5_Control_Read, %function
  63              	Port_5_Control_Read:
  64              	.LFB1:
  39:.\Generated_Source\PSoC5/Port_5_Control.c **** 
  40:.\Generated_Source\PSoC5/Port_5_Control.c **** 
  41:.\Generated_Source\PSoC5/Port_5_Control.c **** /*******************************************************************************
  42:.\Generated_Source\PSoC5/Port_5_Control.c **** * Function Name: Port_5_Control_Read
  43:.\Generated_Source\PSoC5/Port_5_Control.c **** ********************************************************************************
  44:.\Generated_Source\PSoC5/Port_5_Control.c **** *
  45:.\Generated_Source\PSoC5/Port_5_Control.c **** * Summary:
  46:.\Generated_Source\PSoC5/Port_5_Control.c **** *  Reads the current value assigned to the Control Register.
  47:.\Generated_Source\PSoC5/Port_5_Control.c **** *
  48:.\Generated_Source\PSoC5/Port_5_Control.c **** * Parameters:
  49:.\Generated_Source\PSoC5/Port_5_Control.c **** *  None.
  50:.\Generated_Source\PSoC5/Port_5_Control.c **** *
ARM GAS  C:\Users\Brian\AppData\Local\Temp\ccp578GL.s 			page 3


  51:.\Generated_Source\PSoC5/Port_5_Control.c **** * Return:
  52:.\Generated_Source\PSoC5/Port_5_Control.c **** *  Returns the current value in the Control Register.
  53:.\Generated_Source\PSoC5/Port_5_Control.c **** *
  54:.\Generated_Source\PSoC5/Port_5_Control.c **** *******************************************************************************/
  55:.\Generated_Source\PSoC5/Port_5_Control.c **** uint8 Port_5_Control_Read(void) 
  56:.\Generated_Source\PSoC5/Port_5_Control.c **** {
  65              		.loc 1 56 0
  66              		.cfi_startproc
  67              		@ args = 0, pretend = 0, frame = 0
  68              		@ frame_needed = 1, uses_anonymous_args = 0
  69              		@ link register save eliminated.
  70 0000 80B4     		push	{r7}
  71              	.LCFI3:
  72              		.cfi_def_cfa_offset 4
  73              		.cfi_offset 7, -4
  74 0002 00AF     		add	r7, sp, #0
  75              	.LCFI4:
  76              		.cfi_def_cfa_register 7
  57:.\Generated_Source\PSoC5/Port_5_Control.c ****     return Port_5_Control_Control;
  77              		.loc 1 57 0
  78 0004 46F27953 		movw	r3, #25977
  79 0008 C4F20003 		movt	r3, 16384
  80 000c 1B78     		ldrb	r3, [r3, #0]
  81 000e DBB2     		uxtb	r3, r3
  58:.\Generated_Source\PSoC5/Port_5_Control.c **** }
  82              		.loc 1 58 0
  83 0010 1846     		mov	r0, r3
  84 0012 BD46     		mov	sp, r7
  85 0014 80BC     		pop	{r7}
  86 0016 7047     		bx	lr
  87              		.cfi_endproc
  88              	.LFE1:
  89              		.size	Port_5_Control_Read, .-Port_5_Control_Read
  90              		.text
  91              	.Letext0:
  92              		.file 2 ".\\Generated_Source\\PSoC5\\cytypes.h"