Archive member included because of file (symbol)

.\CortexM3\ARM_GCC_473\Debug\PSoC_2_Pi.a(cyfitter_cfg.o)
                              .\CortexM3\ARM_GCC_473\Debug\Cm3Start.o (cyfitter_cfg)
.\CortexM3\ARM_GCC_473\Debug\PSoC_2_Pi.a(CyBootAsmGnu.o)
                              .\CortexM3\ARM_GCC_473\Debug\PSoC_2_Pi.a(cyfitter_cfg.o) (CyDelayCycles)
.\CortexM3\ARM_GCC_473\Debug\PSoC_2_Pi.a(CyDmac.o)
                              .\CortexM3\ARM_GCC_473\Debug\Cm3Start.o (CyDmacConfigure)
.\CortexM3\ARM_GCC_473\Debug\PSoC_2_Pi.a(CyLib.o)
                              .\CortexM3\ARM_GCC_473\Debug\Cm3Start.o (CyResetStatus)
.\CortexM3\ARM_GCC_473\Debug\PSoC_2_Pi.a(cyPm.o)
                              .\CortexM3\ARM_GCC_473\Debug\PSoC_2_Pi.a(CyLib.o) (CyPmReadStatus)
.\CortexM3\ARM_GCC_473\Debug\PSoC_2_Pi.a(PWM_1.o)
                              .\CortexM3\ARM_GCC_473\Debug\mem1.o (PWM_1_Start)
.\CortexM3\ARM_GCC_473\Debug\PSoC_2_Pi.a(PWM_1_PM.o)
                              .\CortexM3\ARM_GCC_473\Debug\mem1.o (PWM_1_Sleep)
.\CortexM3\ARM_GCC_473\Debug\PSoC_2_Pi.a(ADC_SAR_1.o)
                              .\CortexM3\ARM_GCC_473\Debug\mem1.o (ADC_SAR_1_Start)
.\CortexM3\ARM_GCC_473\Debug\PSoC_2_Pi.a(ADC_SAR_1_INT.o)
                              .\CortexM3\ARM_GCC_473\Debug\PSoC_2_Pi.a(ADC_SAR_1.o) (ADC_SAR_1_ISR)
.\CortexM3\ARM_GCC_473\Debug\PSoC_2_Pi.a(ADC_SAR_1_PM.o)
                              .\CortexM3\ARM_GCC_473\Debug\mem1.o (ADC_SAR_1_Sleep)
.\CortexM3\ARM_GCC_473\Debug\PSoC_2_Pi.a(ADC_SAR_2.o)
                              .\CortexM3\ARM_GCC_473\Debug\mem1.o (ADC_SAR_2_Start)
.\CortexM3\ARM_GCC_473\Debug\PSoC_2_Pi.a(ADC_SAR_2_INT.o)
                              .\CortexM3\ARM_GCC_473\Debug\PSoC_2_Pi.a(ADC_SAR_2.o) (ADC_SAR_2_ISR)
.\CortexM3\ARM_GCC_473\Debug\PSoC_2_Pi.a(ADC_SAR_2_PM.o)
                              .\CortexM3\ARM_GCC_473\Debug\mem1.o (ADC_SAR_2_Sleep)
.\CortexM3\ARM_GCC_473\Debug\PSoC_2_Pi.a(ADC_SAR_1_theACLK.o)
                              .\CortexM3\ARM_GCC_473\Debug\PSoC_2_Pi.a(ADC_SAR_1.o) (ADC_SAR_1_theACLK_SetModeRegister)
.\CortexM3\ARM_GCC_473\Debug\PSoC_2_Pi.a(ADC_SAR_2_theACLK.o)
                              .\CortexM3\ARM_GCC_473\Debug\PSoC_2_Pi.a(ADC_SAR_2.o) (ADC_SAR_2_theACLK_SetModeRegister)
.\CortexM3\ARM_GCC_473\Debug\PSoC_2_Pi.a(VDAC8_1.o)
                              .\CortexM3\ARM_GCC_473\Debug\mem1.o (VDAC8_1_SetRange)
.\CortexM3\ARM_GCC_473\Debug\PSoC_2_Pi.a(VDAC8_1_PM.o)
                              .\CortexM3\ARM_GCC_473\Debug\mem1.o (VDAC8_1_Sleep)
.\CortexM3\ARM_GCC_473\Debug\PSoC_2_Pi.a(VDAC8_2.o)
                              .\CortexM3\ARM_GCC_473\Debug\mem1.o (VDAC8_2_SetRange)
.\CortexM3\ARM_GCC_473\Debug\PSoC_2_Pi.a(VDAC8_2_PM.o)
                              .\CortexM3\ARM_GCC_473\Debug\mem1.o (VDAC8_2_Sleep)
.\CortexM3\ARM_GCC_473\Debug\PSoC_2_Pi.a(IDAC8_1.o)
                              .\CortexM3\ARM_GCC_473\Debug\mem1.o (IDAC8_1_SetSpeed)
.\CortexM3\ARM_GCC_473\Debug\PSoC_2_Pi.a(IDAC8_1_PM.o)
                              .\CortexM3\ARM_GCC_473\Debug\mem1.o (IDAC8_1_Sleep)
.\CortexM3\ARM_GCC_473\Debug\PSoC_2_Pi.a(WaveDAC_clk.o)
                              .\CortexM3\ARM_GCC_473\Debug\mem1.o (WaveDAC_clk_Start)
.\CortexM3\ARM_GCC_473\Debug\PSoC_2_Pi.a(WaveDAC8_1.o)
                              .\CortexM3\ARM_GCC_473\Debug\mem1.o (WaveDAC8_1_Wave2Setup)
.\CortexM3\ARM_GCC_473\Debug\PSoC_2_Pi.a(WaveDAC8_1_PM.o)
                              .\CortexM3\ARM_GCC_473\Debug\mem1.o (WaveDAC8_1_Sleep)
.\CortexM3\ARM_GCC_473\Debug\PSoC_2_Pi.a(WaveDAC8_1_Wave1_DMA_dma.o)
                              .\CortexM3\ARM_GCC_473\Debug\PSoC_2_Pi.a(WaveDAC8_1.o) (WaveDAC8_1_Wave1_DMA_DmaInitialize)
.\CortexM3\ARM_GCC_473\Debug\PSoC_2_Pi.a(WaveDAC8_1_Wave2_DMA_dma.o)
                              .\CortexM3\ARM_GCC_473\Debug\PSoC_2_Pi.a(WaveDAC8_1.o) (WaveDAC8_1_Wave2_DMA_DmaInitialize)
.\CortexM3\ARM_GCC_473\Debug\PSoC_2_Pi.a(WaveDAC8_1_VDAC8.o)
                              .\CortexM3\ARM_GCC_473\Debug\PSoC_2_Pi.a(WaveDAC8_1.o) (WaveDAC8_1_VDAC8_Init)
.\CortexM3\ARM_GCC_473\Debug\PSoC_2_Pi.a(WaveDAC8_1_VDAC8_PM.o)
                              .\CortexM3\ARM_GCC_473\Debug\PSoC_2_Pi.a(WaveDAC8_1_PM.o) (WaveDAC8_1_VDAC8_SaveConfig)
.\CortexM3\ARM_GCC_473\Debug\PSoC_2_Pi.a(Control_Reg_1.o)
                              .\CortexM3\ARM_GCC_473\Debug\mem1.o (Control_Reg_1_Write)
.\CortexM3\ARM_GCC_473\Debug\PSoC_2_Pi.a(Status_Reg_1.o)
                              .\CortexM3\ARM_GCC_473\Debug\mem1.o (Status_Reg_1_Read)
.\CortexM3\ARM_GCC_473\Debug\PSoC_2_Pi.a(ADC_DelSig_1.o)
                              .\CortexM3\ARM_GCC_473\Debug\mem1.o (ADC_DelSig_1_Start)
.\CortexM3\ARM_GCC_473\Debug\PSoC_2_Pi.a(ADC_DelSig_1_PM.o)
                              .\CortexM3\ARM_GCC_473\Debug\mem1.o (ADC_DelSig_1_Sleep)
.\CortexM3\ARM_GCC_473\Debug\PSoC_2_Pi.a(ADC_DelSig_1_INT.o)
                              .\CortexM3\ARM_GCC_473\Debug\PSoC_2_Pi.a(ADC_DelSig_1.o) (ADC_DelSig_1_ISR1)
.\CortexM3\ARM_GCC_473\Debug\PSoC_2_Pi.a(PWM_2.o)
                              .\CortexM3\ARM_GCC_473\Debug\mem1.o (PWM_2_Start)
.\CortexM3\ARM_GCC_473\Debug\PSoC_2_Pi.a(PWM_2_PM.o)
                              .\CortexM3\ARM_GCC_473\Debug\mem1.o (PWM_2_Sleep)
.\CortexM3\ARM_GCC_473\Debug\PSoC_2_Pi.a(PWM_3.o)
                              .\CortexM3\ARM_GCC_473\Debug\mem1.o (PWM_3_Start)
.\CortexM3\ARM_GCC_473\Debug\PSoC_2_Pi.a(PWM_3_PM.o)
                              .\CortexM3\ARM_GCC_473\Debug\mem1.o (PWM_3_Sleep)
.\CortexM3\ARM_GCC_473\Debug\PSoC_2_Pi.a(PWM_4.o)
                              .\CortexM3\ARM_GCC_473\Debug\mem1.o (PWM_4_Start)
.\CortexM3\ARM_GCC_473\Debug\PSoC_2_Pi.a(PWM_4_PM.o)
                              .\CortexM3\ARM_GCC_473\Debug\mem1.o (PWM_4_Sleep)
.\CortexM3\ARM_GCC_473\Debug\PSoC_2_Pi.a(PWM_5.o)
                              .\CortexM3\ARM_GCC_473\Debug\mem1.o (PWM_5_Start)
.\CortexM3\ARM_GCC_473\Debug\PSoC_2_Pi.a(PWM_5_PM.o)
                              .\CortexM3\ARM_GCC_473\Debug\mem1.o (PWM_5_Sleep)
.\CortexM3\ARM_GCC_473\Debug\PSoC_2_Pi.a(PWM_6.o)
                              .\CortexM3\ARM_GCC_473\Debug\mem1.o (PWM_6_Start)
.\CortexM3\ARM_GCC_473\Debug\PSoC_2_Pi.a(PWM_6_PM.o)
                              .\CortexM3\ARM_GCC_473\Debug\mem1.o (PWM_6_Sleep)
.\CortexM3\ARM_GCC_473\Debug\PSoC_2_Pi.a(PWM_7.o)
                              .\CortexM3\ARM_GCC_473\Debug\mem1.o (PWM_7_Start)
.\CortexM3\ARM_GCC_473\Debug\PSoC_2_Pi.a(PWM_7_PM.o)
                              .\CortexM3\ARM_GCC_473\Debug\mem1.o (PWM_7_Sleep)
.\CortexM3\ARM_GCC_473\Debug\PSoC_2_Pi.a(PWM_8.o)
                              .\CortexM3\ARM_GCC_473\Debug\mem1.o (PWM_8_Start)
.\CortexM3\ARM_GCC_473\Debug\PSoC_2_Pi.a(PWM_8_PM.o)
                              .\CortexM3\ARM_GCC_473\Debug\mem1.o (PWM_8_Sleep)
.\CortexM3\ARM_GCC_473\Debug\PSoC_2_Pi.a(Control_Reg_2.o)
                              .\CortexM3\ARM_GCC_473\Debug\mem1.o (Control_Reg_2_Write)
.\CortexM3\ARM_GCC_473\Debug\PSoC_2_Pi.a(Status_Reg_2.o)
                              .\CortexM3\ARM_GCC_473\Debug\mem1.o (Status_Reg_2_Read)
.\CortexM3\ARM_GCC_473\Debug\PSoC_2_Pi.a(ADC_DelSig_1_AMux.o)
                              .\CortexM3\ARM_GCC_473\Debug\PSoC_2_Pi.a(ADC_DelSig_1.o) (ADC_DelSig_1_AMux_Select)
.\CortexM3\ARM_GCC_473\Debug\PSoC_2_Pi.a(ADC_DelSig_1_Ext_CP_Clk.o)
                              .\CortexM3\ARM_GCC_473\Debug\PSoC_2_Pi.a(ADC_DelSig_1.o) (ADC_DelSig_1_Ext_CP_Clk_SetDividerRegister)
.\CortexM3\ARM_GCC_473\Debug\PSoC_2_Pi.a(ADC_DelSig_1_theACLK.o)
                              .\CortexM3\ARM_GCC_473\Debug\PSoC_2_Pi.a(ADC_DelSig_1.o) (ADC_DelSig_1_theACLK_SetDividerRegister)
.\CortexM3\ARM_GCC_473\Debug\PSoC_2_Pi.a(WaveDAC8_1_BuffAmp.o)
                              .\CortexM3\ARM_GCC_473\Debug\PSoC_2_Pi.a(WaveDAC8_1.o) (WaveDAC8_1_BuffAmp_Init)
.\CortexM3\ARM_GCC_473\Debug\PSoC_2_Pi.a(Control_Reg_3.o)
                              .\CortexM3\ARM_GCC_473\Debug\mem1.o (Control_Reg_3_Write)
.\CortexM3\ARM_GCC_473\Debug\PSoC_2_Pi.a(Status_Reg_3.o)
                              .\CortexM3\ARM_GCC_473\Debug\mem1.o (Status_Reg_3_Read)
.\CortexM3\ARM_GCC_473\Debug\PSoC_2_Pi.a(PWM_1_2_clk.o)
                              .\CortexM3\ARM_GCC_473\Debug\mem1.o (PWM_1_2_clk_SetDividerRegister)
.\CortexM3\ARM_GCC_473\Debug\PSoC_2_Pi.a(PWM_3_4_clk.o)
                              .\CortexM3\ARM_GCC_473\Debug\mem1.o (PWM_3_4_clk_SetDividerRegister)
.\CortexM3\ARM_GCC_473\Debug\PSoC_2_Pi.a(PWM_5_6_clk.o)
                              .\CortexM3\ARM_GCC_473\Debug\mem1.o (PWM_5_6_clk_SetDividerRegister)
.\CortexM3\ARM_GCC_473\Debug\PSoC_2_Pi.a(PWM_7_8_clk.o)
                              .\CortexM3\ARM_GCC_473\Debug\mem1.o (PWM_7_8_clk_SetDividerRegister)
.\CortexM3\ARM_GCC_473\Debug\PSoC_2_Pi.a(I2C_1.o)
                              .\CortexM3\ARM_GCC_473\Debug\main.o (I2C_1_Start)
.\CortexM3\ARM_GCC_473\Debug\PSoC_2_Pi.a(I2C_1_INT.o)
                              .\CortexM3\ARM_GCC_473\Debug\PSoC_2_Pi.a(I2C_1.o) (I2C_1_ISR)
.\CortexM3\ARM_GCC_473\Debug\PSoC_2_Pi.a(I2C_1_PM.o)
                              .\CortexM3\ARM_GCC_473\Debug\PSoC_2_Pi.a(I2C_1.o) (I2C_1_backup)
.\CortexM3\ARM_GCC_473\Debug\PSoC_2_Pi.a(I2C_1_SLAVE.o)
                              .\CortexM3\ARM_GCC_473\Debug\PSoC_2_Pi.a(I2C_1.o) (I2C_1_slStatus)
.\CortexM3\ARM_GCC_473\Debug\PSoC_2_Pi.a(CyFlash.o)
                              .\CortexM3\ARM_GCC_473\Debug\PSoC_2_Pi.a(cyPm.o) (CyFlash_SetWaitCycles)
.\CortexM3\ARM_GCC_473\Debug\PSoC_2_Pi.a(CySpc.o)
                              .\CortexM3\ARM_GCC_473\Debug\PSoC_2_Pi.a(CyFlash.o) (CySpcStart)
c:/program files (x86)/cypress/psoc creator/3.0/psoc creator/import/gnu_cs/arm/4.7.3/bin/../lib/gcc/arm-none-eabi/4.7.3/armv7-m\libgcc.a(_arm_addsubdf3.o)
                              .\CortexM3\ARM_GCC_473\Debug\mem1.o (__aeabi_dadd)
c:/program files (x86)/cypress/psoc creator/3.0/psoc creator/import/gnu_cs/arm/4.7.3/bin/../lib/gcc/arm-none-eabi/4.7.3/armv7-m\libgcc.a(_arm_muldivdf3.o)
                              .\CortexM3\ARM_GCC_473\Debug\mem1.o (__aeabi_dmul)
c:/program files (x86)/cypress/psoc creator/3.0/psoc creator/import/gnu_cs/arm/4.7.3/bin/../lib/gcc/arm-none-eabi/4.7.3/armv7-m\libgcc.a(_arm_cmpdf2.o)
                              .\CortexM3\ARM_GCC_473\Debug\mem1.o (__aeabi_dcmpgt)
c:/program files (x86)/cypress/psoc creator/3.0/psoc creator/import/gnu_cs/arm/4.7.3/bin/../lib/gcc/arm-none-eabi/4.7.3/armv7-m\libgcc.a(_arm_fixunsdfsi.o)
                              .\CortexM3\ARM_GCC_473\Debug\mem1.o (__aeabi_d2uiz)
c:/program files (x86)/cypress/psoc creator/3.0/psoc creator/import/gnu_cs/arm/4.7.3/bin/../lib/gcc/arm-none-eabi/4.7.3/armv7-m\libgcc.a(_arm_addsubsf3.o)
                              .\CortexM3\ARM_GCC_473\Debug\PSoC_2_Pi.a(ADC_DelSig_1.o) (__aeabi_ui2f)
c:/program files (x86)/cypress/psoc creator/3.0/psoc creator/import/gnu_cs/arm/4.7.3/bin/../lib/gcc/arm-none-eabi/4.7.3/armv7-m\libgcc.a(_arm_muldivsf3.o)
                              .\CortexM3\ARM_GCC_473\Debug\PSoC_2_Pi.a(ADC_SAR_1.o) (__aeabi_fmul)
c:/program files (x86)/cypress/psoc creator/3.0/psoc creator/import/gnu_cs/arm/4.7.3/bin/../lib/gcc/arm-none-eabi/4.7.3/armv7-m\libgcc.a(_arm_fixunssfsi.o)
                              .\CortexM3\ARM_GCC_473\Debug\PSoC_2_Pi.a(ADC_DelSig_1.o) (__aeabi_f2uiz)
c:/program files (x86)/cypress/psoc creator/3.0/psoc creator/import/gnu_cs/arm/4.7.3/bin/../lib/gcc/arm-none-eabi/4.7.3/armv7-m\libgcc.a(_aeabi_ldivmod.o)
                              .\CortexM3\ARM_GCC_473\Debug\PSoC_2_Pi.a(ADC_SAR_1.o) (__aeabi_ldivmod)
c:/program files (x86)/cypress/psoc creator/3.0/psoc creator/import/gnu_cs/arm/4.7.3/bin/../lib/gcc/arm-none-eabi/4.7.3/armv7-m\libgcc.a(bpabi.o)
                              c:/program files (x86)/cypress/psoc creator/3.0/psoc creator/import/gnu_cs/arm/4.7.3/bin/../lib/gcc/arm-none-eabi/4.7.3/armv7-m\libgcc.a(_aeabi_ldivmod.o) (__gnu_ldivmod_helper)
c:/program files (x86)/cypress/psoc creator/3.0/psoc creator/import/gnu_cs/arm/4.7.3/bin/../lib/gcc/arm-none-eabi/4.7.3/armv7-m\libgcc.a(_dvmd_tls.o)
                              c:/program files (x86)/cypress/psoc creator/3.0/psoc creator/import/gnu_cs/arm/4.7.3/bin/../lib/gcc/arm-none-eabi/4.7.3/armv7-m\libgcc.a(_aeabi_ldivmod.o) (__aeabi_ldiv0)
c:/program files (x86)/cypress/psoc creator/3.0/psoc creator/import/gnu_cs/arm/4.7.3/bin/../lib/gcc/arm-none-eabi/4.7.3/armv7-m\libgcc.a(_divdi3.o)
                              c:/program files (x86)/cypress/psoc creator/3.0/psoc creator/import/gnu_cs/arm/4.7.3/bin/../lib/gcc/arm-none-eabi/4.7.3/armv7-m\libgcc.a(bpabi.o) (__divdi3)
c:/program files (x86)/cypress/psoc creator/3.0/psoc creator/import/gnu_cs/arm/4.7.3/bin/../lib/gcc/arm-none-eabi/4.7.3/armv7-m\libgcc.a(_udivdi3.o)
                              c:/program files (x86)/cypress/psoc creator/3.0/psoc creator/import/gnu_cs/arm/4.7.3/bin/../lib/gcc/arm-none-eabi/4.7.3/armv7-m\libgcc.a(bpabi.o) (__udivdi3)
c:/program files (x86)/cypress/psoc creator/3.0/psoc creator/import/gnu_cs/arm/4.7.3/bin/../lib/gcc/arm-none-eabi/4.7.3/../../../../arm-none-eabi/lib/armv7-m\libc_s.a(lib_a-__atexit2.o)
                              c:/program files (x86)/cypress/psoc creator/3.0/psoc creator/import/gnu_cs/arm/4.7.3/bin/../lib/gcc/arm-none-eabi/4.7.3/../../../../arm-none-eabi/lib/armv7-m/crt0.o (__register_exitproc)
c:/program files (x86)/cypress/psoc creator/3.0/psoc creator/import/gnu_cs/arm/4.7.3/bin/../lib/gcc/arm-none-eabi/4.7.3/../../../../arm-none-eabi/lib/armv7-m\libc_s.a(lib_a-exit.o)
                              c:/program files (x86)/cypress/psoc creator/3.0/psoc creator/import/gnu_cs/arm/4.7.3/bin/../lib/gcc/arm-none-eabi/4.7.3/../../../../arm-none-eabi/lib/armv7-m/crt0.o (exit)
c:/program files (x86)/cypress/psoc creator/3.0/psoc creator/import/gnu_cs/arm/4.7.3/bin/../lib/gcc/arm-none-eabi/4.7.3/../../../../arm-none-eabi/lib/armv7-m\libc_s.a(lib_a-fini.o)
                              c:/program files (x86)/cypress/psoc creator/3.0/psoc creator/import/gnu_cs/arm/4.7.3/bin/../lib/gcc/arm-none-eabi/4.7.3/../../../../arm-none-eabi/lib/armv7-m/crt0.o (__libc_fini_array)
c:/program files (x86)/cypress/psoc creator/3.0/psoc creator/import/gnu_cs/arm/4.7.3/bin/../lib/gcc/arm-none-eabi/4.7.3/../../../../arm-none-eabi/lib/armv7-m\libc_s.a(lib_a-impure.o)
                              c:/program files (x86)/cypress/psoc creator/3.0/psoc creator/import/gnu_cs/arm/4.7.3/bin/../lib/gcc/arm-none-eabi/4.7.3/../../../../arm-none-eabi/lib/armv7-m\libc_s.a(lib_a-exit.o) (_global_impure_ptr)
c:/program files (x86)/cypress/psoc creator/3.0/psoc creator/import/gnu_cs/arm/4.7.3/bin/../lib/gcc/arm-none-eabi/4.7.3/../../../../arm-none-eabi/lib/armv7-m\libc_s.a(lib_a-init.o)
                              c:/program files (x86)/cypress/psoc creator/3.0/psoc creator/import/gnu_cs/arm/4.7.3/bin/../lib/gcc/arm-none-eabi/4.7.3/../../../../arm-none-eabi/lib/armv7-m/crt0.o (__libc_init_array)
c:/program files (x86)/cypress/psoc creator/3.0/psoc creator/import/gnu_cs/arm/4.7.3/bin/../lib/gcc/arm-none-eabi/4.7.3/../../../../arm-none-eabi/lib/armv7-m\libc_s.a(lib_a-memcpy.o)
                              .\CortexM3\ARM_GCC_473\Debug\mem1.o (memcpy)
c:/program files (x86)/cypress/psoc creator/3.0/psoc creator/import/gnu_cs/arm/4.7.3/bin/../lib/gcc/arm-none-eabi/4.7.3/../../../../arm-none-eabi/lib/armv7-m\libc_s.a(lib_a-memset.o)
                              c:/program files (x86)/cypress/psoc creator/3.0/psoc creator/import/gnu_cs/arm/4.7.3/bin/../lib/gcc/arm-none-eabi/4.7.3/../../../../arm-none-eabi/lib/armv7-m/crt0.o (memset)

Allocating common symbols
Common symbol       size              file

ADC_SAR_1_countsPerVolt
                    0x2               .\CortexM3\ARM_GCC_473\Debug\PSoC_2_Pi.a(ADC_SAR_1.o)
ADC_SAR_2_countsPer10Volt
                    0x4               .\CortexM3\ARM_GCC_473\Debug\PSoC_2_Pi.a(ADC_SAR_2.o)
I2C_1_slRdBufIndex  0x1               .\CortexM3\ARM_GCC_473\Debug\PSoC_2_Pi.a(I2C_1_SLAVE.o)
ADC_SAR_1_shift     0x2               .\CortexM3\ARM_GCC_473\Debug\PSoC_2_Pi.a(ADC_SAR_1.o)
ADC_DelSig_1_CountsPerVolt
                    0x4               .\CortexM3\ARM_GCC_473\Debug\PSoC_2_Pi.a(ADC_DelSig_1.o)
I2C_1_slStatus      0x1               .\CortexM3\ARM_GCC_473\Debug\PSoC_2_Pi.a(I2C_1_SLAVE.o)
ADC_DelSig_1_Offset
                    0x4               .\CortexM3\ARM_GCC_473\Debug\PSoC_2_Pi.a(ADC_DelSig_1.o)
I2C_1_slWrBufSize   0x1               .\CortexM3\ARM_GCC_473\Debug\PSoC_2_Pi.a(I2C_1_SLAVE.o)
ADC_SAR_1_countsPer10Volt
                    0x4               .\CortexM3\ARM_GCC_473\Debug\PSoC_2_Pi.a(ADC_SAR_1.o)
ADC_SAR_2_shift     0x2               .\CortexM3\ARM_GCC_473\Debug\PSoC_2_Pi.a(ADC_SAR_2.o)
I2C_1_slRdBufPtr    0x4               .\CortexM3\ARM_GCC_473\Debug\PSoC_2_Pi.a(I2C_1_SLAVE.o)
ADC_SAR_2_offset    0x2               .\CortexM3\ARM_GCC_473\Debug\PSoC_2_Pi.a(ADC_SAR_2.o)
WR_buf              0x4               .\CortexM3\ARM_GCC_473\Debug\main.o
I2C_1_slWrBufIndex  0x1               .\CortexM3\ARM_GCC_473\Debug\PSoC_2_Pi.a(I2C_1_SLAVE.o)
I2C_1_slWrBufPtr    0x4               .\CortexM3\ARM_GCC_473\Debug\PSoC_2_Pi.a(I2C_1_SLAVE.o)
I2C_1_state         0x1               .\CortexM3\ARM_GCC_473\Debug\PSoC_2_Pi.a(I2C_1.o)
ADC_SAR_2_countsPerVolt
                    0x2               .\CortexM3\ARM_GCC_473\Debug\PSoC_2_Pi.a(ADC_SAR_2.o)
dieTemperature      0x2               .\CortexM3\ARM_GCC_473\Debug\PSoC_2_Pi.a(CyFlash.o)
I2C_1_slRdBufSize   0x1               .\CortexM3\ARM_GCC_473\Debug\PSoC_2_Pi.a(I2C_1_SLAVE.o)
ADC_SAR_1_offset    0x2               .\CortexM3\ARM_GCC_473\Debug\PSoC_2_Pi.a(ADC_SAR_1.o)

Discarded input sections

 .text          0x00000000        0x0 c:/program files (x86)/cypress/psoc creator/3.0/psoc creator/import/gnu_cs/arm/4.7.3/bin/../lib/gcc/arm-none-eabi/4.7.3/armv7-m/crti.o
 .data          0x00000000        0x0 c:/program files (x86)/cypress/psoc creator/3.0/psoc creator/import/gnu_cs/arm/4.7.3/bin/../lib/gcc/arm-none-eabi/4.7.3/armv7-m/crti.o
 .bss           0x00000000        0x0 c:/program files (x86)/cypress/psoc creator/3.0/psoc creator/import/gnu_cs/arm/4.7.3/bin/../lib/gcc/arm-none-eabi/4.7.3/armv7-m/crti.o
 .data          0x00000000        0x4 c:/program files (x86)/cypress/psoc creator/3.0/psoc creator/import/gnu_cs/arm/4.7.3/bin/../lib/gcc/arm-none-eabi/4.7.3/armv7-m/crtbegin.o
 .text          0x00000000       0x70 c:/program files (x86)/cypress/psoc creator/3.0/psoc creator/import/gnu_cs/arm/4.7.3/bin/../lib/gcc/arm-none-eabi/4.7.3/../../../../arm-none-eabi/lib/armv7-m/crt0.o
 .data          0x00000000        0x0 c:/program files (x86)/cypress/psoc creator/3.0/psoc creator/import/gnu_cs/arm/4.7.3/bin/../lib/gcc/arm-none-eabi/4.7.3/../../../../arm-none-eabi/lib/armv7-m/crt0.o
 .bss           0x00000000        0x0 c:/program files (x86)/cypress/psoc creator/3.0/psoc creator/import/gnu_cs/arm/4.7.3/bin/../lib/gcc/arm-none-eabi/4.7.3/../../../../arm-none-eabi/lib/armv7-m/crt0.o
 .ARM.extab     0x00000000        0x0 c:/program files (x86)/cypress/psoc creator/3.0/psoc creator/import/gnu_cs/arm/4.7.3/bin/../lib/gcc/arm-none-eabi/4.7.3/../../../../arm-none-eabi/lib/armv7-m/crt0.o
 .ARM.exidx     0x00000000        0x8 c:/program files (x86)/cypress/psoc creator/3.0/psoc creator/import/gnu_cs/arm/4.7.3/bin/../lib/gcc/arm-none-eabi/4.7.3/../../../../arm-none-eabi/lib/armv7-m/crt0.o
 .text          0x00000000        0x0 .\CortexM3\ARM_GCC_473\Debug\main.o
 .data          0x00000000        0x0 .\CortexM3\ARM_GCC_473\Debug\main.o
 .text          0x00000000        0x0 .\CortexM3\ARM_GCC_473\Debug\mem1.o
 .data          0x00000000        0x0 .\CortexM3\ARM_GCC_473\Debug\mem1.o
 .bss           0x00000000        0x0 .\CortexM3\ARM_GCC_473\Debug\mem1.o
 .text          0x00000000        0x0 .\CortexM3\ARM_GCC_473\Debug\cymetadata.o
 .data          0x00000000        0x0 .\CortexM3\ARM_GCC_473\Debug\cymetadata.o
 .bss           0x00000000        0x0 .\CortexM3\ARM_GCC_473\Debug\cymetadata.o
 .text          0x00000000        0x0 .\CortexM3\ARM_GCC_473\Debug\Cm3Start.o
 .data          0x00000000        0x0 .\CortexM3\ARM_GCC_473\Debug\Cm3Start.o
 .bss           0x00000000        0x0 .\CortexM3\ARM_GCC_473\Debug\Cm3Start.o
 .text._exit    0x00000000       0x30 .\CortexM3\ARM_GCC_473\Debug\Cm3Start.o
 .text          0x00000000        0x0 .\CortexM3\ARM_GCC_473\Debug\cybootloader.o
 .data          0x00000000        0x0 .\CortexM3\ARM_GCC_473\Debug\cybootloader.o
 .bss           0x00000000        0x0 .\CortexM3\ARM_GCC_473\Debug\cybootloader.o
 .text          0x00000000        0x0 .\CortexM3\ARM_GCC_473\Debug\PSoC_2_Pi.a(cyfitter_cfg.o)
 .data          0x00000000        0x0 .\CortexM3\ARM_GCC_473\Debug\PSoC_2_Pi.a(cyfitter_cfg.o)
 .bss           0x00000000        0x0 .\CortexM3\ARM_GCC_473\Debug\PSoC_2_Pi.a(cyfitter_cfg.o)
 .text.CYCONFIGCPYCODE
                0x00000000       0x20 .\CortexM3\ARM_GCC_473\Debug\PSoC_2_Pi.a(cyfitter_cfg.o)
 .text.SetAnalogRoutingPumps
                0x00000000       0x44 .\CortexM3\ARM_GCC_473\Debug\PSoC_2_Pi.a(cyfitter_cfg.o)
 .data          0x00000000        0x0 .\CortexM3\ARM_GCC_473\Debug\PSoC_2_Pi.a(CyBootAsmGnu.o)
 .bss           0x00000000        0x0 .\CortexM3\ARM_GCC_473\Debug\PSoC_2_Pi.a(CyBootAsmGnu.o)
 .text          0x00000000        0x0 .\CortexM3\ARM_GCC_473\Debug\PSoC_2_Pi.a(CyDmac.o)
 .bss           0x00000000        0x0 .\CortexM3\ARM_GCC_473\Debug\PSoC_2_Pi.a(CyDmac.o)
 .text.CyDmacError
                0x00000000       0x20 .\CortexM3\ARM_GCC_473\Debug\PSoC_2_Pi.a(CyDmac.o)
 .text.CyDmacClearError
                0x00000000       0x24 .\CortexM3\ARM_GCC_473\Debug\PSoC_2_Pi.a(CyDmac.o)
 .text.CyDmacErrorAddress
                0x00000000       0x18 .\CortexM3\ARM_GCC_473\Debug\PSoC_2_Pi.a(CyDmac.o)
 .text.CyDmaChAlloc
                0x00000000       0x80 .\CortexM3\ARM_GCC_473\Debug\PSoC_2_Pi.a(CyDmac.o)
 .text.CyDmaChFree
                0x00000000       0x5c .\CortexM3\ARM_GCC_473\Debug\PSoC_2_Pi.a(CyDmac.o)
 .text.CyDmaClearPendingDrq
                0x00000000       0x84 .\CortexM3\ARM_GCC_473\Debug\PSoC_2_Pi.a(CyDmac.o)
 .text.CyDmaChSetRequest
                0x00000000       0x64 .\CortexM3\ARM_GCC_473\Debug\PSoC_2_Pi.a(CyDmac.o)
 .text.CyDmaChGetRequest
                0x00000000       0x40 .\CortexM3\ARM_GCC_473\Debug\PSoC_2_Pi.a(CyDmac.o)
 .text.CyDmaChStatus
                0x00000000       0x70 .\CortexM3\ARM_GCC_473\Debug\PSoC_2_Pi.a(CyDmac.o)
 .text.CyDmaTdFree
                0x00000000       0x6c .\CortexM3\ARM_GCC_473\Debug\PSoC_2_Pi.a(CyDmac.o)
 .text.CyDmaTdFreeCount
                0x00000000       0x1c .\CortexM3\ARM_GCC_473\Debug\PSoC_2_Pi.a(CyDmac.o)
 .text.CyDmaTdGetConfiguration
                0x00000000       0x94 .\CortexM3\ARM_GCC_473\Debug\PSoC_2_Pi.a(CyDmac.o)
 .text.CyDmaTdGetAddress
                0x00000000       0x78 .\CortexM3\ARM_GCC_473\Debug\PSoC_2_Pi.a(CyDmac.o)
 .text.CyDmaChRoundRobin
                0x00000000       0x90 .\CortexM3\ARM_GCC_473\Debug\PSoC_2_Pi.a(CyDmac.o)
 .text          0x00000000        0x0 .\CortexM3\ARM_GCC_473\Debug\PSoC_2_Pi.a(CyLib.o)
 .bss           0x00000000        0x0 .\CortexM3\ARM_GCC_473\Debug\PSoC_2_Pi.a(CyLib.o)
 .text.CyPLL_OUT_Start
                0x00000000       0xe0 .\CortexM3\ARM_GCC_473\Debug\PSoC_2_Pi.a(CyLib.o)
 .text.CyPLL_OUT_Stop
                0x00000000       0x28 .\CortexM3\ARM_GCC_473\Debug\PSoC_2_Pi.a(CyLib.o)
 .text.CyPLL_OUT_SetPQ
                0x00000000       0xac .\CortexM3\ARM_GCC_473\Debug\PSoC_2_Pi.a(CyLib.o)
 .text.CyPLL_OUT_SetSource
                0x00000000       0x60 .\CortexM3\ARM_GCC_473\Debug\PSoC_2_Pi.a(CyLib.o)
 .text.CyIMO_Start
                0x00000000       0xbc .\CortexM3\ARM_GCC_473\Debug\PSoC_2_Pi.a(CyLib.o)
 .text.CyIMO_Stop
                0x00000000       0x44 .\CortexM3\ARM_GCC_473\Debug\PSoC_2_Pi.a(CyLib.o)
 .text.CyUSB_PowerOnCheck
                0x00000000       0x70 .\CortexM3\ARM_GCC_473\Debug\PSoC_2_Pi.a(CyLib.o)
 .text.CyIMO_SetTrimValue
                0x00000000      0x160 .\CortexM3\ARM_GCC_473\Debug\PSoC_2_Pi.a(CyLib.o)
 .text.CyIMO_SetFreq
                0x00000000      0x224 .\CortexM3\ARM_GCC_473\Debug\PSoC_2_Pi.a(CyLib.o)
 .text.CyIMO_SetSource
                0x00000000       0xb0 .\CortexM3\ARM_GCC_473\Debug\PSoC_2_Pi.a(CyLib.o)
 .text.CyIMO_EnableDoubler
                0x00000000       0x28 .\CortexM3\ARM_GCC_473\Debug\PSoC_2_Pi.a(CyLib.o)
 .text.CyIMO_DisableDoubler
                0x00000000       0x28 .\CortexM3\ARM_GCC_473\Debug\PSoC_2_Pi.a(CyLib.o)
 .text.CyMasterClk_SetSource
                0x00000000       0x3c .\CortexM3\ARM_GCC_473\Debug\PSoC_2_Pi.a(CyLib.o)
 .text.CyMasterClk_SetDivider
                0x00000000       0x20 .\CortexM3\ARM_GCC_473\Debug\PSoC_2_Pi.a(CyLib.o)
 .text.CyBusClk_Internal_SetDivider
                0x00000000       0x98 .\CortexM3\ARM_GCC_473\Debug\PSoC_2_Pi.a(CyLib.o)
 .text.CyBusClk_SetDivider
                0x00000000       0xd0 .\CortexM3\ARM_GCC_473\Debug\PSoC_2_Pi.a(CyLib.o)
 .text.CyUsbClk_SetSource
                0x00000000       0x3c .\CortexM3\ARM_GCC_473\Debug\PSoC_2_Pi.a(CyLib.o)
 .text.CyILO_Start1K
                0x00000000       0x28 .\CortexM3\ARM_GCC_473\Debug\PSoC_2_Pi.a(CyLib.o)
 .text.CyILO_Stop1K
                0x00000000       0x28 .\CortexM3\ARM_GCC_473\Debug\PSoC_2_Pi.a(CyLib.o)
 .text.CyILO_Start100K
                0x00000000       0x28 .\CortexM3\ARM_GCC_473\Debug\PSoC_2_Pi.a(CyLib.o)
 .text.CyILO_Stop100K
                0x00000000       0x28 .\CortexM3\ARM_GCC_473\Debug\PSoC_2_Pi.a(CyLib.o)
 .text.CyILO_Enable33K
                0x00000000       0x28 .\CortexM3\ARM_GCC_473\Debug\PSoC_2_Pi.a(CyLib.o)
 .text.CyILO_Disable33K
                0x00000000       0x28 .\CortexM3\ARM_GCC_473\Debug\PSoC_2_Pi.a(CyLib.o)
 .text.CyILO_SetSource
                0x00000000       0x3c .\CortexM3\ARM_GCC_473\Debug\PSoC_2_Pi.a(CyLib.o)
 .text.CyILO_SetPowerMode
                0x00000000       0x5c .\CortexM3\ARM_GCC_473\Debug\PSoC_2_Pi.a(CyLib.o)
 .text.CyXTAL_32KHZ_Start
                0x00000000       0xa4 .\CortexM3\ARM_GCC_473\Debug\PSoC_2_Pi.a(CyLib.o)
 .text.CyXTAL_32KHZ_Stop
                0x00000000       0x64 .\CortexM3\ARM_GCC_473\Debug\PSoC_2_Pi.a(CyLib.o)
 .text.CyXTAL_32KHZ_ReadStatus
                0x00000000       0x20 .\CortexM3\ARM_GCC_473\Debug\PSoC_2_Pi.a(CyLib.o)
 .text.CyXTAL_32KHZ_SetPowerMode
                0x00000000       0xfc .\CortexM3\ARM_GCC_473\Debug\PSoC_2_Pi.a(CyLib.o)
 .text.CyXTAL_Start
                0x00000000      0x108 .\CortexM3\ARM_GCC_473\Debug\PSoC_2_Pi.a(CyLib.o)
 .text.CyXTAL_Stop
                0x00000000       0x28 .\CortexM3\ARM_GCC_473\Debug\PSoC_2_Pi.a(CyLib.o)
 .text.CyXTAL_EnableErrStatus
                0x00000000       0x28 .\CortexM3\ARM_GCC_473\Debug\PSoC_2_Pi.a(CyLib.o)
 .text.CyXTAL_DisableErrStatus
                0x00000000       0x28 .\CortexM3\ARM_GCC_473\Debug\PSoC_2_Pi.a(CyLib.o)
 .text.CyXTAL_ReadStatus
                0x00000000       0x2c .\CortexM3\ARM_GCC_473\Debug\PSoC_2_Pi.a(CyLib.o)
 .text.CyXTAL_EnableFaultRecovery
                0x00000000       0x28 .\CortexM3\ARM_GCC_473\Debug\PSoC_2_Pi.a(CyLib.o)
 .text.CyXTAL_DisableFaultRecovery
                0x00000000       0x28 .\CortexM3\ARM_GCC_473\Debug\PSoC_2_Pi.a(CyLib.o)
 .text.CyXTAL_SetStartup
                0x00000000       0x3c .\CortexM3\ARM_GCC_473\Debug\PSoC_2_Pi.a(CyLib.o)
 .text.CyXTAL_SetFbVoltage
                0x00000000       0x3c .\CortexM3\ARM_GCC_473\Debug\PSoC_2_Pi.a(CyLib.o)
 .text.CyXTAL_SetWdVoltage
                0x00000000       0x44 .\CortexM3\ARM_GCC_473\Debug\PSoC_2_Pi.a(CyLib.o)
 .text.CyDelay  0x00000000       0x48 .\CortexM3\ARM_GCC_473\Debug\PSoC_2_Pi.a(CyLib.o)
 .text.CyDelayFreq
                0x00000000       0xa8 .\CortexM3\ARM_GCC_473\Debug\PSoC_2_Pi.a(CyLib.o)
 .text.CyWdtStart
                0x00000000       0xc4 .\CortexM3\ARM_GCC_473\Debug\PSoC_2_Pi.a(CyLib.o)
 .text.CyWdtClear
                0x00000000       0x18 .\CortexM3\ARM_GCC_473\Debug\PSoC_2_Pi.a(CyLib.o)
 .text.CyVdLvDigitEnable
                0x00000000       0xf4 .\CortexM3\ARM_GCC_473\Debug\PSoC_2_Pi.a(CyLib.o)
 .text.CyVdLvAnalogEnable
                0x00000000       0xf4 .\CortexM3\ARM_GCC_473\Debug\PSoC_2_Pi.a(CyLib.o)
 .text.CyVdLvDigitDisable
                0x00000000       0x58 .\CortexM3\ARM_GCC_473\Debug\PSoC_2_Pi.a(CyLib.o)
 .text.CyVdLvAnalogDisable
                0x00000000       0x58 .\CortexM3\ARM_GCC_473\Debug\PSoC_2_Pi.a(CyLib.o)
 .text.CyVdHvAnalogEnable
                0x00000000       0x7c .\CortexM3\ARM_GCC_473\Debug\PSoC_2_Pi.a(CyLib.o)
 .text.CyVdHvAnalogDisable
                0x00000000       0x28 .\CortexM3\ARM_GCC_473\Debug\PSoC_2_Pi.a(CyLib.o)
 .text.CyVdStickyStatus
                0x00000000       0x48 .\CortexM3\ARM_GCC_473\Debug\PSoC_2_Pi.a(CyLib.o)
 .text.CyVdRealTimeStatus
                0x00000000       0x30 .\CortexM3\ARM_GCC_473\Debug\PSoC_2_Pi.a(CyLib.o)
 .text.CyDisableInts
                0x00000000       0x3c .\CortexM3\ARM_GCC_473\Debug\PSoC_2_Pi.a(CyLib.o)
 .text.CyEnableInts
                0x00000000       0x2c .\CortexM3\ARM_GCC_473\Debug\PSoC_2_Pi.a(CyLib.o)
 .text.CyFlushCache
                0x00000000       0x7c .\CortexM3\ARM_GCC_473\Debug\PSoC_2_Pi.a(CyLib.o)
 .text.CyIntSetSysVector
                0x00000000       0x58 .\CortexM3\ARM_GCC_473\Debug\PSoC_2_Pi.a(CyLib.o)
 .text.CyIntGetSysVector
                0x00000000       0x40 .\CortexM3\ARM_GCC_473\Debug\PSoC_2_Pi.a(CyLib.o)
 .text.CyIntGetVector
                0x00000000       0x44 .\CortexM3\ARM_GCC_473\Debug\PSoC_2_Pi.a(CyLib.o)
 .text.CyIntGetPriority
                0x00000000       0x3c .\CortexM3\ARM_GCC_473\Debug\PSoC_2_Pi.a(CyLib.o)
 .text.CyIntGetState
                0x00000000       0x48 .\CortexM3\ARM_GCC_473\Debug\PSoC_2_Pi.a(CyLib.o)
 .text          0x00000000        0x0 .\CortexM3\ARM_GCC_473\Debug\PSoC_2_Pi.a(cyPm.o)
 .data          0x00000000        0x0 .\CortexM3\ARM_GCC_473\Debug\PSoC_2_Pi.a(cyPm.o)
 .bss           0x00000000       0x44 .\CortexM3\ARM_GCC_473\Debug\PSoC_2_Pi.a(cyPm.o)
 .rodata        0x00000000       0x10 .\CortexM3\ARM_GCC_473\Debug\PSoC_2_Pi.a(cyPm.o)
 .text.CyPmSaveClocks
                0x00000000      0x3ac .\CortexM3\ARM_GCC_473\Debug\PSoC_2_Pi.a(cyPm.o)
 .text.CyPmRestoreClocks
                0x00000000      0x424 .\CortexM3\ARM_GCC_473\Debug\PSoC_2_Pi.a(cyPm.o)
 .text.CyPmAltAct
                0x00000000      0x118 .\CortexM3\ARM_GCC_473\Debug\PSoC_2_Pi.a(cyPm.o)
 .text.CyPmSleep
                0x00000000      0x21c .\CortexM3\ARM_GCC_473\Debug\PSoC_2_Pi.a(cyPm.o)
 .text.CyPmHibernate
                0x00000000      0x1f0 .\CortexM3\ARM_GCC_473\Debug\PSoC_2_Pi.a(cyPm.o)
 .text.CyPmReadStatus
                0x00000000       0x78 .\CortexM3\ARM_GCC_473\Debug\PSoC_2_Pi.a(cyPm.o)
 .text.CyPmHibSaveSet
                0x00000000      0x138 .\CortexM3\ARM_GCC_473\Debug\PSoC_2_Pi.a(cyPm.o)
 .text.CyPmHibRestore
                0x00000000       0x94 .\CortexM3\ARM_GCC_473\Debug\PSoC_2_Pi.a(cyPm.o)
 .text.CyPmCtwSetInterval
                0x00000000       0xd8 .\CortexM3\ARM_GCC_473\Debug\PSoC_2_Pi.a(cyPm.o)
 .text.CyPmOppsSet
                0x00000000       0x58 .\CortexM3\ARM_GCC_473\Debug\PSoC_2_Pi.a(cyPm.o)
 .text.CyPmFtwSetInterval
                0x00000000       0xd8 .\CortexM3\ARM_GCC_473\Debug\PSoC_2_Pi.a(cyPm.o)
 .text.CyPmHibSlpSaveSet
                0x00000000      0x458 .\CortexM3\ARM_GCC_473\Debug\PSoC_2_Pi.a(cyPm.o)
 .text.CyPmHibSlpRestore
                0x00000000      0x270 .\CortexM3\ARM_GCC_473\Debug\PSoC_2_Pi.a(cyPm.o)
 .text.CyPmHviLviSaveDisable
                0x00000000      0x13c .\CortexM3\ARM_GCC_473\Debug\PSoC_2_Pi.a(cyPm.o)
 .text.CyPmHviLviRestore
                0x00000000       0x7c .\CortexM3\ARM_GCC_473\Debug\PSoC_2_Pi.a(cyPm.o)
 .text          0x00000000        0x0 .\CortexM3\ARM_GCC_473\Debug\PSoC_2_Pi.a(PWM_1.o)
 .data          0x00000000        0x0 .\CortexM3\ARM_GCC_473\Debug\PSoC_2_Pi.a(PWM_1.o)
 .text          0x00000000        0x0 .\CortexM3\ARM_GCC_473\Debug\PSoC_2_Pi.a(PWM_1_PM.o)
 .data          0x00000000        0x0 .\CortexM3\ARM_GCC_473\Debug\PSoC_2_Pi.a(PWM_1_PM.o)
 .text          0x00000000        0x0 .\CortexM3\ARM_GCC_473\Debug\PSoC_2_Pi.a(ADC_SAR_1.o)
 .data          0x00000000        0x0 .\CortexM3\ARM_GCC_473\Debug\PSoC_2_Pi.a(ADC_SAR_1.o)
 .text.ADC_SAR_1_SetPower
                0x00000000       0x48 .\CortexM3\ARM_GCC_473\Debug\PSoC_2_Pi.a(ADC_SAR_1.o)
 .text.ADC_SAR_1_GetResult8
                0x00000000       0x30 .\CortexM3\ARM_GCC_473\Debug\PSoC_2_Pi.a(ADC_SAR_1.o)
 .text.ADC_SAR_1_SetScaledGain
                0x00000000       0x20 .\CortexM3\ARM_GCC_473\Debug\PSoC_2_Pi.a(ADC_SAR_1.o)
 .text.ADC_SAR_1_CountsTo_mVolts
                0x00000000       0xa8 .\CortexM3\ARM_GCC_473\Debug\PSoC_2_Pi.a(ADC_SAR_1.o)
 .text.ADC_SAR_1_CountsTo_Volts
                0x00000000       0x98 .\CortexM3\ARM_GCC_473\Debug\PSoC_2_Pi.a(ADC_SAR_1.o)
 .text          0x00000000        0x0 .\CortexM3\ARM_GCC_473\Debug\PSoC_2_Pi.a(ADC_SAR_1_INT.o)
 .data          0x00000000        0x0 .\CortexM3\ARM_GCC_473\Debug\PSoC_2_Pi.a(ADC_SAR_1_INT.o)
 .bss           0x00000000        0x0 .\CortexM3\ARM_GCC_473\Debug\PSoC_2_Pi.a(ADC_SAR_1_INT.o)
 .text          0x00000000        0x0 .\CortexM3\ARM_GCC_473\Debug\PSoC_2_Pi.a(ADC_SAR_1_PM.o)
 .data          0x00000000        0x0 .\CortexM3\ARM_GCC_473\Debug\PSoC_2_Pi.a(ADC_SAR_1_PM.o)
 .text.ADC_SAR_1_SaveConfig
                0x00000000        0xc .\CortexM3\ARM_GCC_473\Debug\PSoC_2_Pi.a(ADC_SAR_1_PM.o)
 .text.ADC_SAR_1_RestoreConfig
                0x00000000        0xc .\CortexM3\ARM_GCC_473\Debug\PSoC_2_Pi.a(ADC_SAR_1_PM.o)
 .text          0x00000000        0x0 .\CortexM3\ARM_GCC_473\Debug\PSoC_2_Pi.a(ADC_SAR_2.o)
 .data          0x00000000        0x0 .\CortexM3\ARM_GCC_473\Debug\PSoC_2_Pi.a(ADC_SAR_2.o)
 .text.ADC_SAR_2_SetPower
                0x00000000       0x48 .\CortexM3\ARM_GCC_473\Debug\PSoC_2_Pi.a(ADC_SAR_2.o)
 .text.ADC_SAR_2_GetResult8
                0x00000000       0x30 .\CortexM3\ARM_GCC_473\Debug\PSoC_2_Pi.a(ADC_SAR_2.o)
 .text.ADC_SAR_2_SetScaledGain
                0x00000000       0x20 .\CortexM3\ARM_GCC_473\Debug\PSoC_2_Pi.a(ADC_SAR_2.o)
 .text.ADC_SAR_2_CountsTo_mVolts
                0x00000000       0xa8 .\CortexM3\ARM_GCC_473\Debug\PSoC_2_Pi.a(ADC_SAR_2.o)
 .text.ADC_SAR_2_CountsTo_Volts
                0x00000000       0x98 .\CortexM3\ARM_GCC_473\Debug\PSoC_2_Pi.a(ADC_SAR_2.o)
 .text          0x00000000        0x0 .\CortexM3\ARM_GCC_473\Debug\PSoC_2_Pi.a(ADC_SAR_2_INT.o)
 .data          0x00000000        0x0 .\CortexM3\ARM_GCC_473\Debug\PSoC_2_Pi.a(ADC_SAR_2_INT.o)
 .bss           0x00000000        0x0 .\CortexM3\ARM_GCC_473\Debug\PSoC_2_Pi.a(ADC_SAR_2_INT.o)
 .text          0x00000000        0x0 .\CortexM3\ARM_GCC_473\Debug\PSoC_2_Pi.a(ADC_SAR_2_PM.o)
 .data          0x00000000        0x0 .\CortexM3\ARM_GCC_473\Debug\PSoC_2_Pi.a(ADC_SAR_2_PM.o)
 .text.ADC_SAR_2_SaveConfig
                0x00000000        0xc .\CortexM3\ARM_GCC_473\Debug\PSoC_2_Pi.a(ADC_SAR_2_PM.o)
 .text.ADC_SAR_2_RestoreConfig
                0x00000000        0xc .\CortexM3\ARM_GCC_473\Debug\PSoC_2_Pi.a(ADC_SAR_2_PM.o)
 .text          0x00000000        0x0 .\CortexM3\ARM_GCC_473\Debug\PSoC_2_Pi.a(ADC_SAR_1_theACLK.o)
 .data          0x00000000        0x0 .\CortexM3\ARM_GCC_473\Debug\PSoC_2_Pi.a(ADC_SAR_1_theACLK.o)
 .bss           0x00000000        0x0 .\CortexM3\ARM_GCC_473\Debug\PSoC_2_Pi.a(ADC_SAR_1_theACLK.o)
 .text.ADC_SAR_1_theACLK_Start
                0x00000000       0x44 .\CortexM3\ARM_GCC_473\Debug\PSoC_2_Pi.a(ADC_SAR_1_theACLK.o)
 .text.ADC_SAR_1_theACLK_Stop
                0x00000000       0x44 .\CortexM3\ARM_GCC_473\Debug\PSoC_2_Pi.a(ADC_SAR_1_theACLK.o)
 .text.ADC_SAR_1_theACLK_StopBlock
                0x00000000       0xf8 .\CortexM3\ARM_GCC_473\Debug\PSoC_2_Pi.a(ADC_SAR_1_theACLK.o)
 .text.ADC_SAR_1_theACLK_StandbyPower
                0x00000000       0x54 .\CortexM3\ARM_GCC_473\Debug\PSoC_2_Pi.a(ADC_SAR_1_theACLK.o)
 .text.ADC_SAR_1_theACLK_SetDividerRegister
                0x00000000      0x1e8 .\CortexM3\ARM_GCC_473\Debug\PSoC_2_Pi.a(ADC_SAR_1_theACLK.o)
 .text.ADC_SAR_1_theACLK_GetDividerRegister
                0x00000000       0x18 .\CortexM3\ARM_GCC_473\Debug\PSoC_2_Pi.a(ADC_SAR_1_theACLK.o)
 .text.ADC_SAR_1_theACLK_ClearModeRegister
                0x00000000       0x3c .\CortexM3\ARM_GCC_473\Debug\PSoC_2_Pi.a(ADC_SAR_1_theACLK.o)
 .text.ADC_SAR_1_theACLK_GetModeRegister
                0x00000000       0x20 .\CortexM3\ARM_GCC_473\Debug\PSoC_2_Pi.a(ADC_SAR_1_theACLK.o)
 .text.ADC_SAR_1_theACLK_SetSourceRegister
                0x00000000       0xf4 .\CortexM3\ARM_GCC_473\Debug\PSoC_2_Pi.a(ADC_SAR_1_theACLK.o)
 .text.ADC_SAR_1_theACLK_GetSourceRegister
                0x00000000       0x20 .\CortexM3\ARM_GCC_473\Debug\PSoC_2_Pi.a(ADC_SAR_1_theACLK.o)
 .text.ADC_SAR_1_theACLK_SetPhaseRegister
                0x00000000       0x28 .\CortexM3\ARM_GCC_473\Debug\PSoC_2_Pi.a(ADC_SAR_1_theACLK.o)
 .text.ADC_SAR_1_theACLK_GetPhaseRegister
                0x00000000       0x20 .\CortexM3\ARM_GCC_473\Debug\PSoC_2_Pi.a(ADC_SAR_1_theACLK.o)
 .text          0x00000000        0x0 .\CortexM3\ARM_GCC_473\Debug\PSoC_2_Pi.a(ADC_SAR_2_theACLK.o)
 .data          0x00000000        0x0 .\CortexM3\ARM_GCC_473\Debug\PSoC_2_Pi.a(ADC_SAR_2_theACLK.o)
 .bss           0x00000000        0x0 .\CortexM3\ARM_GCC_473\Debug\PSoC_2_Pi.a(ADC_SAR_2_theACLK.o)
 .text.ADC_SAR_2_theACLK_Start
                0x00000000       0x44 .\CortexM3\ARM_GCC_473\Debug\PSoC_2_Pi.a(ADC_SAR_2_theACLK.o)
 .text.ADC_SAR_2_theACLK_Stop
                0x00000000       0x44 .\CortexM3\ARM_GCC_473\Debug\PSoC_2_Pi.a(ADC_SAR_2_theACLK.o)
 .text.ADC_SAR_2_theACLK_StopBlock
                0x00000000       0xf8 .\CortexM3\ARM_GCC_473\Debug\PSoC_2_Pi.a(ADC_SAR_2_theACLK.o)
 .text.ADC_SAR_2_theACLK_StandbyPower
                0x00000000       0x54 .\CortexM3\ARM_GCC_473\Debug\PSoC_2_Pi.a(ADC_SAR_2_theACLK.o)
 .text.ADC_SAR_2_theACLK_SetDividerRegister
                0x00000000      0x1e8 .\CortexM3\ARM_GCC_473\Debug\PSoC_2_Pi.a(ADC_SAR_2_theACLK.o)
 .text.ADC_SAR_2_theACLK_GetDividerRegister
                0x00000000       0x18 .\CortexM3\ARM_GCC_473\Debug\PSoC_2_Pi.a(ADC_SAR_2_theACLK.o)
 .text.ADC_SAR_2_theACLK_ClearModeRegister
                0x00000000       0x3c .\CortexM3\ARM_GCC_473\Debug\PSoC_2_Pi.a(ADC_SAR_2_theACLK.o)
 .text.ADC_SAR_2_theACLK_GetModeRegister
                0x00000000       0x20 .\CortexM3\ARM_GCC_473\Debug\PSoC_2_Pi.a(ADC_SAR_2_theACLK.o)
 .text.ADC_SAR_2_theACLK_SetSourceRegister
                0x00000000       0xf4 .\CortexM3\ARM_GCC_473\Debug\PSoC_2_Pi.a(ADC_SAR_2_theACLK.o)
 .text.ADC_SAR_2_theACLK_GetSourceRegister
                0x00000000       0x20 .\CortexM3\ARM_GCC_473\Debug\PSoC_2_Pi.a(ADC_SAR_2_theACLK.o)
 .text.ADC_SAR_2_theACLK_SetPhaseRegister
                0x00000000       0x28 .\CortexM3\ARM_GCC_473\Debug\PSoC_2_Pi.a(ADC_SAR_2_theACLK.o)
 .text.ADC_SAR_2_theACLK_GetPhaseRegister
                0x00000000       0x20 .\CortexM3\ARM_GCC_473\Debug\PSoC_2_Pi.a(ADC_SAR_2_theACLK.o)
 .text          0x00000000        0x0 .\CortexM3\ARM_GCC_473\Debug\PSoC_2_Pi.a(VDAC8_1.o)
 .data          0x00000000        0x0 .\CortexM3\ARM_GCC_473\Debug\PSoC_2_Pi.a(VDAC8_1.o)
 .text          0x00000000        0x0 .\CortexM3\ARM_GCC_473\Debug\PSoC_2_Pi.a(VDAC8_1_PM.o)
 .data          0x00000000        0x0 .\CortexM3\ARM_GCC_473\Debug\PSoC_2_Pi.a(VDAC8_1_PM.o)
 .text          0x00000000        0x0 .\CortexM3\ARM_GCC_473\Debug\PSoC_2_Pi.a(VDAC8_2.o)
 .data          0x00000000        0x0 .\CortexM3\ARM_GCC_473\Debug\PSoC_2_Pi.a(VDAC8_2.o)
 .text          0x00000000        0x0 .\CortexM3\ARM_GCC_473\Debug\PSoC_2_Pi.a(VDAC8_2_PM.o)
 .data          0x00000000        0x0 .\CortexM3\ARM_GCC_473\Debug\PSoC_2_Pi.a(VDAC8_2_PM.o)
 .text          0x00000000        0x0 .\CortexM3\ARM_GCC_473\Debug\PSoC_2_Pi.a(IDAC8_1.o)
 .data          0x00000000        0x0 .\CortexM3\ARM_GCC_473\Debug\PSoC_2_Pi.a(IDAC8_1.o)
 .text          0x00000000        0x0 .\CortexM3\ARM_GCC_473\Debug\PSoC_2_Pi.a(IDAC8_1_PM.o)
 .data          0x00000000        0x0 .\CortexM3\ARM_GCC_473\Debug\PSoC_2_Pi.a(IDAC8_1_PM.o)
 .text          0x00000000        0x0 .\CortexM3\ARM_GCC_473\Debug\PSoC_2_Pi.a(WaveDAC_clk.o)
 .data          0x00000000        0x0 .\CortexM3\ARM_GCC_473\Debug\PSoC_2_Pi.a(WaveDAC_clk.o)
 .bss           0x00000000        0x0 .\CortexM3\ARM_GCC_473\Debug\PSoC_2_Pi.a(WaveDAC_clk.o)
 .text.WaveDAC_clk_StopBlock
                0x00000000       0xf8 .\CortexM3\ARM_GCC_473\Debug\PSoC_2_Pi.a(WaveDAC_clk.o)
 .text.WaveDAC_clk_StandbyPower
                0x00000000       0x54 .\CortexM3\ARM_GCC_473\Debug\PSoC_2_Pi.a(WaveDAC_clk.o)
 .text.WaveDAC_clk_SetModeRegister
                0x00000000       0x3c .\CortexM3\ARM_GCC_473\Debug\PSoC_2_Pi.a(WaveDAC_clk.o)
 .text.WaveDAC_clk_ClearModeRegister
                0x00000000       0x3c .\CortexM3\ARM_GCC_473\Debug\PSoC_2_Pi.a(WaveDAC_clk.o)
 .text.WaveDAC_clk_GetModeRegister
                0x00000000       0x20 .\CortexM3\ARM_GCC_473\Debug\PSoC_2_Pi.a(WaveDAC_clk.o)
 .text.WaveDAC_clk_SetSourceRegister
                0x00000000       0xf4 .\CortexM3\ARM_GCC_473\Debug\PSoC_2_Pi.a(WaveDAC_clk.o)
 .text          0x00000000        0x0 .\CortexM3\ARM_GCC_473\Debug\PSoC_2_Pi.a(WaveDAC8_1.o)
 .data          0x00000000        0x0 .\CortexM3\ARM_GCC_473\Debug\PSoC_2_Pi.a(WaveDAC8_1.o)
 .text.WaveDAC8_1_StartEx
                0x00000000       0x30 .\CortexM3\ARM_GCC_473\Debug\PSoC_2_Pi.a(WaveDAC8_1.o)
 .text          0x00000000        0x0 .\CortexM3\ARM_GCC_473\Debug\PSoC_2_Pi.a(WaveDAC8_1_PM.o)
 .data          0x00000000        0x0 .\CortexM3\ARM_GCC_473\Debug\PSoC_2_Pi.a(WaveDAC8_1_PM.o)
 .text          0x00000000        0x0 .\CortexM3\ARM_GCC_473\Debug\PSoC_2_Pi.a(WaveDAC8_1_Wave1_DMA_dma.o)
 .bss           0x00000000        0x0 .\CortexM3\ARM_GCC_473\Debug\PSoC_2_Pi.a(WaveDAC8_1_Wave1_DMA_dma.o)
 .text.WaveDAC8_1_Wave1_DMA_DmaRelease
                0x00000000       0x18 .\CortexM3\ARM_GCC_473\Debug\PSoC_2_Pi.a(WaveDAC8_1_Wave1_DMA_dma.o)
 .text          0x00000000        0x0 .\CortexM3\ARM_GCC_473\Debug\PSoC_2_Pi.a(WaveDAC8_1_Wave2_DMA_dma.o)
 .bss           0x00000000        0x0 .\CortexM3\ARM_GCC_473\Debug\PSoC_2_Pi.a(WaveDAC8_1_Wave2_DMA_dma.o)
 .text.WaveDAC8_1_Wave2_DMA_DmaRelease
                0x00000000       0x18 .\CortexM3\ARM_GCC_473\Debug\PSoC_2_Pi.a(WaveDAC8_1_Wave2_DMA_dma.o)
 .text          0x00000000        0x0 .\CortexM3\ARM_GCC_473\Debug\PSoC_2_Pi.a(WaveDAC8_1_VDAC8.o)
 .data          0x00000000        0x0 .\CortexM3\ARM_GCC_473\Debug\PSoC_2_Pi.a(WaveDAC8_1_VDAC8.o)
 .bss           0x00000000        0x1 .\CortexM3\ARM_GCC_473\Debug\PSoC_2_Pi.a(WaveDAC8_1_VDAC8.o)
 .text.WaveDAC8_1_VDAC8_Start
                0x00000000       0x34 .\CortexM3\ARM_GCC_473\Debug\PSoC_2_Pi.a(WaveDAC8_1_VDAC8.o)
 .text          0x00000000        0x0 .\CortexM3\ARM_GCC_473\Debug\PSoC_2_Pi.a(WaveDAC8_1_VDAC8_PM.o)
 .data          0x00000000        0x0 .\CortexM3\ARM_GCC_473\Debug\PSoC_2_Pi.a(WaveDAC8_1_VDAC8_PM.o)
 .text.WaveDAC8_1_VDAC8_Sleep
                0x00000000       0x40 .\CortexM3\ARM_GCC_473\Debug\PSoC_2_Pi.a(WaveDAC8_1_VDAC8_PM.o)
 .text.WaveDAC8_1_VDAC8_Wakeup
                0x00000000       0x30 .\CortexM3\ARM_GCC_473\Debug\PSoC_2_Pi.a(WaveDAC8_1_VDAC8_PM.o)
 .text          0x00000000        0x0 .\CortexM3\ARM_GCC_473\Debug\PSoC_2_Pi.a(Control_Reg_1.o)
 .data          0x00000000        0x0 .\CortexM3\ARM_GCC_473\Debug\PSoC_2_Pi.a(Control_Reg_1.o)
 .bss           0x00000000        0x0 .\CortexM3\ARM_GCC_473\Debug\PSoC_2_Pi.a(Control_Reg_1.o)
 .text          0x00000000        0x0 .\CortexM3\ARM_GCC_473\Debug\PSoC_2_Pi.a(Status_Reg_1.o)
 .data          0x00000000        0x0 .\CortexM3\ARM_GCC_473\Debug\PSoC_2_Pi.a(Status_Reg_1.o)
 .bss           0x00000000        0x0 .\CortexM3\ARM_GCC_473\Debug\PSoC_2_Pi.a(Status_Reg_1.o)
 .text.Status_Reg_1_InterruptEnable
                0x00000000       0x3c .\CortexM3\ARM_GCC_473\Debug\PSoC_2_Pi.a(Status_Reg_1.o)
 .text.Status_Reg_1_InterruptDisable
                0x00000000       0x3c .\CortexM3\ARM_GCC_473\Debug\PSoC_2_Pi.a(Status_Reg_1.o)
 .text.Status_Reg_1_WriteMask
                0x00000000       0x28 .\CortexM3\ARM_GCC_473\Debug\PSoC_2_Pi.a(Status_Reg_1.o)
 .text.Status_Reg_1_ReadMask
                0x00000000       0x18 .\CortexM3\ARM_GCC_473\Debug\PSoC_2_Pi.a(Status_Reg_1.o)
 .text          0x00000000        0x0 .\CortexM3\ARM_GCC_473\Debug\PSoC_2_Pi.a(ADC_DelSig_1.o)
 .text.ADC_DelSig_1_SetCoherency
                0x00000000       0x40 .\CortexM3\ARM_GCC_473\Debug\PSoC_2_Pi.a(ADC_DelSig_1.o)
 .text.ADC_DelSig_1_SetGCOR
                0x00000000       0xd0 .\CortexM3\ARM_GCC_473\Debug\PSoC_2_Pi.a(ADC_DelSig_1.o)
 .text.ADC_DelSig_1_ReadGCOR
                0x00000000       0x40 .\CortexM3\ARM_GCC_473\Debug\PSoC_2_Pi.a(ADC_DelSig_1.o)
 .text.ADC_DelSig_1_GetResult8
                0x00000000       0x78 .\CortexM3\ARM_GCC_473\Debug\PSoC_2_Pi.a(ADC_DelSig_1.o)
 .text.ADC_DelSig_1_GetResult16
                0x00000000       0x90 .\CortexM3\ARM_GCC_473\Debug\PSoC_2_Pi.a(ADC_DelSig_1.o)
 .text.ADC_DelSig_1_CountsTo_mVolts
                0x00000000       0x44 .\CortexM3\ARM_GCC_473\Debug\PSoC_2_Pi.a(ADC_DelSig_1.o)
 .text.ADC_DelSig_1_CountsTo_Volts
                0x00000000       0x4c .\CortexM3\ARM_GCC_473\Debug\PSoC_2_Pi.a(ADC_DelSig_1.o)
 .text.ADC_DelSig_1_SelectConfiguration
                0x00000000       0xac .\CortexM3\ARM_GCC_473\Debug\PSoC_2_Pi.a(ADC_DelSig_1.o)
 .text.ADC_DelSig_1_Read8
                0x00000000       0x48 .\CortexM3\ARM_GCC_473\Debug\PSoC_2_Pi.a(ADC_DelSig_1.o)
 .text.ADC_DelSig_1_Read16
                0x00000000       0x48 .\CortexM3\ARM_GCC_473\Debug\PSoC_2_Pi.a(ADC_DelSig_1.o)
 .text          0x00000000        0x0 .\CortexM3\ARM_GCC_473\Debug\PSoC_2_Pi.a(ADC_DelSig_1_PM.o)
 .bss           0x00000000        0x0 .\CortexM3\ARM_GCC_473\Debug\PSoC_2_Pi.a(ADC_DelSig_1_PM.o)
 .text          0x00000000        0x0 .\CortexM3\ARM_GCC_473\Debug\PSoC_2_Pi.a(ADC_DelSig_1_INT.o)
 .data          0x00000000        0x0 .\CortexM3\ARM_GCC_473\Debug\PSoC_2_Pi.a(ADC_DelSig_1_INT.o)
 .bss           0x00000000        0x0 .\CortexM3\ARM_GCC_473\Debug\PSoC_2_Pi.a(ADC_DelSig_1_INT.o)
 .text.ADC_DelSig_1_ISR2
                0x00000000        0xc .\CortexM3\ARM_GCC_473\Debug\PSoC_2_Pi.a(ADC_DelSig_1_INT.o)
 .text.ADC_DelSig_1_ISR3
                0x00000000        0xc .\CortexM3\ARM_GCC_473\Debug\PSoC_2_Pi.a(ADC_DelSig_1_INT.o)
 .text.ADC_DelSig_1_ISR4
                0x00000000        0xc .\CortexM3\ARM_GCC_473\Debug\PSoC_2_Pi.a(ADC_DelSig_1_INT.o)
 .text          0x00000000        0x0 .\CortexM3\ARM_GCC_473\Debug\PSoC_2_Pi.a(PWM_2.o)
 .data          0x00000000        0x0 .\CortexM3\ARM_GCC_473\Debug\PSoC_2_Pi.a(PWM_2.o)
 .text          0x00000000        0x0 .\CortexM3\ARM_GCC_473\Debug\PSoC_2_Pi.a(PWM_2_PM.o)
 .data          0x00000000        0x0 .\CortexM3\ARM_GCC_473\Debug\PSoC_2_Pi.a(PWM_2_PM.o)
 .text          0x00000000        0x0 .\CortexM3\ARM_GCC_473\Debug\PSoC_2_Pi.a(PWM_3.o)
 .data          0x00000000        0x0 .\CortexM3\ARM_GCC_473\Debug\PSoC_2_Pi.a(PWM_3.o)
 .text          0x00000000        0x0 .\CortexM3\ARM_GCC_473\Debug\PSoC_2_Pi.a(PWM_3_PM.o)
 .data          0x00000000        0x0 .\CortexM3\ARM_GCC_473\Debug\PSoC_2_Pi.a(PWM_3_PM.o)
 .text          0x00000000        0x0 .\CortexM3\ARM_GCC_473\Debug\PSoC_2_Pi.a(PWM_4.o)
 .data          0x00000000        0x0 .\CortexM3\ARM_GCC_473\Debug\PSoC_2_Pi.a(PWM_4.o)
 .text          0x00000000        0x0 .\CortexM3\ARM_GCC_473\Debug\PSoC_2_Pi.a(PWM_4_PM.o)
 .data          0x00000000        0x0 .\CortexM3\ARM_GCC_473\Debug\PSoC_2_Pi.a(PWM_4_PM.o)
 .text          0x00000000        0x0 .\CortexM3\ARM_GCC_473\Debug\PSoC_2_Pi.a(PWM_5.o)
 .data          0x00000000        0x0 .\CortexM3\ARM_GCC_473\Debug\PSoC_2_Pi.a(PWM_5.o)
 .text          0x00000000        0x0 .\CortexM3\ARM_GCC_473\Debug\PSoC_2_Pi.a(PWM_5_PM.o)
 .data          0x00000000        0x0 .\CortexM3\ARM_GCC_473\Debug\PSoC_2_Pi.a(PWM_5_PM.o)
 .text          0x00000000        0x0 .\CortexM3\ARM_GCC_473\Debug\PSoC_2_Pi.a(PWM_6.o)
 .data          0x00000000        0x0 .\CortexM3\ARM_GCC_473\Debug\PSoC_2_Pi.a(PWM_6.o)
 .text          0x00000000        0x0 .\CortexM3\ARM_GCC_473\Debug\PSoC_2_Pi.a(PWM_6_PM.o)
 .data          0x00000000        0x0 .\CortexM3\ARM_GCC_473\Debug\PSoC_2_Pi.a(PWM_6_PM.o)
 .text          0x00000000        0x0 .\CortexM3\ARM_GCC_473\Debug\PSoC_2_Pi.a(PWM_7.o)
 .data          0x00000000        0x0 .\CortexM3\ARM_GCC_473\Debug\PSoC_2_Pi.a(PWM_7.o)
 .text          0x00000000        0x0 .\CortexM3\ARM_GCC_473\Debug\PSoC_2_Pi.a(PWM_7_PM.o)
 .data          0x00000000        0x0 .\CortexM3\ARM_GCC_473\Debug\PSoC_2_Pi.a(PWM_7_PM.o)
 .text          0x00000000        0x0 .\CortexM3\ARM_GCC_473\Debug\PSoC_2_Pi.a(PWM_8.o)
 .data          0x00000000        0x0 .\CortexM3\ARM_GCC_473\Debug\PSoC_2_Pi.a(PWM_8.o)
 .text          0x00000000        0x0 .\CortexM3\ARM_GCC_473\Debug\PSoC_2_Pi.a(PWM_8_PM.o)
 .data          0x00000000        0x0 .\CortexM3\ARM_GCC_473\Debug\PSoC_2_Pi.a(PWM_8_PM.o)
 .text          0x00000000        0x0 .\CortexM3\ARM_GCC_473\Debug\PSoC_2_Pi.a(Control_Reg_2.o)
 .data          0x00000000        0x0 .\CortexM3\ARM_GCC_473\Debug\PSoC_2_Pi.a(Control_Reg_2.o)
 .bss           0x00000000        0x0 .\CortexM3\ARM_GCC_473\Debug\PSoC_2_Pi.a(Control_Reg_2.o)
 .text          0x00000000        0x0 .\CortexM3\ARM_GCC_473\Debug\PSoC_2_Pi.a(Status_Reg_2.o)
 .data          0x00000000        0x0 .\CortexM3\ARM_GCC_473\Debug\PSoC_2_Pi.a(Status_Reg_2.o)
 .bss           0x00000000        0x0 .\CortexM3\ARM_GCC_473\Debug\PSoC_2_Pi.a(Status_Reg_2.o)
 .text.Status_Reg_2_InterruptEnable
                0x00000000       0x3c .\CortexM3\ARM_GCC_473\Debug\PSoC_2_Pi.a(Status_Reg_2.o)
 .text.Status_Reg_2_InterruptDisable
                0x00000000       0x3c .\CortexM3\ARM_GCC_473\Debug\PSoC_2_Pi.a(Status_Reg_2.o)
 .text.Status_Reg_2_WriteMask
                0x00000000       0x28 .\CortexM3\ARM_GCC_473\Debug\PSoC_2_Pi.a(Status_Reg_2.o)
 .text.Status_Reg_2_ReadMask
                0x00000000       0x18 .\CortexM3\ARM_GCC_473\Debug\PSoC_2_Pi.a(Status_Reg_2.o)
 .text          0x00000000        0x0 .\CortexM3\ARM_GCC_473\Debug\PSoC_2_Pi.a(ADC_DelSig_1_AMux.o)
 .bss           0x00000000        0x0 .\CortexM3\ARM_GCC_473\Debug\PSoC_2_Pi.a(ADC_DelSig_1_AMux.o)
 .text.ADC_DelSig_1_AMux_FastSelect
                0x00000000       0x44 .\CortexM3\ARM_GCC_473\Debug\PSoC_2_Pi.a(ADC_DelSig_1_AMux.o)
 .text          0x00000000        0x0 .\CortexM3\ARM_GCC_473\Debug\PSoC_2_Pi.a(ADC_DelSig_1_Ext_CP_Clk.o)
 .data          0x00000000        0x0 .\CortexM3\ARM_GCC_473\Debug\PSoC_2_Pi.a(ADC_DelSig_1_Ext_CP_Clk.o)
 .bss           0x00000000        0x0 .\CortexM3\ARM_GCC_473\Debug\PSoC_2_Pi.a(ADC_DelSig_1_Ext_CP_Clk.o)
 .text.ADC_DelSig_1_Ext_CP_Clk_Start
                0x00000000       0x44 .\CortexM3\ARM_GCC_473\Debug\PSoC_2_Pi.a(ADC_DelSig_1_Ext_CP_Clk.o)
 .text.ADC_DelSig_1_Ext_CP_Clk_Stop
                0x00000000       0x44 .\CortexM3\ARM_GCC_473\Debug\PSoC_2_Pi.a(ADC_DelSig_1_Ext_CP_Clk.o)
 .text.ADC_DelSig_1_Ext_CP_Clk_StopBlock
                0x00000000       0xf8 .\CortexM3\ARM_GCC_473\Debug\PSoC_2_Pi.a(ADC_DelSig_1_Ext_CP_Clk.o)
 .text.ADC_DelSig_1_Ext_CP_Clk_StandbyPower
                0x00000000       0x54 .\CortexM3\ARM_GCC_473\Debug\PSoC_2_Pi.a(ADC_DelSig_1_Ext_CP_Clk.o)
 .text.ADC_DelSig_1_Ext_CP_Clk_ClearModeRegister
                0x00000000       0x3c .\CortexM3\ARM_GCC_473\Debug\PSoC_2_Pi.a(ADC_DelSig_1_Ext_CP_Clk.o)
 .text.ADC_DelSig_1_Ext_CP_Clk_GetModeRegister
                0x00000000       0x20 .\CortexM3\ARM_GCC_473\Debug\PSoC_2_Pi.a(ADC_DelSig_1_Ext_CP_Clk.o)
 .text.ADC_DelSig_1_Ext_CP_Clk_SetSourceRegister
                0x00000000       0xf4 .\CortexM3\ARM_GCC_473\Debug\PSoC_2_Pi.a(ADC_DelSig_1_Ext_CP_Clk.o)
 .text          0x00000000        0x0 .\CortexM3\ARM_GCC_473\Debug\PSoC_2_Pi.a(ADC_DelSig_1_theACLK.o)
 .data          0x00000000        0x0 .\CortexM3\ARM_GCC_473\Debug\PSoC_2_Pi.a(ADC_DelSig_1_theACLK.o)
 .bss           0x00000000        0x0 .\CortexM3\ARM_GCC_473\Debug\PSoC_2_Pi.a(ADC_DelSig_1_theACLK.o)
 .text.ADC_DelSig_1_theACLK_Start
                0x00000000       0x44 .\CortexM3\ARM_GCC_473\Debug\PSoC_2_Pi.a(ADC_DelSig_1_theACLK.o)
 .text.ADC_DelSig_1_theACLK_Stop
                0x00000000       0x44 .\CortexM3\ARM_GCC_473\Debug\PSoC_2_Pi.a(ADC_DelSig_1_theACLK.o)
 .text.ADC_DelSig_1_theACLK_StopBlock
                0x00000000       0xf8 .\CortexM3\ARM_GCC_473\Debug\PSoC_2_Pi.a(ADC_DelSig_1_theACLK.o)
 .text.ADC_DelSig_1_theACLK_StandbyPower
                0x00000000       0x54 .\CortexM3\ARM_GCC_473\Debug\PSoC_2_Pi.a(ADC_DelSig_1_theACLK.o)
 .text.ADC_DelSig_1_theACLK_ClearModeRegister
                0x00000000       0x3c .\CortexM3\ARM_GCC_473\Debug\PSoC_2_Pi.a(ADC_DelSig_1_theACLK.o)
 .text.ADC_DelSig_1_theACLK_GetModeRegister
                0x00000000       0x20 .\CortexM3\ARM_GCC_473\Debug\PSoC_2_Pi.a(ADC_DelSig_1_theACLK.o)
 .text.ADC_DelSig_1_theACLK_SetSourceRegister
                0x00000000       0xf4 .\CortexM3\ARM_GCC_473\Debug\PSoC_2_Pi.a(ADC_DelSig_1_theACLK.o)
 .text.ADC_DelSig_1_theACLK_SetPhaseRegister
                0x00000000       0x28 .\CortexM3\ARM_GCC_473\Debug\PSoC_2_Pi.a(ADC_DelSig_1_theACLK.o)
 .text.ADC_DelSig_1_theACLK_GetPhaseRegister
                0x00000000       0x20 .\CortexM3\ARM_GCC_473\Debug\PSoC_2_Pi.a(ADC_DelSig_1_theACLK.o)
 .text          0x00000000        0x0 .\CortexM3\ARM_GCC_473\Debug\PSoC_2_Pi.a(WaveDAC8_1_BuffAmp.o)
 .data          0x00000000        0x0 .\CortexM3\ARM_GCC_473\Debug\PSoC_2_Pi.a(WaveDAC8_1_BuffAmp.o)
 .bss           0x00000000        0x1 .\CortexM3\ARM_GCC_473\Debug\PSoC_2_Pi.a(WaveDAC8_1_BuffAmp.o)
 .text.WaveDAC8_1_BuffAmp_Start
                0x00000000       0x2c .\CortexM3\ARM_GCC_473\Debug\PSoC_2_Pi.a(WaveDAC8_1_BuffAmp.o)
 .text.WaveDAC8_1_BuffAmp_Stop
                0x00000000       0x70 .\CortexM3\ARM_GCC_473\Debug\PSoC_2_Pi.a(WaveDAC8_1_BuffAmp.o)
 .text          0x00000000        0x0 .\CortexM3\ARM_GCC_473\Debug\PSoC_2_Pi.a(Control_Reg_3.o)
 .data          0x00000000        0x0 .\CortexM3\ARM_GCC_473\Debug\PSoC_2_Pi.a(Control_Reg_3.o)
 .bss           0x00000000        0x0 .\CortexM3\ARM_GCC_473\Debug\PSoC_2_Pi.a(Control_Reg_3.o)
 .text          0x00000000        0x0 .\CortexM3\ARM_GCC_473\Debug\PSoC_2_Pi.a(Status_Reg_3.o)
 .data          0x00000000        0x0 .\CortexM3\ARM_GCC_473\Debug\PSoC_2_Pi.a(Status_Reg_3.o)
 .bss           0x00000000        0x0 .\CortexM3\ARM_GCC_473\Debug\PSoC_2_Pi.a(Status_Reg_3.o)
 .text.Status_Reg_3_InterruptEnable
                0x00000000       0x3c .\CortexM3\ARM_GCC_473\Debug\PSoC_2_Pi.a(Status_Reg_3.o)
 .text.Status_Reg_3_InterruptDisable
                0x00000000       0x3c .\CortexM3\ARM_GCC_473\Debug\PSoC_2_Pi.a(Status_Reg_3.o)
 .text.Status_Reg_3_WriteMask
                0x00000000       0x20 .\CortexM3\ARM_GCC_473\Debug\PSoC_2_Pi.a(Status_Reg_3.o)
 .text.Status_Reg_3_ReadMask
                0x00000000       0x18 .\CortexM3\ARM_GCC_473\Debug\PSoC_2_Pi.a(Status_Reg_3.o)
 .text          0x00000000        0x0 .\CortexM3\ARM_GCC_473\Debug\PSoC_2_Pi.a(PWM_1_2_clk.o)
 .data          0x00000000        0x0 .\CortexM3\ARM_GCC_473\Debug\PSoC_2_Pi.a(PWM_1_2_clk.o)
 .bss           0x00000000        0x0 .\CortexM3\ARM_GCC_473\Debug\PSoC_2_Pi.a(PWM_1_2_clk.o)
 .text.PWM_1_2_clk_Start
                0x00000000       0x44 .\CortexM3\ARM_GCC_473\Debug\PSoC_2_Pi.a(PWM_1_2_clk.o)
 .text.PWM_1_2_clk_Stop
                0x00000000       0x44 .\CortexM3\ARM_GCC_473\Debug\PSoC_2_Pi.a(PWM_1_2_clk.o)
 .text.PWM_1_2_clk_StopBlock
                0x00000000       0xf8 .\CortexM3\ARM_GCC_473\Debug\PSoC_2_Pi.a(PWM_1_2_clk.o)
 .text.PWM_1_2_clk_StandbyPower
                0x00000000       0x54 .\CortexM3\ARM_GCC_473\Debug\PSoC_2_Pi.a(PWM_1_2_clk.o)
 .text.PWM_1_2_clk_SetModeRegister
                0x00000000       0x3c .\CortexM3\ARM_GCC_473\Debug\PSoC_2_Pi.a(PWM_1_2_clk.o)
 .text.PWM_1_2_clk_ClearModeRegister
                0x00000000       0x3c .\CortexM3\ARM_GCC_473\Debug\PSoC_2_Pi.a(PWM_1_2_clk.o)
 .text.PWM_1_2_clk_GetModeRegister
                0x00000000       0x20 .\CortexM3\ARM_GCC_473\Debug\PSoC_2_Pi.a(PWM_1_2_clk.o)
 .text.PWM_1_2_clk_SetSourceRegister
                0x00000000       0xf4 .\CortexM3\ARM_GCC_473\Debug\PSoC_2_Pi.a(PWM_1_2_clk.o)
 .text          0x00000000        0x0 .\CortexM3\ARM_GCC_473\Debug\PSoC_2_Pi.a(PWM_3_4_clk.o)
 .data          0x00000000        0x0 .\CortexM3\ARM_GCC_473\Debug\PSoC_2_Pi.a(PWM_3_4_clk.o)
 .bss           0x00000000        0x0 .\CortexM3\ARM_GCC_473\Debug\PSoC_2_Pi.a(PWM_3_4_clk.o)
 .text.PWM_3_4_clk_Start
                0x00000000       0x44 .\CortexM3\ARM_GCC_473\Debug\PSoC_2_Pi.a(PWM_3_4_clk.o)
 .text.PWM_3_4_clk_Stop
                0x00000000       0x44 .\CortexM3\ARM_GCC_473\Debug\PSoC_2_Pi.a(PWM_3_4_clk.o)
 .text.PWM_3_4_clk_StopBlock
                0x00000000       0xf8 .\CortexM3\ARM_GCC_473\Debug\PSoC_2_Pi.a(PWM_3_4_clk.o)
 .text.PWM_3_4_clk_StandbyPower
                0x00000000       0x54 .\CortexM3\ARM_GCC_473\Debug\PSoC_2_Pi.a(PWM_3_4_clk.o)
 .text.PWM_3_4_clk_SetModeRegister
                0x00000000       0x3c .\CortexM3\ARM_GCC_473\Debug\PSoC_2_Pi.a(PWM_3_4_clk.o)
 .text.PWM_3_4_clk_ClearModeRegister
                0x00000000       0x3c .\CortexM3\ARM_GCC_473\Debug\PSoC_2_Pi.a(PWM_3_4_clk.o)
 .text.PWM_3_4_clk_GetModeRegister
                0x00000000       0x20 .\CortexM3\ARM_GCC_473\Debug\PSoC_2_Pi.a(PWM_3_4_clk.o)
 .text.PWM_3_4_clk_SetSourceRegister
                0x00000000       0xf4 .\CortexM3\ARM_GCC_473\Debug\PSoC_2_Pi.a(PWM_3_4_clk.o)
 .text          0x00000000        0x0 .\CortexM3\ARM_GCC_473\Debug\PSoC_2_Pi.a(PWM_5_6_clk.o)
 .data          0x00000000        0x0 .\CortexM3\ARM_GCC_473\Debug\PSoC_2_Pi.a(PWM_5_6_clk.o)
 .bss           0x00000000        0x0 .\CortexM3\ARM_GCC_473\Debug\PSoC_2_Pi.a(PWM_5_6_clk.o)
 .text.PWM_5_6_clk_Start
                0x00000000       0x44 .\CortexM3\ARM_GCC_473\Debug\PSoC_2_Pi.a(PWM_5_6_clk.o)
 .text.PWM_5_6_clk_Stop
                0x00000000       0x44 .\CortexM3\ARM_GCC_473\Debug\PSoC_2_Pi.a(PWM_5_6_clk.o)
 .text.PWM_5_6_clk_StopBlock
                0x00000000       0xf8 .\CortexM3\ARM_GCC_473\Debug\PSoC_2_Pi.a(PWM_5_6_clk.o)
 .text.PWM_5_6_clk_StandbyPower
                0x00000000       0x54 .\CortexM3\ARM_GCC_473\Debug\PSoC_2_Pi.a(PWM_5_6_clk.o)
 .text.PWM_5_6_clk_SetModeRegister
                0x00000000       0x3c .\CortexM3\ARM_GCC_473\Debug\PSoC_2_Pi.a(PWM_5_6_clk.o)
 .text.PWM_5_6_clk_ClearModeRegister
                0x00000000       0x3c .\CortexM3\ARM_GCC_473\Debug\PSoC_2_Pi.a(PWM_5_6_clk.o)
 .text.PWM_5_6_clk_GetModeRegister
                0x00000000       0x20 .\CortexM3\ARM_GCC_473\Debug\PSoC_2_Pi.a(PWM_5_6_clk.o)
 .text.PWM_5_6_clk_SetSourceRegister
                0x00000000       0xf4 .\CortexM3\ARM_GCC_473\Debug\PSoC_2_Pi.a(PWM_5_6_clk.o)
 .text          0x00000000        0x0 .\CortexM3\ARM_GCC_473\Debug\PSoC_2_Pi.a(PWM_7_8_clk.o)
 .data          0x00000000        0x0 .\CortexM3\ARM_GCC_473\Debug\PSoC_2_Pi.a(PWM_7_8_clk.o)
 .bss           0x00000000        0x0 .\CortexM3\ARM_GCC_473\Debug\PSoC_2_Pi.a(PWM_7_8_clk.o)
 .text.PWM_7_8_clk_Start
                0x00000000       0x44 .\CortexM3\ARM_GCC_473\Debug\PSoC_2_Pi.a(PWM_7_8_clk.o)
 .text.PWM_7_8_clk_Stop
                0x00000000       0x44 .\CortexM3\ARM_GCC_473\Debug\PSoC_2_Pi.a(PWM_7_8_clk.o)
 .text.PWM_7_8_clk_StopBlock
                0x00000000       0xf8 .\CortexM3\ARM_GCC_473\Debug\PSoC_2_Pi.a(PWM_7_8_clk.o)
 .text.PWM_7_8_clk_StandbyPower
                0x00000000       0x54 .\CortexM3\ARM_GCC_473\Debug\PSoC_2_Pi.a(PWM_7_8_clk.o)
 .text.PWM_7_8_clk_SetModeRegister
                0x00000000       0x3c .\CortexM3\ARM_GCC_473\Debug\PSoC_2_Pi.a(PWM_7_8_clk.o)
 .text.PWM_7_8_clk_ClearModeRegister
                0x00000000       0x3c .\CortexM3\ARM_GCC_473\Debug\PSoC_2_Pi.a(PWM_7_8_clk.o)
 .text.PWM_7_8_clk_GetModeRegister
                0x00000000       0x20 .\CortexM3\ARM_GCC_473\Debug\PSoC_2_Pi.a(PWM_7_8_clk.o)
 .text.PWM_7_8_clk_SetSourceRegister
                0x00000000       0xf4 .\CortexM3\ARM_GCC_473\Debug\PSoC_2_Pi.a(PWM_7_8_clk.o)
 .text          0x00000000        0x0 .\CortexM3\ARM_GCC_473\Debug\PSoC_2_Pi.a(I2C_1.o)
 .data          0x00000000        0x0 .\CortexM3\ARM_GCC_473\Debug\PSoC_2_Pi.a(I2C_1.o)
 .text.I2C_1_Stop
                0x00000000      0x164 .\CortexM3\ARM_GCC_473\Debug\PSoC_2_Pi.a(I2C_1.o)
 .text          0x00000000        0x0 .\CortexM3\ARM_GCC_473\Debug\PSoC_2_Pi.a(I2C_1_INT.o)
 .data          0x00000000        0x0 .\CortexM3\ARM_GCC_473\Debug\PSoC_2_Pi.a(I2C_1_INT.o)
 .bss           0x00000000        0x0 .\CortexM3\ARM_GCC_473\Debug\PSoC_2_Pi.a(I2C_1_INT.o)
 .text          0x00000000        0x0 .\CortexM3\ARM_GCC_473\Debug\PSoC_2_Pi.a(I2C_1_PM.o)
 .data          0x00000000        0x8 .\CortexM3\ARM_GCC_473\Debug\PSoC_2_Pi.a(I2C_1_PM.o)
 .bss           0x00000000        0x0 .\CortexM3\ARM_GCC_473\Debug\PSoC_2_Pi.a(I2C_1_PM.o)
 .text.I2C_1_SaveConfig
                0x00000000       0x78 .\CortexM3\ARM_GCC_473\Debug\PSoC_2_Pi.a(I2C_1_PM.o)
 .text.I2C_1_Sleep
                0x00000000       0x48 .\CortexM3\ARM_GCC_473\Debug\PSoC_2_Pi.a(I2C_1_PM.o)
 .text.I2C_1_RestoreConfig
                0x00000000       0xcc .\CortexM3\ARM_GCC_473\Debug\PSoC_2_Pi.a(I2C_1_PM.o)
 .text.I2C_1_Wakeup
                0x00000000       0x2c .\CortexM3\ARM_GCC_473\Debug\PSoC_2_Pi.a(I2C_1_PM.o)
 .text          0x00000000        0x0 .\CortexM3\ARM_GCC_473\Debug\PSoC_2_Pi.a(I2C_1_SLAVE.o)
 .data          0x00000000        0x0 .\CortexM3\ARM_GCC_473\Debug\PSoC_2_Pi.a(I2C_1_SLAVE.o)
 .bss           0x00000000        0x0 .\CortexM3\ARM_GCC_473\Debug\PSoC_2_Pi.a(I2C_1_SLAVE.o)
 .text          0x00000000        0x0 .\CortexM3\ARM_GCC_473\Debug\PSoC_2_Pi.a(CyFlash.o)
 .data          0x00000000        0x0 .\CortexM3\ARM_GCC_473\Debug\PSoC_2_Pi.a(CyFlash.o)
 .bss           0x00000000        0x4 .\CortexM3\ARM_GCC_473\Debug\PSoC_2_Pi.a(CyFlash.o)
 .text.CyFlash_Start
                0x00000000       0x48 .\CortexM3\ARM_GCC_473\Debug\PSoC_2_Pi.a(CyFlash.o)
 .text.CyFlash_Stop
                0x00000000       0x44 .\CortexM3\ARM_GCC_473\Debug\PSoC_2_Pi.a(CyFlash.o)
 .text.CySetTempInt
                0x00000000       0x90 .\CortexM3\ARM_GCC_473\Debug\PSoC_2_Pi.a(CyFlash.o)
 .text.CySetTemp
                0x00000000       0x24 .\CortexM3\ARM_GCC_473\Debug\PSoC_2_Pi.a(CyFlash.o)
 .text.CySetFlashEEBuffer
                0x00000000       0x78 .\CortexM3\ARM_GCC_473\Debug\PSoC_2_Pi.a(CyFlash.o)
 .text.CyWriteRowData
                0x00000000       0xbc .\CortexM3\ARM_GCC_473\Debug\PSoC_2_Pi.a(CyFlash.o)
 .text.CyWriteRowFull
                0x00000000      0x120 .\CortexM3\ARM_GCC_473\Debug\PSoC_2_Pi.a(CyFlash.o)
 .text.CyFlash_SetWaitCycles
                0x00000000       0xc0 .\CortexM3\ARM_GCC_473\Debug\PSoC_2_Pi.a(CyFlash.o)
 .text.CyEEPROM_Start
                0x00000000       0x44 .\CortexM3\ARM_GCC_473\Debug\PSoC_2_Pi.a(CyFlash.o)
 .text.CyEEPROM_Stop
                0x00000000       0x44 .\CortexM3\ARM_GCC_473\Debug\PSoC_2_Pi.a(CyFlash.o)
 .text.CyEEPROM_ReadReserve
                0x00000000       0x3c .\CortexM3\ARM_GCC_473\Debug\PSoC_2_Pi.a(CyFlash.o)
 .text.CyEEPROM_ReadRelease
                0x00000000       0x28 .\CortexM3\ARM_GCC_473\Debug\PSoC_2_Pi.a(CyFlash.o)
 COMMON         0x00000000        0x2 .\CortexM3\ARM_GCC_473\Debug\PSoC_2_Pi.a(CyFlash.o)
 .text          0x00000000        0x0 .\CortexM3\ARM_GCC_473\Debug\PSoC_2_Pi.a(CySpc.o)
 .data          0x00000000        0x0 .\CortexM3\ARM_GCC_473\Debug\PSoC_2_Pi.a(CySpc.o)
 .bss           0x00000000        0x8 .\CortexM3\ARM_GCC_473\Debug\PSoC_2_Pi.a(CySpc.o)
 .text.CySpcStart
                0x00000000       0x58 .\CortexM3\ARM_GCC_473\Debug\PSoC_2_Pi.a(CySpc.o)
 .text.CySpcStop
                0x00000000       0x58 .\CortexM3\ARM_GCC_473\Debug\PSoC_2_Pi.a(CySpc.o)
 .text.CySpcReadData
                0x00000000       0x64 .\CortexM3\ARM_GCC_473\Debug\PSoC_2_Pi.a(CySpc.o)
 .text.CySpcLoadMultiByte
                0x00000000      0x11c .\CortexM3\ARM_GCC_473\Debug\PSoC_2_Pi.a(CySpc.o)
 .text.CySpcLoadRow
                0x00000000       0xbc .\CortexM3\ARM_GCC_473\Debug\PSoC_2_Pi.a(CySpc.o)
 .text.CySpcWriteRow
                0x00000000       0xcc .\CortexM3\ARM_GCC_473\Debug\PSoC_2_Pi.a(CySpc.o)
 .text.CySpcEraseSector
                0x00000000       0x9c .\CortexM3\ARM_GCC_473\Debug\PSoC_2_Pi.a(CySpc.o)
 .text.CySpcGetTemp
                0x00000000       0x8c .\CortexM3\ARM_GCC_473\Debug\PSoC_2_Pi.a(CySpc.o)
 .text.CySpcLock
                0x00000000       0x88 .\CortexM3\ARM_GCC_473\Debug\PSoC_2_Pi.a(CySpc.o)
 .text.CySpcUnlock
                0x00000000       0x68 .\CortexM3\ARM_GCC_473\Debug\PSoC_2_Pi.a(CySpc.o)
 .data          0x00000000        0x0 c:/program files (x86)/cypress/psoc creator/3.0/psoc creator/import/gnu_cs/arm/4.7.3/bin/../lib/gcc/arm-none-eabi/4.7.3/armv7-m\libgcc.a(_arm_addsubdf3.o)
 .bss           0x00000000        0x0 c:/program files (x86)/cypress/psoc creator/3.0/psoc creator/import/gnu_cs/arm/4.7.3/bin/../lib/gcc/arm-none-eabi/4.7.3/armv7-m\libgcc.a(_arm_addsubdf3.o)
 .data          0x00000000        0x0 c:/program files (x86)/cypress/psoc creator/3.0/psoc creator/import/gnu_cs/arm/4.7.3/bin/../lib/gcc/arm-none-eabi/4.7.3/armv7-m\libgcc.a(_arm_muldivdf3.o)
 .bss           0x00000000        0x0 c:/program files (x86)/cypress/psoc creator/3.0/psoc creator/import/gnu_cs/arm/4.7.3/bin/../lib/gcc/arm-none-eabi/4.7.3/armv7-m\libgcc.a(_arm_muldivdf3.o)
 .data          0x00000000        0x0 c:/program files (x86)/cypress/psoc creator/3.0/psoc creator/import/gnu_cs/arm/4.7.3/bin/../lib/gcc/arm-none-eabi/4.7.3/armv7-m\libgcc.a(_arm_cmpdf2.o)
 .bss           0x00000000        0x0 c:/program files (x86)/cypress/psoc creator/3.0/psoc creator/import/gnu_cs/arm/4.7.3/bin/../lib/gcc/arm-none-eabi/4.7.3/armv7-m\libgcc.a(_arm_cmpdf2.o)
 .data          0x00000000        0x0 c:/program files (x86)/cypress/psoc creator/3.0/psoc creator/import/gnu_cs/arm/4.7.3/bin/../lib/gcc/arm-none-eabi/4.7.3/armv7-m\libgcc.a(_arm_fixunsdfsi.o)
 .bss           0x00000000        0x0 c:/program files (x86)/cypress/psoc creator/3.0/psoc creator/import/gnu_cs/arm/4.7.3/bin/../lib/gcc/arm-none-eabi/4.7.3/armv7-m\libgcc.a(_arm_fixunsdfsi.o)
 .text          0x00000000      0x21c c:/program files (x86)/cypress/psoc creator/3.0/psoc creator/import/gnu_cs/arm/4.7.3/bin/../lib/gcc/arm-none-eabi/4.7.3/armv7-m\libgcc.a(_arm_addsubsf3.o)
 .data          0x00000000        0x0 c:/program files (x86)/cypress/psoc creator/3.0/psoc creator/import/gnu_cs/arm/4.7.3/bin/../lib/gcc/arm-none-eabi/4.7.3/armv7-m\libgcc.a(_arm_addsubsf3.o)
 .bss           0x00000000        0x0 c:/program files (x86)/cypress/psoc creator/3.0/psoc creator/import/gnu_cs/arm/4.7.3/bin/../lib/gcc/arm-none-eabi/4.7.3/armv7-m\libgcc.a(_arm_addsubsf3.o)
 .text          0x00000000      0x2a0 c:/program files (x86)/cypress/psoc creator/3.0/psoc creator/import/gnu_cs/arm/4.7.3/bin/../lib/gcc/arm-none-eabi/4.7.3/armv7-m\libgcc.a(_arm_muldivsf3.o)
 .data          0x00000000        0x0 c:/program files (x86)/cypress/psoc creator/3.0/psoc creator/import/gnu_cs/arm/4.7.3/bin/../lib/gcc/arm-none-eabi/4.7.3/armv7-m\libgcc.a(_arm_muldivsf3.o)
 .bss           0x00000000        0x0 c:/program files (x86)/cypress/psoc creator/3.0/psoc creator/import/gnu_cs/arm/4.7.3/bin/../lib/gcc/arm-none-eabi/4.7.3/armv7-m\libgcc.a(_arm_muldivsf3.o)
 .text          0x00000000       0x40 c:/program files (x86)/cypress/psoc creator/3.0/psoc creator/import/gnu_cs/arm/4.7.3/bin/../lib/gcc/arm-none-eabi/4.7.3/armv7-m\libgcc.a(_arm_fixunssfsi.o)
 .data          0x00000000        0x0 c:/program files (x86)/cypress/psoc creator/3.0/psoc creator/import/gnu_cs/arm/4.7.3/bin/../lib/gcc/arm-none-eabi/4.7.3/armv7-m\libgcc.a(_arm_fixunssfsi.o)
 .bss           0x00000000        0x0 c:/program files (x86)/cypress/psoc creator/3.0/psoc creator/import/gnu_cs/arm/4.7.3/bin/../lib/gcc/arm-none-eabi/4.7.3/armv7-m\libgcc.a(_arm_fixunssfsi.o)
 .data          0x00000000        0x0 c:/program files (x86)/cypress/psoc creator/3.0/psoc creator/import/gnu_cs/arm/4.7.3/bin/../lib/gcc/arm-none-eabi/4.7.3/armv7-m\libgcc.a(_aeabi_ldivmod.o)
 .bss           0x00000000        0x0 c:/program files (x86)/cypress/psoc creator/3.0/psoc creator/import/gnu_cs/arm/4.7.3/bin/../lib/gcc/arm-none-eabi/4.7.3/armv7-m\libgcc.a(_aeabi_ldivmod.o)
 .data          0x00000000        0x0 c:/program files (x86)/cypress/psoc creator/3.0/psoc creator/import/gnu_cs/arm/4.7.3/bin/../lib/gcc/arm-none-eabi/4.7.3/armv7-m\libgcc.a(bpabi.o)
 .bss           0x00000000        0x0 c:/program files (x86)/cypress/psoc creator/3.0/psoc creator/import/gnu_cs/arm/4.7.3/bin/../lib/gcc/arm-none-eabi/4.7.3/armv7-m\libgcc.a(bpabi.o)
 .data          0x00000000        0x0 c:/program files (x86)/cypress/psoc creator/3.0/psoc creator/import/gnu_cs/arm/4.7.3/bin/../lib/gcc/arm-none-eabi/4.7.3/armv7-m\libgcc.a(_dvmd_tls.o)
 .bss           0x00000000        0x0 c:/program files (x86)/cypress/psoc creator/3.0/psoc creator/import/gnu_cs/arm/4.7.3/bin/../lib/gcc/arm-none-eabi/4.7.3/armv7-m\libgcc.a(_dvmd_tls.o)
 .data          0x00000000        0x0 c:/program files (x86)/cypress/psoc creator/3.0/psoc creator/import/gnu_cs/arm/4.7.3/bin/../lib/gcc/arm-none-eabi/4.7.3/armv7-m\libgcc.a(_divdi3.o)
 .bss           0x00000000        0x0 c:/program files (x86)/cypress/psoc creator/3.0/psoc creator/import/gnu_cs/arm/4.7.3/bin/../lib/gcc/arm-none-eabi/4.7.3/armv7-m\libgcc.a(_divdi3.o)
 .ARM.extab     0x00000000        0x0 c:/program files (x86)/cypress/psoc creator/3.0/psoc creator/import/gnu_cs/arm/4.7.3/bin/../lib/gcc/arm-none-eabi/4.7.3/armv7-m\libgcc.a(_divdi3.o)
 .data          0x00000000        0x0 c:/program files (x86)/cypress/psoc creator/3.0/psoc creator/import/gnu_cs/arm/4.7.3/bin/../lib/gcc/arm-none-eabi/4.7.3/armv7-m\libgcc.a(_udivdi3.o)
 .bss           0x00000000        0x0 c:/program files (x86)/cypress/psoc creator/3.0/psoc creator/import/gnu_cs/arm/4.7.3/bin/../lib/gcc/arm-none-eabi/4.7.3/armv7-m\libgcc.a(_udivdi3.o)
 .ARM.extab     0x00000000        0x0 c:/program files (x86)/cypress/psoc creator/3.0/psoc creator/import/gnu_cs/arm/4.7.3/bin/../lib/gcc/arm-none-eabi/4.7.3/armv7-m\libgcc.a(_udivdi3.o)
 .text          0x00000000        0x0 c:/program files (x86)/cypress/psoc creator/3.0/psoc creator/import/gnu_cs/arm/4.7.3/bin/../lib/gcc/arm-none-eabi/4.7.3/../../../../arm-none-eabi/lib/armv7-m\libc_s.a(lib_a-__atexit2.o)
 .data          0x00000000        0x0 c:/program files (x86)/cypress/psoc creator/3.0/psoc creator/import/gnu_cs/arm/4.7.3/bin/../lib/gcc/arm-none-eabi/4.7.3/../../../../arm-none-eabi/lib/armv7-m\libc_s.a(lib_a-__atexit2.o)
 .bss           0x00000000        0x0 c:/program files (x86)/cypress/psoc creator/3.0/psoc creator/import/gnu_cs/arm/4.7.3/bin/../lib/gcc/arm-none-eabi/4.7.3/../../../../arm-none-eabi/lib/armv7-m\libc_s.a(lib_a-__atexit2.o)
 .text.__register_exitproc
                0x00000000       0x14 c:/program files (x86)/cypress/psoc creator/3.0/psoc creator/import/gnu_cs/arm/4.7.3/bin/../lib/gcc/arm-none-eabi/4.7.3/../../../../arm-none-eabi/lib/armv7-m\libc_s.a(lib_a-__atexit2.o)
 .text          0x00000000        0x0 c:/program files (x86)/cypress/psoc creator/3.0/psoc creator/import/gnu_cs/arm/4.7.3/bin/../lib/gcc/arm-none-eabi/4.7.3/../../../../arm-none-eabi/lib/armv7-m\libc_s.a(lib_a-exit.o)
 .data          0x00000000        0x0 c:/program files (x86)/cypress/psoc creator/3.0/psoc creator/import/gnu_cs/arm/4.7.3/bin/../lib/gcc/arm-none-eabi/4.7.3/../../../../arm-none-eabi/lib/armv7-m\libc_s.a(lib_a-exit.o)
 .bss           0x00000000        0x0 c:/program files (x86)/cypress/psoc creator/3.0/psoc creator/import/gnu_cs/arm/4.7.3/bin/../lib/gcc/arm-none-eabi/4.7.3/../../../../arm-none-eabi/lib/armv7-m\libc_s.a(lib_a-exit.o)
 .text.exit     0x00000000       0x2c c:/program files (x86)/cypress/psoc creator/3.0/psoc creator/import/gnu_cs/arm/4.7.3/bin/../lib/gcc/arm-none-eabi/4.7.3/../../../../arm-none-eabi/lib/armv7-m\libc_s.a(lib_a-exit.o)
 .text          0x00000000        0x0 c:/program files (x86)/cypress/psoc creator/3.0/psoc creator/import/gnu_cs/arm/4.7.3/bin/../lib/gcc/arm-none-eabi/4.7.3/../../../../arm-none-eabi/lib/armv7-m\libc_s.a(lib_a-fini.o)
 .data          0x00000000        0x0 c:/program files (x86)/cypress/psoc creator/3.0/psoc creator/import/gnu_cs/arm/4.7.3/bin/../lib/gcc/arm-none-eabi/4.7.3/../../../../arm-none-eabi/lib/armv7-m\libc_s.a(lib_a-fini.o)
 .bss           0x00000000        0x0 c:/program files (x86)/cypress/psoc creator/3.0/psoc creator/import/gnu_cs/arm/4.7.3/bin/../lib/gcc/arm-none-eabi/4.7.3/../../../../arm-none-eabi/lib/armv7-m\libc_s.a(lib_a-fini.o)
 .text.__libc_fini_array
                0x00000000       0x2c c:/program files (x86)/cypress/psoc creator/3.0/psoc creator/import/gnu_cs/arm/4.7.3/bin/../lib/gcc/arm-none-eabi/4.7.3/../../../../arm-none-eabi/lib/armv7-m\libc_s.a(lib_a-fini.o)
 .text          0x00000000        0x0 c:/program files (x86)/cypress/psoc creator/3.0/psoc creator/import/gnu_cs/arm/4.7.3/bin/../lib/gcc/arm-none-eabi/4.7.3/../../../../arm-none-eabi/lib/armv7-m\libc_s.a(lib_a-impure.o)
 .data          0x00000000        0x0 c:/program files (x86)/cypress/psoc creator/3.0/psoc creator/import/gnu_cs/arm/4.7.3/bin/../lib/gcc/arm-none-eabi/4.7.3/../../../../arm-none-eabi/lib/armv7-m\libc_s.a(lib_a-impure.o)
 .bss           0x00000000        0x0 c:/program files (x86)/cypress/psoc creator/3.0/psoc creator/import/gnu_cs/arm/4.7.3/bin/../lib/gcc/arm-none-eabi/4.7.3/../../../../arm-none-eabi/lib/armv7-m\libc_s.a(lib_a-impure.o)
 .data.impure_data
                0x00000000       0x64 c:/program files (x86)/cypress/psoc creator/3.0/psoc creator/import/gnu_cs/arm/4.7.3/bin/../lib/gcc/arm-none-eabi/4.7.3/../../../../arm-none-eabi/lib/armv7-m\libc_s.a(lib_a-impure.o)
 .data._impure_ptr
                0x00000000        0x4 c:/program files (x86)/cypress/psoc creator/3.0/psoc creator/import/gnu_cs/arm/4.7.3/bin/../lib/gcc/arm-none-eabi/4.7.3/../../../../arm-none-eabi/lib/armv7-m\libc_s.a(lib_a-impure.o)
 .rodata.str1.1
                0x00000000        0x2 c:/program files (x86)/cypress/psoc creator/3.0/psoc creator/import/gnu_cs/arm/4.7.3/bin/../lib/gcc/arm-none-eabi/4.7.3/../../../../arm-none-eabi/lib/armv7-m\libc_s.a(lib_a-impure.o)
 .rodata._global_impure_ptr
                0x00000000        0x4 c:/program files (x86)/cypress/psoc creator/3.0/psoc creator/import/gnu_cs/arm/4.7.3/bin/../lib/gcc/arm-none-eabi/4.7.3/../../../../arm-none-eabi/lib/armv7-m\libc_s.a(lib_a-impure.o)
 .text          0x00000000        0x0 c:/program files (x86)/cypress/psoc creator/3.0/psoc creator/import/gnu_cs/arm/4.7.3/bin/../lib/gcc/arm-none-eabi/4.7.3/../../../../arm-none-eabi/lib/armv7-m\libc_s.a(lib_a-init.o)
 .data          0x00000000        0x0 c:/program files (x86)/cypress/psoc creator/3.0/psoc creator/import/gnu_cs/arm/4.7.3/bin/../lib/gcc/arm-none-eabi/4.7.3/../../../../arm-none-eabi/lib/armv7-m\libc_s.a(lib_a-init.o)
 .bss           0x00000000        0x0 c:/program files (x86)/cypress/psoc creator/3.0/psoc creator/import/gnu_cs/arm/4.7.3/bin/../lib/gcc/arm-none-eabi/4.7.3/../../../../arm-none-eabi/lib/armv7-m\libc_s.a(lib_a-init.o)
 .text          0x00000000        0x0 c:/program files (x86)/cypress/psoc creator/3.0/psoc creator/import/gnu_cs/arm/4.7.3/bin/../lib/gcc/arm-none-eabi/4.7.3/../../../../arm-none-eabi/lib/armv7-m\libc_s.a(lib_a-memcpy.o)
 .data          0x00000000        0x0 c:/program files (x86)/cypress/psoc creator/3.0/psoc creator/import/gnu_cs/arm/4.7.3/bin/../lib/gcc/arm-none-eabi/4.7.3/../../../../arm-none-eabi/lib/armv7-m\libc_s.a(lib_a-memcpy.o)
 .bss           0x00000000        0x0 c:/program files (x86)/cypress/psoc creator/3.0/psoc creator/import/gnu_cs/arm/4.7.3/bin/../lib/gcc/arm-none-eabi/4.7.3/../../../../arm-none-eabi/lib/armv7-m\libc_s.a(lib_a-memcpy.o)
 .text          0x00000000        0x0 c:/program files (x86)/cypress/psoc creator/3.0/psoc creator/import/gnu_cs/arm/4.7.3/bin/../lib/gcc/arm-none-eabi/4.7.3/../../../../arm-none-eabi/lib/armv7-m\libc_s.a(lib_a-memset.o)
 .data          0x00000000        0x0 c:/program files (x86)/cypress/psoc creator/3.0/psoc creator/import/gnu_cs/arm/4.7.3/bin/../lib/gcc/arm-none-eabi/4.7.3/../../../../arm-none-eabi/lib/armv7-m\libc_s.a(lib_a-memset.o)
 .bss           0x00000000        0x0 c:/program files (x86)/cypress/psoc creator/3.0/psoc creator/import/gnu_cs/arm/4.7.3/bin/../lib/gcc/arm-none-eabi/4.7.3/../../../../arm-none-eabi/lib/armv7-m\libc_s.a(lib_a-memset.o)
 .text          0x00000000        0x0 c:/program files (x86)/cypress/psoc creator/3.0/psoc creator/import/gnu_cs/arm/4.7.3/bin/../lib/gcc/arm-none-eabi/4.7.3/armv7-m/crtend.o
 .data          0x00000000        0x0 c:/program files (x86)/cypress/psoc creator/3.0/psoc creator/import/gnu_cs/arm/4.7.3/bin/../lib/gcc/arm-none-eabi/4.7.3/armv7-m/crtend.o
 .bss           0x00000000        0x0 c:/program files (x86)/cypress/psoc creator/3.0/psoc creator/import/gnu_cs/arm/4.7.3/bin/../lib/gcc/arm-none-eabi/4.7.3/armv7-m/crtend.o
 .text          0x00000000        0x0 c:/program files (x86)/cypress/psoc creator/3.0/psoc creator/import/gnu_cs/arm/4.7.3/bin/../lib/gcc/arm-none-eabi/4.7.3/armv7-m/crtn.o
 .data          0x00000000        0x0 c:/program files (x86)/cypress/psoc creator/3.0/psoc creator/import/gnu_cs/arm/4.7.3/bin/../lib/gcc/arm-none-eabi/4.7.3/armv7-m/crtn.o
 .bss           0x00000000        0x0 c:/program files (x86)/cypress/psoc creator/3.0/psoc creator/import/gnu_cs/arm/4.7.3/bin/../lib/gcc/arm-none-eabi/4.7.3/armv7-m/crtn.o

Memory Configuration

Name             Origin             Length             Attributes
rom              0x00000000         0x00040000         xr
ram              0x1fff8000         0x00010000         xrw
*default*        0x00000000         0xffffffff

Linker script and memory map

LOAD c:/program files (x86)/cypress/psoc creator/3.0/psoc creator/import/gnu_cs/arm/4.7.3/bin/../lib/gcc/arm-none-eabi/4.7.3/armv7-m/crti.o
LOAD c:/program files (x86)/cypress/psoc creator/3.0/psoc creator/import/gnu_cs/arm/4.7.3/bin/../lib/gcc/arm-none-eabi/4.7.3/armv7-m/crtbegin.o
LOAD c:/program files (x86)/cypress/psoc creator/3.0/psoc creator/import/gnu_cs/arm/4.7.3/bin/../lib/gcc/arm-none-eabi/4.7.3/../../../../arm-none-eabi/lib/armv7-m/crt0.o
START GROUP
LOAD .\CortexM3\ARM_GCC_473\Debug\main.o
LOAD .\CortexM3\ARM_GCC_473\Debug\mem1.o
LOAD .\CortexM3\ARM_GCC_473\Debug\cymetadata.o
LOAD .\CortexM3\ARM_GCC_473\Debug\Cm3Start.o
LOAD .\CortexM3\ARM_GCC_473\Debug\cybootloader.o
LOAD .\CortexM3\ARM_GCC_473\Debug\PSoC_2_Pi.a
LOAD C:\Program Files (x86)\Cypress\PSoC Creator\3.0\PSoC Creator\psoc\content\cycomponentlibrary\CyComponentLibrary.cylib\CortexM3\ARM_GCC_473\Debug\CyComponentLibrary.a
END GROUP
START GROUP
LOAD c:/program files (x86)/cypress/psoc creator/3.0/psoc creator/import/gnu_cs/arm/4.7.3/bin/../lib/gcc/arm-none-eabi/4.7.3/armv7-m\libgcc.a
LOAD c:/program files (x86)/cypress/psoc creator/3.0/psoc creator/import/gnu_cs/arm/4.7.3/bin/../lib/gcc/arm-none-eabi/4.7.3/../../../../arm-none-eabi/lib/armv7-m\libc_s.a
END GROUP
LOAD c:/program files (x86)/cypress/psoc creator/3.0/psoc creator/import/gnu_cs/arm/4.7.3/bin/../lib/gcc/arm-none-eabi/4.7.3/armv7-m/crtend.o
LOAD c:/program files (x86)/cypress/psoc creator/3.0/psoc creator/import/gnu_cs/arm/4.7.3/bin/../lib/gcc/arm-none-eabi/4.7.3/armv7-m/crtn.o
START GROUP
LOAD c:/program files (x86)/cypress/psoc creator/3.0/psoc creator/import/gnu_cs/arm/4.7.3/bin/../lib/gcc/arm-none-eabi/4.7.3/armv7-m\libgcc.a
LOAD c:/program files (x86)/cypress/psoc creator/3.0/psoc creator/import/gnu_cs/arm/4.7.3/bin/../lib/gcc/arm-none-eabi/4.7.3/../../../../arm-none-eabi/lib/armv7-m\libc.a
LOAD c:/program files (x86)/cypress/psoc creator/3.0/psoc creator/import/gnu_cs/arm/4.7.3/bin/../lib/gcc/arm-none-eabi/4.7.3/../../../../arm-none-eabi/lib/armv7-m\libnosys.a
END GROUP
                0x00000000                CY_APPL_ORIGIN = 0x0
                0x00000100                CY_FLASH_ROW_SIZE = 0x100
                0x00000020                CY_ECC_ROW_SIZE = 0x20
                0x00000000                CY_EE_IN_BTLDR = 0x0
                0x00000001                CY_APPL_LOADABLE = 0x1
                0x00000800                CY_EE_SIZE = 0x800
                0x00000001                CY_APPL_NUM = 0x1
                0x00000001                CY_APPL_MAX = 0x1
                0x00000040                CY_METADATA_SIZE = 0x40
                0x1fff8230                PROVIDE (__cy_heap_start, _end)
                0x00000001                PROVIDE (__cy_region_num, ((__cy_regions_end - __cy_regions) / 0x10))
                0x20008000                PROVIDE (__cy_stack, (ORIGIN (ram) + 0x10000))
                0x20004000                PROVIDE (__cy_heap_end, (__cy_stack - 0x4000))

.cybootloader   0x00000000     0x4b00
 *(.cybootloader)
 .cybootloader  0x00000000     0x4b00 .\CortexM3\ARM_GCC_473\Debug\cybootloader.o
                0x00000000                cy_bootloader
                0x00004b00                appl1_start = CY_APPL_ORIGIN?CY_APPL_ORIGIN:ALIGN (CY_FLASH_ROW_SIZE)
                0x00022500                appl2_start = (appl1_start + ALIGN ((((0x40000 - appl1_start) - (0x2 * CY_FLASH_ROW_SIZE)) / 0x2), CY_FLASH_ROW_SIZE))
                0x00004b00                appl_start = (CY_APPL_NUM == 0x1)?appl1_start:appl2_start
                0x00000960                ecc_offset = ((appl_start / CY_FLASH_ROW_SIZE) * CY_ECC_ROW_SIZE)
                0x00000000                ee_offset = (CY_APPL_LOADABLE && ! (CY_EE_IN_BTLDR))?((CY_EE_SIZE / CY_APPL_MAX) * (CY_APPL_NUM - 0x1)):0x0
                0x00000800                ee_size = (CY_APPL_LOADABLE && ! (CY_EE_IN_BTLDR))?(CY_EE_SIZE / CY_APPL_MAX):CY_EE_SIZE
                0x00000960                PROVIDE (CY_ECC_OFFSET, ecc_offset)

.text           0x00004b00     0x9902
 CREATE_OBJECT_SYMBOLS
                0x00004b00                PROVIDE (__cy_interrupt_vector, RomVectors)
 *(.romvectors)
 .romvectors    0x00004b00       0x10 .\CortexM3\ARM_GCC_473\Debug\Cm3Start.o
                0x00004b00                RomVectors
                0x00000001                ASSERT ((. != __cy_interrupt_vector), No interrupt vector)
                0x00000001                ASSERT (CY_APPL_ORIGIN?(SIZEOF (.cybootloader) <= CY_APPL_ORIGIN):0x1, Wrong image location)
                0x00004b10                PROVIDE (__cy_reset, Reset)
 *(.text.Reset)
 .text.Reset    0x00004b10        0x8 .\CortexM3\ARM_GCC_473\Debug\Cm3Start.o
                0x00004b10                Reset
                0x00000001                ASSERT ((. != __cy_reset), No reset code)
 *(.dma_init)
                0x00000001                ASSERT ((((appl_start + .) <= 0x10000) || 0x1), DMA Init must be within the first 64k of flash)
 *(.text .text.* .gnu.linkonce.t.*)
 .text          0x00004b18       0x54 c:/program files (x86)/cypress/psoc creator/3.0/psoc creator/import/gnu_cs/arm/4.7.3/bin/../lib/gcc/arm-none-eabi/4.7.3/armv7-m/crtbegin.o
 .text.main     0x00004b6c       0x7c .\CortexM3\ARM_GCC_473\Debug\main.o
                0x00004b6c                main
 .text.ReadFrom_Pi
                0x00004be8       0xa4 .\CortexM3\ARM_GCC_473\Debug\main.o
                0x00004be8                ReadFrom_Pi
 .text.WriteTo_Pi
                0x00004c8c       0x88 .\CortexM3\ARM_GCC_473\Debug\main.o
                0x00004c8c                WriteTo_Pi
 .text.readData
                0x00004d14      0x1cc .\CortexM3\ARM_GCC_473\Debug\mem1.o
                0x00004d14                readData
 .text.DELSIG_ADC_Control
                0x00004ee0      0x170 .\CortexM3\ARM_GCC_473\Debug\mem1.o
                0x00004ee0                DELSIG_ADC_Control
 .text.SAR0_ADC_Control
                0x00005050      0x128 .\CortexM3\ARM_GCC_473\Debug\mem1.o
                0x00005050                SAR0_ADC_Control
 .text.SAR1_ADC_Control
                0x00005178      0x128 .\CortexM3\ARM_GCC_473\Debug\mem1.o
                0x00005178                SAR1_ADC_Control
 .text.VDAC0_Control
                0x000052a0       0xc0 .\CortexM3\ARM_GCC_473\Debug\mem1.o
                0x000052a0                VDAC0_Control
 .text.VDAC1_Control
                0x00005360       0xc0 .\CortexM3\ARM_GCC_473\Debug\mem1.o
                0x00005360                VDAC1_Control
 .text.IDAC0_Control
                0x00005420       0xf4 .\CortexM3\ARM_GCC_473\Debug\mem1.o
                0x00005420                IDAC0_Control
 .text.WAVEDAC_Control
                0x00005514       0xe8 .\CortexM3\ARM_GCC_473\Debug\mem1.o
                0x00005514                WAVEDAC_Control
 *fill*         0x000055fc        0x4 00
 .text.Generate_Wave
                0x00005600      0x478 .\CortexM3\ARM_GCC_473\Debug\mem1.o
                0x00005600                Generate_Wave
 .text.PWM_Control_0
                0x00005a78       0xe0 .\CortexM3\ARM_GCC_473\Debug\mem1.o
                0x00005a78                PWM_Control_0
 .text.PWM_Control_1
                0x00005b58       0xe0 .\CortexM3\ARM_GCC_473\Debug\mem1.o
                0x00005b58                PWM_Control_1
 .text.PWM_Control_2
                0x00005c38       0xe0 .\CortexM3\ARM_GCC_473\Debug\mem1.o
                0x00005c38                PWM_Control_2
 .text.PWM_Control_3
                0x00005d18       0xe0 .\CortexM3\ARM_GCC_473\Debug\mem1.o
                0x00005d18                PWM_Control_3
 .text.PWM_Control_4
                0x00005df8       0xe0 .\CortexM3\ARM_GCC_473\Debug\mem1.o
                0x00005df8                PWM_Control_4
 .text.PWM_Control_5
                0x00005ed8       0xe0 .\CortexM3\ARM_GCC_473\Debug\mem1.o
                0x00005ed8                PWM_Control_5
 .text.PWM_Control_6
                0x00005fb8       0xe0 .\CortexM3\ARM_GCC_473\Debug\mem1.o
                0x00005fb8                PWM_Control_6
 .text.PWM_Control_7
                0x00006098       0xe0 .\CortexM3\ARM_GCC_473\Debug\mem1.o
                0x00006098                PWM_Control_7
 .text.Input_Control0
                0x00006178       0x40 .\CortexM3\ARM_GCC_473\Debug\mem1.o
                0x00006178                Input_Control0
 .text.Input_Control1
                0x000061b8       0x40 .\CortexM3\ARM_GCC_473\Debug\mem1.o
                0x000061b8                Input_Control1
 .text.Input_Control2
                0x000061f8       0x40 .\CortexM3\ARM_GCC_473\Debug\mem1.o
                0x000061f8                Input_Control2
 .text.Output_Control0
                0x00006238       0xb8 .\CortexM3\ARM_GCC_473\Debug\mem1.o
                0x00006238                Output_Control0
 .text.Output_Control1
                0x000062f0       0xb8 .\CortexM3\ARM_GCC_473\Debug\mem1.o
                0x000062f0                Output_Control1
 .text.Output_Control2
                0x000063a8       0xb8 .\CortexM3\ARM_GCC_473\Debug\mem1.o
                0x000063a8                Output_Control2
 .text.IntDefaultHandler
                0x00006460        0x8 .\CortexM3\ARM_GCC_473\Debug\Cm3Start.o
                0x00006460                IntDefaultHandler
 .text.Start_c  0x00006468       0xcc .\CortexM3\ARM_GCC_473\Debug\Cm3Start.o
                0x00006468                Start_c
 .text.initialize_psoc
                0x00006534       0xb8 .\CortexM3\ARM_GCC_473\Debug\Cm3Start.o
                0x00006534                initialize_psoc
 .text.CYMEMZERO
                0x000065ec       0x20 .\CortexM3\ARM_GCC_473\Debug\PSoC_2_Pi.a(cyfitter_cfg.o)
 .text.CYCONFIGCPY
                0x0000660c       0x20 .\CortexM3\ARM_GCC_473\Debug\PSoC_2_Pi.a(cyfitter_cfg.o)
 .text.CyClockStartupError
                0x0000662c        0xc .\CortexM3\ARM_GCC_473\Debug\PSoC_2_Pi.a(cyfitter_cfg.o)
 .text.cfg_write_bytes32
                0x00006638       0x84 .\CortexM3\ARM_GCC_473\Debug\PSoC_2_Pi.a(cyfitter_cfg.o)
 .text.ClockSetup
                0x000066bc      0x278 .\CortexM3\ARM_GCC_473\Debug\PSoC_2_Pi.a(cyfitter_cfg.o)
 .text.AnalogSetDefault
                0x00006934      0x1a0 .\CortexM3\ARM_GCC_473\Debug\PSoC_2_Pi.a(cyfitter_cfg.o)
 .text.ADC_DelSig_1_AMux_Set
                0x00006ad4       0x4c .\CortexM3\ARM_GCC_473\Debug\PSoC_2_Pi.a(cyfitter_cfg.o)
                0x00006ad4                ADC_DelSig_1_AMux_Set
 .text.ADC_DelSig_1_AMux_Unset
                0x00006b20       0x50 .\CortexM3\ARM_GCC_473\Debug\PSoC_2_Pi.a(cyfitter_cfg.o)
                0x00006b20                ADC_DelSig_1_AMux_Unset
 .text.cyfitter_cfg
                0x00006b70      0x2d8 .\CortexM3\ARM_GCC_473\Debug\PSoC_2_Pi.a(cyfitter_cfg.o)
                0x00006b70                cyfitter_cfg
 .text          0x00006e48       0x28 .\CortexM3\ARM_GCC_473\Debug\PSoC_2_Pi.a(CyBootAsmGnu.o)
                0x00006e48                CyDelayCycles
                0x00006e5c                CyEnterCriticalSection
                0x00006e64                CyExitCriticalSection
 .text.CyDmacConfigure
                0x00006e70       0x70 .\CortexM3\ARM_GCC_473\Debug\PSoC_2_Pi.a(CyDmac.o)
                0x00006e70                CyDmacConfigure
 .text.CyDmaChEnable
                0x00006ee0       0xbc .\CortexM3\ARM_GCC_473\Debug\PSoC_2_Pi.a(CyDmac.o)
                0x00006ee0                CyDmaChEnable
 .text.CyDmaChDisable
                0x00006f9c       0x84 .\CortexM3\ARM_GCC_473\Debug\PSoC_2_Pi.a(CyDmac.o)
                0x00006f9c                CyDmaChDisable
 .text.CyDmaChPriority
                0x00007020       0x70 .\CortexM3\ARM_GCC_473\Debug\PSoC_2_Pi.a(CyDmac.o)
                0x00007020                CyDmaChPriority
 .text.CyDmaChSetExtendedAddress
                0x00007090       0x88 .\CortexM3\ARM_GCC_473\Debug\PSoC_2_Pi.a(CyDmac.o)
                0x00007090                CyDmaChSetExtendedAddress
 .text.CyDmaChSetInitialTd
                0x00007118       0x44 .\CortexM3\ARM_GCC_473\Debug\PSoC_2_Pi.a(CyDmac.o)
                0x00007118                CyDmaChSetInitialTd
 .text.CyDmaChSetConfiguration
                0x0000715c       0xa4 .\CortexM3\ARM_GCC_473\Debug\PSoC_2_Pi.a(CyDmac.o)
                0x0000715c                CyDmaChSetConfiguration
 .text.CyDmaTdAllocate
                0x00007200       0x78 .\CortexM3\ARM_GCC_473\Debug\PSoC_2_Pi.a(CyDmac.o)
                0x00007200                CyDmaTdAllocate
 .text.CyDmaTdSetConfiguration
                0x00007278       0x7c .\CortexM3\ARM_GCC_473\Debug\PSoC_2_Pi.a(CyDmac.o)
                0x00007278                CyDmaTdSetConfiguration
 .text.CyDmaTdSetAddress
                0x000072f4       0x68 .\CortexM3\ARM_GCC_473\Debug\PSoC_2_Pi.a(CyDmac.o)
                0x000072f4                CyDmaTdSetAddress
 .text.CyHalt   0x0000735c       0x18 .\CortexM3\ARM_GCC_473\Debug\PSoC_2_Pi.a(CyLib.o)
                0x0000735c                CyHalt
 .text.CySoftwareReset
                0x00007374       0x28 .\CortexM3\ARM_GCC_473\Debug\PSoC_2_Pi.a(CyLib.o)
                0x00007374                CySoftwareReset
 .text.CyDelayUs
                0x0000739c       0x28 .\CortexM3\ARM_GCC_473\Debug\PSoC_2_Pi.a(CyLib.o)
                0x0000739c                CyDelayUs
 .text.CyIntSetVector
                0x000073c4       0x60 .\CortexM3\ARM_GCC_473\Debug\PSoC_2_Pi.a(CyLib.o)
                0x000073c4                CyIntSetVector
 .text.CyIntSetPriority
                0x00007424       0x4c .\CortexM3\ARM_GCC_473\Debug\PSoC_2_Pi.a(CyLib.o)
                0x00007424                CyIntSetPriority
 .text.PWM_1_Start
                0x00007470       0x2c .\CortexM3\ARM_GCC_473\Debug\PSoC_2_Pi.a(PWM_1.o)
                0x00007470                PWM_1_Start
 .text.PWM_1_Init
                0x0000749c       0xbc .\CortexM3\ARM_GCC_473\Debug\PSoC_2_Pi.a(PWM_1.o)
                0x0000749c                PWM_1_Init
 .text.PWM_1_Enable
                0x00007558       0x28 .\CortexM3\ARM_GCC_473\Debug\PSoC_2_Pi.a(PWM_1.o)
                0x00007558                PWM_1_Enable
 .text.PWM_1_Stop
                0x00007580       0x28 .\CortexM3\ARM_GCC_473\Debug\PSoC_2_Pi.a(PWM_1.o)
                0x00007580                PWM_1_Stop
 .text.PWM_1_WriteCounter
                0x000075a8       0x20 .\CortexM3\ARM_GCC_473\Debug\PSoC_2_Pi.a(PWM_1.o)
                0x000075a8                PWM_1_WriteCounter
 .text.PWM_1_ReadCounter
                0x000075c8       0x24 .\CortexM3\ARM_GCC_473\Debug\PSoC_2_Pi.a(PWM_1.o)
                0x000075c8                PWM_1_ReadCounter
 .text.PWM_1_ClearFIFO
                0x000075ec       0x1c .\CortexM3\ARM_GCC_473\Debug\PSoC_2_Pi.a(PWM_1.o)
                0x000075ec                PWM_1_ClearFIFO
 .text.PWM_1_WritePeriod
                0x00007608       0x20 .\CortexM3\ARM_GCC_473\Debug\PSoC_2_Pi.a(PWM_1.o)
                0x00007608                PWM_1_WritePeriod
 .text.PWM_1_WriteCompare
                0x00007628       0x20 .\CortexM3\ARM_GCC_473\Debug\PSoC_2_Pi.a(PWM_1.o)
                0x00007628                PWM_1_WriteCompare
 .text.PWM_1_SetInterruptMode
                0x00007648       0x20 .\CortexM3\ARM_GCC_473\Debug\PSoC_2_Pi.a(PWM_1.o)
                0x00007648                PWM_1_SetInterruptMode
 .text.PWM_1_ReadStatusRegister
                0x00007668       0x20 .\CortexM3\ARM_GCC_473\Debug\PSoC_2_Pi.a(PWM_1.o)
                0x00007668                PWM_1_ReadStatusRegister
 .text.PWM_1_ReadControlRegister
                0x00007688       0x20 .\CortexM3\ARM_GCC_473\Debug\PSoC_2_Pi.a(PWM_1.o)
                0x00007688                PWM_1_ReadControlRegister
 .text.PWM_1_WriteControlRegister
                0x000076a8       0x20 .\CortexM3\ARM_GCC_473\Debug\PSoC_2_Pi.a(PWM_1.o)
                0x000076a8                PWM_1_WriteControlRegister
 .text.PWM_1_ReadCapture
                0x000076c8       0x18 .\CortexM3\ARM_GCC_473\Debug\PSoC_2_Pi.a(PWM_1.o)
                0x000076c8                PWM_1_ReadCapture
 .text.PWM_1_ReadCompare
                0x000076e0       0x18 .\CortexM3\ARM_GCC_473\Debug\PSoC_2_Pi.a(PWM_1.o)
                0x000076e0                PWM_1_ReadCompare
 .text.PWM_1_ReadPeriod
                0x000076f8       0x18 .\CortexM3\ARM_GCC_473\Debug\PSoC_2_Pi.a(PWM_1.o)
                0x000076f8                PWM_1_ReadPeriod
 .text.PWM_1_SaveConfig
                0x00007710       0x54 .\CortexM3\ARM_GCC_473\Debug\PSoC_2_Pi.a(PWM_1_PM.o)
                0x00007710                PWM_1_SaveConfig
 .text.PWM_1_RestoreConfig
                0x00007764       0x4c .\CortexM3\ARM_GCC_473\Debug\PSoC_2_Pi.a(PWM_1_PM.o)
                0x00007764                PWM_1_RestoreConfig
 .text.PWM_1_Sleep
                0x000077b0       0x40 .\CortexM3\ARM_GCC_473\Debug\PSoC_2_Pi.a(PWM_1_PM.o)
                0x000077b0                PWM_1_Sleep
 .text.PWM_1_Wakeup
                0x000077f0       0x1c .\CortexM3\ARM_GCC_473\Debug\PSoC_2_Pi.a(PWM_1_PM.o)
                0x000077f0                PWM_1_Wakeup
 .text.ADC_SAR_1_Start
                0x0000780c       0x2c .\CortexM3\ARM_GCC_473\Debug\PSoC_2_Pi.a(ADC_SAR_1.o)
                0x0000780c                ADC_SAR_1_Start
 .text.ADC_SAR_1_Init
                0x00007838       0x5c .\CortexM3\ARM_GCC_473\Debug\PSoC_2_Pi.a(ADC_SAR_1.o)
                0x00007838                ADC_SAR_1_Init
 .text.ADC_SAR_1_Enable
                0x00007894      0x14c .\CortexM3\ARM_GCC_473\Debug\PSoC_2_Pi.a(ADC_SAR_1.o)
                0x00007894                ADC_SAR_1_Enable
 .text.ADC_SAR_1_Stop
                0x000079e0       0xac .\CortexM3\ARM_GCC_473\Debug\PSoC_2_Pi.a(ADC_SAR_1.o)
                0x000079e0                ADC_SAR_1_Stop
 .text.ADC_SAR_1_SetResolution
                0x00007a8c       0x60 .\CortexM3\ARM_GCC_473\Debug\PSoC_2_Pi.a(ADC_SAR_1.o)
                0x00007a8c                ADC_SAR_1_SetResolution
 .text.ADC_SAR_1_StartConvert
                0x00007aec       0x28 .\CortexM3\ARM_GCC_473\Debug\PSoC_2_Pi.a(ADC_SAR_1.o)
                0x00007aec                ADC_SAR_1_StartConvert
 .text.ADC_SAR_1_StopConvert
                0x00007b14       0x28 .\CortexM3\ARM_GCC_473\Debug\PSoC_2_Pi.a(ADC_SAR_1.o)
                0x00007b14                ADC_SAR_1_StopConvert
 .text.ADC_SAR_1_IsEndConversion
                0x00007b3c       0x4c .\CortexM3\ARM_GCC_473\Debug\PSoC_2_Pi.a(ADC_SAR_1.o)
                0x00007b3c                ADC_SAR_1_IsEndConversion
 .text.ADC_SAR_1_GetResult16
                0x00007b88       0x38 .\CortexM3\ARM_GCC_473\Debug\PSoC_2_Pi.a(ADC_SAR_1.o)
                0x00007b88                ADC_SAR_1_GetResult16
 .text.ADC_SAR_1_SetOffset
                0x00007bc0       0x20 .\CortexM3\ARM_GCC_473\Debug\PSoC_2_Pi.a(ADC_SAR_1.o)
                0x00007bc0                ADC_SAR_1_SetOffset
 .text.ADC_SAR_1_CalcGain
                0x00007be0       0x94 .\CortexM3\ARM_GCC_473\Debug\PSoC_2_Pi.a(ADC_SAR_1.o)
 .text.ADC_SAR_1_SetGain
                0x00007c74       0x30 .\CortexM3\ARM_GCC_473\Debug\PSoC_2_Pi.a(ADC_SAR_1.o)
                0x00007c74                ADC_SAR_1_SetGain
 .text.ADC_SAR_1_CountsTo_uVolts
                0x00007ca4       0xa8 .\CortexM3\ARM_GCC_473\Debug\PSoC_2_Pi.a(ADC_SAR_1.o)
                0x00007ca4                ADC_SAR_1_CountsTo_uVolts
 .text.ADC_SAR_1_ISR
                0x00007d4c        0xc .\CortexM3\ARM_GCC_473\Debug\PSoC_2_Pi.a(ADC_SAR_1_INT.o)
                0x00007d4c                ADC_SAR_1_ISR
 .text.ADC_SAR_1_Sleep
                0x00007d58       0x60 .\CortexM3\ARM_GCC_473\Debug\PSoC_2_Pi.a(ADC_SAR_1_PM.o)
                0x00007d58                ADC_SAR_1_Sleep
 .text.ADC_SAR_1_Wakeup
                0x00007db8       0x30 .\CortexM3\ARM_GCC_473\Debug\PSoC_2_Pi.a(ADC_SAR_1_PM.o)
                0x00007db8                ADC_SAR_1_Wakeup
 .text.ADC_SAR_2_Start
                0x00007de8       0x2c .\CortexM3\ARM_GCC_473\Debug\PSoC_2_Pi.a(ADC_SAR_2.o)
                0x00007de8                ADC_SAR_2_Start
 .text.ADC_SAR_2_Init
                0x00007e14       0x5c .\CortexM3\ARM_GCC_473\Debug\PSoC_2_Pi.a(ADC_SAR_2.o)
                0x00007e14                ADC_SAR_2_Init
 .text.ADC_SAR_2_Enable
                0x00007e70      0x14c .\CortexM3\ARM_GCC_473\Debug\PSoC_2_Pi.a(ADC_SAR_2.o)
                0x00007e70                ADC_SAR_2_Enable
 .text.ADC_SAR_2_Stop
                0x00007fbc       0xac .\CortexM3\ARM_GCC_473\Debug\PSoC_2_Pi.a(ADC_SAR_2.o)
                0x00007fbc                ADC_SAR_2_Stop
 .text.ADC_SAR_2_SetResolution
                0x00008068       0x60 .\CortexM3\ARM_GCC_473\Debug\PSoC_2_Pi.a(ADC_SAR_2.o)
                0x00008068                ADC_SAR_2_SetResolution
 .text.ADC_SAR_2_StartConvert
                0x000080c8       0x28 .\CortexM3\ARM_GCC_473\Debug\PSoC_2_Pi.a(ADC_SAR_2.o)
                0x000080c8                ADC_SAR_2_StartConvert
 .text.ADC_SAR_2_StopConvert
                0x000080f0       0x28 .\CortexM3\ARM_GCC_473\Debug\PSoC_2_Pi.a(ADC_SAR_2.o)
                0x000080f0                ADC_SAR_2_StopConvert
 .text.ADC_SAR_2_IsEndConversion
                0x00008118       0x4c .\CortexM3\ARM_GCC_473\Debug\PSoC_2_Pi.a(ADC_SAR_2.o)
                0x00008118                ADC_SAR_2_IsEndConversion
 .text.ADC_SAR_2_GetResult16
                0x00008164       0x38 .\CortexM3\ARM_GCC_473\Debug\PSoC_2_Pi.a(ADC_SAR_2.o)
                0x00008164                ADC_SAR_2_GetResult16
 .text.ADC_SAR_2_SetOffset
                0x0000819c       0x20 .\CortexM3\ARM_GCC_473\Debug\PSoC_2_Pi.a(ADC_SAR_2.o)
                0x0000819c                ADC_SAR_2_SetOffset
 .text.ADC_SAR_2_CalcGain
                0x000081bc       0x94 .\CortexM3\ARM_GCC_473\Debug\PSoC_2_Pi.a(ADC_SAR_2.o)
 .text.ADC_SAR_2_SetGain
                0x00008250       0x30 .\CortexM3\ARM_GCC_473\Debug\PSoC_2_Pi.a(ADC_SAR_2.o)
                0x00008250                ADC_SAR_2_SetGain
 .text.ADC_SAR_2_CountsTo_uVolts
                0x00008280       0xa8 .\CortexM3\ARM_GCC_473\Debug\PSoC_2_Pi.a(ADC_SAR_2.o)
                0x00008280                ADC_SAR_2_CountsTo_uVolts
 .text.ADC_SAR_2_ISR
                0x00008328        0xc .\CortexM3\ARM_GCC_473\Debug\PSoC_2_Pi.a(ADC_SAR_2_INT.o)
                0x00008328                ADC_SAR_2_ISR
 .text.ADC_SAR_2_Sleep
                0x00008334       0x60 .\CortexM3\ARM_GCC_473\Debug\PSoC_2_Pi.a(ADC_SAR_2_PM.o)
                0x00008334                ADC_SAR_2_Sleep
 .text.ADC_SAR_2_Wakeup
                0x00008394       0x30 .\CortexM3\ARM_GCC_473\Debug\PSoC_2_Pi.a(ADC_SAR_2_PM.o)
                0x00008394                ADC_SAR_2_Wakeup
 .text.ADC_SAR_1_theACLK_SetModeRegister
                0x000083c4       0x3c .\CortexM3\ARM_GCC_473\Debug\PSoC_2_Pi.a(ADC_SAR_1_theACLK.o)
                0x000083c4                ADC_SAR_1_theACLK_SetModeRegister
 .text.ADC_SAR_2_theACLK_SetModeRegister
                0x00008400       0x3c .\CortexM3\ARM_GCC_473\Debug\PSoC_2_Pi.a(ADC_SAR_2_theACLK.o)
                0x00008400                ADC_SAR_2_theACLK_SetModeRegister
 .text.VDAC8_1_Init
                0x0000843c       0x34 .\CortexM3\ARM_GCC_473\Debug\PSoC_2_Pi.a(VDAC8_1.o)
                0x0000843c                VDAC8_1_Init
 .text.VDAC8_1_Enable
                0x00008470       0x44 .\CortexM3\ARM_GCC_473\Debug\PSoC_2_Pi.a(VDAC8_1.o)
                0x00008470                VDAC8_1_Enable
 .text.VDAC8_1_Start
                0x000084b4       0x34 .\CortexM3\ARM_GCC_473\Debug\PSoC_2_Pi.a(VDAC8_1.o)
                0x000084b4                VDAC8_1_Start
 .text.VDAC8_1_Stop
                0x000084e8       0x44 .\CortexM3\ARM_GCC_473\Debug\PSoC_2_Pi.a(VDAC8_1.o)
                0x000084e8                VDAC8_1_Stop
 .text.VDAC8_1_SetSpeed
                0x0000852c       0x54 .\CortexM3\ARM_GCC_473\Debug\PSoC_2_Pi.a(VDAC8_1.o)
                0x0000852c                VDAC8_1_SetSpeed
 .text.VDAC8_1_SetRange
                0x00008580       0x54 .\CortexM3\ARM_GCC_473\Debug\PSoC_2_Pi.a(VDAC8_1.o)
                0x00008580                VDAC8_1_SetRange
 .text.VDAC8_1_SetValue
                0x000085d4       0x20 .\CortexM3\ARM_GCC_473\Debug\PSoC_2_Pi.a(VDAC8_1.o)
                0x000085d4                VDAC8_1_SetValue
 .text.VDAC8_1_DacTrim
                0x000085f4       0x44 .\CortexM3\ARM_GCC_473\Debug\PSoC_2_Pi.a(VDAC8_1.o)
                0x000085f4                VDAC8_1_DacTrim
 .text.VDAC8_1_SaveConfig
                0x00008638       0x34 .\CortexM3\ARM_GCC_473\Debug\PSoC_2_Pi.a(VDAC8_1_PM.o)
                0x00008638                VDAC8_1_SaveConfig
 .text.VDAC8_1_RestoreConfig
                0x0000866c       0x94 .\CortexM3\ARM_GCC_473\Debug\PSoC_2_Pi.a(VDAC8_1_PM.o)
                0x0000866c                VDAC8_1_RestoreConfig
 .text.VDAC8_1_Sleep
                0x00008700       0x40 .\CortexM3\ARM_GCC_473\Debug\PSoC_2_Pi.a(VDAC8_1_PM.o)
                0x00008700                VDAC8_1_Sleep
 .text.VDAC8_1_Wakeup
                0x00008740       0x30 .\CortexM3\ARM_GCC_473\Debug\PSoC_2_Pi.a(VDAC8_1_PM.o)
                0x00008740                VDAC8_1_Wakeup
 .text.VDAC8_2_Init
                0x00008770       0x34 .\CortexM3\ARM_GCC_473\Debug\PSoC_2_Pi.a(VDAC8_2.o)
                0x00008770                VDAC8_2_Init
 .text.VDAC8_2_Enable
                0x000087a4       0x44 .\CortexM3\ARM_GCC_473\Debug\PSoC_2_Pi.a(VDAC8_2.o)
                0x000087a4                VDAC8_2_Enable
 .text.VDAC8_2_Start
                0x000087e8       0x34 .\CortexM3\ARM_GCC_473\Debug\PSoC_2_Pi.a(VDAC8_2.o)
                0x000087e8                VDAC8_2_Start
 .text.VDAC8_2_Stop
                0x0000881c       0x44 .\CortexM3\ARM_GCC_473\Debug\PSoC_2_Pi.a(VDAC8_2.o)
                0x0000881c                VDAC8_2_Stop
 .text.VDAC8_2_SetSpeed
                0x00008860       0x54 .\CortexM3\ARM_GCC_473\Debug\PSoC_2_Pi.a(VDAC8_2.o)
                0x00008860                VDAC8_2_SetSpeed
 .text.VDAC8_2_SetRange
                0x000088b4       0x54 .\CortexM3\ARM_GCC_473\Debug\PSoC_2_Pi.a(VDAC8_2.o)
                0x000088b4                VDAC8_2_SetRange
 .text.VDAC8_2_SetValue
                0x00008908       0x20 .\CortexM3\ARM_GCC_473\Debug\PSoC_2_Pi.a(VDAC8_2.o)
                0x00008908                VDAC8_2_SetValue
 .text.VDAC8_2_DacTrim
                0x00008928       0x44 .\CortexM3\ARM_GCC_473\Debug\PSoC_2_Pi.a(VDAC8_2.o)
                0x00008928                VDAC8_2_DacTrim
 .text.VDAC8_2_SaveConfig
                0x0000896c       0x34 .\CortexM3\ARM_GCC_473\Debug\PSoC_2_Pi.a(VDAC8_2_PM.o)
                0x0000896c                VDAC8_2_SaveConfig
 .text.VDAC8_2_RestoreConfig
                0x000089a0       0x94 .\CortexM3\ARM_GCC_473\Debug\PSoC_2_Pi.a(VDAC8_2_PM.o)
                0x000089a0                VDAC8_2_RestoreConfig
 .text.VDAC8_2_Sleep
                0x00008a34       0x40 .\CortexM3\ARM_GCC_473\Debug\PSoC_2_Pi.a(VDAC8_2_PM.o)
                0x00008a34                VDAC8_2_Sleep
 .text.VDAC8_2_Wakeup
                0x00008a74       0x30 .\CortexM3\ARM_GCC_473\Debug\PSoC_2_Pi.a(VDAC8_2_PM.o)
                0x00008a74                VDAC8_2_Wakeup
 .text.IDAC8_1_Init
                0x00008aa4       0x4c .\CortexM3\ARM_GCC_473\Debug\PSoC_2_Pi.a(IDAC8_1.o)
                0x00008aa4                IDAC8_1_Init
 .text.IDAC8_1_Enable
                0x00008af0       0x44 .\CortexM3\ARM_GCC_473\Debug\PSoC_2_Pi.a(IDAC8_1.o)
                0x00008af0                IDAC8_1_Enable
 .text.IDAC8_1_Start
                0x00008b34       0x34 .\CortexM3\ARM_GCC_473\Debug\PSoC_2_Pi.a(IDAC8_1.o)
                0x00008b34                IDAC8_1_Start
 .text.IDAC8_1_Stop
                0x00008b68       0x44 .\CortexM3\ARM_GCC_473\Debug\PSoC_2_Pi.a(IDAC8_1.o)
                0x00008b68                IDAC8_1_Stop
 .text.IDAC8_1_SetSpeed
                0x00008bac       0x54 .\CortexM3\ARM_GCC_473\Debug\PSoC_2_Pi.a(IDAC8_1.o)
                0x00008bac                IDAC8_1_SetSpeed
 .text.IDAC8_1_SetPolarity
                0x00008c00       0x54 .\CortexM3\ARM_GCC_473\Debug\PSoC_2_Pi.a(IDAC8_1.o)
                0x00008c00                IDAC8_1_SetPolarity
 .text.IDAC8_1_SetRange
                0x00008c54       0x54 .\CortexM3\ARM_GCC_473\Debug\PSoC_2_Pi.a(IDAC8_1.o)
                0x00008c54                IDAC8_1_SetRange
 .text.IDAC8_1_SetValue
                0x00008ca8       0x20 .\CortexM3\ARM_GCC_473\Debug\PSoC_2_Pi.a(IDAC8_1.o)
                0x00008ca8                IDAC8_1_SetValue
 .text.IDAC8_1_DacTrim
                0x00008cc8       0x5c .\CortexM3\ARM_GCC_473\Debug\PSoC_2_Pi.a(IDAC8_1.o)
                0x00008cc8                IDAC8_1_DacTrim
 .text.IDAC8_1_SaveConfig
                0x00008d24       0x34 .\CortexM3\ARM_GCC_473\Debug\PSoC_2_Pi.a(IDAC8_1_PM.o)
                0x00008d24                IDAC8_1_SaveConfig
 .text.IDAC8_1_RestoreConfig
                0x00008d58       0x94 .\CortexM3\ARM_GCC_473\Debug\PSoC_2_Pi.a(IDAC8_1_PM.o)
                0x00008d58                IDAC8_1_RestoreConfig
 .text.IDAC8_1_Sleep
                0x00008dec       0x40 .\CortexM3\ARM_GCC_473\Debug\PSoC_2_Pi.a(IDAC8_1_PM.o)
                0x00008dec                IDAC8_1_Sleep
 .text.IDAC8_1_Wakeup
                0x00008e2c       0x30 .\CortexM3\ARM_GCC_473\Debug\PSoC_2_Pi.a(IDAC8_1_PM.o)
                0x00008e2c                IDAC8_1_Wakeup
 .text.WaveDAC_clk_Start
                0x00008e5c       0x44 .\CortexM3\ARM_GCC_473\Debug\PSoC_2_Pi.a(WaveDAC_clk.o)
                0x00008e5c                WaveDAC_clk_Start
 .text.WaveDAC_clk_Stop
                0x00008ea0       0x44 .\CortexM3\ARM_GCC_473\Debug\PSoC_2_Pi.a(WaveDAC_clk.o)
                0x00008ea0                WaveDAC_clk_Stop
 .text.WaveDAC_clk_SetDividerRegister
                0x00008ee4      0x1e8 .\CortexM3\ARM_GCC_473\Debug\PSoC_2_Pi.a(WaveDAC_clk.o)
                0x00008ee4                WaveDAC_clk_SetDividerRegister
 .text.WaveDAC_clk_GetDividerRegister
                0x000090cc       0x18 .\CortexM3\ARM_GCC_473\Debug\PSoC_2_Pi.a(WaveDAC_clk.o)
                0x000090cc                WaveDAC_clk_GetDividerRegister
 .text.WaveDAC_clk_GetSourceRegister
                0x000090e4       0x20 .\CortexM3\ARM_GCC_473\Debug\PSoC_2_Pi.a(WaveDAC_clk.o)
                0x000090e4                WaveDAC_clk_GetSourceRegister
 .text.WaveDAC8_1_Init
                0x00009104       0x64 .\CortexM3\ARM_GCC_473\Debug\PSoC_2_Pi.a(WaveDAC8_1.o)
                0x00009104                WaveDAC8_1_Init
 .text.WaveDAC8_1_Enable
                0x00009168       0x40 .\CortexM3\ARM_GCC_473\Debug\PSoC_2_Pi.a(WaveDAC8_1.o)
                0x00009168                WaveDAC8_1_Enable
 .text.WaveDAC8_1_Start
                0x000091a8       0x2c .\CortexM3\ARM_GCC_473\Debug\PSoC_2_Pi.a(WaveDAC8_1.o)
                0x000091a8                WaveDAC8_1_Start
 .text.WaveDAC8_1_Stop
                0x000091d4       0x2c .\CortexM3\ARM_GCC_473\Debug\PSoC_2_Pi.a(WaveDAC8_1.o)
                0x000091d4                WaveDAC8_1_Stop
 .text.WaveDAC8_1_Wave1Setup
                0x00009200       0x98 .\CortexM3\ARM_GCC_473\Debug\PSoC_2_Pi.a(WaveDAC8_1.o)
                0x00009200                WaveDAC8_1_Wave1Setup
 .text.WaveDAC8_1_Wave2Setup
                0x00009298       0x98 .\CortexM3\ARM_GCC_473\Debug\PSoC_2_Pi.a(WaveDAC8_1.o)
                0x00009298                WaveDAC8_1_Wave2Setup
 .text.WaveDAC8_1_Sleep
                0x00009330       0x38 .\CortexM3\ARM_GCC_473\Debug\PSoC_2_Pi.a(WaveDAC8_1_PM.o)
                0x00009330                WaveDAC8_1_Sleep
 .text.WaveDAC8_1_Wakeup
                0x00009368       0x1c .\CortexM3\ARM_GCC_473\Debug\PSoC_2_Pi.a(WaveDAC8_1_PM.o)
                0x00009368                WaveDAC8_1_Wakeup
 .text.WaveDAC8_1_Wave1_DMA_DmaInitialize
                0x00009384       0x84 .\CortexM3\ARM_GCC_473\Debug\PSoC_2_Pi.a(WaveDAC8_1_Wave1_DMA_dma.o)
                0x00009384                WaveDAC8_1_Wave1_DMA_DmaInitialize
 .text.WaveDAC8_1_Wave2_DMA_DmaInitialize
                0x00009408       0x84 .\CortexM3\ARM_GCC_473\Debug\PSoC_2_Pi.a(WaveDAC8_1_Wave2_DMA_dma.o)
                0x00009408                WaveDAC8_1_Wave2_DMA_DmaInitialize
 .text.WaveDAC8_1_VDAC8_Init
                0x0000948c       0x50 .\CortexM3\ARM_GCC_473\Debug\PSoC_2_Pi.a(WaveDAC8_1_VDAC8.o)
                0x0000948c                WaveDAC8_1_VDAC8_Init
 .text.WaveDAC8_1_VDAC8_Enable
                0x000094dc       0x44 .\CortexM3\ARM_GCC_473\Debug\PSoC_2_Pi.a(WaveDAC8_1_VDAC8.o)
                0x000094dc                WaveDAC8_1_VDAC8_Enable
 .text.WaveDAC8_1_VDAC8_Stop
                0x00009520       0x44 .\CortexM3\ARM_GCC_473\Debug\PSoC_2_Pi.a(WaveDAC8_1_VDAC8.o)
                0x00009520                WaveDAC8_1_VDAC8_Stop
 .text.WaveDAC8_1_VDAC8_SetSpeed
                0x00009564       0x54 .\CortexM3\ARM_GCC_473\Debug\PSoC_2_Pi.a(WaveDAC8_1_VDAC8.o)
                0x00009564                WaveDAC8_1_VDAC8_SetSpeed
 .text.WaveDAC8_1_VDAC8_SetRange
                0x000095b8       0x54 .\CortexM3\ARM_GCC_473\Debug\PSoC_2_Pi.a(WaveDAC8_1_VDAC8.o)
                0x000095b8                WaveDAC8_1_VDAC8_SetRange
 .text.WaveDAC8_1_VDAC8_SetValue
                0x0000960c       0x20 .\CortexM3\ARM_GCC_473\Debug\PSoC_2_Pi.a(WaveDAC8_1_VDAC8.o)
                0x0000960c                WaveDAC8_1_VDAC8_SetValue
 .text.WaveDAC8_1_VDAC8_DacTrim
                0x0000962c       0x44 .\CortexM3\ARM_GCC_473\Debug\PSoC_2_Pi.a(WaveDAC8_1_VDAC8.o)
                0x0000962c                WaveDAC8_1_VDAC8_DacTrim
 .text.WaveDAC8_1_VDAC8_SaveConfig
                0x00009670       0x34 .\CortexM3\ARM_GCC_473\Debug\PSoC_2_Pi.a(WaveDAC8_1_VDAC8_PM.o)
                0x00009670                WaveDAC8_1_VDAC8_SaveConfig
 .text.WaveDAC8_1_VDAC8_RestoreConfig
                0x000096a4       0x94 .\CortexM3\ARM_GCC_473\Debug\PSoC_2_Pi.a(WaveDAC8_1_VDAC8_PM.o)
                0x000096a4                WaveDAC8_1_VDAC8_RestoreConfig
 .text.Control_Reg_1_Write
                0x00009738       0x20 .\CortexM3\ARM_GCC_473\Debug\PSoC_2_Pi.a(Control_Reg_1.o)
                0x00009738                Control_Reg_1_Write
 .text.Control_Reg_1_Read
                0x00009758       0x18 .\CortexM3\ARM_GCC_473\Debug\PSoC_2_Pi.a(Control_Reg_1.o)
                0x00009758                Control_Reg_1_Read
 .text.Status_Reg_1_Read
                0x00009770       0x18 .\CortexM3\ARM_GCC_473\Debug\PSoC_2_Pi.a(Status_Reg_1.o)
                0x00009770                Status_Reg_1_Read
 .text.ADC_DelSig_1_Init
                0x00009788      0x190 .\CortexM3\ARM_GCC_473\Debug\PSoC_2_Pi.a(ADC_DelSig_1.o)
                0x00009788                ADC_DelSig_1_Init
 .text.ADC_DelSig_1_Enable
                0x00009918      0x1e4 .\CortexM3\ARM_GCC_473\Debug\PSoC_2_Pi.a(ADC_DelSig_1.o)
                0x00009918                ADC_DelSig_1_Enable
 .text.ADC_DelSig_1_Start
                0x00009afc       0x3c .\CortexM3\ARM_GCC_473\Debug\PSoC_2_Pi.a(ADC_DelSig_1.o)
                0x00009afc                ADC_DelSig_1_Start
 .text.ADC_DelSig_1_Stop
                0x00009b38      0x220 .\CortexM3\ARM_GCC_473\Debug\PSoC_2_Pi.a(ADC_DelSig_1.o)
                0x00009b38                ADC_DelSig_1_Stop
 .text.ADC_DelSig_1_SetBufferGain
                0x00009d58       0x48 .\CortexM3\ARM_GCC_473\Debug\PSoC_2_Pi.a(ADC_DelSig_1.o)
                0x00009d58                ADC_DelSig_1_SetBufferGain
 .text.ADC_DelSig_1_StartConvert
                0x00009da0       0x28 .\CortexM3\ARM_GCC_473\Debug\PSoC_2_Pi.a(ADC_DelSig_1.o)
                0x00009da0                ADC_DelSig_1_StartConvert
 .text.ADC_DelSig_1_StopConvert
                0x00009dc8       0x28 .\CortexM3\ARM_GCC_473\Debug\PSoC_2_Pi.a(ADC_DelSig_1.o)
                0x00009dc8                ADC_DelSig_1_StopConvert
 .text.ADC_DelSig_1_IsEndConversion
                0x00009df0       0x54 .\CortexM3\ARM_GCC_473\Debug\PSoC_2_Pi.a(ADC_DelSig_1.o)
                0x00009df0                ADC_DelSig_1_IsEndConversion
 .text.ADC_DelSig_1_GetResult32
                0x00009e44       0xd8 .\CortexM3\ARM_GCC_473\Debug\PSoC_2_Pi.a(ADC_DelSig_1.o)
                0x00009e44                ADC_DelSig_1_GetResult32
 .text.ADC_DelSig_1_SetOffset
                0x00009f1c       0x20 .\CortexM3\ARM_GCC_473\Debug\PSoC_2_Pi.a(ADC_DelSig_1.o)
                0x00009f1c                ADC_DelSig_1_SetOffset
 .text.ADC_DelSig_1_SetGain
                0x00009f3c       0x20 .\CortexM3\ARM_GCC_473\Debug\PSoC_2_Pi.a(ADC_DelSig_1.o)
                0x00009f3c                ADC_DelSig_1_SetGain
 .text.ADC_DelSig_1_CountsTo_uVolts
                0x00009f5c       0xc4 .\CortexM3\ARM_GCC_473\Debug\PSoC_2_Pi.a(ADC_DelSig_1.o)
                0x00009f5c                ADC_DelSig_1_CountsTo_uVolts
 .text.ADC_DelSig_1_InitConfig
                0x0000a020      0x1e8 .\CortexM3\ARM_GCC_473\Debug\PSoC_2_Pi.a(ADC_DelSig_1.o)
 .text.ADC_DelSig_1_GainCompensation
                0x0000a208      0x19c .\CortexM3\ARM_GCC_473\Debug\PSoC_2_Pi.a(ADC_DelSig_1.o)
 .text.ADC_DelSig_1_SetDSMRef0Reg
                0x0000a3a4       0xa8 .\CortexM3\ARM_GCC_473\Debug\PSoC_2_Pi.a(ADC_DelSig_1.o)
 .text.ADC_DelSig_1_Read32
                0x0000a44c       0x44 .\CortexM3\ARM_GCC_473\Debug\PSoC_2_Pi.a(ADC_DelSig_1.o)
                0x0000a44c                ADC_DelSig_1_Read32
 .text.ADC_DelSig_1_SaveConfig
                0x0000a490       0x20 .\CortexM3\ARM_GCC_473\Debug\PSoC_2_Pi.a(ADC_DelSig_1_PM.o)
                0x0000a490                ADC_DelSig_1_SaveConfig
 .text.ADC_DelSig_1_RestoreConfig
                0x0000a4b0       0x20 .\CortexM3\ARM_GCC_473\Debug\PSoC_2_Pi.a(ADC_DelSig_1_PM.o)
                0x0000a4b0                ADC_DelSig_1_RestoreConfig
 .text.ADC_DelSig_1_Sleep
                0x0000a4d0       0x84 .\CortexM3\ARM_GCC_473\Debug\PSoC_2_Pi.a(ADC_DelSig_1_PM.o)
                0x0000a4d0                ADC_DelSig_1_Sleep
 .text.ADC_DelSig_1_Wakeup
                0x0000a554       0x34 .\CortexM3\ARM_GCC_473\Debug\PSoC_2_Pi.a(ADC_DelSig_1_PM.o)
                0x0000a554                ADC_DelSig_1_Wakeup
 .text.ADC_DelSig_1_ISR1
                0x0000a588        0xc .\CortexM3\ARM_GCC_473\Debug\PSoC_2_Pi.a(ADC_DelSig_1_INT.o)
                0x0000a588                ADC_DelSig_1_ISR1
 .text.PWM_2_Start
                0x0000a594       0x2c .\CortexM3\ARM_GCC_473\Debug\PSoC_2_Pi.a(PWM_2.o)
                0x0000a594                PWM_2_Start
 .text.PWM_2_Init
                0x0000a5c0       0xbc .\CortexM3\ARM_GCC_473\Debug\PSoC_2_Pi.a(PWM_2.o)
                0x0000a5c0                PWM_2_Init
 .text.PWM_2_Enable
                0x0000a67c       0x28 .\CortexM3\ARM_GCC_473\Debug\PSoC_2_Pi.a(PWM_2.o)
                0x0000a67c                PWM_2_Enable
 .text.PWM_2_Stop
                0x0000a6a4       0x28 .\CortexM3\ARM_GCC_473\Debug\PSoC_2_Pi.a(PWM_2.o)
                0x0000a6a4                PWM_2_Stop
 .text.PWM_2_WriteCounter
                0x0000a6cc       0x20 .\CortexM3\ARM_GCC_473\Debug\PSoC_2_Pi.a(PWM_2.o)
                0x0000a6cc                PWM_2_WriteCounter
 .text.PWM_2_ReadCounter
                0x0000a6ec       0x24 .\CortexM3\ARM_GCC_473\Debug\PSoC_2_Pi.a(PWM_2.o)
                0x0000a6ec                PWM_2_ReadCounter
 .text.PWM_2_ClearFIFO
                0x0000a710       0x1c .\CortexM3\ARM_GCC_473\Debug\PSoC_2_Pi.a(PWM_2.o)
                0x0000a710                PWM_2_ClearFIFO
 .text.PWM_2_WritePeriod
                0x0000a72c       0x20 .\CortexM3\ARM_GCC_473\Debug\PSoC_2_Pi.a(PWM_2.o)
                0x0000a72c                PWM_2_WritePeriod
 .text.PWM_2_WriteCompare
                0x0000a74c       0x20 .\CortexM3\ARM_GCC_473\Debug\PSoC_2_Pi.a(PWM_2.o)
                0x0000a74c                PWM_2_WriteCompare
 .text.PWM_2_SetInterruptMode
                0x0000a76c       0x20 .\CortexM3\ARM_GCC_473\Debug\PSoC_2_Pi.a(PWM_2.o)
                0x0000a76c                PWM_2_SetInterruptMode
 .text.PWM_2_ReadStatusRegister
                0x0000a78c       0x20 .\CortexM3\ARM_GCC_473\Debug\PSoC_2_Pi.a(PWM_2.o)
                0x0000a78c                PWM_2_ReadStatusRegister
 .text.PWM_2_ReadControlRegister
                0x0000a7ac       0x20 .\CortexM3\ARM_GCC_473\Debug\PSoC_2_Pi.a(PWM_2.o)
                0x0000a7ac                PWM_2_ReadControlRegister
 .text.PWM_2_WriteControlRegister
                0x0000a7cc       0x20 .\CortexM3\ARM_GCC_473\Debug\PSoC_2_Pi.a(PWM_2.o)
                0x0000a7cc                PWM_2_WriteControlRegister
 .text.PWM_2_ReadCapture
                0x0000a7ec       0x18 .\CortexM3\ARM_GCC_473\Debug\PSoC_2_Pi.a(PWM_2.o)
                0x0000a7ec                PWM_2_ReadCapture
 .text.PWM_2_ReadCompare
                0x0000a804       0x18 .\CortexM3\ARM_GCC_473\Debug\PSoC_2_Pi.a(PWM_2.o)
                0x0000a804                PWM_2_ReadCompare
 .text.PWM_2_ReadPeriod
                0x0000a81c       0x18 .\CortexM3\ARM_GCC_473\Debug\PSoC_2_Pi.a(PWM_2.o)
                0x0000a81c                PWM_2_ReadPeriod
 .text.PWM_2_SaveConfig
                0x0000a834       0x54 .\CortexM3\ARM_GCC_473\Debug\PSoC_2_Pi.a(PWM_2_PM.o)
                0x0000a834                PWM_2_SaveConfig
 .text.PWM_2_RestoreConfig
                0x0000a888       0x4c .\CortexM3\ARM_GCC_473\Debug\PSoC_2_Pi.a(PWM_2_PM.o)
                0x0000a888                PWM_2_RestoreConfig
 .text.PWM_2_Sleep
                0x0000a8d4       0x40 .\CortexM3\ARM_GCC_473\Debug\PSoC_2_Pi.a(PWM_2_PM.o)
                0x0000a8d4                PWM_2_Sleep
 .text.PWM_2_Wakeup
                0x0000a914       0x1c .\CortexM3\ARM_GCC_473\Debug\PSoC_2_Pi.a(PWM_2_PM.o)
                0x0000a914                PWM_2_Wakeup
 .text.PWM_3_Start
                0x0000a930       0x2c .\CortexM3\ARM_GCC_473\Debug\PSoC_2_Pi.a(PWM_3.o)
                0x0000a930                PWM_3_Start
 .text.PWM_3_Init
                0x0000a95c       0xbc .\CortexM3\ARM_GCC_473\Debug\PSoC_2_Pi.a(PWM_3.o)
                0x0000a95c                PWM_3_Init
 .text.PWM_3_Enable
                0x0000aa18       0x28 .\CortexM3\ARM_GCC_473\Debug\PSoC_2_Pi.a(PWM_3.o)
                0x0000aa18                PWM_3_Enable
 .text.PWM_3_Stop
                0x0000aa40       0x28 .\CortexM3\ARM_GCC_473\Debug\PSoC_2_Pi.a(PWM_3.o)
                0x0000aa40                PWM_3_Stop
 .text.PWM_3_WriteCounter
                0x0000aa68       0x20 .\CortexM3\ARM_GCC_473\Debug\PSoC_2_Pi.a(PWM_3.o)
                0x0000aa68                PWM_3_WriteCounter
 .text.PWM_3_ReadCounter
                0x0000aa88       0x24 .\CortexM3\ARM_GCC_473\Debug\PSoC_2_Pi.a(PWM_3.o)
                0x0000aa88                PWM_3_ReadCounter
 .text.PWM_3_ClearFIFO
                0x0000aaac       0x1c .\CortexM3\ARM_GCC_473\Debug\PSoC_2_Pi.a(PWM_3.o)
                0x0000aaac                PWM_3_ClearFIFO
 .text.PWM_3_WritePeriod
                0x0000aac8       0x20 .\CortexM3\ARM_GCC_473\Debug\PSoC_2_Pi.a(PWM_3.o)
                0x0000aac8                PWM_3_WritePeriod
 .text.PWM_3_WriteCompare
                0x0000aae8       0x20 .\CortexM3\ARM_GCC_473\Debug\PSoC_2_Pi.a(PWM_3.o)
                0x0000aae8                PWM_3_WriteCompare
 .text.PWM_3_SetInterruptMode
                0x0000ab08       0x20 .\CortexM3\ARM_GCC_473\Debug\PSoC_2_Pi.a(PWM_3.o)
                0x0000ab08                PWM_3_SetInterruptMode
 .text.PWM_3_ReadStatusRegister
                0x0000ab28       0x20 .\CortexM3\ARM_GCC_473\Debug\PSoC_2_Pi.a(PWM_3.o)
                0x0000ab28                PWM_3_ReadStatusRegister
 .text.PWM_3_ReadControlRegister
                0x0000ab48       0x20 .\CortexM3\ARM_GCC_473\Debug\PSoC_2_Pi.a(PWM_3.o)
                0x0000ab48                PWM_3_ReadControlRegister
 .text.PWM_3_WriteControlRegister
                0x0000ab68       0x20 .\CortexM3\ARM_GCC_473\Debug\PSoC_2_Pi.a(PWM_3.o)
                0x0000ab68                PWM_3_WriteControlRegister
 .text.PWM_3_ReadCapture
                0x0000ab88       0x18 .\CortexM3\ARM_GCC_473\Debug\PSoC_2_Pi.a(PWM_3.o)
                0x0000ab88                PWM_3_ReadCapture
 .text.PWM_3_ReadCompare
                0x0000aba0       0x18 .\CortexM3\ARM_GCC_473\Debug\PSoC_2_Pi.a(PWM_3.o)
                0x0000aba0                PWM_3_ReadCompare
 .text.PWM_3_ReadPeriod
                0x0000abb8       0x18 .\CortexM3\ARM_GCC_473\Debug\PSoC_2_Pi.a(PWM_3.o)
                0x0000abb8                PWM_3_ReadPeriod
 .text.PWM_3_SaveConfig
                0x0000abd0       0x54 .\CortexM3\ARM_GCC_473\Debug\PSoC_2_Pi.a(PWM_3_PM.o)
                0x0000abd0                PWM_3_SaveConfig
 .text.PWM_3_RestoreConfig
                0x0000ac24       0x4c .\CortexM3\ARM_GCC_473\Debug\PSoC_2_Pi.a(PWM_3_PM.o)
                0x0000ac24                PWM_3_RestoreConfig
 .text.PWM_3_Sleep
                0x0000ac70       0x40 .\CortexM3\ARM_GCC_473\Debug\PSoC_2_Pi.a(PWM_3_PM.o)
                0x0000ac70                PWM_3_Sleep
 .text.PWM_3_Wakeup
                0x0000acb0       0x1c .\CortexM3\ARM_GCC_473\Debug\PSoC_2_Pi.a(PWM_3_PM.o)
                0x0000acb0                PWM_3_Wakeup
 .text.PWM_4_Start
                0x0000accc       0x2c .\CortexM3\ARM_GCC_473\Debug\PSoC_2_Pi.a(PWM_4.o)
                0x0000accc                PWM_4_Start
 .text.PWM_4_Init
                0x0000acf8       0xbc .\CortexM3\ARM_GCC_473\Debug\PSoC_2_Pi.a(PWM_4.o)
                0x0000acf8                PWM_4_Init
 .text.PWM_4_Enable
                0x0000adb4       0x28 .\CortexM3\ARM_GCC_473\Debug\PSoC_2_Pi.a(PWM_4.o)
                0x0000adb4                PWM_4_Enable
 .text.PWM_4_Stop
                0x0000addc       0x28 .\CortexM3\ARM_GCC_473\Debug\PSoC_2_Pi.a(PWM_4.o)
                0x0000addc                PWM_4_Stop
 .text.PWM_4_WriteCounter
                0x0000ae04       0x20 .\CortexM3\ARM_GCC_473\Debug\PSoC_2_Pi.a(PWM_4.o)
                0x0000ae04                PWM_4_WriteCounter
 .text.PWM_4_ReadCounter
                0x0000ae24       0x24 .\CortexM3\ARM_GCC_473\Debug\PSoC_2_Pi.a(PWM_4.o)
                0x0000ae24                PWM_4_ReadCounter
 .text.PWM_4_ClearFIFO
                0x0000ae48       0x1c .\CortexM3\ARM_GCC_473\Debug\PSoC_2_Pi.a(PWM_4.o)
                0x0000ae48                PWM_4_ClearFIFO
 .text.PWM_4_WritePeriod
                0x0000ae64       0x20 .\CortexM3\ARM_GCC_473\Debug\PSoC_2_Pi.a(PWM_4.o)
                0x0000ae64                PWM_4_WritePeriod
 .text.PWM_4_WriteCompare
                0x0000ae84       0x20 .\CortexM3\ARM_GCC_473\Debug\PSoC_2_Pi.a(PWM_4.o)
                0x0000ae84                PWM_4_WriteCompare
 .text.PWM_4_SetInterruptMode
                0x0000aea4       0x20 .\CortexM3\ARM_GCC_473\Debug\PSoC_2_Pi.a(PWM_4.o)
                0x0000aea4                PWM_4_SetInterruptMode
 .text.PWM_4_ReadStatusRegister
                0x0000aec4       0x20 .\CortexM3\ARM_GCC_473\Debug\PSoC_2_Pi.a(PWM_4.o)
                0x0000aec4                PWM_4_ReadStatusRegister
 .text.PWM_4_ReadControlRegister
                0x0000aee4       0x20 .\CortexM3\ARM_GCC_473\Debug\PSoC_2_Pi.a(PWM_4.o)
                0x0000aee4                PWM_4_ReadControlRegister
 .text.PWM_4_WriteControlRegister
                0x0000af04       0x20 .\CortexM3\ARM_GCC_473\Debug\PSoC_2_Pi.a(PWM_4.o)
                0x0000af04                PWM_4_WriteControlRegister
 .text.PWM_4_ReadCapture
                0x0000af24       0x18 .\CortexM3\ARM_GCC_473\Debug\PSoC_2_Pi.a(PWM_4.o)
                0x0000af24                PWM_4_ReadCapture
 .text.PWM_4_ReadCompare
                0x0000af3c       0x18 .\CortexM3\ARM_GCC_473\Debug\PSoC_2_Pi.a(PWM_4.o)
                0x0000af3c                PWM_4_ReadCompare
 .text.PWM_4_ReadPeriod
                0x0000af54       0x18 .\CortexM3\ARM_GCC_473\Debug\PSoC_2_Pi.a(PWM_4.o)
                0x0000af54                PWM_4_ReadPeriod
 .text.PWM_4_SaveConfig
                0x0000af6c       0x54 .\CortexM3\ARM_GCC_473\Debug\PSoC_2_Pi.a(PWM_4_PM.o)
                0x0000af6c                PWM_4_SaveConfig
 .text.PWM_4_RestoreConfig
                0x0000afc0       0x4c .\CortexM3\ARM_GCC_473\Debug\PSoC_2_Pi.a(PWM_4_PM.o)
                0x0000afc0                PWM_4_RestoreConfig
 .text.PWM_4_Sleep
                0x0000b00c       0x40 .\CortexM3\ARM_GCC_473\Debug\PSoC_2_Pi.a(PWM_4_PM.o)
                0x0000b00c                PWM_4_Sleep
 .text.PWM_4_Wakeup
                0x0000b04c       0x1c .\CortexM3\ARM_GCC_473\Debug\PSoC_2_Pi.a(PWM_4_PM.o)
                0x0000b04c                PWM_4_Wakeup
 .text.PWM_5_Start
                0x0000b068       0x2c .\CortexM3\ARM_GCC_473\Debug\PSoC_2_Pi.a(PWM_5.o)
                0x0000b068                PWM_5_Start
 .text.PWM_5_Init
                0x0000b094       0xbc .\CortexM3\ARM_GCC_473\Debug\PSoC_2_Pi.a(PWM_5.o)
                0x0000b094                PWM_5_Init
 .text.PWM_5_Enable
                0x0000b150       0x28 .\CortexM3\ARM_GCC_473\Debug\PSoC_2_Pi.a(PWM_5.o)
                0x0000b150                PWM_5_Enable
 .text.PWM_5_Stop
                0x0000b178       0x28 .\CortexM3\ARM_GCC_473\Debug\PSoC_2_Pi.a(PWM_5.o)
                0x0000b178                PWM_5_Stop
 .text.PWM_5_WriteCounter
                0x0000b1a0       0x20 .\CortexM3\ARM_GCC_473\Debug\PSoC_2_Pi.a(PWM_5.o)
                0x0000b1a0                PWM_5_WriteCounter
 .text.PWM_5_ReadCounter
                0x0000b1c0       0x24 .\CortexM3\ARM_GCC_473\Debug\PSoC_2_Pi.a(PWM_5.o)
                0x0000b1c0                PWM_5_ReadCounter
 .text.PWM_5_ClearFIFO
                0x0000b1e4       0x1c .\CortexM3\ARM_GCC_473\Debug\PSoC_2_Pi.a(PWM_5.o)
                0x0000b1e4                PWM_5_ClearFIFO
 .text.PWM_5_WritePeriod
                0x0000b200       0x20 .\CortexM3\ARM_GCC_473\Debug\PSoC_2_Pi.a(PWM_5.o)
                0x0000b200                PWM_5_WritePeriod
 .text.PWM_5_WriteCompare
                0x0000b220       0x20 .\CortexM3\ARM_GCC_473\Debug\PSoC_2_Pi.a(PWM_5.o)
                0x0000b220                PWM_5_WriteCompare
 .text.PWM_5_SetInterruptMode
                0x0000b240       0x20 .\CortexM3\ARM_GCC_473\Debug\PSoC_2_Pi.a(PWM_5.o)
                0x0000b240                PWM_5_SetInterruptMode
 .text.PWM_5_ReadStatusRegister
                0x0000b260       0x20 .\CortexM3\ARM_GCC_473\Debug\PSoC_2_Pi.a(PWM_5.o)
                0x0000b260                PWM_5_ReadStatusRegister
 .text.PWM_5_ReadControlRegister
                0x0000b280       0x20 .\CortexM3\ARM_GCC_473\Debug\PSoC_2_Pi.a(PWM_5.o)
                0x0000b280                PWM_5_ReadControlRegister
 .text.PWM_5_WriteControlRegister
                0x0000b2a0       0x20 .\CortexM3\ARM_GCC_473\Debug\PSoC_2_Pi.a(PWM_5.o)
                0x0000b2a0                PWM_5_WriteControlRegister
 .text.PWM_5_ReadCapture
                0x0000b2c0       0x18 .\CortexM3\ARM_GCC_473\Debug\PSoC_2_Pi.a(PWM_5.o)
                0x0000b2c0                PWM_5_ReadCapture
 .text.PWM_5_ReadCompare
                0x0000b2d8       0x18 .\CortexM3\ARM_GCC_473\Debug\PSoC_2_Pi.a(PWM_5.o)
                0x0000b2d8                PWM_5_ReadCompare
 .text.PWM_5_ReadPeriod
                0x0000b2f0       0x18 .\CortexM3\ARM_GCC_473\Debug\PSoC_2_Pi.a(PWM_5.o)
                0x0000b2f0                PWM_5_ReadPeriod
 .text.PWM_5_SaveConfig
                0x0000b308       0x54 .\CortexM3\ARM_GCC_473\Debug\PSoC_2_Pi.a(PWM_5_PM.o)
                0x0000b308                PWM_5_SaveConfig
 .text.PWM_5_RestoreConfig
                0x0000b35c       0x4c .\CortexM3\ARM_GCC_473\Debug\PSoC_2_Pi.a(PWM_5_PM.o)
                0x0000b35c                PWM_5_RestoreConfig
 .text.PWM_5_Sleep
                0x0000b3a8       0x40 .\CortexM3\ARM_GCC_473\Debug\PSoC_2_Pi.a(PWM_5_PM.o)
                0x0000b3a8                PWM_5_Sleep
 .text.PWM_5_Wakeup
                0x0000b3e8       0x1c .\CortexM3\ARM_GCC_473\Debug\PSoC_2_Pi.a(PWM_5_PM.o)
                0x0000b3e8                PWM_5_Wakeup
 .text.PWM_6_Start
                0x0000b404       0x2c .\CortexM3\ARM_GCC_473\Debug\PSoC_2_Pi.a(PWM_6.o)
                0x0000b404                PWM_6_Start
 .text.PWM_6_Init
                0x0000b430       0xbc .\CortexM3\ARM_GCC_473\Debug\PSoC_2_Pi.a(PWM_6.o)
                0x0000b430                PWM_6_Init
 .text.PWM_6_Enable
                0x0000b4ec       0x28 .\CortexM3\ARM_GCC_473\Debug\PSoC_2_Pi.a(PWM_6.o)
                0x0000b4ec                PWM_6_Enable
 .text.PWM_6_Stop
                0x0000b514       0x28 .\CortexM3\ARM_GCC_473\Debug\PSoC_2_Pi.a(PWM_6.o)
                0x0000b514                PWM_6_Stop
 .text.PWM_6_WriteCounter
                0x0000b53c       0x20 .\CortexM3\ARM_GCC_473\Debug\PSoC_2_Pi.a(PWM_6.o)
                0x0000b53c                PWM_6_WriteCounter
 .text.PWM_6_ReadCounter
                0x0000b55c       0x24 .\CortexM3\ARM_GCC_473\Debug\PSoC_2_Pi.a(PWM_6.o)
                0x0000b55c                PWM_6_ReadCounter
 .text.PWM_6_ClearFIFO
                0x0000b580       0x1c .\CortexM3\ARM_GCC_473\Debug\PSoC_2_Pi.a(PWM_6.o)
                0x0000b580                PWM_6_ClearFIFO
 .text.PWM_6_WritePeriod
                0x0000b59c       0x20 .\CortexM3\ARM_GCC_473\Debug\PSoC_2_Pi.a(PWM_6.o)
                0x0000b59c                PWM_6_WritePeriod
 .text.PWM_6_WriteCompare
                0x0000b5bc       0x20 .\CortexM3\ARM_GCC_473\Debug\PSoC_2_Pi.a(PWM_6.o)
                0x0000b5bc                PWM_6_WriteCompare
 .text.PWM_6_SetInterruptMode
                0x0000b5dc       0x20 .\CortexM3\ARM_GCC_473\Debug\PSoC_2_Pi.a(PWM_6.o)
                0x0000b5dc                PWM_6_SetInterruptMode
 .text.PWM_6_ReadStatusRegister
                0x0000b5fc       0x20 .\CortexM3\ARM_GCC_473\Debug\PSoC_2_Pi.a(PWM_6.o)
                0x0000b5fc                PWM_6_ReadStatusRegister
 .text.PWM_6_ReadControlRegister
                0x0000b61c       0x20 .\CortexM3\ARM_GCC_473\Debug\PSoC_2_Pi.a(PWM_6.o)
                0x0000b61c                PWM_6_ReadControlRegister
 .text.PWM_6_WriteControlRegister
                0x0000b63c       0x20 .\CortexM3\ARM_GCC_473\Debug\PSoC_2_Pi.a(PWM_6.o)
                0x0000b63c                PWM_6_WriteControlRegister
 .text.PWM_6_ReadCapture
                0x0000b65c       0x18 .\CortexM3\ARM_GCC_473\Debug\PSoC_2_Pi.a(PWM_6.o)
                0x0000b65c                PWM_6_ReadCapture
 .text.PWM_6_ReadCompare
                0x0000b674       0x18 .\CortexM3\ARM_GCC_473\Debug\PSoC_2_Pi.a(PWM_6.o)
                0x0000b674                PWM_6_ReadCompare
 .text.PWM_6_ReadPeriod
                0x0000b68c       0x18 .\CortexM3\ARM_GCC_473\Debug\PSoC_2_Pi.a(PWM_6.o)
                0x0000b68c                PWM_6_ReadPeriod
 .text.PWM_6_SaveConfig
                0x0000b6a4       0x54 .\CortexM3\ARM_GCC_473\Debug\PSoC_2_Pi.a(PWM_6_PM.o)
                0x0000b6a4                PWM_6_SaveConfig
 .text.PWM_6_RestoreConfig
                0x0000b6f8       0x4c .\CortexM3\ARM_GCC_473\Debug\PSoC_2_Pi.a(PWM_6_PM.o)
                0x0000b6f8                PWM_6_RestoreConfig
 .text.PWM_6_Sleep
                0x0000b744       0x40 .\CortexM3\ARM_GCC_473\Debug\PSoC_2_Pi.a(PWM_6_PM.o)
                0x0000b744                PWM_6_Sleep
 .text.PWM_6_Wakeup
                0x0000b784       0x1c .\CortexM3\ARM_GCC_473\Debug\PSoC_2_Pi.a(PWM_6_PM.o)
                0x0000b784                PWM_6_Wakeup
 .text.PWM_7_Start
                0x0000b7a0       0x2c .\CortexM3\ARM_GCC_473\Debug\PSoC_2_Pi.a(PWM_7.o)
                0x0000b7a0                PWM_7_Start
 .text.PWM_7_Init
                0x0000b7cc       0xbc .\CortexM3\ARM_GCC_473\Debug\PSoC_2_Pi.a(PWM_7.o)
                0x0000b7cc                PWM_7_Init
 .text.PWM_7_Enable
                0x0000b888       0x28 .\CortexM3\ARM_GCC_473\Debug\PSoC_2_Pi.a(PWM_7.o)
                0x0000b888                PWM_7_Enable
 .text.PWM_7_Stop
                0x0000b8b0       0x28 .\CortexM3\ARM_GCC_473\Debug\PSoC_2_Pi.a(PWM_7.o)
                0x0000b8b0                PWM_7_Stop
 .text.PWM_7_WriteCounter
                0x0000b8d8       0x20 .\CortexM3\ARM_GCC_473\Debug\PSoC_2_Pi.a(PWM_7.o)
                0x0000b8d8                PWM_7_WriteCounter
 .text.PWM_7_ReadCounter
                0x0000b8f8       0x24 .\CortexM3\ARM_GCC_473\Debug\PSoC_2_Pi.a(PWM_7.o)
                0x0000b8f8                PWM_7_ReadCounter
 .text.PWM_7_ClearFIFO
                0x0000b91c       0x1c .\CortexM3\ARM_GCC_473\Debug\PSoC_2_Pi.a(PWM_7.o)
                0x0000b91c                PWM_7_ClearFIFO
 .text.PWM_7_WritePeriod
                0x0000b938       0x20 .\CortexM3\ARM_GCC_473\Debug\PSoC_2_Pi.a(PWM_7.o)
                0x0000b938                PWM_7_WritePeriod
 .text.PWM_7_WriteCompare
                0x0000b958       0x20 .\CortexM3\ARM_GCC_473\Debug\PSoC_2_Pi.a(PWM_7.o)
                0x0000b958                PWM_7_WriteCompare
 .text.PWM_7_SetInterruptMode
                0x0000b978       0x20 .\CortexM3\ARM_GCC_473\Debug\PSoC_2_Pi.a(PWM_7.o)
                0x0000b978                PWM_7_SetInterruptMode
 .text.PWM_7_ReadStatusRegister
                0x0000b998       0x20 .\CortexM3\ARM_GCC_473\Debug\PSoC_2_Pi.a(PWM_7.o)
                0x0000b998                PWM_7_ReadStatusRegister
 .text.PWM_7_ReadControlRegister
                0x0000b9b8       0x20 .\CortexM3\ARM_GCC_473\Debug\PSoC_2_Pi.a(PWM_7.o)
                0x0000b9b8                PWM_7_ReadControlRegister
 .text.PWM_7_WriteControlRegister
                0x0000b9d8       0x20 .\CortexM3\ARM_GCC_473\Debug\PSoC_2_Pi.a(PWM_7.o)
                0x0000b9d8                PWM_7_WriteControlRegister
 .text.PWM_7_ReadCapture
                0x0000b9f8       0x18 .\CortexM3\ARM_GCC_473\Debug\PSoC_2_Pi.a(PWM_7.o)
                0x0000b9f8                PWM_7_ReadCapture
 .text.PWM_7_ReadCompare
                0x0000ba10       0x18 .\CortexM3\ARM_GCC_473\Debug\PSoC_2_Pi.a(PWM_7.o)
                0x0000ba10                PWM_7_ReadCompare
 .text.PWM_7_ReadPeriod
                0x0000ba28       0x18 .\CortexM3\ARM_GCC_473\Debug\PSoC_2_Pi.a(PWM_7.o)
                0x0000ba28                PWM_7_ReadPeriod
 .text.PWM_7_SaveConfig
                0x0000ba40       0x54 .\CortexM3\ARM_GCC_473\Debug\PSoC_2_Pi.a(PWM_7_PM.o)
                0x0000ba40                PWM_7_SaveConfig
 .text.PWM_7_RestoreConfig
                0x0000ba94       0x4c .\CortexM3\ARM_GCC_473\Debug\PSoC_2_Pi.a(PWM_7_PM.o)
                0x0000ba94                PWM_7_RestoreConfig
 .text.PWM_7_Sleep
                0x0000bae0       0x40 .\CortexM3\ARM_GCC_473\Debug\PSoC_2_Pi.a(PWM_7_PM.o)
                0x0000bae0                PWM_7_Sleep
 .text.PWM_7_Wakeup
                0x0000bb20       0x1c .\CortexM3\ARM_GCC_473\Debug\PSoC_2_Pi.a(PWM_7_PM.o)
                0x0000bb20                PWM_7_Wakeup
 .text.PWM_8_Start
                0x0000bb3c       0x2c .\CortexM3\ARM_GCC_473\Debug\PSoC_2_Pi.a(PWM_8.o)
                0x0000bb3c                PWM_8_Start
 .text.PWM_8_Init
                0x0000bb68       0xbc .\CortexM3\ARM_GCC_473\Debug\PSoC_2_Pi.a(PWM_8.o)
                0x0000bb68                PWM_8_Init
 .text.PWM_8_Enable
                0x0000bc24       0x28 .\CortexM3\ARM_GCC_473\Debug\PSoC_2_Pi.a(PWM_8.o)
                0x0000bc24                PWM_8_Enable
 .text.PWM_8_Stop
                0x0000bc4c       0x28 .\CortexM3\ARM_GCC_473\Debug\PSoC_2_Pi.a(PWM_8.o)
                0x0000bc4c                PWM_8_Stop
 .text.PWM_8_WriteCounter
                0x0000bc74       0x20 .\CortexM3\ARM_GCC_473\Debug\PSoC_2_Pi.a(PWM_8.o)
                0x0000bc74                PWM_8_WriteCounter
 .text.PWM_8_ReadCounter
                0x0000bc94       0x24 .\CortexM3\ARM_GCC_473\Debug\PSoC_2_Pi.a(PWM_8.o)
                0x0000bc94                PWM_8_ReadCounter
 .text.PWM_8_ClearFIFO
                0x0000bcb8       0x1c .\CortexM3\ARM_GCC_473\Debug\PSoC_2_Pi.a(PWM_8.o)
                0x0000bcb8                PWM_8_ClearFIFO
 .text.PWM_8_WritePeriod
                0x0000bcd4       0x20 .\CortexM3\ARM_GCC_473\Debug\PSoC_2_Pi.a(PWM_8.o)
                0x0000bcd4                PWM_8_WritePeriod
 .text.PWM_8_WriteCompare
                0x0000bcf4       0x20 .\CortexM3\ARM_GCC_473\Debug\PSoC_2_Pi.a(PWM_8.o)
                0x0000bcf4                PWM_8_WriteCompare
 .text.PWM_8_SetInterruptMode
                0x0000bd14       0x20 .\CortexM3\ARM_GCC_473\Debug\PSoC_2_Pi.a(PWM_8.o)
                0x0000bd14                PWM_8_SetInterruptMode
 .text.PWM_8_ReadStatusRegister
                0x0000bd34       0x20 .\CortexM3\ARM_GCC_473\Debug\PSoC_2_Pi.a(PWM_8.o)
                0x0000bd34                PWM_8_ReadStatusRegister
 .text.PWM_8_ReadControlRegister
                0x0000bd54       0x20 .\CortexM3\ARM_GCC_473\Debug\PSoC_2_Pi.a(PWM_8.o)
                0x0000bd54                PWM_8_ReadControlRegister
 .text.PWM_8_WriteControlRegister
                0x0000bd74       0x20 .\CortexM3\ARM_GCC_473\Debug\PSoC_2_Pi.a(PWM_8.o)
                0x0000bd74                PWM_8_WriteControlRegister
 .text.PWM_8_ReadCapture
                0x0000bd94       0x18 .\CortexM3\ARM_GCC_473\Debug\PSoC_2_Pi.a(PWM_8.o)
                0x0000bd94                PWM_8_ReadCapture
 .text.PWM_8_ReadCompare
                0x0000bdac       0x18 .\CortexM3\ARM_GCC_473\Debug\PSoC_2_Pi.a(PWM_8.o)
                0x0000bdac                PWM_8_ReadCompare
 .text.PWM_8_ReadPeriod
                0x0000bdc4       0x18 .\CortexM3\ARM_GCC_473\Debug\PSoC_2_Pi.a(PWM_8.o)
                0x0000bdc4                PWM_8_ReadPeriod
 .text.PWM_8_SaveConfig
                0x0000bddc       0x54 .\CortexM3\ARM_GCC_473\Debug\PSoC_2_Pi.a(PWM_8_PM.o)
                0x0000bddc                PWM_8_SaveConfig
 .text.PWM_8_RestoreConfig
                0x0000be30       0x4c .\CortexM3\ARM_GCC_473\Debug\PSoC_2_Pi.a(PWM_8_PM.o)
                0x0000be30                PWM_8_RestoreConfig
 .text.PWM_8_Sleep
                0x0000be7c       0x40 .\CortexM3\ARM_GCC_473\Debug\PSoC_2_Pi.a(PWM_8_PM.o)
                0x0000be7c                PWM_8_Sleep
 .text.PWM_8_Wakeup
                0x0000bebc       0x1c .\CortexM3\ARM_GCC_473\Debug\PSoC_2_Pi.a(PWM_8_PM.o)
                0x0000bebc                PWM_8_Wakeup
 .text.Control_Reg_2_Write
                0x0000bed8       0x20 .\CortexM3\ARM_GCC_473\Debug\PSoC_2_Pi.a(Control_Reg_2.o)
                0x0000bed8                Control_Reg_2_Write
 .text.Control_Reg_2_Read
                0x0000bef8       0x18 .\CortexM3\ARM_GCC_473\Debug\PSoC_2_Pi.a(Control_Reg_2.o)
                0x0000bef8                Control_Reg_2_Read
 .text.Status_Reg_2_Read
                0x0000bf10       0x18 .\CortexM3\ARM_GCC_473\Debug\PSoC_2_Pi.a(Status_Reg_2.o)
                0x0000bf10                Status_Reg_2_Read
 .text.ADC_DelSig_1_AMux_Start
                0x0000bf28       0x3c .\CortexM3\ARM_GCC_473\Debug\PSoC_2_Pi.a(ADC_DelSig_1_AMux.o)
                0x0000bf28                ADC_DelSig_1_AMux_Start
 .text.ADC_DelSig_1_AMux_Select
                0x0000bf64       0x2c .\CortexM3\ARM_GCC_473\Debug\PSoC_2_Pi.a(ADC_DelSig_1_AMux.o)
                0x0000bf64                ADC_DelSig_1_AMux_Select
 .text.ADC_DelSig_1_Ext_CP_Clk_SetDividerRegister
                0x0000bf90      0x1e8 .\CortexM3\ARM_GCC_473\Debug\PSoC_2_Pi.a(ADC_DelSig_1_Ext_CP_Clk.o)
                0x0000bf90                ADC_DelSig_1_Ext_CP_Clk_SetDividerRegister
 .text.ADC_DelSig_1_Ext_CP_Clk_GetDividerRegister
                0x0000c178       0x18 .\CortexM3\ARM_GCC_473\Debug\PSoC_2_Pi.a(ADC_DelSig_1_Ext_CP_Clk.o)
                0x0000c178                ADC_DelSig_1_Ext_CP_Clk_GetDividerRegister
 .text.ADC_DelSig_1_Ext_CP_Clk_SetModeRegister
                0x0000c190       0x3c .\CortexM3\ARM_GCC_473\Debug\PSoC_2_Pi.a(ADC_DelSig_1_Ext_CP_Clk.o)
                0x0000c190                ADC_DelSig_1_Ext_CP_Clk_SetModeRegister
 .text.ADC_DelSig_1_Ext_CP_Clk_GetSourceRegister
                0x0000c1cc       0x20 .\CortexM3\ARM_GCC_473\Debug\PSoC_2_Pi.a(ADC_DelSig_1_Ext_CP_Clk.o)
                0x0000c1cc                ADC_DelSig_1_Ext_CP_Clk_GetSourceRegister
 .text.ADC_DelSig_1_theACLK_SetDividerRegister
                0x0000c1ec      0x1e8 .\CortexM3\ARM_GCC_473\Debug\PSoC_2_Pi.a(ADC_DelSig_1_theACLK.o)
                0x0000c1ec                ADC_DelSig_1_theACLK_SetDividerRegister
 .text.ADC_DelSig_1_theACLK_GetDividerRegister
                0x0000c3d4       0x18 .\CortexM3\ARM_GCC_473\Debug\PSoC_2_Pi.a(ADC_DelSig_1_theACLK.o)
                0x0000c3d4                ADC_DelSig_1_theACLK_GetDividerRegister
 .text.ADC_DelSig_1_theACLK_SetModeRegister
                0x0000c3ec       0x3c .\CortexM3\ARM_GCC_473\Debug\PSoC_2_Pi.a(ADC_DelSig_1_theACLK.o)
                0x0000c3ec                ADC_DelSig_1_theACLK_SetModeRegister
 .text.ADC_DelSig_1_theACLK_GetSourceRegister
                0x0000c428       0x20 .\CortexM3\ARM_GCC_473\Debug\PSoC_2_Pi.a(ADC_DelSig_1_theACLK.o)
                0x0000c428                ADC_DelSig_1_theACLK_GetSourceRegister
 .text.WaveDAC8_1_BuffAmp_Init
                0x0000c448       0x10 .\CortexM3\ARM_GCC_473\Debug\PSoC_2_Pi.a(WaveDAC8_1_BuffAmp.o)
                0x0000c448                WaveDAC8_1_BuffAmp_Init
 .text.WaveDAC8_1_BuffAmp_Enable
                0x0000c458       0x60 .\CortexM3\ARM_GCC_473\Debug\PSoC_2_Pi.a(WaveDAC8_1_BuffAmp.o)
                0x0000c458                WaveDAC8_1_BuffAmp_Enable
 .text.WaveDAC8_1_BuffAmp_SetPower
                0x0000c4b8       0x54 .\CortexM3\ARM_GCC_473\Debug\PSoC_2_Pi.a(WaveDAC8_1_BuffAmp.o)
                0x0000c4b8                WaveDAC8_1_BuffAmp_SetPower
 .text.Control_Reg_3_Write
                0x0000c50c       0x20 .\CortexM3\ARM_GCC_473\Debug\PSoC_2_Pi.a(Control_Reg_3.o)
                0x0000c50c                Control_Reg_3_Write
 .text.Control_Reg_3_Read
                0x0000c52c       0x18 .\CortexM3\ARM_GCC_473\Debug\PSoC_2_Pi.a(Control_Reg_3.o)
                0x0000c52c                Control_Reg_3_Read
 .text.Status_Reg_3_Read
                0x0000c544       0x18 .\CortexM3\ARM_GCC_473\Debug\PSoC_2_Pi.a(Status_Reg_3.o)
                0x0000c544                Status_Reg_3_Read
 .text.PWM_1_2_clk_SetDividerRegister
                0x0000c55c      0x1e8 .\CortexM3\ARM_GCC_473\Debug\PSoC_2_Pi.a(PWM_1_2_clk.o)
                0x0000c55c                PWM_1_2_clk_SetDividerRegister
 .text.PWM_1_2_clk_GetDividerRegister
                0x0000c744       0x18 .\CortexM3\ARM_GCC_473\Debug\PSoC_2_Pi.a(PWM_1_2_clk.o)
                0x0000c744                PWM_1_2_clk_GetDividerRegister
 .text.PWM_1_2_clk_GetSourceRegister
                0x0000c75c       0x20 .\CortexM3\ARM_GCC_473\Debug\PSoC_2_Pi.a(PWM_1_2_clk.o)
                0x0000c75c                PWM_1_2_clk_GetSourceRegister
 .text.PWM_3_4_clk_SetDividerRegister
                0x0000c77c      0x1e8 .\CortexM3\ARM_GCC_473\Debug\PSoC_2_Pi.a(PWM_3_4_clk.o)
                0x0000c77c                PWM_3_4_clk_SetDividerRegister
 .text.PWM_3_4_clk_GetDividerRegister
                0x0000c964       0x18 .\CortexM3\ARM_GCC_473\Debug\PSoC_2_Pi.a(PWM_3_4_clk.o)
                0x0000c964                PWM_3_4_clk_GetDividerRegister
 .text.PWM_3_4_clk_GetSourceRegister
                0x0000c97c       0x20 .\CortexM3\ARM_GCC_473\Debug\PSoC_2_Pi.a(PWM_3_4_clk.o)
                0x0000c97c                PWM_3_4_clk_GetSourceRegister
 .text.PWM_5_6_clk_SetDividerRegister
                0x0000c99c      0x1e8 .\CortexM3\ARM_GCC_473\Debug\PSoC_2_Pi.a(PWM_5_6_clk.o)
                0x0000c99c                PWM_5_6_clk_SetDividerRegister
 .text.PWM_5_6_clk_GetDividerRegister
                0x0000cb84       0x18 .\CortexM3\ARM_GCC_473\Debug\PSoC_2_Pi.a(PWM_5_6_clk.o)
                0x0000cb84                PWM_5_6_clk_GetDividerRegister
 .text.PWM_5_6_clk_GetSourceRegister
                0x0000cb9c       0x20 .\CortexM3\ARM_GCC_473\Debug\PSoC_2_Pi.a(PWM_5_6_clk.o)
                0x0000cb9c                PWM_5_6_clk_GetSourceRegister
 .text.PWM_7_8_clk_SetDividerRegister
                0x0000cbbc      0x1e8 .\CortexM3\ARM_GCC_473\Debug\PSoC_2_Pi.a(PWM_7_8_clk.o)
                0x0000cbbc                PWM_7_8_clk_SetDividerRegister
 .text.PWM_7_8_clk_GetDividerRegister
                0x0000cda4       0x18 .\CortexM3\ARM_GCC_473\Debug\PSoC_2_Pi.a(PWM_7_8_clk.o)
                0x0000cda4                PWM_7_8_clk_GetDividerRegister
 .text.PWM_7_8_clk_GetSourceRegister
                0x0000cdbc       0x20 .\CortexM3\ARM_GCC_473\Debug\PSoC_2_Pi.a(PWM_7_8_clk.o)
                0x0000cdbc                PWM_7_8_clk_GetSourceRegister
 .text.I2C_1_Init
                0x0000cddc       0x94 .\CortexM3\ARM_GCC_473\Debug\PSoC_2_Pi.a(I2C_1.o)
                0x0000cddc                I2C_1_Init
 .text.I2C_1_Enable
                0x0000ce70       0x58 .\CortexM3\ARM_GCC_473\Debug\PSoC_2_Pi.a(I2C_1.o)
                0x0000ce70                I2C_1_Enable
 .text.I2C_1_Start
                0x0000cec8       0x38 .\CortexM3\ARM_GCC_473\Debug\PSoC_2_Pi.a(I2C_1.o)
                0x0000cec8                I2C_1_Start
 .text.I2C_1_ISR
                0x0000cf00      0x41c .\CortexM3\ARM_GCC_473\Debug\PSoC_2_Pi.a(I2C_1_INT.o)
                0x0000cf00                I2C_1_ISR
 .text.I2C_1_SlaveStatus
                0x0000d31c       0x18 .\CortexM3\ARM_GCC_473\Debug\PSoC_2_Pi.a(I2C_1_SLAVE.o)
                0x0000d31c                I2C_1_SlaveStatus
 .text.I2C_1_SlaveClearReadStatus
                0x0000d334       0x44 .\CortexM3\ARM_GCC_473\Debug\PSoC_2_Pi.a(I2C_1_SLAVE.o)
                0x0000d334                I2C_1_SlaveClearReadStatus
 .text.I2C_1_SlaveClearWriteStatus
                0x0000d378       0x44 .\CortexM3\ARM_GCC_473\Debug\PSoC_2_Pi.a(I2C_1_SLAVE.o)
                0x0000d378                I2C_1_SlaveClearWriteStatus
 .text.I2C_1_SlaveSetAddress
                0x0000d3bc       0x28 .\CortexM3\ARM_GCC_473\Debug\PSoC_2_Pi.a(I2C_1_SLAVE.o)
                0x0000d3bc                I2C_1_SlaveSetAddress
 .text.I2C_1_SlaveInitReadBuf
                0x0000d3e4       0x44 .\CortexM3\ARM_GCC_473\Debug\PSoC_2_Pi.a(I2C_1_SLAVE.o)
                0x0000d3e4                I2C_1_SlaveInitReadBuf
 .text.I2C_1_SlaveInitWriteBuf
                0x0000d428       0x44 .\CortexM3\ARM_GCC_473\Debug\PSoC_2_Pi.a(I2C_1_SLAVE.o)
                0x0000d428                I2C_1_SlaveInitWriteBuf
 .text.I2C_1_SlaveGetReadBufSize
                0x0000d46c       0x18 .\CortexM3\ARM_GCC_473\Debug\PSoC_2_Pi.a(I2C_1_SLAVE.o)
                0x0000d46c                I2C_1_SlaveGetReadBufSize
 .text.I2C_1_SlaveGetWriteBufSize
                0x0000d484       0x18 .\CortexM3\ARM_GCC_473\Debug\PSoC_2_Pi.a(I2C_1_SLAVE.o)
                0x0000d484                I2C_1_SlaveGetWriteBufSize
 .text.I2C_1_SlaveClearReadBuf
                0x0000d49c       0x18 .\CortexM3\ARM_GCC_473\Debug\PSoC_2_Pi.a(I2C_1_SLAVE.o)
                0x0000d49c                I2C_1_SlaveClearReadBuf
 .text.I2C_1_SlaveClearWriteBuf
                0x0000d4b4       0x18 .\CortexM3\ARM_GCC_473\Debug\PSoC_2_Pi.a(I2C_1_SLAVE.o)
                0x0000d4b4                I2C_1_SlaveClearWriteBuf
 .text          0x0000d4cc      0x370 c:/program files (x86)/cypress/psoc creator/3.0/psoc creator/import/gnu_cs/arm/4.7.3/bin/../lib/gcc/arm-none-eabi/4.7.3/armv7-m\libgcc.a(_arm_addsubdf3.o)
                0x0000d4cc                __aeabi_drsub
                0x0000d4d4                __aeabi_dsub
                0x0000d4d4                __subdf3
                0x0000d4d8                __aeabi_dadd
                0x0000d4d8                __adddf3
                0x0000d750                __floatunsidf
                0x0000d750                __aeabi_ui2d
                0x0000d770                __floatsidf
                0x0000d770                __aeabi_i2d
                0x0000d794                __aeabi_f2d
                0x0000d794                __extendsfdf2
                0x0000d7d0                __floatundidf
                0x0000d7d0                __aeabi_ul2d
                0x0000d7e0                __floatdidf
                0x0000d7e0                __aeabi_l2d
 .text          0x0000d83c      0x424 c:/program files (x86)/cypress/psoc creator/3.0/psoc creator/import/gnu_cs/arm/4.7.3/bin/../lib/gcc/arm-none-eabi/4.7.3/armv7-m\libgcc.a(_arm_muldivdf3.o)
                0x0000d83c                __aeabi_dmul
                0x0000d83c                __muldf3
                0x0000da90                __divdf3
                0x0000da90                __aeabi_ddiv
 .text          0x0000dc60      0x110 c:/program files (x86)/cypress/psoc creator/3.0/psoc creator/import/gnu_cs/arm/4.7.3/bin/../lib/gcc/arm-none-eabi/4.7.3/armv7-m\libgcc.a(_arm_cmpdf2.o)
                0x0000dc60                __gtdf2
                0x0000dc60                __gedf2
                0x0000dc68                __ltdf2
                0x0000dc68                __ledf2
                0x0000dc70                __nedf2
                0x0000dc70                __eqdf2
                0x0000dc70                __cmpdf2
                0x0000dcec                __aeabi_cdrcmple
                0x0000dcfc                __aeabi_cdcmpeq
                0x0000dcfc                __aeabi_cdcmple
                0x0000dd0c                __aeabi_dcmpeq
                0x0000dd20                __aeabi_dcmplt
                0x0000dd34                __aeabi_dcmple
                0x0000dd48                __aeabi_dcmpge
                0x0000dd5c                __aeabi_dcmpgt
 .text          0x0000dd70       0x40 c:/program files (x86)/cypress/psoc creator/3.0/psoc creator/import/gnu_cs/arm/4.7.3/bin/../lib/gcc/arm-none-eabi/4.7.3/armv7-m\libgcc.a(_arm_fixunsdfsi.o)
                0x0000dd70                __aeabi_d2uiz
                0x0000dd70                __fixunsdfsi
 .text          0x0000ddb0       0x38 c:/program files (x86)/cypress/psoc creator/3.0/psoc creator/import/gnu_cs/arm/4.7.3/bin/../lib/gcc/arm-none-eabi/4.7.3/armv7-m\libgcc.a(_aeabi_ldivmod.o)
                0x0000ddb0                __aeabi_ldivmod
 .text          0x0000dde8       0x60 c:/program files (x86)/cypress/psoc creator/3.0/psoc creator/import/gnu_cs/arm/4.7.3/bin/../lib/gcc/arm-none-eabi/4.7.3/armv7-m\libgcc.a(bpabi.o)
                0x0000dde8                __gnu_ldivmod_helper
                0x0000de18                __gnu_uldivmod_helper
 .text          0x0000de48        0x4 c:/program files (x86)/cypress/psoc creator/3.0/psoc creator/import/gnu_cs/arm/4.7.3/bin/../lib/gcc/arm-none-eabi/4.7.3/armv7-m\libgcc.a(_dvmd_tls.o)
                0x0000de48                __aeabi_idiv0
                0x0000de48                __aeabi_ldiv0
 .text          0x0000de4c      0x2bc c:/program files (x86)/cypress/psoc creator/3.0/psoc creator/import/gnu_cs/arm/4.7.3/bin/../lib/gcc/arm-none-eabi/4.7.3/armv7-m\libgcc.a(_divdi3.o)
                0x0000de4c                __divdi3
 .text          0x0000e108      0x28c c:/program files (x86)/cypress/psoc creator/3.0/psoc creator/import/gnu_cs/arm/4.7.3/bin/../lib/gcc/arm-none-eabi/4.7.3/armv7-m\libgcc.a(_udivdi3.o)
                0x0000e108                __udivdi3
 .text.__libc_init_array
                0x0000e394       0x4c c:/program files (x86)/cypress/psoc creator/3.0/psoc creator/import/gnu_cs/arm/4.7.3/bin/../lib/gcc/arm-none-eabi/4.7.3/../../../../arm-none-eabi/lib/armv7-m\libc_s.a(lib_a-init.o)
                0x0000e394                __libc_init_array
 .text.memcpy   0x0000e3e0       0x12 c:/program files (x86)/cypress/psoc creator/3.0/psoc creator/import/gnu_cs/arm/4.7.3/bin/../lib/gcc/arm-none-eabi/4.7.3/../../../../arm-none-eabi/lib/armv7-m\libc_s.a(lib_a-memcpy.o)
                0x0000e3e0                memcpy
 .text.memset   0x0000e3f2       0x10 c:/program files (x86)/cypress/psoc creator/3.0/psoc creator/import/gnu_cs/arm/4.7.3/bin/../lib/gcc/arm-none-eabi/4.7.3/../../../../arm-none-eabi/lib/armv7-m\libc_s.a(lib_a-memset.o)
                0x0000e3f2                memset
 *(.plt)
 *(.gnu.warning)
 *(.glue_7t)
 .glue_7t       0x00000000        0x0 linker stubs
 *(.glue_7)
 .glue_7        0x00000000        0x0 linker stubs
 *(.vfp11_veneer)
 .vfp11_veneer  0x00000000        0x0 linker stubs
 *(.bootloader)
 *(.ARM.extab* .gnu.linkonce.armextab.*)
 *(.gcc_except_table)

.v4_bx          0x0000e404        0x0
 .v4_bx         0x00000000        0x0 linker stubs

.iplt           0x0000e404        0x0
 .iplt          0x00000000        0x0 c:/program files (x86)/cypress/psoc creator/3.0/psoc creator/import/gnu_cs/arm/4.7.3/bin/../lib/gcc/arm-none-eabi/4.7.3/armv7-m/crtbegin.o

.eh_frame_hdr
 *(.eh_frame_hdr)

.eh_frame       0x0000e404        0x4
 *(.eh_frame)
 .eh_frame      0x0000e404        0x0 c:/program files (x86)/cypress/psoc creator/3.0/psoc creator/import/gnu_cs/arm/4.7.3/bin/../lib/gcc/arm-none-eabi/4.7.3/armv7-m/crtbegin.o
 .eh_frame      0x0000e404        0x4 c:/program files (x86)/cypress/psoc creator/3.0/psoc creator/import/gnu_cs/arm/4.7.3/bin/../lib/gcc/arm-none-eabi/4.7.3/armv7-m/crtend.o
                0x0000e408                PROVIDE (__exidx_start, .)

.ARM.exidx      0x0000e408        0x8
 *(.ARM.exidx* .gnu.linkonce.armexidx.*)
 .ARM.exidx     0x0000e408        0x8 c:/program files (x86)/cypress/psoc creator/3.0/psoc creator/import/gnu_cs/arm/4.7.3/bin/../lib/gcc/arm-none-eabi/4.7.3/armv7-m\libgcc.a(_divdi3.o)
 .ARM.exidx     0x0000e410        0x0 c:/program files (x86)/cypress/psoc creator/3.0/psoc creator/import/gnu_cs/arm/4.7.3/bin/../lib/gcc/arm-none-eabi/4.7.3/armv7-m\libgcc.a(_udivdi3.o)
                                  0x8 (size before relaxing)
                0x0000e410                __exidx_end = .

.rodata         0x0000e410      0x530
 *(.rodata .rodata.* .gnu.linkonce.r.*)
 .rodata        0x0000e410      0x400 .\CortexM3\ARM_GCC_473\Debug\mem1.o
 .rodata        0x0000e810       0x30 .\CortexM3\ARM_GCC_473\Debug\PSoC_2_Pi.a(cyfitter_cfg.o)
                0x0000e810                ADC_DelSig_1_AMux__addrTable
                0x0000e818                ADC_DelSig_1_AMux__maskTable
 .rodata        0x0000e840       0xc8 .\CortexM3\ARM_GCC_473\Debug\PSoC_2_Pi.a(WaveDAC8_1.o)
                0x0000e840                WaveDAC8_1_wave1
                0x0000e8a4                WaveDAC8_1_wave2
                0x0000e908                . = ALIGN (0x4)
 *(.init)
 .init          0x0000e908        0x4 c:/program files (x86)/cypress/psoc creator/3.0/psoc creator/import/gnu_cs/arm/4.7.3/bin/../lib/gcc/arm-none-eabi/4.7.3/armv7-m/crti.o
                0x0000e908                _init
 .init          0x0000e90c        0x8 c:/program files (x86)/cypress/psoc creator/3.0/psoc creator/import/gnu_cs/arm/4.7.3/bin/../lib/gcc/arm-none-eabi/4.7.3/armv7-m/crtn.o
                0x0000e914                . = ALIGN (0x4)
                0x0000e914                __preinit_array_start = .
 *(.preinit_array)
                0x0000e914                __preinit_array_end = .
                0x0000e914                . = ALIGN (0x4)
                0x0000e914                __init_array_start = .
 *(SORT(.init_array.*))
 *(.init_array)
 .init_array    0x0000e914        0x4 c:/program files (x86)/cypress/psoc creator/3.0/psoc creator/import/gnu_cs/arm/4.7.3/bin/../lib/gcc/arm-none-eabi/4.7.3/armv7-m/crtbegin.o
 .init_array    0x0000e918        0x4 .\CortexM3\ARM_GCC_473\Debug\Cm3Start.o
                0x0000e91c                __init_array_end = .
                0x0000e91c                . = ALIGN (0x4)
 *(.fini)
 .fini          0x0000e91c        0x4 c:/program files (x86)/cypress/psoc creator/3.0/psoc creator/import/gnu_cs/arm/4.7.3/bin/../lib/gcc/arm-none-eabi/4.7.3/armv7-m/crti.o
                0x0000e91c                _fini
 .fini          0x0000e920        0x8 c:/program files (x86)/cypress/psoc creator/3.0/psoc creator/import/gnu_cs/arm/4.7.3/bin/../lib/gcc/arm-none-eabi/4.7.3/armv7-m/crtn.o
                0x0000e928                . = ALIGN (0x4)
                0x0000e928                __fini_array_start = .
 *(.fini_array)
 .fini_array    0x0000e928        0x4 c:/program files (x86)/cypress/psoc creator/3.0/psoc creator/import/gnu_cs/arm/4.7.3/bin/../lib/gcc/arm-none-eabi/4.7.3/armv7-m/crtbegin.o
 *(SORT(.fini_array.*))
                0x0000e92c                __fini_array_end = .
                0x0000e92c                . = ALIGN (0x4)
 *crtbegin.o(.ctors)
 *(EXCLUDE_FILE(*crtend.o) .ctors)
 *(SORT(.ctors.*))
 *crtend.o(.ctors)
                0x0000e92c                . = ALIGN (0x4)
 *crtbegin.o(.dtors)
 *(EXCLUDE_FILE(*crtend.o) .dtors)
 *(SORT(.dtors.*))
 *crtend.o(.dtors)
                0x0000e92c                . = ALIGN (0x4)
                0x0000e92c                __cy_regions = .
                0x0000e92c        0x4 LONG 0xe940 __cy_region_init_ram
                0x0000e930        0x4 LONG 0x1fff8108 __cy_region_start_data
                0x0000e934        0x4 LONG 0x28 __cy_region_init_size_ram
                0x0000e938        0x4 LONG 0x100 __cy_region_zero_size_ram
                0x0000e93c                __cy_regions_end = .
                0x0000e940                . = ALIGN (0x8)
 *fill*         0x0000e93c        0x4 00
                0x0000e940                _etext = .

.ramvectors     0x1fff8000      0x100
                0x1fff8000                __cy_region_start_ram = .
 *(.ramvectors)
 .ramvectors    0x1fff8000      0x100 .\CortexM3\ARM_GCC_473\Debug\Cm3Start.o
                0x1fff8000                CyRamVectors

.noinit         0x1fff8100        0x5
 *(.noinit)
 .noinit        0x1fff8100        0x4 .\CortexM3\ARM_GCC_473\Debug\Cm3Start.o
 .noinit        0x1fff8104        0x1 .\CortexM3\ARM_GCC_473\Debug\PSoC_2_Pi.a(CyLib.o)
                0x1fff8104                CyResetStatus

.data           0x1fff8108       0x28 load address 0x0000e940
                0x1fff8108                __cy_region_start_data = .
 *(.jcr)
 .jcr           0x1fff8108        0x0 c:/program files (x86)/cypress/psoc creator/3.0/psoc creator/import/gnu_cs/arm/4.7.3/bin/../lib/gcc/arm-none-eabi/4.7.3/armv7-m/crtbegin.o
 .jcr           0x1fff8108        0x4 c:/program files (x86)/cypress/psoc creator/3.0/psoc creator/import/gnu_cs/arm/4.7.3/bin/../lib/gcc/arm-none-eabi/4.7.3/armv7-m/crtend.o
 *(.got.plt)
 *(.got)
 *(.shdata)
 *(.data .data.* .gnu.linkonce.d.*)
 .data          0x1fff810c        0x8 .\CortexM3\ARM_GCC_473\Debug\PSoC_2_Pi.a(CyDmac.o)
 .data          0x1fff8114       0x10 .\CortexM3\ARM_GCC_473\Debug\PSoC_2_Pi.a(CyLib.o)
                0x1fff8114                cydelay_freq_hz
                0x1fff8118                cydelay_freq_khz
                0x1fff811c                cydelay_freq_mhz
                0x1fff8120                cydelay_32k_ms
 .data          0x1fff8124        0x1 .\CortexM3\ARM_GCC_473\Debug\PSoC_2_Pi.a(WaveDAC8_1_Wave1_DMA_dma.o)
                0x1fff8124                WaveDAC8_1_Wave1_DMA_DmaHandle
 .data          0x1fff8125        0x1 .\CortexM3\ARM_GCC_473\Debug\PSoC_2_Pi.a(WaveDAC8_1_Wave2_DMA_dma.o)
                0x1fff8125                WaveDAC8_1_Wave2_DMA_DmaHandle
 .data          0x1fff8126        0x1 .\CortexM3\ARM_GCC_473\Debug\PSoC_2_Pi.a(ADC_DelSig_1.o)
                0x1fff8126                ADC_DelSig_1_Config
 *fill*         0x1fff8127        0x1 00
 .data          0x1fff8128        0x4 .\CortexM3\ARM_GCC_473\Debug\PSoC_2_Pi.a(ADC_DelSig_1_PM.o)
 .data          0x1fff812c        0x1 .\CortexM3\ARM_GCC_473\Debug\PSoC_2_Pi.a(ADC_DelSig_1_AMux.o)
                0x1fff8130                . = ALIGN (0x8)
 *fill*         0x1fff812d        0x3 00
 *(.ram)
                0x1fff8130                _edata = .

.igot.plt       0x1fff8130        0x0 load address 0x0000e968
 .igot.plt      0x00000000        0x0 c:/program files (x86)/cypress/psoc creator/3.0/psoc creator/import/gnu_cs/arm/4.7.3/bin/../lib/gcc/arm-none-eabi/4.7.3/armv7-m/crtbegin.o

.bss            0x1fff8130      0x100 load address 0x0000e968
                0x1fff8130                PROVIDE (__bss_start__, .)
 *(.shbss)
 *(.bss .bss.* .gnu.linkonce.b.*)
 .bss           0x1fff8130       0x1c c:/program files (x86)/cypress/psoc creator/3.0/psoc creator/import/gnu_cs/arm/4.7.3/bin/../lib/gcc/arm-none-eabi/4.7.3/armv7-m/crtbegin.o
 .bss           0x1fff814c        0x4 .\CortexM3\ARM_GCC_473\Debug\main.o
                0x1fff814c                RD_buf
 .bss           0x1fff8150        0x1 .\CortexM3\ARM_GCC_473\Debug\PSoC_2_Pi.a(PWM_1.o)
                0x1fff8150                PWM_1_initVar
 *fill*         0x1fff8151        0x3 00
 .bss           0x1fff8154        0x8 .\CortexM3\ARM_GCC_473\Debug\PSoC_2_Pi.a(PWM_1_PM.o)
 .bss           0x1fff815c        0x1 .\CortexM3\ARM_GCC_473\Debug\PSoC_2_Pi.a(ADC_SAR_1.o)
                0x1fff815c                ADC_SAR_1_initVar
 *fill*         0x1fff815d        0x3 00
 .bss           0x1fff8160        0x4 .\CortexM3\ARM_GCC_473\Debug\PSoC_2_Pi.a(ADC_SAR_1_PM.o)
 .bss           0x1fff8164        0x1 .\CortexM3\ARM_GCC_473\Debug\PSoC_2_Pi.a(ADC_SAR_2.o)
                0x1fff8164                ADC_SAR_2_initVar
 *fill*         0x1fff8165        0x3 00
 .bss           0x1fff8168        0x4 .\CortexM3\ARM_GCC_473\Debug\PSoC_2_Pi.a(ADC_SAR_2_PM.o)
 .bss           0x1fff816c        0x1 .\CortexM3\ARM_GCC_473\Debug\PSoC_2_Pi.a(VDAC8_1.o)
                0x1fff816c                VDAC8_1_initVar
 *fill*         0x1fff816d        0x3 00
 .bss           0x1fff8170        0x4 .\CortexM3\ARM_GCC_473\Debug\PSoC_2_Pi.a(VDAC8_1_PM.o)
 .bss           0x1fff8174        0x1 .\CortexM3\ARM_GCC_473\Debug\PSoC_2_Pi.a(VDAC8_2.o)
                0x1fff8174                VDAC8_2_initVar
 *fill*         0x1fff8175        0x3 00
 .bss           0x1fff8178        0x4 .\CortexM3\ARM_GCC_473\Debug\PSoC_2_Pi.a(VDAC8_2_PM.o)
 .bss           0x1fff817c        0x1 .\CortexM3\ARM_GCC_473\Debug\PSoC_2_Pi.a(IDAC8_1.o)
                0x1fff817c                IDAC8_1_initVar
 *fill*         0x1fff817d        0x3 00
 .bss           0x1fff8180        0x4 .\CortexM3\ARM_GCC_473\Debug\PSoC_2_Pi.a(IDAC8_1_PM.o)
 .bss           0x1fff8184        0x5 .\CortexM3\ARM_GCC_473\Debug\PSoC_2_Pi.a(WaveDAC8_1.o)
                0x1fff8184                WaveDAC8_1_initVar
 *fill*         0x1fff8189        0x3 00
 .bss           0x1fff818c        0x4 .\CortexM3\ARM_GCC_473\Debug\PSoC_2_Pi.a(WaveDAC8_1_PM.o)
 .bss           0x1fff8190        0x4 .\CortexM3\ARM_GCC_473\Debug\PSoC_2_Pi.a(WaveDAC8_1_VDAC8_PM.o)
 .bss           0x1fff8194        0x8 .\CortexM3\ARM_GCC_473\Debug\PSoC_2_Pi.a(ADC_DelSig_1.o)
                0x1fff8194                ADC_DelSig_1_convDone
                0x1fff8195                ADC_DelSig_1_stopConversion
                0x1fff8196                ADC_DelSig_1_initVar
                0x1fff8197                ADC_DelSig_1_started
 .bss           0x1fff819c        0x1 .\CortexM3\ARM_GCC_473\Debug\PSoC_2_Pi.a(PWM_2.o)
                0x1fff819c                PWM_2_initVar
 *fill*         0x1fff819d        0x3 00
 .bss           0x1fff81a0        0x8 .\CortexM3\ARM_GCC_473\Debug\PSoC_2_Pi.a(PWM_2_PM.o)
 .bss           0x1fff81a8        0x1 .\CortexM3\ARM_GCC_473\Debug\PSoC_2_Pi.a(PWM_3.o)
                0x1fff81a8                PWM_3_initVar
 *fill*         0x1fff81a9        0x3 00
 .bss           0x1fff81ac        0x8 .\CortexM3\ARM_GCC_473\Debug\PSoC_2_Pi.a(PWM_3_PM.o)
 .bss           0x1fff81b4        0x1 .\CortexM3\ARM_GCC_473\Debug\PSoC_2_Pi.a(PWM_4.o)
                0x1fff81b4                PWM_4_initVar
 *fill*         0x1fff81b5        0x3 00
 .bss           0x1fff81b8        0x8 .\CortexM3\ARM_GCC_473\Debug\PSoC_2_Pi.a(PWM_4_PM.o)
 .bss           0x1fff81c0        0x1 .\CortexM3\ARM_GCC_473\Debug\PSoC_2_Pi.a(PWM_5.o)
                0x1fff81c0                PWM_5_initVar
 *fill*         0x1fff81c1        0x3 00
 .bss           0x1fff81c4        0x8 .\CortexM3\ARM_GCC_473\Debug\PSoC_2_Pi.a(PWM_5_PM.o)
 .bss           0x1fff81cc        0x1 .\CortexM3\ARM_GCC_473\Debug\PSoC_2_Pi.a(PWM_6.o)
                0x1fff81cc                PWM_6_initVar
 *fill*         0x1fff81cd        0x3 00
 .bss           0x1fff81d0        0x8 .\CortexM3\ARM_GCC_473\Debug\PSoC_2_Pi.a(PWM_6_PM.o)
 .bss           0x1fff81d8        0x1 .\CortexM3\ARM_GCC_473\Debug\PSoC_2_Pi.a(PWM_7.o)
                0x1fff81d8                PWM_7_initVar
 *fill*         0x1fff81d9        0x3 00
 .bss           0x1fff81dc        0x8 .\CortexM3\ARM_GCC_473\Debug\PSoC_2_Pi.a(PWM_7_PM.o)
 .bss           0x1fff81e4        0x1 .\CortexM3\ARM_GCC_473\Debug\PSoC_2_Pi.a(PWM_8.o)
                0x1fff81e4                PWM_8_initVar
 *fill*         0x1fff81e5        0x3 00
 .bss           0x1fff81e8        0x8 .\CortexM3\ARM_GCC_473\Debug\PSoC_2_Pi.a(PWM_8_PM.o)
 .bss           0x1fff81f0        0x1 .\CortexM3\ARM_GCC_473\Debug\PSoC_2_Pi.a(I2C_1.o)
                0x1fff81f0                I2C_1_initVar
 *(COMMON)
 *fill*         0x1fff81f1        0x3 00
 COMMON         0x1fff81f4        0x4 .\CortexM3\ARM_GCC_473\Debug\main.o
                0x1fff81f4                WR_buf
 COMMON         0x1fff81f8        0xa .\CortexM3\ARM_GCC_473\Debug\PSoC_2_Pi.a(ADC_SAR_1.o)
                0x1fff81f8                ADC_SAR_1_countsPerVolt
                0x1fff81fa                ADC_SAR_1_shift
                0x1fff81fc                ADC_SAR_1_countsPer10Volt
                0x1fff8200                ADC_SAR_1_offset
 *fill*         0x1fff8202        0x2 00
 COMMON         0x1fff8204        0xa .\CortexM3\ARM_GCC_473\Debug\PSoC_2_Pi.a(ADC_SAR_2.o)
                0x1fff8204                ADC_SAR_2_countsPer10Volt
                0x1fff8208                ADC_SAR_2_shift
                0x1fff820a                ADC_SAR_2_offset
                0x1fff820c                ADC_SAR_2_countsPerVolt
 *fill*         0x1fff820e        0x2 00
 COMMON         0x1fff8210        0x8 .\CortexM3\ARM_GCC_473\Debug\PSoC_2_Pi.a(ADC_DelSig_1.o)
                0x1fff8210                ADC_DelSig_1_CountsPerVolt
                0x1fff8214                ADC_DelSig_1_Offset
 COMMON         0x1fff8218        0x1 .\CortexM3\ARM_GCC_473\Debug\PSoC_2_Pi.a(I2C_1.o)
                0x1fff8218                I2C_1_state
 *fill*         0x1fff8219        0x3 00
 COMMON         0x1fff821c       0x11 .\CortexM3\ARM_GCC_473\Debug\PSoC_2_Pi.a(I2C_1_SLAVE.o)
                0x1fff821c                I2C_1_slRdBufIndex
                0x1fff821d                I2C_1_slStatus
                0x1fff821e                I2C_1_slWrBufSize
                0x1fff8220                I2C_1_slRdBufPtr
                0x1fff8224                I2C_1_slWrBufIndex
                0x1fff8228                I2C_1_slWrBufPtr
                0x1fff822c                I2C_1_slRdBufSize
                0x1fff8230                . = ALIGN (0x8)
 *fill*         0x1fff822d        0x3 00
 *(.ram.b)
                0x1fff8230                _end = .
                0x1fff8230                __end = .
                0x1fff8230                PROVIDE (end, .)
                0x1fff8230                PROVIDE (__bss_end__, .)
                0x0000e940                __cy_region_init_ram = LOADADDR (.data)
                0x00000028                __cy_region_init_size_ram = (_edata - ADDR (.data))
                0x00000100                __cy_region_zero_size_ram = (_end - _edata)

.heap           0x1fff8230     0x1000 load address 0x0000e968
                0x1fff8230                . = _end
                0x1fff9230                . = (. + 0x1000)
 *fill*         0x1fff8230     0x1000 00
                0x1fff9230                __cy_heap_limit = .

.stack          0x20004000     0x4000
                0x20004000                __cy_stack_limit = .
                0x20008000                . = (. + 0x4000)
 *fill*         0x20004000     0x4000 00
                0x00000001                ASSERT ((__cy_stack_limit >= __cy_heap_limit), region RAM overflowed with stack)

.cyloadermeta   0xf0000000       0x40
 *(.cyloadermeta)
 .cyloadermeta  0xf0000000       0x40 .\CortexM3\ARM_GCC_473\Debug\cybootloader.o
                0xf0000000                cy_meta_loader

.cyloadablemeta
                0x0003ffc0       0x40
 *(.cyloadablemeta)
 .cyloadablemeta
                0x0003ffc0       0x40 .\CortexM3\ARM_GCC_473\Debug\cymetadata.o
                0x0003ffc0                cy_meta_loadable

.cyconfigecc    0x80000960      0xbe8
 *(.cyconfigecc)
 .cyconfigecc   0x80000960      0xbe8 .\CortexM3\ARM_GCC_473\Debug\cymetadata.o
                0x80000960                cy_meta_configecc

.cycustnvl      0x90000000        0x4
 *(.cycustnvl)
 .cycustnvl     0x90000000        0x4 .\CortexM3\ARM_GCC_473\Debug\cybootloader.o
                0x90000000                cy_meta_custnvl

.cywolatch      0x90100000        0x4
 *(.cywolatch)
 .cywolatch     0x90100000        0x4 .\CortexM3\ARM_GCC_473\Debug\cybootloader.o
                0x90100000                cy_meta_wonvl

.cyeeprom       0x90200000        0x0
 *(.cyeeprom)
                0x00000001                ASSERT ((. <= ((0x90200000 + ee_offset) + ee_size)), .cyeeprom data will not fit in EEPROM)

.cyflashprotect
                0x90400000      0x100
 *(.cyflashprotect)
 .cyflashprotect
                0x90400000      0x100 .\CortexM3\ARM_GCC_473\Debug\cybootloader.o
                0x90400000                cy_meta_flashprotect

.cymeta         0x90500000        0xc
 *(.cymeta)
 .cymeta        0x90500000        0xc .\CortexM3\ARM_GCC_473\Debug\cybootloader.o
                0x90500000                cy_metadata

.rel.dyn        0x00040000        0x0 load address 0x9050000c
 .rel.iplt      0x00000000        0x0 c:/program files (x86)/cypress/psoc creator/3.0/psoc creator/import/gnu_cs/arm/4.7.3/bin/../lib/gcc/arm-none-eabi/4.7.3/armv7-m/crtbegin.o

.stab
 *(.stab)

.stabstr
 *(.stabstr)

.debug
 *(.debug)

.line
 *(.line)

.debug_srcinfo
 *(.debug_srcinfo)

.debug_sfnames
 *(.debug_sfnames)

.debug_aranges  0x00000000     0x1a08
 *(.debug_aranges)
 .debug_aranges
                0x00000000       0x30 .\CortexM3\ARM_GCC_473\Debug\main.o
 .debug_aranges
                0x00000030       0xd0 .\CortexM3\ARM_GCC_473\Debug\mem1.o
 .debug_aranges
                0x00000100       0x18 .\CortexM3\ARM_GCC_473\Debug\cymetadata.o
 .debug_aranges
                0x00000118       0x40 .\CortexM3\ARM_GCC_473\Debug\Cm3Start.o
 .debug_aranges
                0x00000158       0x18 .\CortexM3\ARM_GCC_473\Debug\cybootloader.o
 .debug_aranges
                0x00000170       0x70 .\CortexM3\ARM_GCC_473\Debug\PSoC_2_Pi.a(cyfitter_cfg.o)
 .debug_aranges
                0x000001e0       0x20 .\CortexM3\ARM_GCC_473\Debug\PSoC_2_Pi.a(CyBootAsmGnu.o)
 .debug_aranges
                0x00000200       0xd8 .\CortexM3\ARM_GCC_473\Debug\PSoC_2_Pi.a(CyDmac.o)
 .debug_aranges
                0x000002d8      0x218 .\CortexM3\ARM_GCC_473\Debug\PSoC_2_Pi.a(CyLib.o)
 .debug_aranges
                0x000004f0       0x90 .\CortexM3\ARM_GCC_473\Debug\PSoC_2_Pi.a(cyPm.o)
 .debug_aranges
                0x00000580       0x98 .\CortexM3\ARM_GCC_473\Debug\PSoC_2_Pi.a(PWM_1.o)
 .debug_aranges
                0x00000618       0x38 .\CortexM3\ARM_GCC_473\Debug\PSoC_2_Pi.a(PWM_1_PM.o)
 .debug_aranges
                0x00000650       0xa8 .\CortexM3\ARM_GCC_473\Debug\PSoC_2_Pi.a(ADC_SAR_1.o)
 .debug_aranges
                0x000006f8       0x20 .\CortexM3\ARM_GCC_473\Debug\PSoC_2_Pi.a(ADC_SAR_1_INT.o)
 .debug_aranges
                0x00000718       0x38 .\CortexM3\ARM_GCC_473\Debug\PSoC_2_Pi.a(ADC_SAR_1_PM.o)
 .debug_aranges
                0x00000750       0xa8 .\CortexM3\ARM_GCC_473\Debug\PSoC_2_Pi.a(ADC_SAR_2.o)
 .debug_aranges
                0x000007f8       0x20 .\CortexM3\ARM_GCC_473\Debug\PSoC_2_Pi.a(ADC_SAR_2_INT.o)
 .debug_aranges
                0x00000818       0x38 .\CortexM3\ARM_GCC_473\Debug\PSoC_2_Pi.a(ADC_SAR_2_PM.o)
 .debug_aranges
                0x00000850       0x80 .\CortexM3\ARM_GCC_473\Debug\PSoC_2_Pi.a(ADC_SAR_1_theACLK.o)
 .debug_aranges
                0x000008d0       0x80 .\CortexM3\ARM_GCC_473\Debug\PSoC_2_Pi.a(ADC_SAR_2_theACLK.o)
 .debug_aranges
                0x00000950       0x58 .\CortexM3\ARM_GCC_473\Debug\PSoC_2_Pi.a(VDAC8_1.o)
 .debug_aranges
                0x000009a8       0x38 .\CortexM3\ARM_GCC_473\Debug\PSoC_2_Pi.a(VDAC8_1_PM.o)
 .debug_aranges
                0x000009e0       0x58 .\CortexM3\ARM_GCC_473\Debug\PSoC_2_Pi.a(VDAC8_2.o)
 .debug_aranges
                0x00000a38       0x38 .\CortexM3\ARM_GCC_473\Debug\PSoC_2_Pi.a(VDAC8_2_PM.o)
 .debug_aranges
                0x00000a70       0x60 .\CortexM3\ARM_GCC_473\Debug\PSoC_2_Pi.a(IDAC8_1.o)
 .debug_aranges
                0x00000ad0       0x38 .\CortexM3\ARM_GCC_473\Debug\PSoC_2_Pi.a(IDAC8_1_PM.o)
 .debug_aranges
                0x00000b08       0x70 .\CortexM3\ARM_GCC_473\Debug\PSoC_2_Pi.a(WaveDAC_clk.o)
 .debug_aranges
                0x00000b78       0x50 .\CortexM3\ARM_GCC_473\Debug\PSoC_2_Pi.a(WaveDAC8_1.o)
 .debug_aranges
                0x00000bc8       0x28 .\CortexM3\ARM_GCC_473\Debug\PSoC_2_Pi.a(WaveDAC8_1_PM.o)
 .debug_aranges
                0x00000bf0       0x28 .\CortexM3\ARM_GCC_473\Debug\PSoC_2_Pi.a(WaveDAC8_1_Wave1_DMA_dma.o)
 .debug_aranges
                0x00000c18       0x28 .\CortexM3\ARM_GCC_473\Debug\PSoC_2_Pi.a(WaveDAC8_1_Wave2_DMA_dma.o)
 .debug_aranges
                0x00000c40       0x58 .\CortexM3\ARM_GCC_473\Debug\PSoC_2_Pi.a(WaveDAC8_1_VDAC8.o)
 .debug_aranges
                0x00000c98       0x38 .\CortexM3\ARM_GCC_473\Debug\PSoC_2_Pi.a(WaveDAC8_1_VDAC8_PM.o)
 .debug_aranges
                0x00000cd0       0x28 .\CortexM3\ARM_GCC_473\Debug\PSoC_2_Pi.a(Control_Reg_1.o)
 .debug_aranges
                0x00000cf8       0x40 .\CortexM3\ARM_GCC_473\Debug\PSoC_2_Pi.a(Status_Reg_1.o)
 .debug_aranges
                0x00000d38       0xe8 .\CortexM3\ARM_GCC_473\Debug\PSoC_2_Pi.a(ADC_DelSig_1.o)
 .debug_aranges
                0x00000e20       0x38 .\CortexM3\ARM_GCC_473\Debug\PSoC_2_Pi.a(ADC_DelSig_1_PM.o)
 .debug_aranges
                0x00000e58       0x38 .\CortexM3\ARM_GCC_473\Debug\PSoC_2_Pi.a(ADC_DelSig_1_INT.o)
 .debug_aranges
                0x00000e90       0x98 .\CortexM3\ARM_GCC_473\Debug\PSoC_2_Pi.a(PWM_2.o)
 .debug_aranges
                0x00000f28       0x38 .\CortexM3\ARM_GCC_473\Debug\PSoC_2_Pi.a(PWM_2_PM.o)
 .debug_aranges
                0x00000f60       0x98 .\CortexM3\ARM_GCC_473\Debug\PSoC_2_Pi.a(PWM_3.o)
 .debug_aranges
                0x00000ff8       0x38 .\CortexM3\ARM_GCC_473\Debug\PSoC_2_Pi.a(PWM_3_PM.o)
 .debug_aranges
                0x00001030       0x98 .\CortexM3\ARM_GCC_473\Debug\PSoC_2_Pi.a(PWM_4.o)
 .debug_aranges
                0x000010c8       0x38 .\CortexM3\ARM_GCC_473\Debug\PSoC_2_Pi.a(PWM_4_PM.o)
 .debug_aranges
                0x00001100       0x98 .\CortexM3\ARM_GCC_473\Debug\PSoC_2_Pi.a(PWM_5.o)
 .debug_aranges
                0x00001198       0x38 .\CortexM3\ARM_GCC_473\Debug\PSoC_2_Pi.a(PWM_5_PM.o)
 .debug_aranges
                0x000011d0       0x98 .\CortexM3\ARM_GCC_473\Debug\PSoC_2_Pi.a(PWM_6.o)
 .debug_aranges
                0x00001268       0x38 .\CortexM3\ARM_GCC_473\Debug\PSoC_2_Pi.a(PWM_6_PM.o)
 .debug_aranges
                0x000012a0       0x98 .\CortexM3\ARM_GCC_473\Debug\PSoC_2_Pi.a(PWM_7.o)
 .debug_aranges
                0x00001338       0x38 .\CortexM3\ARM_GCC_473\Debug\PSoC_2_Pi.a(PWM_7_PM.o)
 .debug_aranges
                0x00001370       0x98 .\CortexM3\ARM_GCC_473\Debug\PSoC_2_Pi.a(PWM_8.o)
 .debug_aranges
                0x00001408       0x38 .\CortexM3\ARM_GCC_473\Debug\PSoC_2_Pi.a(PWM_8_PM.o)
 .debug_aranges
                0x00001440       0x28 .\CortexM3\ARM_GCC_473\Debug\PSoC_2_Pi.a(Control_Reg_2.o)
 .debug_aranges
                0x00001468       0x40 .\CortexM3\ARM_GCC_473\Debug\PSoC_2_Pi.a(Status_Reg_2.o)
 .debug_aranges
                0x000014a8       0x30 .\CortexM3\ARM_GCC_473\Debug\PSoC_2_Pi.a(ADC_DelSig_1_AMux.o)
 .debug_aranges
                0x000014d8       0x70 .\CortexM3\ARM_GCC_473\Debug\PSoC_2_Pi.a(ADC_DelSig_1_Ext_CP_Clk.o)
 .debug_aranges
                0x00001548       0x80 .\CortexM3\ARM_GCC_473\Debug\PSoC_2_Pi.a(ADC_DelSig_1_theACLK.o)
 .debug_aranges
                0x000015c8       0x40 .\CortexM3\ARM_GCC_473\Debug\PSoC_2_Pi.a(WaveDAC8_1_BuffAmp.o)
 .debug_aranges
                0x00001608       0x28 .\CortexM3\ARM_GCC_473\Debug\PSoC_2_Pi.a(Control_Reg_3.o)
 .debug_aranges
                0x00001630       0x40 .\CortexM3\ARM_GCC_473\Debug\PSoC_2_Pi.a(Status_Reg_3.o)
 .debug_aranges
                0x00001670       0x70 .\CortexM3\ARM_GCC_473\Debug\PSoC_2_Pi.a(PWM_1_2_clk.o)
 .debug_aranges
                0x000016e0       0x70 .\CortexM3\ARM_GCC_473\Debug\PSoC_2_Pi.a(PWM_3_4_clk.o)
 .debug_aranges
                0x00001750       0x70 .\CortexM3\ARM_GCC_473\Debug\PSoC_2_Pi.a(PWM_5_6_clk.o)
 .debug_aranges
                0x000017c0       0x70 .\CortexM3\ARM_GCC_473\Debug\PSoC_2_Pi.a(PWM_7_8_clk.o)
 .debug_aranges
                0x00001830       0x38 .\CortexM3\ARM_GCC_473\Debug\PSoC_2_Pi.a(I2C_1.o)
 .debug_aranges
                0x00001868       0x20 .\CortexM3\ARM_GCC_473\Debug\PSoC_2_Pi.a(I2C_1_INT.o)
 .debug_aranges
                0x00001888       0x38 .\CortexM3\ARM_GCC_473\Debug\PSoC_2_Pi.a(I2C_1_PM.o)
 .debug_aranges
                0x000018c0       0x68 .\CortexM3\ARM_GCC_473\Debug\PSoC_2_Pi.a(I2C_1_SLAVE.o)
 .debug_aranges
                0x00001928       0x78 .\CortexM3\ARM_GCC_473\Debug\PSoC_2_Pi.a(CyFlash.o)
 .debug_aranges
                0x000019a0       0x68 .\CortexM3\ARM_GCC_473\Debug\PSoC_2_Pi.a(CySpc.o)

.debug_pubnames
 *(.debug_pubnames)

.debug_info     0x00000000     0xaedb
 *(.debug_info .gnu.linkonce.wi.*)
 .debug_info    0x00000000      0x24f .\CortexM3\ARM_GCC_473\Debug\main.o
 .debug_info    0x0000024f      0xa46 .\CortexM3\ARM_GCC_473\Debug\mem1.o
 .debug_info    0x00000c95       0xda .\CortexM3\ARM_GCC_473\Debug\cymetadata.o
 .debug_info    0x00000d6f      0x2ea .\CortexM3\ARM_GCC_473\Debug\Cm3Start.o
 .debug_info    0x00001059      0x16a .\CortexM3\ARM_GCC_473\Debug\cybootloader.o
 .debug_info    0x000011c3      0x49b .\CortexM3\ARM_GCC_473\Debug\PSoC_2_Pi.a(cyfitter_cfg.o)
 .debug_info    0x0000165e       0x9d .\CortexM3\ARM_GCC_473\Debug\PSoC_2_Pi.a(CyBootAsmGnu.o)
 .debug_info    0x000016fb      0x93a .\CortexM3\ARM_GCC_473\Debug\PSoC_2_Pi.a(CyDmac.o)
 .debug_info    0x00002035      0xcd7 .\CortexM3\ARM_GCC_473\Debug\PSoC_2_Pi.a(CyLib.o)
 .debug_info    0x00002d0c      0x5c3 .\CortexM3\ARM_GCC_473\Debug\PSoC_2_Pi.a(cyPm.o)
 .debug_info    0x000032cf      0x305 .\CortexM3\ARM_GCC_473\Debug\PSoC_2_Pi.a(PWM_1.o)
 .debug_info    0x000035d4      0x175 .\CortexM3\ARM_GCC_473\Debug\PSoC_2_Pi.a(PWM_1_PM.o)
 .debug_info    0x00003749      0x4cf .\CortexM3\ARM_GCC_473\Debug\PSoC_2_Pi.a(ADC_SAR_1.o)
 .debug_info    0x00003c18       0x9b .\CortexM3\ARM_GCC_473\Debug\PSoC_2_Pi.a(ADC_SAR_1_INT.o)
 .debug_info    0x00003cb3      0x12b .\CortexM3\ARM_GCC_473\Debug\PSoC_2_Pi.a(ADC_SAR_1_PM.o)
 .debug_info    0x00003dde      0x4cf .\CortexM3\ARM_GCC_473\Debug\PSoC_2_Pi.a(ADC_SAR_2.o)
 .debug_info    0x000042ad       0x9b .\CortexM3\ARM_GCC_473\Debug\PSoC_2_Pi.a(ADC_SAR_2_INT.o)
 .debug_info    0x00004348      0x12b .\CortexM3\ARM_GCC_473\Debug\PSoC_2_Pi.a(ADC_SAR_2_PM.o)
 .debug_info    0x00004473      0x2da .\CortexM3\ARM_GCC_473\Debug\PSoC_2_Pi.a(ADC_SAR_1_theACLK.o)
 .debug_info    0x0000474d      0x2da .\CortexM3\ARM_GCC_473\Debug\PSoC_2_Pi.a(ADC_SAR_2_theACLK.o)
 .debug_info    0x00004a27      0x1b0 .\CortexM3\ARM_GCC_473\Debug\PSoC_2_Pi.a(VDAC8_1.o)
 .debug_info    0x00004bd7      0x139 .\CortexM3\ARM_GCC_473\Debug\PSoC_2_Pi.a(VDAC8_1_PM.o)
 .debug_info    0x00004d10      0x1b0 .\CortexM3\ARM_GCC_473\Debug\PSoC_2_Pi.a(VDAC8_2.o)
 .debug_info    0x00004ec0      0x139 .\CortexM3\ARM_GCC_473\Debug\PSoC_2_Pi.a(VDAC8_2_PM.o)
 .debug_info    0x00004ff9      0x1dd .\CortexM3\ARM_GCC_473\Debug\PSoC_2_Pi.a(IDAC8_1.o)
 .debug_info    0x000051d6      0x139 .\CortexM3\ARM_GCC_473\Debug\PSoC_2_Pi.a(IDAC8_1_PM.o)
 .debug_info    0x0000530f      0x294 .\CortexM3\ARM_GCC_473\Debug\PSoC_2_Pi.a(WaveDAC_clk.o)
 .debug_info    0x000055a3      0x268 .\CortexM3\ARM_GCC_473\Debug\PSoC_2_Pi.a(WaveDAC8_1.o)
 .debug_info    0x0000580b      0x106 .\CortexM3\ARM_GCC_473\Debug\PSoC_2_Pi.a(WaveDAC8_1_PM.o)
 .debug_info    0x00005911      0x121 .\CortexM3\ARM_GCC_473\Debug\PSoC_2_Pi.a(WaveDAC8_1_Wave1_DMA_dma.o)
 .debug_info    0x00005a32      0x121 .\CortexM3\ARM_GCC_473\Debug\PSoC_2_Pi.a(WaveDAC8_1_Wave2_DMA_dma.o)
 .debug_info    0x00005b53      0x1b0 .\CortexM3\ARM_GCC_473\Debug\PSoC_2_Pi.a(WaveDAC8_1_VDAC8.o)
 .debug_info    0x00005d03      0x139 .\CortexM3\ARM_GCC_473\Debug\PSoC_2_Pi.a(WaveDAC8_1_VDAC8_PM.o)
 .debug_info    0x00005e3c       0xe3 .\CortexM3\ARM_GCC_473\Debug\PSoC_2_Pi.a(Control_Reg_1.o)
 .debug_info    0x00005f1f      0x156 .\CortexM3\ARM_GCC_473\Debug\PSoC_2_Pi.a(Status_Reg_1.o)
 .debug_info    0x00006075      0x7a9 .\CortexM3\ARM_GCC_473\Debug\PSoC_2_Pi.a(ADC_DelSig_1.o)
 .debug_info    0x0000681e      0x140 .\CortexM3\ARM_GCC_473\Debug\PSoC_2_Pi.a(ADC_DelSig_1_PM.o)
 .debug_info    0x0000695e       0xe4 .\CortexM3\ARM_GCC_473\Debug\PSoC_2_Pi.a(ADC_DelSig_1_INT.o)
 .debug_info    0x00006a42      0x305 .\CortexM3\ARM_GCC_473\Debug\PSoC_2_Pi.a(PWM_2.o)
 .debug_info    0x00006d47      0x175 .\CortexM3\ARM_GCC_473\Debug\PSoC_2_Pi.a(PWM_2_PM.o)
 .debug_info    0x00006ebc      0x305 .\CortexM3\ARM_GCC_473\Debug\PSoC_2_Pi.a(PWM_3.o)
 .debug_info    0x000071c1      0x175 .\CortexM3\ARM_GCC_473\Debug\PSoC_2_Pi.a(PWM_3_PM.o)
 .debug_info    0x00007336      0x305 .\CortexM3\ARM_GCC_473\Debug\PSoC_2_Pi.a(PWM_4.o)
 .debug_info    0x0000763b      0x175 .\CortexM3\ARM_GCC_473\Debug\PSoC_2_Pi.a(PWM_4_PM.o)
 .debug_info    0x000077b0      0x305 .\CortexM3\ARM_GCC_473\Debug\PSoC_2_Pi.a(PWM_5.o)
 .debug_info    0x00007ab5      0x175 .\CortexM3\ARM_GCC_473\Debug\PSoC_2_Pi.a(PWM_5_PM.o)
 .debug_info    0x00007c2a      0x305 .\CortexM3\ARM_GCC_473\Debug\PSoC_2_Pi.a(PWM_6.o)
 .debug_info    0x00007f2f      0x175 .\CortexM3\ARM_GCC_473\Debug\PSoC_2_Pi.a(PWM_6_PM.o)
 .debug_info    0x000080a4      0x305 .\CortexM3\ARM_GCC_473\Debug\PSoC_2_Pi.a(PWM_7.o)
 .debug_info    0x000083a9      0x175 .\CortexM3\ARM_GCC_473\Debug\PSoC_2_Pi.a(PWM_7_PM.o)
 .debug_info    0x0000851e      0x305 .\CortexM3\ARM_GCC_473\Debug\PSoC_2_Pi.a(PWM_8.o)
 .debug_info    0x00008823      0x175 .\CortexM3\ARM_GCC_473\Debug\PSoC_2_Pi.a(PWM_8_PM.o)
 .debug_info    0x00008998       0xe3 .\CortexM3\ARM_GCC_473\Debug\PSoC_2_Pi.a(Control_Reg_2.o)
 .debug_info    0x00008a7b      0x156 .\CortexM3\ARM_GCC_473\Debug\PSoC_2_Pi.a(Status_Reg_2.o)
 .debug_info    0x00008bd1      0x11c .\CortexM3\ARM_GCC_473\Debug\PSoC_2_Pi.a(ADC_DelSig_1_AMux.o)
 .debug_info    0x00008ced      0x294 .\CortexM3\ARM_GCC_473\Debug\PSoC_2_Pi.a(ADC_DelSig_1_Ext_CP_Clk.o)
 .debug_info    0x00008f81      0x2da .\CortexM3\ARM_GCC_473\Debug\PSoC_2_Pi.a(ADC_DelSig_1_theACLK.o)
 .debug_info    0x0000925b      0x13a .\CortexM3\ARM_GCC_473\Debug\PSoC_2_Pi.a(WaveDAC8_1_BuffAmp.o)
 .debug_info    0x00009395       0xe3 .\CortexM3\ARM_GCC_473\Debug\PSoC_2_Pi.a(Control_Reg_3.o)
 .debug_info    0x00009478      0x156 .\CortexM3\ARM_GCC_473\Debug\PSoC_2_Pi.a(Status_Reg_3.o)
 .debug_info    0x000095ce      0x294 .\CortexM3\ARM_GCC_473\Debug\PSoC_2_Pi.a(PWM_1_2_clk.o)
 .debug_info    0x00009862      0x294 .\CortexM3\ARM_GCC_473\Debug\PSoC_2_Pi.a(PWM_3_4_clk.o)
 .debug_info    0x00009af6      0x294 .\CortexM3\ARM_GCC_473\Debug\PSoC_2_Pi.a(PWM_5_6_clk.o)
 .debug_info    0x00009d8a      0x294 .\CortexM3\ARM_GCC_473\Debug\PSoC_2_Pi.a(PWM_7_8_clk.o)
 .debug_info    0x0000a01e      0x1f1 .\CortexM3\ARM_GCC_473\Debug\PSoC_2_Pi.a(I2C_1.o)
 .debug_info    0x0000a20f      0x14c .\CortexM3\ARM_GCC_473\Debug\PSoC_2_Pi.a(I2C_1_INT.o)
 .debug_info    0x0000a35b      0x1b3 .\CortexM3\ARM_GCC_473\Debug\PSoC_2_Pi.a(I2C_1_PM.o)
 .debug_info    0x0000a50e      0x2a0 .\CortexM3\ARM_GCC_473\Debug\PSoC_2_Pi.a(I2C_1_SLAVE.o)
 .debug_info    0x0000a7ae      0x354 .\CortexM3\ARM_GCC_473\Debug\PSoC_2_Pi.a(CyFlash.o)
 .debug_info    0x0000ab02      0x3d9 .\CortexM3\ARM_GCC_473\Debug\PSoC_2_Pi.a(CySpc.o)

.debug_abbrev   0x00000000     0x3d6c
 *(.debug_abbrev)
 .debug_abbrev  0x00000000       0xfa .\CortexM3\ARM_GCC_473\Debug\main.o
 .debug_abbrev  0x000000fa      0x105 .\CortexM3\ARM_GCC_473\Debug\mem1.o
 .debug_abbrev  0x000001ff       0x66 .\CortexM3\ARM_GCC_473\Debug\cymetadata.o
 .debug_abbrev  0x00000265      0x175 .\CortexM3\ARM_GCC_473\Debug\Cm3Start.o
 .debug_abbrev  0x000003da       0x77 .\CortexM3\ARM_GCC_473\Debug\cybootloader.o
 .debug_abbrev  0x00000451      0x1c3 .\CortexM3\ARM_GCC_473\Debug\PSoC_2_Pi.a(cyfitter_cfg.o)
 .debug_abbrev  0x00000614       0x14 .\CortexM3\ARM_GCC_473\Debug\PSoC_2_Pi.a(CyBootAsmGnu.o)
 .debug_abbrev  0x00000628      0x189 .\CortexM3\ARM_GCC_473\Debug\PSoC_2_Pi.a(CyDmac.o)
 .debug_abbrev  0x000007b1      0x207 .\CortexM3\ARM_GCC_473\Debug\PSoC_2_Pi.a(CyLib.o)
 .debug_abbrev  0x000009b8      0x170 .\CortexM3\ARM_GCC_473\Debug\PSoC_2_Pi.a(cyPm.o)
 .debug_abbrev  0x00000b28      0x130 .\CortexM3\ARM_GCC_473\Debug\PSoC_2_Pi.a(PWM_1.o)
 .debug_abbrev  0x00000c58       0x83 .\CortexM3\ARM_GCC_473\Debug\PSoC_2_Pi.a(PWM_1_PM.o)
 .debug_abbrev  0x00000cdb      0x175 .\CortexM3\ARM_GCC_473\Debug\PSoC_2_Pi.a(ADC_SAR_1.o)
 .debug_abbrev  0x00000e50       0x44 .\CortexM3\ARM_GCC_473\Debug\PSoC_2_Pi.a(ADC_SAR_1_INT.o)
 .debug_abbrev  0x00000e94       0x9b .\CortexM3\ARM_GCC_473\Debug\PSoC_2_Pi.a(ADC_SAR_1_PM.o)
 .debug_abbrev  0x00000f2f      0x175 .\CortexM3\ARM_GCC_473\Debug\PSoC_2_Pi.a(ADC_SAR_2.o)
 .debug_abbrev  0x000010a4       0x44 .\CortexM3\ARM_GCC_473\Debug\PSoC_2_Pi.a(ADC_SAR_2_INT.o)
 .debug_abbrev  0x000010e8       0x9b .\CortexM3\ARM_GCC_473\Debug\PSoC_2_Pi.a(ADC_SAR_2_PM.o)
 .debug_abbrev  0x00001183      0x11f .\CortexM3\ARM_GCC_473\Debug\PSoC_2_Pi.a(ADC_SAR_1_theACLK.o)
 .debug_abbrev  0x000012a2      0x11f .\CortexM3\ARM_GCC_473\Debug\PSoC_2_Pi.a(ADC_SAR_2_theACLK.o)
 .debug_abbrev  0x000013c1       0xed .\CortexM3\ARM_GCC_473\Debug\PSoC_2_Pi.a(VDAC8_1.o)
 .debug_abbrev  0x000014ae       0x9b .\CortexM3\ARM_GCC_473\Debug\PSoC_2_Pi.a(VDAC8_1_PM.o)
 .debug_abbrev  0x00001549       0xed .\CortexM3\ARM_GCC_473\Debug\PSoC_2_Pi.a(VDAC8_2.o)
 .debug_abbrev  0x00001636       0x9b .\CortexM3\ARM_GCC_473\Debug\PSoC_2_Pi.a(VDAC8_2_PM.o)
 .debug_abbrev  0x000016d1      0x116 .\CortexM3\ARM_GCC_473\Debug\PSoC_2_Pi.a(IDAC8_1.o)
 .debug_abbrev  0x000017e7       0x9b .\CortexM3\ARM_GCC_473\Debug\PSoC_2_Pi.a(IDAC8_1_PM.o)
 .debug_abbrev  0x00001882      0x11f .\CortexM3\ARM_GCC_473\Debug\PSoC_2_Pi.a(WaveDAC_clk.o)
 .debug_abbrev  0x000019a1       0xe5 .\CortexM3\ARM_GCC_473\Debug\PSoC_2_Pi.a(WaveDAC8_1.o)
 .debug_abbrev  0x00001a86       0x83 .\CortexM3\ARM_GCC_473\Debug\PSoC_2_Pi.a(WaveDAC8_1_PM.o)
 .debug_abbrev  0x00001b09       0x8d .\CortexM3\ARM_GCC_473\Debug\PSoC_2_Pi.a(WaveDAC8_1_Wave1_DMA_dma.o)
 .debug_abbrev  0x00001b96       0x8d .\CortexM3\ARM_GCC_473\Debug\PSoC_2_Pi.a(WaveDAC8_1_Wave2_DMA_dma.o)
 .debug_abbrev  0x00001c23       0xed .\CortexM3\ARM_GCC_473\Debug\PSoC_2_Pi.a(WaveDAC8_1_VDAC8.o)
 .debug_abbrev  0x00001d10       0x9b .\CortexM3\ARM_GCC_473\Debug\PSoC_2_Pi.a(WaveDAC8_1_VDAC8_PM.o)
 .debug_abbrev  0x00001dab       0x83 .\CortexM3\ARM_GCC_473\Debug\PSoC_2_Pi.a(Control_Reg_1.o)
 .debug_abbrev  0x00001e2e       0xac .\CortexM3\ARM_GCC_473\Debug\PSoC_2_Pi.a(Status_Reg_1.o)
 .debug_abbrev  0x00001eda      0x192 .\CortexM3\ARM_GCC_473\Debug\PSoC_2_Pi.a(ADC_DelSig_1.o)
 .debug_abbrev  0x0000206c       0x9b .\CortexM3\ARM_GCC_473\Debug\PSoC_2_Pi.a(ADC_DelSig_1_PM.o)
 .debug_abbrev  0x00002107       0x44 .\CortexM3\ARM_GCC_473\Debug\PSoC_2_Pi.a(ADC_DelSig_1_INT.o)
 .debug_abbrev  0x0000214b      0x130 .\CortexM3\ARM_GCC_473\Debug\PSoC_2_Pi.a(PWM_2.o)
 .debug_abbrev  0x0000227b       0x83 .\CortexM3\ARM_GCC_473\Debug\PSoC_2_Pi.a(PWM_2_PM.o)
 .debug_abbrev  0x000022fe      0x130 .\CortexM3\ARM_GCC_473\Debug\PSoC_2_Pi.a(PWM_3.o)
 .debug_abbrev  0x0000242e       0x83 .\CortexM3\ARM_GCC_473\Debug\PSoC_2_Pi.a(PWM_3_PM.o)
 .debug_abbrev  0x000024b1      0x130 .\CortexM3\ARM_GCC_473\Debug\PSoC_2_Pi.a(PWM_4.o)
 .debug_abbrev  0x000025e1       0x83 .\CortexM3\ARM_GCC_473\Debug\PSoC_2_Pi.a(PWM_4_PM.o)
 .debug_abbrev  0x00002664      0x130 .\CortexM3\ARM_GCC_473\Debug\PSoC_2_Pi.a(PWM_5.o)
 .debug_abbrev  0x00002794       0x83 .\CortexM3\ARM_GCC_473\Debug\PSoC_2_Pi.a(PWM_5_PM.o)
 .debug_abbrev  0x00002817      0x130 .\CortexM3\ARM_GCC_473\Debug\PSoC_2_Pi.a(PWM_6.o)
 .debug_abbrev  0x00002947       0x83 .\CortexM3\ARM_GCC_473\Debug\PSoC_2_Pi.a(PWM_6_PM.o)
 .debug_abbrev  0x000029ca      0x130 .\CortexM3\ARM_GCC_473\Debug\PSoC_2_Pi.a(PWM_7.o)
 .debug_abbrev  0x00002afa       0x83 .\CortexM3\ARM_GCC_473\Debug\PSoC_2_Pi.a(PWM_7_PM.o)
 .debug_abbrev  0x00002b7d      0x130 .\CortexM3\ARM_GCC_473\Debug\PSoC_2_Pi.a(PWM_8.o)
 .debug_abbrev  0x00002cad       0x83 .\CortexM3\ARM_GCC_473\Debug\PSoC_2_Pi.a(PWM_8_PM.o)
 .debug_abbrev  0x00002d30       0x83 .\CortexM3\ARM_GCC_473\Debug\PSoC_2_Pi.a(Control_Reg_2.o)
 .debug_abbrev  0x00002db3       0xac .\CortexM3\ARM_GCC_473\Debug\PSoC_2_Pi.a(Status_Reg_2.o)
 .debug_abbrev  0x00002e5f       0x71 .\CortexM3\ARM_GCC_473\Debug\PSoC_2_Pi.a(ADC_DelSig_1_AMux.o)
 .debug_abbrev  0x00002ed0      0x11f .\CortexM3\ARM_GCC_473\Debug\PSoC_2_Pi.a(ADC_DelSig_1_Ext_CP_Clk.o)
 .debug_abbrev  0x00002fef      0x11f .\CortexM3\ARM_GCC_473\Debug\PSoC_2_Pi.a(ADC_DelSig_1_theACLK.o)
 .debug_abbrev  0x0000310e       0xaa .\CortexM3\ARM_GCC_473\Debug\PSoC_2_Pi.a(WaveDAC8_1_BuffAmp.o)
 .debug_abbrev  0x000031b8       0x83 .\CortexM3\ARM_GCC_473\Debug\PSoC_2_Pi.a(Control_Reg_3.o)
 .debug_abbrev  0x0000323b       0xac .\CortexM3\ARM_GCC_473\Debug\PSoC_2_Pi.a(Status_Reg_3.o)
 .debug_abbrev  0x000032e7      0x11f .\CortexM3\ARM_GCC_473\Debug\PSoC_2_Pi.a(PWM_1_2_clk.o)
 .debug_abbrev  0x00003406      0x11f .\CortexM3\ARM_GCC_473\Debug\PSoC_2_Pi.a(PWM_3_4_clk.o)
 .debug_abbrev  0x00003525      0x11f .\CortexM3\ARM_GCC_473\Debug\PSoC_2_Pi.a(PWM_5_6_clk.o)
 .debug_abbrev  0x00003644      0x11f .\CortexM3\ARM_GCC_473\Debug\PSoC_2_Pi.a(PWM_7_8_clk.o)
 .debug_abbrev  0x00003763       0xce .\CortexM3\ARM_GCC_473\Debug\PSoC_2_Pi.a(I2C_1.o)
 .debug_abbrev  0x00003831       0x83 .\CortexM3\ARM_GCC_473\Debug\PSoC_2_Pi.a(I2C_1_INT.o)
 .debug_abbrev  0x000038b4       0xed .\CortexM3\ARM_GCC_473\Debug\PSoC_2_Pi.a(I2C_1_PM.o)
 .debug_abbrev  0x000039a1       0xfa .\CortexM3\ARM_GCC_473\Debug\PSoC_2_Pi.a(I2C_1_SLAVE.o)
 .debug_abbrev  0x00003a9b      0x172 .\CortexM3\ARM_GCC_473\Debug\PSoC_2_Pi.a(CyFlash.o)
 .debug_abbrev  0x00003c0d      0x15f .\CortexM3\ARM_GCC_473\Debug\PSoC_2_Pi.a(CySpc.o)

.debug_line     0x00000000     0x5a12
 *(.debug_line)
 .debug_line    0x00000000      0x19d .\CortexM3\ARM_GCC_473\Debug\main.o
 .debug_line    0x0000019d      0x48f .\CortexM3\ARM_GCC_473\Debug\mem1.o
 .debug_line    0x0000062c       0x53 .\CortexM3\ARM_GCC_473\Debug\cymetadata.o
 .debug_line    0x0000067f      0x1ae .\CortexM3\ARM_GCC_473\Debug\Cm3Start.o
 .debug_line    0x0000082d       0x55 .\CortexM3\ARM_GCC_473\Debug\cybootloader.o
 .debug_line    0x00000882      0x25f .\CortexM3\ARM_GCC_473\Debug\PSoC_2_Pi.a(cyfitter_cfg.o)
 .debug_line    0x00000ae1       0x68 .\CortexM3\ARM_GCC_473\Debug\PSoC_2_Pi.a(CyBootAsmGnu.o)
 .debug_line    0x00000b49      0x2bc .\CortexM3\ARM_GCC_473\Debug\PSoC_2_Pi.a(CyDmac.o)
 .debug_line    0x00000e05      0x73b .\CortexM3\ARM_GCC_473\Debug\PSoC_2_Pi.a(CyLib.o)
 .debug_line    0x00001540      0x370 .\CortexM3\ARM_GCC_473\Debug\PSoC_2_Pi.a(cyPm.o)
 .debug_line    0x000018b0      0x190 .\CortexM3\ARM_GCC_473\Debug\PSoC_2_Pi.a(PWM_1.o)
 .debug_line    0x00001a40       0xb3 .\CortexM3\ARM_GCC_473\Debug\PSoC_2_Pi.a(PWM_1_PM.o)
 .debug_line    0x00001af3      0x205 .\CortexM3\ARM_GCC_473\Debug\PSoC_2_Pi.a(ADC_SAR_1.o)
 .debug_line    0x00001cf8       0x5b .\CortexM3\ARM_GCC_473\Debug\PSoC_2_Pi.a(ADC_SAR_1_INT.o)
 .debug_line    0x00001d53       0xb1 .\CortexM3\ARM_GCC_473\Debug\PSoC_2_Pi.a(ADC_SAR_1_PM.o)
 .debug_line    0x00001e04      0x205 .\CortexM3\ARM_GCC_473\Debug\PSoC_2_Pi.a(ADC_SAR_2.o)
 .debug_line    0x00002009       0x5b .\CortexM3\ARM_GCC_473\Debug\PSoC_2_Pi.a(ADC_SAR_2_INT.o)
 .debug_line    0x00002064       0xb1 .\CortexM3\ARM_GCC_473\Debug\PSoC_2_Pi.a(ADC_SAR_2_PM.o)
 .debug_line    0x00002115      0x1cc .\CortexM3\ARM_GCC_473\Debug\PSoC_2_Pi.a(ADC_SAR_1_theACLK.o)
 .debug_line    0x000022e1      0x1cc .\CortexM3\ARM_GCC_473\Debug\PSoC_2_Pi.a(ADC_SAR_2_theACLK.o)
 .debug_line    0x000024ad       0xf4 .\CortexM3\ARM_GCC_473\Debug\PSoC_2_Pi.a(VDAC8_1.o)
 .debug_line    0x000025a1       0xb3 .\CortexM3\ARM_GCC_473\Debug\PSoC_2_Pi.a(VDAC8_1_PM.o)
 .debug_line    0x00002654       0xf4 .\CortexM3\ARM_GCC_473\Debug\PSoC_2_Pi.a(VDAC8_2.o)
 .debug_line    0x00002748       0xb3 .\CortexM3\ARM_GCC_473\Debug\PSoC_2_Pi.a(VDAC8_2_PM.o)
 .debug_line    0x000027fb      0x10c .\CortexM3\ARM_GCC_473\Debug\PSoC_2_Pi.a(IDAC8_1.o)
 .debug_line    0x00002907       0xb3 .\CortexM3\ARM_GCC_473\Debug\PSoC_2_Pi.a(IDAC8_1_PM.o)
 .debug_line    0x000029ba      0x1a2 .\CortexM3\ARM_GCC_473\Debug\PSoC_2_Pi.a(WaveDAC_clk.o)
 .debug_line    0x00002b5c       0xf6 .\CortexM3\ARM_GCC_473\Debug\PSoC_2_Pi.a(WaveDAC8_1.o)
 .debug_line    0x00002c52       0xab .\CortexM3\ARM_GCC_473\Debug\PSoC_2_Pi.a(WaveDAC8_1_PM.o)
 .debug_line    0x00002cfd       0x8a .\CortexM3\ARM_GCC_473\Debug\PSoC_2_Pi.a(WaveDAC8_1_Wave1_DMA_dma.o)
 .debug_line    0x00002d87       0x8a .\CortexM3\ARM_GCC_473\Debug\PSoC_2_Pi.a(WaveDAC8_1_Wave2_DMA_dma.o)
 .debug_line    0x00002e11       0xfc .\CortexM3\ARM_GCC_473\Debug\PSoC_2_Pi.a(WaveDAC8_1_VDAC8.o)
 .debug_line    0x00002f0d       0xc5 .\CortexM3\ARM_GCC_473\Debug\PSoC_2_Pi.a(WaveDAC8_1_VDAC8_PM.o)
 .debug_line    0x00002fd2       0x78 .\CortexM3\ARM_GCC_473\Debug\PSoC_2_Pi.a(Control_Reg_1.o)
 .debug_line    0x0000304a       0xb2 .\CortexM3\ARM_GCC_473\Debug\PSoC_2_Pi.a(Status_Reg_1.o)
 .debug_line    0x000030fc      0x36b .\CortexM3\ARM_GCC_473\Debug\PSoC_2_Pi.a(ADC_DelSig_1.o)
 .debug_line    0x00003467       0xc5 .\CortexM3\ARM_GCC_473\Debug\PSoC_2_Pi.a(ADC_DelSig_1_PM.o)
 .debug_line    0x0000352c       0x97 .\CortexM3\ARM_GCC_473\Debug\PSoC_2_Pi.a(ADC_DelSig_1_INT.o)
 .debug_line    0x000035c3      0x190 .\CortexM3\ARM_GCC_473\Debug\PSoC_2_Pi.a(PWM_2.o)
 .debug_line    0x00003753       0xb3 .\CortexM3\ARM_GCC_473\Debug\PSoC_2_Pi.a(PWM_2_PM.o)
 .debug_line    0x00003806      0x190 .\CortexM3\ARM_GCC_473\Debug\PSoC_2_Pi.a(PWM_3.o)
 .debug_line    0x00003996       0xb3 .\CortexM3\ARM_GCC_473\Debug\PSoC_2_Pi.a(PWM_3_PM.o)
 .debug_line    0x00003a49      0x190 .\CortexM3\ARM_GCC_473\Debug\PSoC_2_Pi.a(PWM_4.o)
 .debug_line    0x00003bd9       0xb3 .\CortexM3\ARM_GCC_473\Debug\PSoC_2_Pi.a(PWM_4_PM.o)
 .debug_line    0x00003c8c      0x190 .\CortexM3\ARM_GCC_473\Debug\PSoC_2_Pi.a(PWM_5.o)
 .debug_line    0x00003e1c       0xb3 .\CortexM3\ARM_GCC_473\Debug\PSoC_2_Pi.a(PWM_5_PM.o)
 .debug_line    0x00003ecf      0x190 .\CortexM3\ARM_GCC_473\Debug\PSoC_2_Pi.a(PWM_6.o)
 .debug_line    0x0000405f       0xb3 .\CortexM3\ARM_GCC_473\Debug\PSoC_2_Pi.a(PWM_6_PM.o)
 .debug_line    0x00004112      0x190 .\CortexM3\ARM_GCC_473\Debug\PSoC_2_Pi.a(PWM_7.o)
 .debug_line    0x000042a2       0xb3 .\CortexM3\ARM_GCC_473\Debug\PSoC_2_Pi.a(PWM_7_PM.o)
 .debug_line    0x00004355      0x190 .\CortexM3\ARM_GCC_473\Debug\PSoC_2_Pi.a(PWM_8.o)
 .debug_line    0x000044e5       0xb3 .\CortexM3\ARM_GCC_473\Debug\PSoC_2_Pi.a(PWM_8_PM.o)
 .debug_line    0x00004598       0x78 .\CortexM3\ARM_GCC_473\Debug\PSoC_2_Pi.a(Control_Reg_2.o)
 .debug_line    0x00004610       0xb2 .\CortexM3\ARM_GCC_473\Debug\PSoC_2_Pi.a(Status_Reg_2.o)
 .debug_line    0x000046c2       0xa8 .\CortexM3\ARM_GCC_473\Debug\PSoC_2_Pi.a(ADC_DelSig_1_AMux.o)
 .debug_line    0x0000476a      0x1ae .\CortexM3\ARM_GCC_473\Debug\PSoC_2_Pi.a(ADC_DelSig_1_Ext_CP_Clk.o)
 .debug_line    0x00004918      0x1cf .\CortexM3\ARM_GCC_473\Debug\PSoC_2_Pi.a(ADC_DelSig_1_theACLK.o)
 .debug_line    0x00004ae7       0xbd .\CortexM3\ARM_GCC_473\Debug\PSoC_2_Pi.a(WaveDAC8_1_BuffAmp.o)
 .debug_line    0x00004ba4       0x78 .\CortexM3\ARM_GCC_473\Debug\PSoC_2_Pi.a(Control_Reg_3.o)
 .debug_line    0x00004c1c       0xb1 .\CortexM3\ARM_GCC_473\Debug\PSoC_2_Pi.a(Status_Reg_3.o)
 .debug_line    0x00004ccd      0x1a2 .\CortexM3\ARM_GCC_473\Debug\PSoC_2_Pi.a(PWM_1_2_clk.o)
 .debug_line    0x00004e6f      0x1a2 .\CortexM3\ARM_GCC_473\Debug\PSoC_2_Pi.a(PWM_3_4_clk.o)
 .debug_line    0x00005011      0x1a2 .\CortexM3\ARM_GCC_473\Debug\PSoC_2_Pi.a(PWM_5_6_clk.o)
 .debug_line    0x000051b3      0x1a2 .\CortexM3\ARM_GCC_473\Debug\PSoC_2_Pi.a(PWM_7_8_clk.o)
 .debug_line    0x00005355       0xdc .\CortexM3\ARM_GCC_473\Debug\PSoC_2_Pi.a(I2C_1.o)
 .debug_line    0x00005431       0xc0 .\CortexM3\ARM_GCC_473\Debug\PSoC_2_Pi.a(I2C_1_INT.o)
 .debug_line    0x000054f1       0xc0 .\CortexM3\ARM_GCC_473\Debug\PSoC_2_Pi.a(I2C_1_PM.o)
 .debug_line    0x000055b1      0x111 .\CortexM3\ARM_GCC_473\Debug\PSoC_2_Pi.a(I2C_1_SLAVE.o)
 .debug_line    0x000056c2      0x1a9 .\CortexM3\ARM_GCC_473\Debug\PSoC_2_Pi.a(CyFlash.o)
 .debug_line    0x0000586b      0x1a7 .\CortexM3\ARM_GCC_473\Debug\PSoC_2_Pi.a(CySpc.o)

.debug_frame    0x00000000     0x4c6c
 *(.debug_frame)
 .debug_frame   0x00000000       0x70 .\CortexM3\ARM_GCC_473\Debug\main.o
 .debug_frame   0x00000070      0x2f8 .\CortexM3\ARM_GCC_473\Debug\mem1.o
 .debug_frame   0x00000368       0xa4 .\CortexM3\ARM_GCC_473\Debug\Cm3Start.o
 .debug_frame   0x0000040c      0x158 .\CortexM3\ARM_GCC_473\Debug\PSoC_2_Pi.a(cyfitter_cfg.o)
 .debug_frame   0x00000564      0x2c0 .\CortexM3\ARM_GCC_473\Debug\PSoC_2_Pi.a(CyDmac.o)
 .debug_frame   0x00000824      0x778 .\CortexM3\ARM_GCC_473\Debug\PSoC_2_Pi.a(CyLib.o)
 .debug_frame   0x00000f9c      0x1d0 .\CortexM3\ARM_GCC_473\Debug\PSoC_2_Pi.a(cyPm.o)
 .debug_frame   0x0000116c      0x1d4 .\CortexM3\ARM_GCC_473\Debug\PSoC_2_Pi.a(PWM_1.o)
 .debug_frame   0x00001340       0x80 .\CortexM3\ARM_GCC_473\Debug\PSoC_2_Pi.a(PWM_1_PM.o)
 .debug_frame   0x000013c0      0x22c .\CortexM3\ARM_GCC_473\Debug\PSoC_2_Pi.a(ADC_SAR_1.o)
 .debug_frame   0x000015ec       0x2c .\CortexM3\ARM_GCC_473\Debug\PSoC_2_Pi.a(ADC_SAR_1_INT.o)
 .debug_frame   0x00001618       0x80 .\CortexM3\ARM_GCC_473\Debug\PSoC_2_Pi.a(ADC_SAR_1_PM.o)
 .debug_frame   0x00001698      0x22c .\CortexM3\ARM_GCC_473\Debug\PSoC_2_Pi.a(ADC_SAR_2.o)
 .debug_frame   0x000018c4       0x2c .\CortexM3\ARM_GCC_473\Debug\PSoC_2_Pi.a(ADC_SAR_2_INT.o)
 .debug_frame   0x000018f0       0x80 .\CortexM3\ARM_GCC_473\Debug\PSoC_2_Pi.a(ADC_SAR_2_PM.o)
 .debug_frame   0x00001970      0x184 .\CortexM3\ARM_GCC_473\Debug\PSoC_2_Pi.a(ADC_SAR_1_theACLK.o)
 .debug_frame   0x00001af4      0x184 .\CortexM3\ARM_GCC_473\Debug\PSoC_2_Pi.a(ADC_SAR_2_theACLK.o)
 .debug_frame   0x00001c78       0xf4 .\CortexM3\ARM_GCC_473\Debug\PSoC_2_Pi.a(VDAC8_1.o)
 .debug_frame   0x00001d6c       0x80 .\CortexM3\ARM_GCC_473\Debug\PSoC_2_Pi.a(VDAC8_1_PM.o)
 .debug_frame   0x00001dec       0xf4 .\CortexM3\ARM_GCC_473\Debug\PSoC_2_Pi.a(VDAC8_2.o)
 .debug_frame   0x00001ee0       0x80 .\CortexM3\ARM_GCC_473\Debug\PSoC_2_Pi.a(VDAC8_2_PM.o)
 .debug_frame   0x00001f60      0x114 .\CortexM3\ARM_GCC_473\Debug\PSoC_2_Pi.a(IDAC8_1.o)
 .debug_frame   0x00002074       0x80 .\CortexM3\ARM_GCC_473\Debug\PSoC_2_Pi.a(IDAC8_1_PM.o)
 .debug_frame   0x000020f4      0x14c .\CortexM3\ARM_GCC_473\Debug\PSoC_2_Pi.a(WaveDAC_clk.o)
 .debug_frame   0x00002240       0xe0 .\CortexM3\ARM_GCC_473\Debug\PSoC_2_Pi.a(WaveDAC8_1.o)
 .debug_frame   0x00002320       0x48 .\CortexM3\ARM_GCC_473\Debug\PSoC_2_Pi.a(WaveDAC8_1_PM.o)
 .debug_frame   0x00002368       0x4c .\CortexM3\ARM_GCC_473\Debug\PSoC_2_Pi.a(WaveDAC8_1_Wave1_DMA_dma.o)
 .debug_frame   0x000023b4       0x4c .\CortexM3\ARM_GCC_473\Debug\PSoC_2_Pi.a(WaveDAC8_1_Wave2_DMA_dma.o)
 .debug_frame   0x00002400       0xf4 .\CortexM3\ARM_GCC_473\Debug\PSoC_2_Pi.a(WaveDAC8_1_VDAC8.o)
 .debug_frame   0x000024f4       0x80 .\CortexM3\ARM_GCC_473\Debug\PSoC_2_Pi.a(WaveDAC8_1_VDAC8_PM.o)
 .debug_frame   0x00002574       0x48 .\CortexM3\ARM_GCC_473\Debug\PSoC_2_Pi.a(Control_Reg_1.o)
 .debug_frame   0x000025bc       0xa4 .\CortexM3\ARM_GCC_473\Debug\PSoC_2_Pi.a(Status_Reg_1.o)
 .debug_frame   0x00002660      0x31c .\CortexM3\ARM_GCC_473\Debug\PSoC_2_Pi.a(ADC_DelSig_1.o)
 .debug_frame   0x0000297c       0x80 .\CortexM3\ARM_GCC_473\Debug\PSoC_2_Pi.a(ADC_DelSig_1_PM.o)
 .debug_frame   0x000029fc       0x80 .\CortexM3\ARM_GCC_473\Debug\PSoC_2_Pi.a(ADC_DelSig_1_INT.o)
 .debug_frame   0x00002a7c      0x1d4 .\CortexM3\ARM_GCC_473\Debug\PSoC_2_Pi.a(PWM_2.o)
 .debug_frame   0x00002c50       0x80 .\CortexM3\ARM_GCC_473\Debug\PSoC_2_Pi.a(PWM_2_PM.o)
 .debug_frame   0x00002cd0      0x1d4 .\CortexM3\ARM_GCC_473\Debug\PSoC_2_Pi.a(PWM_3.o)
 .debug_frame   0x00002ea4       0x80 .\CortexM3\ARM_GCC_473\Debug\PSoC_2_Pi.a(PWM_3_PM.o)
 .debug_frame   0x00002f24      0x1d4 .\CortexM3\ARM_GCC_473\Debug\PSoC_2_Pi.a(PWM_4.o)
 .debug_frame   0x000030f8       0x80 .\CortexM3\ARM_GCC_473\Debug\PSoC_2_Pi.a(PWM_4_PM.o)
 .debug_frame   0x00003178      0x1d4 .\CortexM3\ARM_GCC_473\Debug\PSoC_2_Pi.a(PWM_5.o)
 .debug_frame   0x0000334c       0x80 .\CortexM3\ARM_GCC_473\Debug\PSoC_2_Pi.a(PWM_5_PM.o)
 .debug_frame   0x000033cc      0x1d4 .\CortexM3\ARM_GCC_473\Debug\PSoC_2_Pi.a(PWM_6.o)
 .debug_frame   0x000035a0       0x80 .\CortexM3\ARM_GCC_473\Debug\PSoC_2_Pi.a(PWM_6_PM.o)
 .debug_frame   0x00003620      0x1d4 .\CortexM3\ARM_GCC_473\Debug\PSoC_2_Pi.a(PWM_7.o)
 .debug_frame   0x000037f4       0x80 .\CortexM3\ARM_GCC_473\Debug\PSoC_2_Pi.a(PWM_7_PM.o)
 .debug_frame   0x00003874      0x1d4 .\CortexM3\ARM_GCC_473\Debug\PSoC_2_Pi.a(PWM_8.o)
 .debug_frame   0x00003a48       0x80 .\CortexM3\ARM_GCC_473\Debug\PSoC_2_Pi.a(PWM_8_PM.o)
 .debug_frame   0x00003ac8       0x48 .\CortexM3\ARM_GCC_473\Debug\PSoC_2_Pi.a(Control_Reg_2.o)
 .debug_frame   0x00003b10       0xa4 .\CortexM3\ARM_GCC_473\Debug\PSoC_2_Pi.a(Status_Reg_2.o)
 .debug_frame   0x00003bb4       0x70 .\CortexM3\ARM_GCC_473\Debug\PSoC_2_Pi.a(ADC_DelSig_1_AMux.o)
 .debug_frame   0x00003c24      0x14c .\CortexM3\ARM_GCC_473\Debug\PSoC_2_Pi.a(ADC_DelSig_1_Ext_CP_Clk.o)
 .debug_frame   0x00003d70      0x184 .\CortexM3\ARM_GCC_473\Debug\PSoC_2_Pi.a(ADC_DelSig_1_theACLK.o)
 .debug_frame   0x00003ef4       0x9c .\CortexM3\ARM_GCC_473\Debug\PSoC_2_Pi.a(WaveDAC8_1_BuffAmp.o)
 .debug_frame   0x00003f90       0x48 .\CortexM3\ARM_GCC_473\Debug\PSoC_2_Pi.a(Control_Reg_3.o)
 .debug_frame   0x00003fd8       0xa4 .\CortexM3\ARM_GCC_473\Debug\PSoC_2_Pi.a(Status_Reg_3.o)
 .debug_frame   0x0000407c      0x14c .\CortexM3\ARM_GCC_473\Debug\PSoC_2_Pi.a(PWM_1_2_clk.o)
 .debug_frame   0x000041c8      0x14c .\CortexM3\ARM_GCC_473\Debug\PSoC_2_Pi.a(PWM_3_4_clk.o)
 .debug_frame   0x00004314      0x14c .\CortexM3\ARM_GCC_473\Debug\PSoC_2_Pi.a(PWM_5_6_clk.o)
 .debug_frame   0x00004460      0x14c .\CortexM3\ARM_GCC_473\Debug\PSoC_2_Pi.a(PWM_7_8_clk.o)
 .debug_frame   0x000045ac       0x88 .\CortexM3\ARM_GCC_473\Debug\PSoC_2_Pi.a(I2C_1.o)
 .debug_frame   0x00004634       0x30 .\CortexM3\ARM_GCC_473\Debug\PSoC_2_Pi.a(I2C_1_INT.o)
 .debug_frame   0x00004664       0x84 .\CortexM3\ARM_GCC_473\Debug\PSoC_2_Pi.a(I2C_1_PM.o)
 .debug_frame   0x000046e8      0x128 .\CortexM3\ARM_GCC_473\Debug\PSoC_2_Pi.a(I2C_1_SLAVE.o)
 .debug_frame   0x00004810      0x178 .\CortexM3\ARM_GCC_473\Debug\PSoC_2_Pi.a(CyFlash.o)
 .debug_frame   0x00004988      0x13c .\CortexM3\ARM_GCC_473\Debug\PSoC_2_Pi.a(CySpc.o)
 .debug_frame   0x00004ac4       0x50 c:/program files (x86)/cypress/psoc creator/3.0/psoc creator/import/gnu_cs/arm/4.7.3/bin/../lib/gcc/arm-none-eabi/4.7.3/armv7-m\libgcc.a(bpabi.o)
 .debug_frame   0x00004b14       0x34 c:/program files (x86)/cypress/psoc creator/3.0/psoc creator/import/gnu_cs/arm/4.7.3/bin/../lib/gcc/arm-none-eabi/4.7.3/armv7-m\libgcc.a(_divdi3.o)
 .debug_frame   0x00004b48       0x34 c:/program files (x86)/cypress/psoc creator/3.0/psoc creator/import/gnu_cs/arm/4.7.3/bin/../lib/gcc/arm-none-eabi/4.7.3/armv7-m\libgcc.a(_udivdi3.o)
 .debug_frame   0x00004b7c       0x28 c:/program files (x86)/cypress/psoc creator/3.0/psoc creator/import/gnu_cs/arm/4.7.3/bin/../lib/gcc/arm-none-eabi/4.7.3/../../../../arm-none-eabi/lib/armv7-m\libc_s.a(lib_a-__atexit2.o)
 .debug_frame   0x00004ba4       0x28 c:/program files (x86)/cypress/psoc creator/3.0/psoc creator/import/gnu_cs/arm/4.7.3/bin/../lib/gcc/arm-none-eabi/4.7.3/../../../../arm-none-eabi/lib/armv7-m\libc_s.a(lib_a-exit.o)
 .debug_frame   0x00004bcc       0x2c c:/program files (x86)/cypress/psoc creator/3.0/psoc creator/import/gnu_cs/arm/4.7.3/bin/../lib/gcc/arm-none-eabi/4.7.3/../../../../arm-none-eabi/lib/armv7-m\libc_s.a(lib_a-fini.o)
 .debug_frame   0x00004bf8       0x2c c:/program files (x86)/cypress/psoc creator/3.0/psoc creator/import/gnu_cs/arm/4.7.3/bin/../lib/gcc/arm-none-eabi/4.7.3/../../../../arm-none-eabi/lib/armv7-m\libc_s.a(lib_a-init.o)
 .debug_frame   0x00004c24       0x28 c:/program files (x86)/cypress/psoc creator/3.0/psoc creator/import/gnu_cs/arm/4.7.3/bin/../lib/gcc/arm-none-eabi/4.7.3/../../../../arm-none-eabi/lib/armv7-m\libc_s.a(lib_a-memcpy.o)
 .debug_frame   0x00004c4c       0x20 c:/program files (x86)/cypress/psoc creator/3.0/psoc creator/import/gnu_cs/arm/4.7.3/bin/../lib/gcc/arm-none-eabi/4.7.3/../../../../arm-none-eabi/lib/armv7-m\libc_s.a(lib_a-memset.o)

.debug_str      0x00000000     0x4fae
 *(.debug_str)
 .debug_str     0x00000000      0x19f .\CortexM3\ARM_GCC_473\Debug\main.o
                                0x1d8 (size before relaxing)
 .debug_str     0x0000019f      0x1ee .\CortexM3\ARM_GCC_473\Debug\mem1.o
                                0x357 (size before relaxing)
 .debug_str     0x0000038d       0x49 .\CortexM3\ARM_GCC_473\Debug\cymetadata.o
                                0x184 (size before relaxing)
 .debug_str     0x000003d6      0x112 .\CortexM3\ARM_GCC_473\Debug\Cm3Start.o
                                0x26e (size before relaxing)
 .debug_str     0x000004e8       0x84 .\CortexM3\ARM_GCC_473\Debug\cybootloader.o
                                0x1bf (size before relaxing)
 .debug_str     0x0000056c      0x1c8 .\CortexM3\ARM_GCC_473\Debug\PSoC_2_Pi.a(cyfitter_cfg.o)
                                0x33d (size before relaxing)
 .debug_str     0x00000734      0x35a .\CortexM3\ARM_GCC_473\Debug\PSoC_2_Pi.a(CyDmac.o)
                                0x4d9 (size before relaxing)
 .debug_str     0x00000a8e      0x614 .\CortexM3\ARM_GCC_473\Debug\PSoC_2_Pi.a(CyLib.o)
                                0x7d4 (size before relaxing)
 .debug_str     0x000010a2      0x371 .\CortexM3\ARM_GCC_473\Debug\PSoC_2_Pi.a(cyPm.o)
                                0x4e3 (size before relaxing)
 .debug_str     0x00001413      0x199 .\CortexM3\ARM_GCC_473\Debug\PSoC_2_Pi.a(PWM_1.o)
                                0x2ed (size before relaxing)
 .debug_str     0x000015ac       0xc8 .\CortexM3\ARM_GCC_473\Debug\PSoC_2_Pi.a(PWM_1_PM.o)
                                0x20f (size before relaxing)
 .debug_str     0x00001674      0x262 .\CortexM3\ARM_GCC_473\Debug\PSoC_2_Pi.a(ADC_SAR_1.o)
                                0x3f9 (size before relaxing)
 .debug_str     0x000018d6       0x37 .\CortexM3\ARM_GCC_473\Debug\PSoC_2_Pi.a(ADC_SAR_1_INT.o)
                                0x163 (size before relaxing)
 .debug_str     0x0000190d       0xab .\CortexM3\ARM_GCC_473\Debug\PSoC_2_Pi.a(ADC_SAR_1_PM.o)
                                0x1e2 (size before relaxing)
 .debug_str     0x000019b8      0x204 .\CortexM3\ARM_GCC_473\Debug\PSoC_2_Pi.a(ADC_SAR_2.o)
                                0x3f9 (size before relaxing)
 .debug_str     0x00001bbc       0x37 .\CortexM3\ARM_GCC_473\Debug\PSoC_2_Pi.a(ADC_SAR_2_INT.o)
                                0x163 (size before relaxing)
 .debug_str     0x00001bf3       0x9f .\CortexM3\ARM_GCC_473\Debug\PSoC_2_Pi.a(ADC_SAR_2_PM.o)
                                0x1e2 (size before relaxing)
 .debug_str     0x00001c92      0x22b .\CortexM3\ARM_GCC_473\Debug\PSoC_2_Pi.a(ADC_SAR_1_theACLK.o)
                                0x37d (size before relaxing)
 .debug_str     0x00001ebd      0x1d7 .\CortexM3\ARM_GCC_473\Debug\PSoC_2_Pi.a(ADC_SAR_2_theACLK.o)
                                0x37d (size before relaxing)
 .debug_str     0x00002094       0xb9 .\CortexM3\ARM_GCC_473\Debug\PSoC_2_Pi.a(VDAC8_1.o)
                                0x1fb (size before relaxing)
 .debug_str     0x0000214d       0x9b .\CortexM3\ARM_GCC_473\Debug\PSoC_2_Pi.a(VDAC8_1_PM.o)
                                0x1de (size before relaxing)
 .debug_str     0x000021e8       0xad .\CortexM3\ARM_GCC_473\Debug\PSoC_2_Pi.a(VDAC8_2.o)
                                0x1fb (size before relaxing)
 .debug_str     0x00002295       0x90 .\CortexM3\ARM_GCC_473\Debug\PSoC_2_Pi.a(VDAC8_2_PM.o)
                                0x1de (size before relaxing)
 .debug_str     0x00002325       0xca .\CortexM3\ARM_GCC_473\Debug\PSoC_2_Pi.a(IDAC8_1.o)
                                0x218 (size before relaxing)
 .debug_str     0x000023ef       0x90 .\CortexM3\ARM_GCC_473\Debug\PSoC_2_Pi.a(IDAC8_1_PM.o)
                                0x1de (size before relaxing)
 .debug_str     0x0000247f      0x149 .\CortexM3\ARM_GCC_473\Debug\PSoC_2_Pi.a(WaveDAC_clk.o)
                                0x2e6 (size before relaxing)
 .debug_str     0x000025c8      0x16a .\CortexM3\ARM_GCC_473\Debug\PSoC_2_Pi.a(WaveDAC8_1.o)
                                0x2b3 (size before relaxing)
 .debug_str     0x00002732       0x77 .\CortexM3\ARM_GCC_473\Debug\PSoC_2_Pi.a(WaveDAC8_1_PM.o)
                                0x1c3 (size before relaxing)
 .debug_str     0x000027a9       0xd1 .\CortexM3\ARM_GCC_473\Debug\PSoC_2_Pi.a(WaveDAC8_1_Wave1_DMA_dma.o)
                                0x213 (size before relaxing)
 .debug_str     0x0000287a       0x96 .\CortexM3\ARM_GCC_473\Debug\PSoC_2_Pi.a(WaveDAC8_1_Wave2_DMA_dma.o)
                                0x213 (size before relaxing)
 .debug_str     0x00002910      0x107 .\CortexM3\ARM_GCC_473\Debug\PSoC_2_Pi.a(WaveDAC8_1_VDAC8.o)
                                0x255 (size before relaxing)
 .debug_str     0x00002a17       0xcf .\CortexM3\ARM_GCC_473\Debug\PSoC_2_Pi.a(WaveDAC8_1_VDAC8_PM.o)
                                0x21d (size before relaxing)
 .debug_str     0x00002ae6       0x50 .\CortexM3\ARM_GCC_473\Debug\PSoC_2_Pi.a(Control_Reg_1.o)
                                0x18f (size before relaxing)
 .debug_str     0x00002b36       0xa2 .\CortexM3\ARM_GCC_473\Debug\PSoC_2_Pi.a(Status_Reg_1.o)
                                0x1f6 (size before relaxing)
 .debug_str     0x00002bd8      0x3ec .\CortexM3\ARM_GCC_473\Debug\PSoC_2_Pi.a(ADC_DelSig_1.o)
                                0x5df (size before relaxing)
 .debug_str     0x00002fc4       0xba .\CortexM3\ARM_GCC_473\Debug\PSoC_2_Pi.a(ADC_DelSig_1_PM.o)
                                0x206 (size before relaxing)
 .debug_str     0x0000307e       0x74 .\CortexM3\ARM_GCC_473\Debug\PSoC_2_Pi.a(ADC_DelSig_1_INT.o)
                                0x1a9 (size before relaxing)
 .debug_str     0x000030f2      0x167 .\CortexM3\ARM_GCC_473\Debug\PSoC_2_Pi.a(PWM_2.o)
                                0x2ed (size before relaxing)
 .debug_str     0x00003259       0x82 .\CortexM3\ARM_GCC_473\Debug\PSoC_2_Pi.a(PWM_2_PM.o)
                                0x20f (size before relaxing)
 .debug_str     0x000032db      0x167 .\CortexM3\ARM_GCC_473\Debug\PSoC_2_Pi.a(PWM_3.o)
                                0x2ed (size before relaxing)
 .debug_str     0x00003442       0x82 .\CortexM3\ARM_GCC_473\Debug\PSoC_2_Pi.a(PWM_3_PM.o)
                                0x20f (size before relaxing)
 .debug_str     0x000034c4      0x167 .\CortexM3\ARM_GCC_473\Debug\PSoC_2_Pi.a(PWM_4.o)
                                0x2ed (size before relaxing)
 .debug_str     0x0000362b       0x82 .\CortexM3\ARM_GCC_473\Debug\PSoC_2_Pi.a(PWM_4_PM.o)
                                0x20f (size before relaxing)
 .debug_str     0x000036ad      0x167 .\CortexM3\ARM_GCC_473\Debug\PSoC_2_Pi.a(PWM_5.o)
                                0x2ed (size before relaxing)
 .debug_str     0x00003814       0x82 .\CortexM3\ARM_GCC_473\Debug\PSoC_2_Pi.a(PWM_5_PM.o)
                                0x20f (size before relaxing)
 .debug_str     0x00003896      0x167 .\CortexM3\ARM_GCC_473\Debug\PSoC_2_Pi.a(PWM_6.o)
                                0x2ed (size before relaxing)
 .debug_str     0x000039fd       0x82 .\CortexM3\ARM_GCC_473\Debug\PSoC_2_Pi.a(PWM_6_PM.o)
                                0x20f (size before relaxing)
 .debug_str     0x00003a7f      0x167 .\CortexM3\ARM_GCC_473\Debug\PSoC_2_Pi.a(PWM_7.o)
                                0x2ed (size before relaxing)
 .debug_str     0x00003be6       0x82 .\CortexM3\ARM_GCC_473\Debug\PSoC_2_Pi.a(PWM_7_PM.o)
                                0x20f (size before relaxing)
 .debug_str     0x00003c68      0x167 .\CortexM3\ARM_GCC_473\Debug\PSoC_2_Pi.a(PWM_8.o)
                                0x2ed (size before relaxing)
 .debug_str     0x00003dcf       0x82 .\CortexM3\ARM_GCC_473\Debug\PSoC_2_Pi.a(PWM_8_PM.o)
                                0x20f (size before relaxing)
 .debug_str     0x00003e51       0x50 .\CortexM3\ARM_GCC_473\Debug\PSoC_2_Pi.a(Control_Reg_2.o)
                                0x18f (size before relaxing)
 .debug_str     0x00003ea1       0xa2 .\CortexM3\ARM_GCC_473\Debug\PSoC_2_Pi.a(Status_Reg_2.o)
                                0x1f6 (size before relaxing)
 .debug_str     0x00003f43       0x9e .\CortexM3\ARM_GCC_473\Debug\PSoC_2_Pi.a(ADC_DelSig_1_AMux.o)
                                0x1d8 (size before relaxing)
 .debug_str     0x00003fe1      0x1d9 .\CortexM3\ARM_GCC_473\Debug\PSoC_2_Pi.a(ADC_DelSig_1_Ext_CP_Clk.o)
                                0x376 (size before relaxing)
 .debug_str     0x000041ba      0x201 .\CortexM3\ARM_GCC_473\Debug\PSoC_2_Pi.a(ADC_DelSig_1_theACLK.o)
                                0x3a7 (size before relaxing)
 .debug_str     0x000043bb       0xc8 .\CortexM3\ARM_GCC_473\Debug\PSoC_2_Pi.a(WaveDAC8_1_BuffAmp.o)
                                0x20e (size before relaxing)
 .debug_str     0x00004483       0x50 .\CortexM3\ARM_GCC_473\Debug\PSoC_2_Pi.a(Control_Reg_3.o)
                                0x18f (size before relaxing)
 .debug_str     0x000044d3       0xa2 .\CortexM3\ARM_GCC_473\Debug\PSoC_2_Pi.a(Status_Reg_3.o)
                                0x1f6 (size before relaxing)
 .debug_str     0x00004575      0x149 .\CortexM3\ARM_GCC_473\Debug\PSoC_2_Pi.a(PWM_1_2_clk.o)
                                0x2e6 (size before relaxing)
 .debug_str     0x000046be      0x149 .\CortexM3\ARM_GCC_473\Debug\PSoC_2_Pi.a(PWM_3_4_clk.o)
                                0x2e6 (size before relaxing)
 .debug_str     0x00004807      0x149 .\CortexM3\ARM_GCC_473\Debug\PSoC_2_Pi.a(PWM_5_6_clk.o)
                                0x2e6 (size before relaxing)
 .debug_str     0x00004950      0x149 .\CortexM3\ARM_GCC_473\Debug\PSoC_2_Pi.a(PWM_7_8_clk.o)
                                0x2e6 (size before relaxing)
 .debug_str     0x00004a99       0xaf .\CortexM3\ARM_GCC_473\Debug\PSoC_2_Pi.a(I2C_1.o)
                                0x225 (size before relaxing)
 .debug_str     0x00004b48       0xa7 .\CortexM3\ARM_GCC_473\Debug\PSoC_2_Pi.a(I2C_1_INT.o)
                                0x202 (size before relaxing)
 .debug_str     0x00004bef       0x62 .\CortexM3\ARM_GCC_473\Debug\PSoC_2_Pi.a(I2C_1_PM.o)
                                0x20e (size before relaxing)
 .debug_str     0x00004c51      0x12f .\CortexM3\ARM_GCC_473\Debug\PSoC_2_Pi.a(I2C_1_SLAVE.o)
                                0x2f9 (size before relaxing)
 .debug_str     0x00004d80      0x130 .\CortexM3\ARM_GCC_473\Debug\PSoC_2_Pi.a(CyFlash.o)
                                0x2a9 (size before relaxing)
 .debug_str     0x00004eb0       0xfe .\CortexM3\ARM_GCC_473\Debug\PSoC_2_Pi.a(CySpc.o)
                                0x285 (size before relaxing)

.debug_loc      0x00000000     0x7ae6
 *(.debug_loc)
 .debug_loc     0x00000000       0xa8 .\CortexM3\ARM_GCC_473\Debug\main.o
 .debug_loc     0x000000a8      0x50a .\CortexM3\ARM_GCC_473\Debug\mem1.o
 .debug_loc     0x000005b2      0x100 .\CortexM3\ARM_GCC_473\Debug\Cm3Start.o
 .debug_loc     0x000006b2      0x268 .\CortexM3\ARM_GCC_473\Debug\PSoC_2_Pi.a(cyfitter_cfg.o)
 .debug_loc     0x0000091a      0x51c .\CortexM3\ARM_GCC_473\Debug\PSoC_2_Pi.a(CyDmac.o)
 .debug_loc     0x00000e36      0xce0 .\CortexM3\ARM_GCC_473\Debug\PSoC_2_Pi.a(CyLib.o)
 .debug_loc     0x00001b16      0x2e8 .\CortexM3\ARM_GCC_473\Debug\PSoC_2_Pi.a(cyPm.o)
 .debug_loc     0x00001dfe      0x320 .\CortexM3\ARM_GCC_473\Debug\PSoC_2_Pi.a(PWM_1.o)
 .debug_loc     0x0000211e       0xb0 .\CortexM3\ARM_GCC_473\Debug\PSoC_2_Pi.a(PWM_1_PM.o)
 .debug_loc     0x000021ce      0x3b4 .\CortexM3\ARM_GCC_473\Debug\PSoC_2_Pi.a(ADC_SAR_1.o)
 .debug_loc     0x00002582       0x2c .\CortexM3\ARM_GCC_473\Debug\PSoC_2_Pi.a(ADC_SAR_1_INT.o)
 .debug_loc     0x000025ae       0xb0 .\CortexM3\ARM_GCC_473\Debug\PSoC_2_Pi.a(ADC_SAR_1_PM.o)
 .debug_loc     0x0000265e      0x3b4 .\CortexM3\ARM_GCC_473\Debug\PSoC_2_Pi.a(ADC_SAR_2.o)
 .debug_loc     0x00002a12       0x2c .\CortexM3\ARM_GCC_473\Debug\PSoC_2_Pi.a(ADC_SAR_2_INT.o)
 .debug_loc     0x00002a3e       0xb0 .\CortexM3\ARM_GCC_473\Debug\PSoC_2_Pi.a(ADC_SAR_2_PM.o)
 .debug_loc     0x00002aee      0x290 .\CortexM3\ARM_GCC_473\Debug\PSoC_2_Pi.a(ADC_SAR_1_theACLK.o)
 .debug_loc     0x00002d7e      0x290 .\CortexM3\ARM_GCC_473\Debug\PSoC_2_Pi.a(ADC_SAR_2_theACLK.o)
 .debug_loc     0x0000300e      0x190 .\CortexM3\ARM_GCC_473\Debug\PSoC_2_Pi.a(VDAC8_1.o)
 .debug_loc     0x0000319e       0xb0 .\CortexM3\ARM_GCC_473\Debug\PSoC_2_Pi.a(VDAC8_1_PM.o)
 .debug_loc     0x0000324e      0x190 .\CortexM3\ARM_GCC_473\Debug\PSoC_2_Pi.a(VDAC8_2.o)
 .debug_loc     0x000033de       0xb0 .\CortexM3\ARM_GCC_473\Debug\PSoC_2_Pi.a(VDAC8_2_PM.o)
 .debug_loc     0x0000348e      0x1c8 .\CortexM3\ARM_GCC_473\Debug\PSoC_2_Pi.a(IDAC8_1.o)
 .debug_loc     0x00003656       0xb0 .\CortexM3\ARM_GCC_473\Debug\PSoC_2_Pi.a(IDAC8_1_PM.o)
 .debug_loc     0x00003706      0x22c .\CortexM3\ARM_GCC_473\Debug\PSoC_2_Pi.a(WaveDAC_clk.o)
 .debug_loc     0x00003932      0x158 .\CortexM3\ARM_GCC_473\Debug\PSoC_2_Pi.a(WaveDAC8_1.o)
 .debug_loc     0x00003a8a       0x58 .\CortexM3\ARM_GCC_473\Debug\PSoC_2_Pi.a(WaveDAC8_1_PM.o)
 .debug_loc     0x00003ae2       0x64 .\CortexM3\ARM_GCC_473\Debug\PSoC_2_Pi.a(WaveDAC8_1_Wave1_DMA_dma.o)
 .debug_loc     0x00003b46       0x64 .\CortexM3\ARM_GCC_473\Debug\PSoC_2_Pi.a(WaveDAC8_1_Wave2_DMA_dma.o)
 .debug_loc     0x00003baa      0x190 .\CortexM3\ARM_GCC_473\Debug\PSoC_2_Pi.a(WaveDAC8_1_VDAC8.o)
 .debug_loc     0x00003d3a       0xb0 .\CortexM3\ARM_GCC_473\Debug\PSoC_2_Pi.a(WaveDAC8_1_VDAC8_PM.o)
 .debug_loc     0x00003dea       0x64 .\CortexM3\ARM_GCC_473\Debug\PSoC_2_Pi.a(Control_Reg_1.o)
 .debug_loc     0x00003e4e      0x100 .\CortexM3\ARM_GCC_473\Debug\PSoC_2_Pi.a(Status_Reg_1.o)
 .debug_loc     0x00003f4e      0x58c .\CortexM3\ARM_GCC_473\Debug\PSoC_2_Pi.a(ADC_DelSig_1.o)
 .debug_loc     0x000044da       0xb0 .\CortexM3\ARM_GCC_473\Debug\PSoC_2_Pi.a(ADC_DelSig_1_PM.o)
 .debug_loc     0x0000458a       0xb0 .\CortexM3\ARM_GCC_473\Debug\PSoC_2_Pi.a(ADC_DelSig_1_INT.o)
 .debug_loc     0x0000463a      0x320 .\CortexM3\ARM_GCC_473\Debug\PSoC_2_Pi.a(PWM_2.o)
 .debug_loc     0x0000495a       0xb0 .\CortexM3\ARM_GCC_473\Debug\PSoC_2_Pi.a(PWM_2_PM.o)
 .debug_loc     0x00004a0a      0x320 .\CortexM3\ARM_GCC_473\Debug\PSoC_2_Pi.a(PWM_3.o)
 .debug_loc     0x00004d2a       0xb0 .\CortexM3\ARM_GCC_473\Debug\PSoC_2_Pi.a(PWM_3_PM.o)
 .debug_loc     0x00004dda      0x320 .\CortexM3\ARM_GCC_473\Debug\PSoC_2_Pi.a(PWM_4.o)
 .debug_loc     0x000050fa       0xb0 .\CortexM3\ARM_GCC_473\Debug\PSoC_2_Pi.a(PWM_4_PM.o)
 .debug_loc     0x000051aa      0x320 .\CortexM3\ARM_GCC_473\Debug\PSoC_2_Pi.a(PWM_5.o)
 .debug_loc     0x000054ca       0xb0 .\CortexM3\ARM_GCC_473\Debug\PSoC_2_Pi.a(PWM_5_PM.o)
 .debug_loc     0x0000557a      0x320 .\CortexM3\ARM_GCC_473\Debug\PSoC_2_Pi.a(PWM_6.o)
 .debug_loc     0x0000589a       0xb0 .\CortexM3\ARM_GCC_473\Debug\PSoC_2_Pi.a(PWM_6_PM.o)
 .debug_loc     0x0000594a      0x320 .\CortexM3\ARM_GCC_473\Debug\PSoC_2_Pi.a(PWM_7.o)
 .debug_loc     0x00005c6a       0xb0 .\CortexM3\ARM_GCC_473\Debug\PSoC_2_Pi.a(PWM_7_PM.o)
 .debug_loc     0x00005d1a      0x320 .\CortexM3\ARM_GCC_473\Debug\PSoC_2_Pi.a(PWM_8.o)
 .debug_loc     0x0000603a       0xb0 .\CortexM3\ARM_GCC_473\Debug\PSoC_2_Pi.a(PWM_8_PM.o)
 .debug_loc     0x000060ea       0x64 .\CortexM3\ARM_GCC_473\Debug\PSoC_2_Pi.a(Control_Reg_2.o)
 .debug_loc     0x0000614e      0x100 .\CortexM3\ARM_GCC_473\Debug\PSoC_2_Pi.a(Status_Reg_2.o)
 .debug_loc     0x0000624e       0xa8 .\CortexM3\ARM_GCC_473\Debug\PSoC_2_Pi.a(ADC_DelSig_1_AMux.o)
 .debug_loc     0x000062f6      0x22c .\CortexM3\ARM_GCC_473\Debug\PSoC_2_Pi.a(ADC_DelSig_1_Ext_CP_Clk.o)
 .debug_loc     0x00006522      0x290 .\CortexM3\ARM_GCC_473\Debug\PSoC_2_Pi.a(ADC_DelSig_1_theACLK.o)
 .debug_loc     0x000067b2       0xe8 .\CortexM3\ARM_GCC_473\Debug\PSoC_2_Pi.a(WaveDAC8_1_BuffAmp.o)
 .debug_loc     0x0000689a       0x64 .\CortexM3\ARM_GCC_473\Debug\PSoC_2_Pi.a(Control_Reg_3.o)
 .debug_loc     0x000068fe      0x100 .\CortexM3\ARM_GCC_473\Debug\PSoC_2_Pi.a(Status_Reg_3.o)
 .debug_loc     0x000069fe      0x22c .\CortexM3\ARM_GCC_473\Debug\PSoC_2_Pi.a(PWM_1_2_clk.o)
 .debug_loc     0x00006c2a      0x22c .\CortexM3\ARM_GCC_473\Debug\PSoC_2_Pi.a(PWM_3_4_clk.o)
 .debug_loc     0x00006e56      0x22c .\CortexM3\ARM_GCC_473\Debug\PSoC_2_Pi.a(PWM_5_6_clk.o)
 .debug_loc     0x00007082      0x22c .\CortexM3\ARM_GCC_473\Debug\PSoC_2_Pi.a(PWM_7_8_clk.o)
 .debug_loc     0x000072ae       0xc8 .\CortexM3\ARM_GCC_473\Debug\PSoC_2_Pi.a(I2C_1.o)
 .debug_loc     0x00007376       0x38 .\CortexM3\ARM_GCC_473\Debug\PSoC_2_Pi.a(I2C_1_INT.o)
 .debug_loc     0x000073ae       0xbc .\CortexM3\ARM_GCC_473\Debug\PSoC_2_Pi.a(I2C_1_PM.o)
 .debug_loc     0x0000746a      0x1f4 .\CortexM3\ARM_GCC_473\Debug\PSoC_2_Pi.a(I2C_1_SLAVE.o)
 .debug_loc     0x0000765e      0x258 .\CortexM3\ARM_GCC_473\Debug\PSoC_2_Pi.a(CyFlash.o)
 .debug_loc     0x000078b6      0x230 .\CortexM3\ARM_GCC_473\Debug\PSoC_2_Pi.a(CySpc.o)

.debug_macinfo
 *(.debug_macinfo)

.debug_ranges   0x00000000     0x1588
 *(.debug_ranges)
 .debug_ranges  0x00000000       0x20 .\CortexM3\ARM_GCC_473\Debug\main.o
 .debug_ranges  0x00000020       0xc0 .\CortexM3\ARM_GCC_473\Debug\mem1.o
 .debug_ranges  0x000000e0       0x30 .\CortexM3\ARM_GCC_473\Debug\Cm3Start.o
 .debug_ranges  0x00000110       0x60 .\CortexM3\ARM_GCC_473\Debug\PSoC_2_Pi.a(cyfitter_cfg.o)
 .debug_ranges  0x00000170       0xc8 .\CortexM3\ARM_GCC_473\Debug\PSoC_2_Pi.a(CyDmac.o)
 .debug_ranges  0x00000238      0x208 .\CortexM3\ARM_GCC_473\Debug\PSoC_2_Pi.a(CyLib.o)
 .debug_ranges  0x00000440       0x80 .\CortexM3\ARM_GCC_473\Debug\PSoC_2_Pi.a(cyPm.o)
 .debug_ranges  0x000004c0       0x88 .\CortexM3\ARM_GCC_473\Debug\PSoC_2_Pi.a(PWM_1.o)
 .debug_ranges  0x00000548       0x28 .\CortexM3\ARM_GCC_473\Debug\PSoC_2_Pi.a(PWM_1_PM.o)
 .debug_ranges  0x00000570       0x98 .\CortexM3\ARM_GCC_473\Debug\PSoC_2_Pi.a(ADC_SAR_1.o)
 .debug_ranges  0x00000608       0x10 .\CortexM3\ARM_GCC_473\Debug\PSoC_2_Pi.a(ADC_SAR_1_INT.o)
 .debug_ranges  0x00000618       0x28 .\CortexM3\ARM_GCC_473\Debug\PSoC_2_Pi.a(ADC_SAR_1_PM.o)
 .debug_ranges  0x00000640       0x98 .\CortexM3\ARM_GCC_473\Debug\PSoC_2_Pi.a(ADC_SAR_2.o)
 .debug_ranges  0x000006d8       0x10 .\CortexM3\ARM_GCC_473\Debug\PSoC_2_Pi.a(ADC_SAR_2_INT.o)
 .debug_ranges  0x000006e8       0x28 .\CortexM3\ARM_GCC_473\Debug\PSoC_2_Pi.a(ADC_SAR_2_PM.o)
 .debug_ranges  0x00000710       0x70 .\CortexM3\ARM_GCC_473\Debug\PSoC_2_Pi.a(ADC_SAR_1_theACLK.o)
 .debug_ranges  0x00000780       0x70 .\CortexM3\ARM_GCC_473\Debug\PSoC_2_Pi.a(ADC_SAR_2_theACLK.o)
 .debug_ranges  0x000007f0       0x48 .\CortexM3\ARM_GCC_473\Debug\PSoC_2_Pi.a(VDAC8_1.o)
 .debug_ranges  0x00000838       0x28 .\CortexM3\ARM_GCC_473\Debug\PSoC_2_Pi.a(VDAC8_1_PM.o)
 .debug_ranges  0x00000860       0x48 .\CortexM3\ARM_GCC_473\Debug\PSoC_2_Pi.a(VDAC8_2.o)
 .debug_ranges  0x000008a8       0x28 .\CortexM3\ARM_GCC_473\Debug\PSoC_2_Pi.a(VDAC8_2_PM.o)
 .debug_ranges  0x000008d0       0x50 .\CortexM3\ARM_GCC_473\Debug\PSoC_2_Pi.a(IDAC8_1.o)
 .debug_ranges  0x00000920       0x28 .\CortexM3\ARM_GCC_473\Debug\PSoC_2_Pi.a(IDAC8_1_PM.o)
 .debug_ranges  0x00000948       0x60 .\CortexM3\ARM_GCC_473\Debug\PSoC_2_Pi.a(WaveDAC_clk.o)
 .debug_ranges  0x000009a8       0x40 .\CortexM3\ARM_GCC_473\Debug\PSoC_2_Pi.a(WaveDAC8_1.o)
 .debug_ranges  0x000009e8       0x18 .\CortexM3\ARM_GCC_473\Debug\PSoC_2_Pi.a(WaveDAC8_1_PM.o)
 .debug_ranges  0x00000a00       0x18 .\CortexM3\ARM_GCC_473\Debug\PSoC_2_Pi.a(WaveDAC8_1_Wave1_DMA_dma.o)
 .debug_ranges  0x00000a18       0x18 .\CortexM3\ARM_GCC_473\Debug\PSoC_2_Pi.a(WaveDAC8_1_Wave2_DMA_dma.o)
 .debug_ranges  0x00000a30       0x48 .\CortexM3\ARM_GCC_473\Debug\PSoC_2_Pi.a(WaveDAC8_1_VDAC8.o)
 .debug_ranges  0x00000a78       0x28 .\CortexM3\ARM_GCC_473\Debug\PSoC_2_Pi.a(WaveDAC8_1_VDAC8_PM.o)
 .debug_ranges  0x00000aa0       0x18 .\CortexM3\ARM_GCC_473\Debug\PSoC_2_Pi.a(Control_Reg_1.o)
 .debug_ranges  0x00000ab8       0x30 .\CortexM3\ARM_GCC_473\Debug\PSoC_2_Pi.a(Status_Reg_1.o)
 .debug_ranges  0x00000ae8       0xd8 .\CortexM3\ARM_GCC_473\Debug\PSoC_2_Pi.a(ADC_DelSig_1.o)
 .debug_ranges  0x00000bc0       0x28 .\CortexM3\ARM_GCC_473\Debug\PSoC_2_Pi.a(ADC_DelSig_1_PM.o)
 .debug_ranges  0x00000be8       0x28 .\CortexM3\ARM_GCC_473\Debug\PSoC_2_Pi.a(ADC_DelSig_1_INT.o)
 .debug_ranges  0x00000c10       0x88 .\CortexM3\ARM_GCC_473\Debug\PSoC_2_Pi.a(PWM_2.o)
 .debug_ranges  0x00000c98       0x28 .\CortexM3\ARM_GCC_473\Debug\PSoC_2_Pi.a(PWM_2_PM.o)
 .debug_ranges  0x00000cc0       0x88 .\CortexM3\ARM_GCC_473\Debug\PSoC_2_Pi.a(PWM_3.o)
 .debug_ranges  0x00000d48       0x28 .\CortexM3\ARM_GCC_473\Debug\PSoC_2_Pi.a(PWM_3_PM.o)
 .debug_ranges  0x00000d70       0x88 .\CortexM3\ARM_GCC_473\Debug\PSoC_2_Pi.a(PWM_4.o)
 .debug_ranges  0x00000df8       0x28 .\CortexM3\ARM_GCC_473\Debug\PSoC_2_Pi.a(PWM_4_PM.o)
 .debug_ranges  0x00000e20       0x88 .\CortexM3\ARM_GCC_473\Debug\PSoC_2_Pi.a(PWM_5.o)
 .debug_ranges  0x00000ea8       0x28 .\CortexM3\ARM_GCC_473\Debug\PSoC_2_Pi.a(PWM_5_PM.o)
 .debug_ranges  0x00000ed0       0x88 .\CortexM3\ARM_GCC_473\Debug\PSoC_2_Pi.a(PWM_6.o)
 .debug_ranges  0x00000f58       0x28 .\CortexM3\ARM_GCC_473\Debug\PSoC_2_Pi.a(PWM_6_PM.o)
 .debug_ranges  0x00000f80       0x88 .\CortexM3\ARM_GCC_473\Debug\PSoC_2_Pi.a(PWM_7.o)
 .debug_ranges  0x00001008       0x28 .\CortexM3\ARM_GCC_473\Debug\PSoC_2_Pi.a(PWM_7_PM.o)
 .debug_ranges  0x00001030       0x88 .\CortexM3\ARM_GCC_473\Debug\PSoC_2_Pi.a(PWM_8.o)
 .debug_ranges  0x000010b8       0x28 .\CortexM3\ARM_GCC_473\Debug\PSoC_2_Pi.a(PWM_8_PM.o)
 .debug_ranges  0x000010e0       0x18 .\CortexM3\ARM_GCC_473\Debug\PSoC_2_Pi.a(Control_Reg_2.o)
 .debug_ranges  0x000010f8       0x30 .\CortexM3\ARM_GCC_473\Debug\PSoC_2_Pi.a(Status_Reg_2.o)
 .debug_ranges  0x00001128       0x20 .\CortexM3\ARM_GCC_473\Debug\PSoC_2_Pi.a(ADC_DelSig_1_AMux.o)
 .debug_ranges  0x00001148       0x60 .\CortexM3\ARM_GCC_473\Debug\PSoC_2_Pi.a(ADC_DelSig_1_Ext_CP_Clk.o)
 .debug_ranges  0x000011a8       0x70 .\CortexM3\ARM_GCC_473\Debug\PSoC_2_Pi.a(ADC_DelSig_1_theACLK.o)
 .debug_ranges  0x00001218       0x30 .\CortexM3\ARM_GCC_473\Debug\PSoC_2_Pi.a(WaveDAC8_1_BuffAmp.o)
 .debug_ranges  0x00001248       0x18 .\CortexM3\ARM_GCC_473\Debug\PSoC_2_Pi.a(Control_Reg_3.o)
 .debug_ranges  0x00001260       0x30 .\CortexM3\ARM_GCC_473\Debug\PSoC_2_Pi.a(Status_Reg_3.o)
 .debug_ranges  0x00001290       0x60 .\CortexM3\ARM_GCC_473\Debug\PSoC_2_Pi.a(PWM_1_2_clk.o)
 .debug_ranges  0x000012f0       0x60 .\CortexM3\ARM_GCC_473\Debug\PSoC_2_Pi.a(PWM_3_4_clk.o)
 .debug_ranges  0x00001350       0x60 .\CortexM3\ARM_GCC_473\Debug\PSoC_2_Pi.a(PWM_5_6_clk.o)
 .debug_ranges  0x000013b0       0x60 .\CortexM3\ARM_GCC_473\Debug\PSoC_2_Pi.a(PWM_7_8_clk.o)
 .debug_ranges  0x00001410       0x28 .\CortexM3\ARM_GCC_473\Debug\PSoC_2_Pi.a(I2C_1.o)
 .debug_ranges  0x00001438       0x10 .\CortexM3\ARM_GCC_473\Debug\PSoC_2_Pi.a(I2C_1_INT.o)
 .debug_ranges  0x00001448       0x28 .\CortexM3\ARM_GCC_473\Debug\PSoC_2_Pi.a(I2C_1_PM.o)
 .debug_ranges  0x00001470       0x58 .\CortexM3\ARM_GCC_473\Debug\PSoC_2_Pi.a(I2C_1_SLAVE.o)
 .debug_ranges  0x000014c8       0x68 .\CortexM3\ARM_GCC_473\Debug\PSoC_2_Pi.a(CyFlash.o)
 .debug_ranges  0x00001530       0x58 .\CortexM3\ARM_GCC_473\Debug\PSoC_2_Pi.a(CySpc.o)

.comment        0x00000000       0x70
 .comment       0x00000000       0x70 .\CortexM3\ARM_GCC_473\Debug\main.o
                                 0x71 (size before relaxing)
 .comment       0x00000000       0x71 .\CortexM3\ARM_GCC_473\Debug\mem1.o
 .comment       0x00000000       0x71 .\CortexM3\ARM_GCC_473\Debug\cymetadata.o
 .comment       0x00000000       0x71 .\CortexM3\ARM_GCC_473\Debug\Cm3Start.o
 .comment       0x00000000       0x71 .\CortexM3\ARM_GCC_473\Debug\cybootloader.o
 .comment       0x00000000       0x71 .\CortexM3\ARM_GCC_473\Debug\PSoC_2_Pi.a(cyfitter_cfg.o)
 .comment       0x00000000       0x71 .\CortexM3\ARM_GCC_473\Debug\PSoC_2_Pi.a(CyDmac.o)
 .comment       0x00000000       0x71 .\CortexM3\ARM_GCC_473\Debug\PSoC_2_Pi.a(CyLib.o)
 .comment       0x00000000       0x71 .\CortexM3\ARM_GCC_473\Debug\PSoC_2_Pi.a(cyPm.o)
 .comment       0x00000000       0x71 .\CortexM3\ARM_GCC_473\Debug\PSoC_2_Pi.a(PWM_1.o)
 .comment       0x00000000       0x71 .\CortexM3\ARM_GCC_473\Debug\PSoC_2_Pi.a(PWM_1_PM.o)
 .comment       0x00000000       0x71 .\CortexM3\ARM_GCC_473\Debug\PSoC_2_Pi.a(ADC_SAR_1.o)
 .comment       0x00000000       0x71 .\CortexM3\ARM_GCC_473\Debug\PSoC_2_Pi.a(ADC_SAR_1_INT.o)
 .comment       0x00000000       0x71 .\CortexM3\ARM_GCC_473\Debug\PSoC_2_Pi.a(ADC_SAR_1_PM.o)
 .comment       0x00000000       0x71 .\CortexM3\ARM_GCC_473\Debug\PSoC_2_Pi.a(ADC_SAR_2.o)
 .comment       0x00000000       0x71 .\CortexM3\ARM_GCC_473\Debug\PSoC_2_Pi.a(ADC_SAR_2_INT.o)
 .comment       0x00000000       0x71 .\CortexM3\ARM_GCC_473\Debug\PSoC_2_Pi.a(ADC_SAR_2_PM.o)
 .comment       0x00000000       0x71 .\CortexM3\ARM_GCC_473\Debug\PSoC_2_Pi.a(ADC_SAR_1_theACLK.o)
 .comment       0x00000000       0x71 .\CortexM3\ARM_GCC_473\Debug\PSoC_2_Pi.a(ADC_SAR_2_theACLK.o)
 .comment       0x00000000       0x71 .\CortexM3\ARM_GCC_473\Debug\PSoC_2_Pi.a(VDAC8_1.o)
 .comment       0x00000000       0x71 .\CortexM3\ARM_GCC_473\Debug\PSoC_2_Pi.a(VDAC8_1_PM.o)
 .comment       0x00000000       0x71 .\CortexM3\ARM_GCC_473\Debug\PSoC_2_Pi.a(VDAC8_2.o)
 .comment       0x00000000       0x71 .\CortexM3\ARM_GCC_473\Debug\PSoC_2_Pi.a(VDAC8_2_PM.o)
 .comment       0x00000000       0x71 .\CortexM3\ARM_GCC_473\Debug\PSoC_2_Pi.a(IDAC8_1.o)
 .comment       0x00000000       0x71 .\CortexM3\ARM_GCC_473\Debug\PSoC_2_Pi.a(IDAC8_1_PM.o)
 .comment       0x00000000       0x71 .\CortexM3\ARM_GCC_473\Debug\PSoC_2_Pi.a(WaveDAC_clk.o)
 .comment       0x00000000       0x71 .\CortexM3\ARM_GCC_473\Debug\PSoC_2_Pi.a(WaveDAC8_1.o)
 .comment       0x00000000       0x71 .\CortexM3\ARM_GCC_473\Debug\PSoC_2_Pi.a(WaveDAC8_1_PM.o)
 .comment       0x00000000       0x71 .\CortexM3\ARM_GCC_473\Debug\PSoC_2_Pi.a(WaveDAC8_1_Wave1_DMA_dma.o)
 .comment       0x00000000       0x71 .\CortexM3\ARM_GCC_473\Debug\PSoC_2_Pi.a(WaveDAC8_1_Wave2_DMA_dma.o)
 .comment       0x00000000       0x71 .\CortexM3\ARM_GCC_473\Debug\PSoC_2_Pi.a(WaveDAC8_1_VDAC8.o)
 .comment       0x00000000       0x71 .\CortexM3\ARM_GCC_473\Debug\PSoC_2_Pi.a(WaveDAC8_1_VDAC8_PM.o)
 .comment       0x00000000       0x71 .\CortexM3\ARM_GCC_473\Debug\PSoC_2_Pi.a(Control_Reg_1.o)
 .comment       0x00000000       0x71 .\CortexM3\ARM_GCC_473\Debug\PSoC_2_Pi.a(Status_Reg_1.o)
 .comment       0x00000000       0x71 .\CortexM3\ARM_GCC_473\Debug\PSoC_2_Pi.a(ADC_DelSig_1.o)
 .comment       0x00000000       0x71 .\CortexM3\ARM_GCC_473\Debug\PSoC_2_Pi.a(ADC_DelSig_1_PM.o)
 .comment       0x00000000       0x71 .\CortexM3\ARM_GCC_473\Debug\PSoC_2_Pi.a(ADC_DelSig_1_INT.o)
 .comment       0x00000000       0x71 .\CortexM3\ARM_GCC_473\Debug\PSoC_2_Pi.a(PWM_2.o)
 .comment       0x00000000       0x71 .\CortexM3\ARM_GCC_473\Debug\PSoC_2_Pi.a(PWM_2_PM.o)
 .comment       0x00000000       0x71 .\CortexM3\ARM_GCC_473\Debug\PSoC_2_Pi.a(PWM_3.o)
 .comment       0x00000000       0x71 .\CortexM3\ARM_GCC_473\Debug\PSoC_2_Pi.a(PWM_3_PM.o)
 .comment       0x00000000       0x71 .\CortexM3\ARM_GCC_473\Debug\PSoC_2_Pi.a(PWM_4.o)
 .comment       0x00000000       0x71 .\CortexM3\ARM_GCC_473\Debug\PSoC_2_Pi.a(PWM_4_PM.o)
 .comment       0x00000000       0x71 .\CortexM3\ARM_GCC_473\Debug\PSoC_2_Pi.a(PWM_5.o)
 .comment       0x00000000       0x71 .\CortexM3\ARM_GCC_473\Debug\PSoC_2_Pi.a(PWM_5_PM.o)
 .comment       0x00000000       0x71 .\CortexM3\ARM_GCC_473\Debug\PSoC_2_Pi.a(PWM_6.o)
 .comment       0x00000000       0x71 .\CortexM3\ARM_GCC_473\Debug\PSoC_2_Pi.a(PWM_6_PM.o)
 .comment       0x00000000       0x71 .\CortexM3\ARM_GCC_473\Debug\PSoC_2_Pi.a(PWM_7.o)
 .comment       0x00000000       0x71 .\CortexM3\ARM_GCC_473\Debug\PSoC_2_Pi.a(PWM_7_PM.o)
 .comment       0x00000000       0x71 .\CortexM3\ARM_GCC_473\Debug\PSoC_2_Pi.a(PWM_8.o)
 .comment       0x00000000       0x71 .\CortexM3\ARM_GCC_473\Debug\PSoC_2_Pi.a(PWM_8_PM.o)
 .comment       0x00000000       0x71 .\CortexM3\ARM_GCC_473\Debug\PSoC_2_Pi.a(Control_Reg_2.o)
 .comment       0x00000000       0x71 .\CortexM3\ARM_GCC_473\Debug\PSoC_2_Pi.a(Status_Reg_2.o)
 .comment       0x00000000       0x71 .\CortexM3\ARM_GCC_473\Debug\PSoC_2_Pi.a(ADC_DelSig_1_AMux.o)
 .comment       0x00000000       0x71 .\CortexM3\ARM_GCC_473\Debug\PSoC_2_Pi.a(ADC_DelSig_1_Ext_CP_Clk.o)
 .comment       0x00000000       0x71 .\CortexM3\ARM_GCC_473\Debug\PSoC_2_Pi.a(ADC_DelSig_1_theACLK.o)
 .comment       0x00000000       0x71 .\CortexM3\ARM_GCC_473\Debug\PSoC_2_Pi.a(WaveDAC8_1_BuffAmp.o)
 .comment       0x00000000       0x71 .\CortexM3\ARM_GCC_473\Debug\PSoC_2_Pi.a(Control_Reg_3.o)
 .comment       0x00000000       0x71 .\CortexM3\ARM_GCC_473\Debug\PSoC_2_Pi.a(Status_Reg_3.o)
 .comment       0x00000000       0x71 .\CortexM3\ARM_GCC_473\Debug\PSoC_2_Pi.a(PWM_1_2_clk.o)
 .comment       0x00000000       0x71 .\CortexM3\ARM_GCC_473\Debug\PSoC_2_Pi.a(PWM_3_4_clk.o)
 .comment       0x00000000       0x71 .\CortexM3\ARM_GCC_473\Debug\PSoC_2_Pi.a(PWM_5_6_clk.o)
 .comment       0x00000000       0x71 .\CortexM3\ARM_GCC_473\Debug\PSoC_2_Pi.a(PWM_7_8_clk.o)
 .comment       0x00000000       0x71 .\CortexM3\ARM_GCC_473\Debug\PSoC_2_Pi.a(I2C_1.o)
 .comment       0x00000000       0x71 .\CortexM3\ARM_GCC_473\Debug\PSoC_2_Pi.a(I2C_1_INT.o)
 .comment       0x00000000       0x71 .\CortexM3\ARM_GCC_473\Debug\PSoC_2_Pi.a(I2C_1_PM.o)
 .comment       0x00000000       0x71 .\CortexM3\ARM_GCC_473\Debug\PSoC_2_Pi.a(I2C_1_SLAVE.o)
 .comment       0x00000000       0x71 .\CortexM3\ARM_GCC_473\Debug\PSoC_2_Pi.a(CyFlash.o)
 .comment       0x00000000       0x71 .\CortexM3\ARM_GCC_473\Debug\PSoC_2_Pi.a(CySpc.o)

.debug_weaknames
 *(.debug_weaknames)

.debug_funcnames
 *(.debug_funcnames)

.debug_typenames
 *(.debug_typenames)

.debug_varnames
 *(.debug_varnames)

.note.gnu.arm.ident
 *(.note.gnu.arm.ident)

.ARM.attributes
                0x00000000       0x29
 *(.ARM.attributes)
 .ARM.attributes
                0x00000000       0x1d c:/program files (x86)/cypress/psoc creator/3.0/psoc creator/import/gnu_cs/arm/4.7.3/bin/../lib/gcc/arm-none-eabi/4.7.3/armv7-m/crti.o
 .ARM.attributes
                0x0000001d       0x2d c:/program files (x86)/cypress/psoc creator/3.0/psoc creator/import/gnu_cs/arm/4.7.3/bin/../lib/gcc/arm-none-eabi/4.7.3/armv7-m/crtbegin.o
 .ARM.attributes
                0x0000004a       0x1b c:/program files (x86)/cypress/psoc creator/3.0/psoc creator/import/gnu_cs/arm/4.7.3/bin/../lib/gcc/arm-none-eabi/4.7.3/../../../../arm-none-eabi/lib/armv7-m/crt0.o
 .ARM.attributes
                0x00000065       0x33 .\CortexM3\ARM_GCC_473\Debug\main.o
 .ARM.attributes
                0x00000098       0x33 .\CortexM3\ARM_GCC_473\Debug\mem1.o
 .ARM.attributes
                0x000000cb       0x33 .\CortexM3\ARM_GCC_473\Debug\cymetadata.o
 .ARM.attributes
                0x000000fe       0x33 .\CortexM3\ARM_GCC_473\Debug\Cm3Start.o
 .ARM.attributes
                0x00000131       0x33 .\CortexM3\ARM_GCC_473\Debug\cybootloader.o
 .ARM.attributes
                0x00000164       0x33 .\CortexM3\ARM_GCC_473\Debug\PSoC_2_Pi.a(cyfitter_cfg.o)
 .ARM.attributes
                0x00000197       0x21 .\CortexM3\ARM_GCC_473\Debug\PSoC_2_Pi.a(CyBootAsmGnu.o)
 .ARM.attributes
                0x000001b8       0x33 .\CortexM3\ARM_GCC_473\Debug\PSoC_2_Pi.a(CyDmac.o)
 .ARM.attributes
                0x000001eb       0x33 .\CortexM3\ARM_GCC_473\Debug\PSoC_2_Pi.a(CyLib.o)
 .ARM.attributes
                0x0000021e       0x33 .\CortexM3\ARM_GCC_473\Debug\PSoC_2_Pi.a(cyPm.o)
 .ARM.attributes
                0x00000251       0x33 .\CortexM3\ARM_GCC_473\Debug\PSoC_2_Pi.a(PWM_1.o)
 .ARM.attributes
                0x00000284       0x33 .\CortexM3\ARM_GCC_473\Debug\PSoC_2_Pi.a(PWM_1_PM.o)
 .ARM.attributes
                0x000002b7       0x33 .\CortexM3\ARM_GCC_473\Debug\PSoC_2_Pi.a(ADC_SAR_1.o)
 .ARM.attributes
                0x000002ea       0x33 .\CortexM3\ARM_GCC_473\Debug\PSoC_2_Pi.a(ADC_SAR_1_INT.o)
 .ARM.attributes
                0x0000031d       0x33 .\CortexM3\ARM_GCC_473\Debug\PSoC_2_Pi.a(ADC_SAR_1_PM.o)
 .ARM.attributes
                0x00000350       0x33 .\CortexM3\ARM_GCC_473\Debug\PSoC_2_Pi.a(ADC_SAR_2.o)
 .ARM.attributes
                0x00000383       0x33 .\CortexM3\ARM_GCC_473\Debug\PSoC_2_Pi.a(ADC_SAR_2_INT.o)
 .ARM.attributes
                0x000003b6       0x33 .\CortexM3\ARM_GCC_473\Debug\PSoC_2_Pi.a(ADC_SAR_2_PM.o)
 .ARM.attributes
                0x000003e9       0x33 .\CortexM3\ARM_GCC_473\Debug\PSoC_2_Pi.a(ADC_SAR_1_theACLK.o)
 .ARM.attributes
                0x0000041c       0x33 .\CortexM3\ARM_GCC_473\Debug\PSoC_2_Pi.a(ADC_SAR_2_theACLK.o)
 .ARM.attributes
                0x0000044f       0x33 .\CortexM3\ARM_GCC_473\Debug\PSoC_2_Pi.a(VDAC8_1.o)
 .ARM.attributes
                0x00000482       0x33 .\CortexM3\ARM_GCC_473\Debug\PSoC_2_Pi.a(VDAC8_1_PM.o)
 .ARM.attributes
                0x000004b5       0x33 .\CortexM3\ARM_GCC_473\Debug\PSoC_2_Pi.a(VDAC8_2.o)
 .ARM.attributes
                0x000004e8       0x33 .\CortexM3\ARM_GCC_473\Debug\PSoC_2_Pi.a(VDAC8_2_PM.o)
 .ARM.attributes
                0x0000051b       0x33 .\CortexM3\ARM_GCC_473\Debug\PSoC_2_Pi.a(IDAC8_1.o)
 .ARM.attributes
                0x0000054e       0x33 .\CortexM3\ARM_GCC_473\Debug\PSoC_2_Pi.a(IDAC8_1_PM.o)
 .ARM.attributes
                0x00000581       0x33 .\CortexM3\ARM_GCC_473\Debug\PSoC_2_Pi.a(WaveDAC_clk.o)
 .ARM.attributes
                0x000005b4       0x33 .\CortexM3\ARM_GCC_473\Debug\PSoC_2_Pi.a(WaveDAC8_1.o)
 .ARM.attributes
                0x000005e7       0x33 .\CortexM3\ARM_GCC_473\Debug\PSoC_2_Pi.a(WaveDAC8_1_PM.o)
 .ARM.attributes
                0x0000061a       0x33 .\CortexM3\ARM_GCC_473\Debug\PSoC_2_Pi.a(WaveDAC8_1_Wave1_DMA_dma.o)
 .ARM.attributes
                0x0000064d       0x33 .\CortexM3\ARM_GCC_473\Debug\PSoC_2_Pi.a(WaveDAC8_1_Wave2_DMA_dma.o)
 .ARM.attributes
                0x00000680       0x33 .\CortexM3\ARM_GCC_473\Debug\PSoC_2_Pi.a(WaveDAC8_1_VDAC8.o)
 .ARM.attributes
                0x000006b3       0x33 .\CortexM3\ARM_GCC_473\Debug\PSoC_2_Pi.a(WaveDAC8_1_VDAC8_PM.o)
 .ARM.attributes
                0x000006e6       0x33 .\CortexM3\ARM_GCC_473\Debug\PSoC_2_Pi.a(Control_Reg_1.o)
 .ARM.attributes
                0x00000719       0x33 .\CortexM3\ARM_GCC_473\Debug\PSoC_2_Pi.a(Status_Reg_1.o)
 .ARM.attributes
                0x0000074c       0x33 .\CortexM3\ARM_GCC_473\Debug\PSoC_2_Pi.a(ADC_DelSig_1.o)
 .ARM.attributes
                0x0000077f       0x33 .\CortexM3\ARM_GCC_473\Debug\PSoC_2_Pi.a(ADC_DelSig_1_PM.o)
 .ARM.attributes
                0x000007b2       0x33 .\CortexM3\ARM_GCC_473\Debug\PSoC_2_Pi.a(ADC_DelSig_1_INT.o)
 .ARM.attributes
                0x000007e5       0x33 .\CortexM3\ARM_GCC_473\Debug\PSoC_2_Pi.a(PWM_2.o)
 .ARM.attributes
                0x00000818       0x33 .\CortexM3\ARM_GCC_473\Debug\PSoC_2_Pi.a(PWM_2_PM.o)
 .ARM.attributes
                0x0000084b       0x33 .\CortexM3\ARM_GCC_473\Debug\PSoC_2_Pi.a(PWM_3.o)
 .ARM.attributes
                0x0000087e       0x33 .\CortexM3\ARM_GCC_473\Debug\PSoC_2_Pi.a(PWM_3_PM.o)
 .ARM.attributes
                0x000008b1       0x33 .\CortexM3\ARM_GCC_473\Debug\PSoC_2_Pi.a(PWM_4.o)
 .ARM.attributes
                0x000008e4       0x33 .\CortexM3\ARM_GCC_473\Debug\PSoC_2_Pi.a(PWM_4_PM.o)
 .ARM.attributes
                0x00000917       0x33 .\CortexM3\ARM_GCC_473\Debug\PSoC_2_Pi.a(PWM_5.o)
 .ARM.attributes
                0x0000094a       0x33 .\CortexM3\ARM_GCC_473\Debug\PSoC_2_Pi.a(PWM_5_PM.o)
 .ARM.attributes
                0x0000097d       0x33 .\CortexM3\ARM_GCC_473\Debug\PSoC_2_Pi.a(PWM_6.o)
 .ARM.attributes
                0x000009b0       0x33 .\CortexM3\ARM_GCC_473\Debug\PSoC_2_Pi.a(PWM_6_PM.o)
 .ARM.attributes
                0x000009e3       0x33 .\CortexM3\ARM_GCC_473\Debug\PSoC_2_Pi.a(PWM_7.o)
 .ARM.attributes
                0x00000a16       0x33 .\CortexM3\ARM_GCC_473\Debug\PSoC_2_Pi.a(PWM_7_PM.o)
 .ARM.attributes
                0x00000a49       0x33 .\CortexM3\ARM_GCC_473\Debug\PSoC_2_Pi.a(PWM_8.o)
 .ARM.attributes
                0x00000a7c       0x33 .\CortexM3\ARM_GCC_473\Debug\PSoC_2_Pi.a(PWM_8_PM.o)
 .ARM.attributes
                0x00000aaf       0x33 .\CortexM3\ARM_GCC_473\Debug\PSoC_2_Pi.a(Control_Reg_2.o)
 .ARM.attributes
                0x00000ae2       0x33 .\CortexM3\ARM_GCC_473\Debug\PSoC_2_Pi.a(Status_Reg_2.o)
 .ARM.attributes
                0x00000b15       0x33 .\CortexM3\ARM_GCC_473\Debug\PSoC_2_Pi.a(ADC_DelSig_1_AMux.o)
 .ARM.attributes
                0x00000b48       0x33 .\CortexM3\ARM_GCC_473\Debug\PSoC_2_Pi.a(ADC_DelSig_1_Ext_CP_Clk.o)
 .ARM.attributes
                0x00000b7b       0x33 .\CortexM3\ARM_GCC_473\Debug\PSoC_2_Pi.a(ADC_DelSig_1_theACLK.o)
 .ARM.attributes
                0x00000bae       0x33 .\CortexM3\ARM_GCC_473\Debug\PSoC_2_Pi.a(WaveDAC8_1_BuffAmp.o)
 .ARM.attributes
                0x00000be1       0x33 .\CortexM3\ARM_GCC_473\Debug\PSoC_2_Pi.a(Control_Reg_3.o)
 .ARM.attributes
                0x00000c14       0x33 .\CortexM3\ARM_GCC_473\Debug\PSoC_2_Pi.a(Status_Reg_3.o)
 .ARM.attributes
                0x00000c47       0x33 .\CortexM3\ARM_GCC_473\Debug\PSoC_2_Pi.a(PWM_1_2_clk.o)
 .ARM.attributes
                0x00000c7a       0x33 .\CortexM3\ARM_GCC_473\Debug\PSoC_2_Pi.a(PWM_3_4_clk.o)
 .ARM.attributes
                0x00000cad       0x33 .\CortexM3\ARM_GCC_473\Debug\PSoC_2_Pi.a(PWM_5_6_clk.o)
 .ARM.attributes
                0x00000ce0       0x33 .\CortexM3\ARM_GCC_473\Debug\PSoC_2_Pi.a(PWM_7_8_clk.o)
 .ARM.attributes
                0x00000d13       0x33 .\CortexM3\ARM_GCC_473\Debug\PSoC_2_Pi.a(I2C_1.o)
 .ARM.attributes
                0x00000d46       0x33 .\CortexM3\ARM_GCC_473\Debug\PSoC_2_Pi.a(I2C_1_INT.o)
 .ARM.attributes
                0x00000d79       0x33 .\CortexM3\ARM_GCC_473\Debug\PSoC_2_Pi.a(I2C_1_PM.o)
 .ARM.attributes
                0x00000dac       0x33 .\CortexM3\ARM_GCC_473\Debug\PSoC_2_Pi.a(I2C_1_SLAVE.o)
 .ARM.attributes
                0x00000ddf       0x33 .\CortexM3\ARM_GCC_473\Debug\PSoC_2_Pi.a(CyFlash.o)
 .ARM.attributes
                0x00000e12       0x33 .\CortexM3\ARM_GCC_473\Debug\PSoC_2_Pi.a(CySpc.o)
 .ARM.attributes
                0x00000e45       0x1d c:/program files (x86)/cypress/psoc creator/3.0/psoc creator/import/gnu_cs/arm/4.7.3/bin/../lib/gcc/arm-none-eabi/4.7.3/armv7-m\libgcc.a(_arm_addsubdf3.o)
 .ARM.attributes
                0x00000e62       0x1d c:/program files (x86)/cypress/psoc creator/3.0/psoc creator/import/gnu_cs/arm/4.7.3/bin/../lib/gcc/arm-none-eabi/4.7.3/armv7-m\libgcc.a(_arm_muldivdf3.o)
 .ARM.attributes
                0x00000e7f       0x1d c:/program files (x86)/cypress/psoc creator/3.0/psoc creator/import/gnu_cs/arm/4.7.3/bin/../lib/gcc/arm-none-eabi/4.7.3/armv7-m\libgcc.a(_arm_cmpdf2.o)
 .ARM.attributes
                0x00000e9c       0x1d c:/program files (x86)/cypress/psoc creator/3.0/psoc creator/import/gnu_cs/arm/4.7.3/bin/../lib/gcc/arm-none-eabi/4.7.3/armv7-m\libgcc.a(_arm_fixunsdfsi.o)
 .ARM.attributes
                0x00000eb9       0x1d c:/program files (x86)/cypress/psoc creator/3.0/psoc creator/import/gnu_cs/arm/4.7.3/bin/../lib/gcc/arm-none-eabi/4.7.3/armv7-m\libgcc.a(_arm_addsubsf3.o)
 .ARM.attributes
                0x00000ed6       0x1d c:/program files (x86)/cypress/psoc creator/3.0/psoc creator/import/gnu_cs/arm/4.7.3/bin/../lib/gcc/arm-none-eabi/4.7.3/armv7-m\libgcc.a(_arm_muldivsf3.o)
 .ARM.attributes
                0x00000ef3       0x1d c:/program files (x86)/cypress/psoc creator/3.0/psoc creator/import/gnu_cs/arm/4.7.3/bin/../lib/gcc/arm-none-eabi/4.7.3/armv7-m\libgcc.a(_arm_fixunssfsi.o)
 .ARM.attributes
                0x00000f10       0x1d c:/program files (x86)/cypress/psoc creator/3.0/psoc creator/import/gnu_cs/arm/4.7.3/bin/../lib/gcc/arm-none-eabi/4.7.3/armv7-m\libgcc.a(_aeabi_ldivmod.o)
 .ARM.attributes
                0x00000f2d       0x2d c:/program files (x86)/cypress/psoc creator/3.0/psoc creator/import/gnu_cs/arm/4.7.3/bin/../lib/gcc/arm-none-eabi/4.7.3/armv7-m\libgcc.a(bpabi.o)
 .ARM.attributes
                0x00000f5a       0x1d c:/program files (x86)/cypress/psoc creator/3.0/psoc creator/import/gnu_cs/arm/4.7.3/bin/../lib/gcc/arm-none-eabi/4.7.3/armv7-m\libgcc.a(_dvmd_tls.o)
 .ARM.attributes
                0x00000f77       0x2d c:/program files (x86)/cypress/psoc creator/3.0/psoc creator/import/gnu_cs/arm/4.7.3/bin/../lib/gcc/arm-none-eabi/4.7.3/armv7-m\libgcc.a(_divdi3.o)
 .ARM.attributes
                0x00000fa4       0x2d c:/program files (x86)/cypress/psoc creator/3.0/psoc creator/import/gnu_cs/arm/4.7.3/bin/../lib/gcc/arm-none-eabi/4.7.3/armv7-m\libgcc.a(_udivdi3.o)
 .ARM.attributes
                0x00000fd1       0x2d c:/program files (x86)/cypress/psoc creator/3.0/psoc creator/import/gnu_cs/arm/4.7.3/bin/../lib/gcc/arm-none-eabi/4.7.3/../../../../arm-none-eabi/lib/armv7-m\libc_s.a(lib_a-__atexit2.o)
 .ARM.attributes
                0x00000ffe       0x2d c:/program files (x86)/cypress/psoc creator/3.0/psoc creator/import/gnu_cs/arm/4.7.3/bin/../lib/gcc/arm-none-eabi/4.7.3/../../../../arm-none-eabi/lib/armv7-m\libc_s.a(lib_a-exit.o)
 .ARM.attributes
                0x0000102b       0x2d c:/program files (x86)/cypress/psoc creator/3.0/psoc creator/import/gnu_cs/arm/4.7.3/bin/../lib/gcc/arm-none-eabi/4.7.3/../../../../arm-none-eabi/lib/armv7-m\libc_s.a(lib_a-fini.o)
 .ARM.attributes
                0x00001058       0x2d c:/program files (x86)/cypress/psoc creator/3.0/psoc creator/import/gnu_cs/arm/4.7.3/bin/../lib/gcc/arm-none-eabi/4.7.3/../../../../arm-none-eabi/lib/armv7-m\libc_s.a(lib_a-impure.o)
 .ARM.attributes
                0x00001085       0x2d c:/program files (x86)/cypress/psoc creator/3.0/psoc creator/import/gnu_cs/arm/4.7.3/bin/../lib/gcc/arm-none-eabi/4.7.3/../../../../arm-none-eabi/lib/armv7-m\libc_s.a(lib_a-init.o)
 .ARM.attributes
                0x000010b2       0x2d c:/program files (x86)/cypress/psoc creator/3.0/psoc creator/import/gnu_cs/arm/4.7.3/bin/../lib/gcc/arm-none-eabi/4.7.3/../../../../arm-none-eabi/lib/armv7-m\libc_s.a(lib_a-memcpy.o)
 .ARM.attributes
                0x000010df       0x2d c:/program files (x86)/cypress/psoc creator/3.0/psoc creator/import/gnu_cs/arm/4.7.3/bin/../lib/gcc/arm-none-eabi/4.7.3/../../../../arm-none-eabi/lib/armv7-m\libc_s.a(lib_a-memset.o)
 .ARM.attributes
                0x0000110c       0x2d c:/program files (x86)/cypress/psoc creator/3.0/psoc creator/import/gnu_cs/arm/4.7.3/bin/../lib/gcc/arm-none-eabi/4.7.3/armv7-m/crtend.o
 .ARM.attributes
                0x00001139       0x1d c:/program files (x86)/cypress/psoc creator/3.0/psoc creator/import/gnu_cs/arm/4.7.3/bin/../lib/gcc/arm-none-eabi/4.7.3/armv7-m/crtn.o

/DISCARD/
 *(.note.GNU-stack)
OUTPUT(.\CortexM3\ARM_GCC_473\Debug\PSoC_2_Pi.elf elf32-littlearm)
