ARM GAS  C:\Users\Brian\AppData\Local\Temp\ccwQyePA.s 			page 1


   1              		.syntax unified
   2              		.cpu cortex-m3
   3              		.fpu softvfp
   4              		.eabi_attribute 20, 1
   5              		.eabi_attribute 21, 1
   6              		.eabi_attribute 23, 3
   7              		.eabi_attribute 24, 1
   8              		.eabi_attribute 25, 1
   9              		.eabi_attribute 26, 1
  10              		.eabi_attribute 30, 6
  11              		.eabi_attribute 34, 1
  12              		.eabi_attribute 18, 4
  13              		.thumb
  14              		.file	"SPIS_1.c"
  15              		.text
  16              	.Ltext0:
  17              		.cfi_sections	.debug_frame
  18              		.global	SPIS_1_initVar
  19              		.bss
  20              		.type	SPIS_1_initVar, %object
  21              		.size	SPIS_1_initVar, 1
  22              	SPIS_1_initVar:
  23 0000 00       		.space	1
  24              		.comm	SPIS_1_swStatusTx,1,1
  25              		.comm	SPIS_1_swStatusRx,1,1
  26              		.section	.text.SPIS_1_Init,"ax",%progbits
  27              		.align	2
  28              		.global	SPIS_1_Init
  29              		.thumb
  30              		.thumb_func
  31              		.type	SPIS_1_Init, %function
  32              	SPIS_1_Init:
  33              	.LFB0:
  34              		.file 1 ".\\Generated_Source\\PSoC5\\SPIS_1.c"
   1:.\Generated_Source\PSoC5/SPIS_1.c **** /*******************************************************************************
   2:.\Generated_Source\PSoC5/SPIS_1.c **** * File Name: SPIS_1.c
   3:.\Generated_Source\PSoC5/SPIS_1.c **** * Version 2.60
   4:.\Generated_Source\PSoC5/SPIS_1.c **** *
   5:.\Generated_Source\PSoC5/SPIS_1.c **** * Description:
   6:.\Generated_Source\PSoC5/SPIS_1.c **** *  This file provides all API functionality of the SPI Slave component.
   7:.\Generated_Source\PSoC5/SPIS_1.c **** *
   8:.\Generated_Source\PSoC5/SPIS_1.c **** * Note:
   9:.\Generated_Source\PSoC5/SPIS_1.c **** *  None.
  10:.\Generated_Source\PSoC5/SPIS_1.c **** *
  11:.\Generated_Source\PSoC5/SPIS_1.c **** ********************************************************************************
  12:.\Generated_Source\PSoC5/SPIS_1.c **** * Copyright 2008-2013, Cypress Semiconductor Corporation.  All rights reserved.
  13:.\Generated_Source\PSoC5/SPIS_1.c **** * You may use this file only in accordance with the license, terms, conditions,
  14:.\Generated_Source\PSoC5/SPIS_1.c **** * disclaimers, and limitations in the end user license agreement accompanying
  15:.\Generated_Source\PSoC5/SPIS_1.c **** * the software package with which this file was provided.
  16:.\Generated_Source\PSoC5/SPIS_1.c **** *******************************************************************************/
  17:.\Generated_Source\PSoC5/SPIS_1.c **** 
  18:.\Generated_Source\PSoC5/SPIS_1.c **** #include "SPIS_1_PVT.h"
  19:.\Generated_Source\PSoC5/SPIS_1.c **** 
  20:.\Generated_Source\PSoC5/SPIS_1.c **** #if (SPIS_1_TX_SOFTWARE_BUF_ENABLED)
  21:.\Generated_Source\PSoC5/SPIS_1.c **** 
  22:.\Generated_Source\PSoC5/SPIS_1.c ****     volatile uint8 SPIS_1_txBuffer[SPIS_1_TX_BUFFER_SIZE] = {0u};
  23:.\Generated_Source\PSoC5/SPIS_1.c ****     volatile uint8 SPIS_1_txBufferRead;
ARM GAS  C:\Users\Brian\AppData\Local\Temp\ccwQyePA.s 			page 2


  24:.\Generated_Source\PSoC5/SPIS_1.c ****     volatile uint8 SPIS_1_txBufferWrite;
  25:.\Generated_Source\PSoC5/SPIS_1.c ****     volatile uint8 SPIS_1_txBufferFull;
  26:.\Generated_Source\PSoC5/SPIS_1.c **** 
  27:.\Generated_Source\PSoC5/SPIS_1.c **** #endif /* SPIS_1_TX_SOFTWARE_BUF_ENABLED*/
  28:.\Generated_Source\PSoC5/SPIS_1.c **** 
  29:.\Generated_Source\PSoC5/SPIS_1.c **** #if (SPIS_1_RX_SOFTWARE_BUF_ENABLED)
  30:.\Generated_Source\PSoC5/SPIS_1.c **** 
  31:.\Generated_Source\PSoC5/SPIS_1.c ****     volatile uint8 SPIS_1_rxBuffer[SPIS_1_RX_BUFFER_SIZE] = {0u};
  32:.\Generated_Source\PSoC5/SPIS_1.c ****     volatile uint8 SPIS_1_rxBufferRead;
  33:.\Generated_Source\PSoC5/SPIS_1.c ****     volatile uint8 SPIS_1_rxBufferWrite;
  34:.\Generated_Source\PSoC5/SPIS_1.c ****     volatile uint8 SPIS_1_rxBufferFull;
  35:.\Generated_Source\PSoC5/SPIS_1.c **** 
  36:.\Generated_Source\PSoC5/SPIS_1.c **** #endif /* SPIS_1_RX_SOFTWARE_BUF_ENABLED */
  37:.\Generated_Source\PSoC5/SPIS_1.c **** 
  38:.\Generated_Source\PSoC5/SPIS_1.c **** uint8 SPIS_1_initVar = 0u;
  39:.\Generated_Source\PSoC5/SPIS_1.c **** 
  40:.\Generated_Source\PSoC5/SPIS_1.c **** volatile uint8 SPIS_1_swStatusTx;
  41:.\Generated_Source\PSoC5/SPIS_1.c **** volatile uint8 SPIS_1_swStatusRx;
  42:.\Generated_Source\PSoC5/SPIS_1.c **** 
  43:.\Generated_Source\PSoC5/SPIS_1.c **** 
  44:.\Generated_Source\PSoC5/SPIS_1.c **** /*******************************************************************************
  45:.\Generated_Source\PSoC5/SPIS_1.c **** * Function Name: SPIS_1_Init
  46:.\Generated_Source\PSoC5/SPIS_1.c **** ********************************************************************************
  47:.\Generated_Source\PSoC5/SPIS_1.c **** *
  48:.\Generated_Source\PSoC5/SPIS_1.c **** * Summary:
  49:.\Generated_Source\PSoC5/SPIS_1.c **** *  Inits/Restores default SPIS configuration provided with customizer.
  50:.\Generated_Source\PSoC5/SPIS_1.c **** *
  51:.\Generated_Source\PSoC5/SPIS_1.c **** * Parameters:
  52:.\Generated_Source\PSoC5/SPIS_1.c **** *  None.
  53:.\Generated_Source\PSoC5/SPIS_1.c **** *
  54:.\Generated_Source\PSoC5/SPIS_1.c **** * Return:
  55:.\Generated_Source\PSoC5/SPIS_1.c **** *  None.
  56:.\Generated_Source\PSoC5/SPIS_1.c **** *
  57:.\Generated_Source\PSoC5/SPIS_1.c **** * Side Effects:
  58:.\Generated_Source\PSoC5/SPIS_1.c **** *  When this function is called it initializes all of the necessary parameters
  59:.\Generated_Source\PSoC5/SPIS_1.c **** *  for execution. i.e. setting the initial interrupt mask, configuring the
  60:.\Generated_Source\PSoC5/SPIS_1.c **** *  interrupt service routine, configuring the bit-counter parameters and
  61:.\Generated_Source\PSoC5/SPIS_1.c **** *  clearing the FIFO and Status Register.
  62:.\Generated_Source\PSoC5/SPIS_1.c **** *
  63:.\Generated_Source\PSoC5/SPIS_1.c **** * Reentrant:
  64:.\Generated_Source\PSoC5/SPIS_1.c **** *  No.
  65:.\Generated_Source\PSoC5/SPIS_1.c **** *
  66:.\Generated_Source\PSoC5/SPIS_1.c **** *******************************************************************************/
  67:.\Generated_Source\PSoC5/SPIS_1.c **** void SPIS_1_Init(void) 
  68:.\Generated_Source\PSoC5/SPIS_1.c **** {
  35              		.loc 1 68 0
  36              		.cfi_startproc
  37              		@ args = 0, pretend = 0, frame = 0
  38              		@ frame_needed = 1, uses_anonymous_args = 0
  39 0000 80B5     		push	{r7, lr}
  40              	.LCFI0:
  41              		.cfi_def_cfa_offset 8
  42              		.cfi_offset 7, -8
  43              		.cfi_offset 14, -4
  44 0002 00AF     		add	r7, sp, #0
  45              	.LCFI1:
  46              		.cfi_def_cfa_register 7
ARM GAS  C:\Users\Brian\AppData\Local\Temp\ccwQyePA.s 			page 3


  69:.\Generated_Source\PSoC5/SPIS_1.c ****     /*Initialize the Bit counter */
  70:.\Generated_Source\PSoC5/SPIS_1.c ****     SPIS_1_COUNTER_PERIOD_REG = SPIS_1_BITCTR_INIT;
  47              		.loc 1 70 0
  48 0004 46F28943 		movw	r3, #25737
  49 0008 C4F20003 		movt	r3, 16384
  50 000c 4FF00702 		mov	r2, #7
  51 0010 1A70     		strb	r2, [r3, #0]
  71:.\Generated_Source\PSoC5/SPIS_1.c **** 
  72:.\Generated_Source\PSoC5/SPIS_1.c ****     /* ISR initialization */
  73:.\Generated_Source\PSoC5/SPIS_1.c ****     #if(SPIS_1_INTERNAL_TX_INT_ENABLED)
  74:.\Generated_Source\PSoC5/SPIS_1.c **** 
  75:.\Generated_Source\PSoC5/SPIS_1.c ****         CyIntDisable(SPIS_1_TX_ISR_NUMBER);
  76:.\Generated_Source\PSoC5/SPIS_1.c **** 
  77:.\Generated_Source\PSoC5/SPIS_1.c ****         /* Set the ISR to point to the SPIS_1_isr Interrupt. */
  78:.\Generated_Source\PSoC5/SPIS_1.c ****         (void)CyIntSetVector(SPIS_1_TX_ISR_NUMBER, &SPIS_1_TX_ISR);
  79:.\Generated_Source\PSoC5/SPIS_1.c **** 
  80:.\Generated_Source\PSoC5/SPIS_1.c ****         /* Set the priority. */
  81:.\Generated_Source\PSoC5/SPIS_1.c ****         CyIntSetPriority(SPIS_1_TX_ISR_NUMBER, SPIS_1_TX_ISR_PRIORITY);
  82:.\Generated_Source\PSoC5/SPIS_1.c **** 
  83:.\Generated_Source\PSoC5/SPIS_1.c ****     #endif /* SPIS_1_INTERNAL_TX_INT_ENABLED */
  84:.\Generated_Source\PSoC5/SPIS_1.c **** 
  85:.\Generated_Source\PSoC5/SPIS_1.c ****     #if(SPIS_1_INTERNAL_RX_INT_ENABLED)
  86:.\Generated_Source\PSoC5/SPIS_1.c **** 
  87:.\Generated_Source\PSoC5/SPIS_1.c ****         CyIntDisable(SPIS_1_RX_ISR_NUMBER);
  88:.\Generated_Source\PSoC5/SPIS_1.c **** 
  89:.\Generated_Source\PSoC5/SPIS_1.c ****         /* Set the ISR to point to the SPIS_1_isr Interrupt. */
  90:.\Generated_Source\PSoC5/SPIS_1.c ****         (void)CyIntSetVector(SPIS_1_RX_ISR_NUMBER, &SPIS_1_RX_ISR);
  91:.\Generated_Source\PSoC5/SPIS_1.c **** 
  92:.\Generated_Source\PSoC5/SPIS_1.c ****         /* Set the priority. */
  93:.\Generated_Source\PSoC5/SPIS_1.c ****         CyIntSetPriority(SPIS_1_RX_ISR_NUMBER, SPIS_1_RX_ISR_PRIORITY);
  94:.\Generated_Source\PSoC5/SPIS_1.c **** 
  95:.\Generated_Source\PSoC5/SPIS_1.c ****     #endif /* SPIS_1_INTERNAL_RX_INT_ENABLED */
  96:.\Generated_Source\PSoC5/SPIS_1.c **** 
  97:.\Generated_Source\PSoC5/SPIS_1.c ****     /* Clear any stray data from the RX and TX FIFO */
  98:.\Generated_Source\PSoC5/SPIS_1.c ****     SPIS_1_ClearFIFO();
  52              		.loc 1 98 0
  53 0012 FFF7FEFF 		bl	SPIS_1_ClearFIFO
  99:.\Generated_Source\PSoC5/SPIS_1.c **** 
 100:.\Generated_Source\PSoC5/SPIS_1.c ****     #if(SPIS_1_RX_SOFTWARE_BUF_ENABLED)
 101:.\Generated_Source\PSoC5/SPIS_1.c ****         SPIS_1_txBufferFull = 0u;
 102:.\Generated_Source\PSoC5/SPIS_1.c ****         SPIS_1_rxBufferRead = 0u;
 103:.\Generated_Source\PSoC5/SPIS_1.c ****         SPIS_1_rxBufferWrite = 0u;
 104:.\Generated_Source\PSoC5/SPIS_1.c ****     #endif /* SPIS_1_RX_SOFTWARE_BUF_ENABLED */
 105:.\Generated_Source\PSoC5/SPIS_1.c **** 
 106:.\Generated_Source\PSoC5/SPIS_1.c ****     #if(SPIS_1_TX_SOFTWARE_BUF_ENABLED)
 107:.\Generated_Source\PSoC5/SPIS_1.c ****         SPIS_1_txBufferFull = 0u;
 108:.\Generated_Source\PSoC5/SPIS_1.c ****         SPIS_1_txBufferRead = 0u;
 109:.\Generated_Source\PSoC5/SPIS_1.c ****         SPIS_1_txBufferWrite = 0u;
 110:.\Generated_Source\PSoC5/SPIS_1.c ****     #endif /* SPIS_1_TX_SOFTWARE_BUF_ENABLED */
 111:.\Generated_Source\PSoC5/SPIS_1.c **** 
 112:.\Generated_Source\PSoC5/SPIS_1.c ****     (void) SPIS_1_ReadTxStatus(); /* Clear any pending status bits */
  54              		.loc 1 112 0
  55 0016 FFF7FEFF 		bl	SPIS_1_ReadTxStatus
 113:.\Generated_Source\PSoC5/SPIS_1.c ****     (void) SPIS_1_ReadRxStatus(); /* Clear any pending status bits */
  56              		.loc 1 113 0
  57 001a FFF7FEFF 		bl	SPIS_1_ReadRxStatus
 114:.\Generated_Source\PSoC5/SPIS_1.c **** 
ARM GAS  C:\Users\Brian\AppData\Local\Temp\ccwQyePA.s 			page 4


 115:.\Generated_Source\PSoC5/SPIS_1.c **** 
 116:.\Generated_Source\PSoC5/SPIS_1.c ****     /* Configure the Initial interrupt mask */
 117:.\Generated_Source\PSoC5/SPIS_1.c ****     #if (SPIS_1_TX_SOFTWARE_BUF_ENABLED)
 118:.\Generated_Source\PSoC5/SPIS_1.c ****         SPIS_1_TX_STATUS_MASK_REG  = (SPIS_1_TX_INIT_INTERRUPTS_MASK &
 119:.\Generated_Source\PSoC5/SPIS_1.c ****                                                 (uint8)~SPIS_1_STS_TX_FIFO_NOT_FULL);
 120:.\Generated_Source\PSoC5/SPIS_1.c ****     #else /* SPIS_1_TX_SOFTWARE_BUF_ENABLED */
 121:.\Generated_Source\PSoC5/SPIS_1.c ****         SPIS_1_TX_STATUS_MASK_REG  = SPIS_1_TX_INIT_INTERRUPTS_MASK;
  58              		.loc 1 121 0
  59 001e 46F28953 		movw	r3, #25993
  60 0022 C4F20003 		movt	r3, 16384
  61 0026 4FF00002 		mov	r2, #0
  62 002a 1A70     		strb	r2, [r3, #0]
 122:.\Generated_Source\PSoC5/SPIS_1.c ****     #endif /* SPIS_1_TX_SOFTWARE_BUF_ENABLED */
 123:.\Generated_Source\PSoC5/SPIS_1.c **** 
 124:.\Generated_Source\PSoC5/SPIS_1.c ****     SPIS_1_RX_STATUS_MASK_REG  = SPIS_1_RX_INIT_INTERRUPTS_MASK;
  63              		.loc 1 124 0
  64 002c 46F28843 		movw	r3, #25736
  65 0030 C4F20003 		movt	r3, 16384
  66 0034 4FF00002 		mov	r2, #0
  67 0038 1A70     		strb	r2, [r3, #0]
 125:.\Generated_Source\PSoC5/SPIS_1.c **** 
 126:.\Generated_Source\PSoC5/SPIS_1.c **** }
  68              		.loc 1 126 0
  69 003a 80BD     		pop	{r7, pc}
  70              		.cfi_endproc
  71              	.LFE0:
  72              		.size	SPIS_1_Init, .-SPIS_1_Init
  73              		.section	.text.SPIS_1_Enable,"ax",%progbits
  74              		.align	2
  75              		.global	SPIS_1_Enable
  76              		.thumb
  77              		.thumb_func
  78              		.type	SPIS_1_Enable, %function
  79              	SPIS_1_Enable:
  80              	.LFB1:
 127:.\Generated_Source\PSoC5/SPIS_1.c **** 
 128:.\Generated_Source\PSoC5/SPIS_1.c **** 
 129:.\Generated_Source\PSoC5/SPIS_1.c **** /*******************************************************************************
 130:.\Generated_Source\PSoC5/SPIS_1.c **** * Function Name: SPIS_1_Enable
 131:.\Generated_Source\PSoC5/SPIS_1.c **** ********************************************************************************
 132:.\Generated_Source\PSoC5/SPIS_1.c **** *
 133:.\Generated_Source\PSoC5/SPIS_1.c **** * Summary:
 134:.\Generated_Source\PSoC5/SPIS_1.c **** *  Enable SPIS component.
 135:.\Generated_Source\PSoC5/SPIS_1.c **** *
 136:.\Generated_Source\PSoC5/SPIS_1.c **** * Parameters:
 137:.\Generated_Source\PSoC5/SPIS_1.c **** *  None.
 138:.\Generated_Source\PSoC5/SPIS_1.c **** *
 139:.\Generated_Source\PSoC5/SPIS_1.c **** * Return:
 140:.\Generated_Source\PSoC5/SPIS_1.c **** *  None.
 141:.\Generated_Source\PSoC5/SPIS_1.c **** *
 142:.\Generated_Source\PSoC5/SPIS_1.c **** *******************************************************************************/
 143:.\Generated_Source\PSoC5/SPIS_1.c **** void SPIS_1_Enable(void) 
 144:.\Generated_Source\PSoC5/SPIS_1.c **** {
  81              		.loc 1 144 0
  82              		.cfi_startproc
  83              		@ args = 0, pretend = 0, frame = 8
  84              		@ frame_needed = 1, uses_anonymous_args = 0
ARM GAS  C:\Users\Brian\AppData\Local\Temp\ccwQyePA.s 			page 5


  85 0000 80B5     		push	{r7, lr}
  86              	.LCFI2:
  87              		.cfi_def_cfa_offset 8
  88              		.cfi_offset 7, -8
  89              		.cfi_offset 14, -4
  90 0002 82B0     		sub	sp, sp, #8
  91              	.LCFI3:
  92              		.cfi_def_cfa_offset 16
  93 0004 00AF     		add	r7, sp, #0
  94              	.LCFI4:
  95              		.cfi_def_cfa_register 7
 145:.\Generated_Source\PSoC5/SPIS_1.c ****     uint8 enableInterrupts;
 146:.\Generated_Source\PSoC5/SPIS_1.c ****     enableInterrupts = CyEnterCriticalSection();
  96              		.loc 1 146 0
  97 0006 FFF7FEFF 		bl	CyEnterCriticalSection
  98 000a 0346     		mov	r3, r0
  99 000c FB71     		strb	r3, [r7, #7]
 147:.\Generated_Source\PSoC5/SPIS_1.c **** 
 148:.\Generated_Source\PSoC5/SPIS_1.c ****     SPIS_1_COUNTER_CONTROL_REG |= SPIS_1_CNTR_ENABLE;
 100              		.loc 1 148 0
 101 000e 46F29943 		movw	r3, #25753
 102 0012 C4F20003 		movt	r3, 16384
 103 0016 46F29942 		movw	r2, #25753
 104 001a C4F20002 		movt	r2, 16384
 105 001e 1278     		ldrb	r2, [r2, #0]
 106 0020 D2B2     		uxtb	r2, r2
 107 0022 42F02002 		orr	r2, r2, #32
 108 0026 D2B2     		uxtb	r2, r2
 109 0028 1A70     		strb	r2, [r3, #0]
 149:.\Generated_Source\PSoC5/SPIS_1.c ****     SPIS_1_TX_STATUS_ACTL_REG |= SPIS_1_INT_ENABLE;
 110              		.loc 1 149 0
 111 002a 46F29953 		movw	r3, #26009
 112 002e C4F20003 		movt	r3, 16384
 113 0032 46F29952 		movw	r2, #26009
 114 0036 C4F20002 		movt	r2, 16384
 115 003a 1278     		ldrb	r2, [r2, #0]
 116 003c D2B2     		uxtb	r2, r2
 117 003e 42F01002 		orr	r2, r2, #16
 118 0042 D2B2     		uxtb	r2, r2
 119 0044 1A70     		strb	r2, [r3, #0]
 150:.\Generated_Source\PSoC5/SPIS_1.c ****     SPIS_1_RX_STATUS_ACTL_REG |= SPIS_1_INT_ENABLE;
 120              		.loc 1 150 0
 121 0046 46F29843 		movw	r3, #25752
 122 004a C4F20003 		movt	r3, 16384
 123 004e 46F29842 		movw	r2, #25752
 124 0052 C4F20002 		movt	r2, 16384
 125 0056 1278     		ldrb	r2, [r2, #0]
 126 0058 D2B2     		uxtb	r2, r2
 127 005a 42F01002 		orr	r2, r2, #16
 128 005e D2B2     		uxtb	r2, r2
 129 0060 1A70     		strb	r2, [r3, #0]
 151:.\Generated_Source\PSoC5/SPIS_1.c **** 
 152:.\Generated_Source\PSoC5/SPIS_1.c ****     CyExitCriticalSection(enableInterrupts);
 130              		.loc 1 152 0
 131 0062 FB79     		ldrb	r3, [r7, #7]	@ zero_extendqisi2
 132 0064 1846     		mov	r0, r3
 133 0066 FFF7FEFF 		bl	CyExitCriticalSection
ARM GAS  C:\Users\Brian\AppData\Local\Temp\ccwQyePA.s 			page 6


 153:.\Generated_Source\PSoC5/SPIS_1.c **** 
 154:.\Generated_Source\PSoC5/SPIS_1.c ****     #if(SPIS_1_INTERNAL_TX_INT_ENABLED)
 155:.\Generated_Source\PSoC5/SPIS_1.c ****         CyIntEnable(SPIS_1_TX_ISR_NUMBER);
 156:.\Generated_Source\PSoC5/SPIS_1.c ****     #endif /* SPIS_1_INTERNAL_TX_INT_ENABLED */
 157:.\Generated_Source\PSoC5/SPIS_1.c **** 
 158:.\Generated_Source\PSoC5/SPIS_1.c ****     #if(SPIS_1_INTERNAL_RX_INT_ENABLED)
 159:.\Generated_Source\PSoC5/SPIS_1.c ****         CyIntEnable(SPIS_1_RX_ISR_NUMBER);
 160:.\Generated_Source\PSoC5/SPIS_1.c ****     #endif /* SPIS_1_INTERNAL_RX_INT_ENABLED */
 161:.\Generated_Source\PSoC5/SPIS_1.c **** }
 134              		.loc 1 161 0
 135 006a 07F10807 		add	r7, r7, #8
 136 006e BD46     		mov	sp, r7
 137 0070 80BD     		pop	{r7, pc}
 138              		.cfi_endproc
 139              	.LFE1:
 140              		.size	SPIS_1_Enable, .-SPIS_1_Enable
 141 0072 00BF     		.section	.text.SPIS_1_Start,"ax",%progbits
 142              		.align	2
 143              		.global	SPIS_1_Start
 144              		.thumb
 145              		.thumb_func
 146              		.type	SPIS_1_Start, %function
 147              	SPIS_1_Start:
 148              	.LFB2:
 162:.\Generated_Source\PSoC5/SPIS_1.c **** 
 163:.\Generated_Source\PSoC5/SPIS_1.c **** 
 164:.\Generated_Source\PSoC5/SPIS_1.c **** /*******************************************************************************
 165:.\Generated_Source\PSoC5/SPIS_1.c **** * Function Name: SPIS_1_Start
 166:.\Generated_Source\PSoC5/SPIS_1.c **** ********************************************************************************
 167:.\Generated_Source\PSoC5/SPIS_1.c **** *
 168:.\Generated_Source\PSoC5/SPIS_1.c **** * Summary:
 169:.\Generated_Source\PSoC5/SPIS_1.c **** *  Initialize and Enable the SPI Slave component.
 170:.\Generated_Source\PSoC5/SPIS_1.c **** *
 171:.\Generated_Source\PSoC5/SPIS_1.c **** * Parameters:
 172:.\Generated_Source\PSoC5/SPIS_1.c **** *  None.
 173:.\Generated_Source\PSoC5/SPIS_1.c **** *
 174:.\Generated_Source\PSoC5/SPIS_1.c **** * Return:
 175:.\Generated_Source\PSoC5/SPIS_1.c **** *  None.
 176:.\Generated_Source\PSoC5/SPIS_1.c **** *
 177:.\Generated_Source\PSoC5/SPIS_1.c **** * Global variables:
 178:.\Generated_Source\PSoC5/SPIS_1.c **** *  SPIS_1_initVar - used to check initial configuration, modified on
 179:.\Generated_Source\PSoC5/SPIS_1.c **** *  first function call.
 180:.\Generated_Source\PSoC5/SPIS_1.c **** *
 181:.\Generated_Source\PSoC5/SPIS_1.c **** * Theory:
 182:.\Generated_Source\PSoC5/SPIS_1.c **** *  Enable the clock input to enable operation.
 183:.\Generated_Source\PSoC5/SPIS_1.c **** *
 184:.\Generated_Source\PSoC5/SPIS_1.c **** * Reentrant:
 185:.\Generated_Source\PSoC5/SPIS_1.c **** *  No.
 186:.\Generated_Source\PSoC5/SPIS_1.c **** *
 187:.\Generated_Source\PSoC5/SPIS_1.c **** *******************************************************************************/
 188:.\Generated_Source\PSoC5/SPIS_1.c **** void SPIS_1_Start(void) 
 189:.\Generated_Source\PSoC5/SPIS_1.c **** {
 149              		.loc 1 189 0
 150              		.cfi_startproc
 151              		@ args = 0, pretend = 0, frame = 0
 152              		@ frame_needed = 1, uses_anonymous_args = 0
 153 0000 80B5     		push	{r7, lr}
ARM GAS  C:\Users\Brian\AppData\Local\Temp\ccwQyePA.s 			page 7


 154              	.LCFI5:
 155              		.cfi_def_cfa_offset 8
 156              		.cfi_offset 7, -8
 157              		.cfi_offset 14, -4
 158 0002 00AF     		add	r7, sp, #0
 159              	.LCFI6:
 160              		.cfi_def_cfa_register 7
 190:.\Generated_Source\PSoC5/SPIS_1.c ****     if(SPIS_1_initVar == 0u)
 161              		.loc 1 190 0
 162 0004 40F20003 		movw	r3, #:lower16:SPIS_1_initVar
 163 0008 C0F20003 		movt	r3, #:upper16:SPIS_1_initVar
 164 000c 1B78     		ldrb	r3, [r3, #0]	@ zero_extendqisi2
 165 000e 002B     		cmp	r3, #0
 166 0010 08D1     		bne	.L4
 191:.\Generated_Source\PSoC5/SPIS_1.c ****     {
 192:.\Generated_Source\PSoC5/SPIS_1.c ****         SPIS_1_Init();
 167              		.loc 1 192 0
 168 0012 FFF7FEFF 		bl	SPIS_1_Init
 193:.\Generated_Source\PSoC5/SPIS_1.c ****         SPIS_1_initVar = 1u;
 169              		.loc 1 193 0
 170 0016 40F20003 		movw	r3, #:lower16:SPIS_1_initVar
 171 001a C0F20003 		movt	r3, #:upper16:SPIS_1_initVar
 172 001e 4FF00102 		mov	r2, #1
 173 0022 1A70     		strb	r2, [r3, #0]
 174              	.L4:
 194:.\Generated_Source\PSoC5/SPIS_1.c ****     }
 195:.\Generated_Source\PSoC5/SPIS_1.c **** 
 196:.\Generated_Source\PSoC5/SPIS_1.c ****     SPIS_1_Enable();
 175              		.loc 1 196 0
 176 0024 FFF7FEFF 		bl	SPIS_1_Enable
 197:.\Generated_Source\PSoC5/SPIS_1.c **** }
 177              		.loc 1 197 0
 178 0028 80BD     		pop	{r7, pc}
 179              		.cfi_endproc
 180              	.LFE2:
 181              		.size	SPIS_1_Start, .-SPIS_1_Start
 182 002a 00BF     		.section	.text.SPIS_1_Stop,"ax",%progbits
 183              		.align	2
 184              		.global	SPIS_1_Stop
 185              		.thumb
 186              		.thumb_func
 187              		.type	SPIS_1_Stop, %function
 188              	SPIS_1_Stop:
 189              	.LFB3:
 198:.\Generated_Source\PSoC5/SPIS_1.c **** 
 199:.\Generated_Source\PSoC5/SPIS_1.c **** 
 200:.\Generated_Source\PSoC5/SPIS_1.c **** /*******************************************************************************
 201:.\Generated_Source\PSoC5/SPIS_1.c **** * Function Name: SPIS_1_Stop
 202:.\Generated_Source\PSoC5/SPIS_1.c **** ********************************************************************************
 203:.\Generated_Source\PSoC5/SPIS_1.c **** *
 204:.\Generated_Source\PSoC5/SPIS_1.c **** * Summary:
 205:.\Generated_Source\PSoC5/SPIS_1.c **** *  Disable the SPI Slave component.
 206:.\Generated_Source\PSoC5/SPIS_1.c **** *
 207:.\Generated_Source\PSoC5/SPIS_1.c **** * Parameters:
 208:.\Generated_Source\PSoC5/SPIS_1.c **** *  None.
 209:.\Generated_Source\PSoC5/SPIS_1.c **** *
 210:.\Generated_Source\PSoC5/SPIS_1.c **** * Return:
ARM GAS  C:\Users\Brian\AppData\Local\Temp\ccwQyePA.s 			page 8


 211:.\Generated_Source\PSoC5/SPIS_1.c **** *  None.
 212:.\Generated_Source\PSoC5/SPIS_1.c **** *
 213:.\Generated_Source\PSoC5/SPIS_1.c **** * Theory:
 214:.\Generated_Source\PSoC5/SPIS_1.c **** *  Disable the internal interrupt if one is used.
 215:.\Generated_Source\PSoC5/SPIS_1.c **** *
 216:.\Generated_Source\PSoC5/SPIS_1.c **** *******************************************************************************/
 217:.\Generated_Source\PSoC5/SPIS_1.c **** void SPIS_1_Stop(void) 
 218:.\Generated_Source\PSoC5/SPIS_1.c **** {
 190              		.loc 1 218 0
 191              		.cfi_startproc
 192              		@ args = 0, pretend = 0, frame = 8
 193              		@ frame_needed = 1, uses_anonymous_args = 0
 194 0000 80B5     		push	{r7, lr}
 195              	.LCFI7:
 196              		.cfi_def_cfa_offset 8
 197              		.cfi_offset 7, -8
 198              		.cfi_offset 14, -4
 199 0002 82B0     		sub	sp, sp, #8
 200              	.LCFI8:
 201              		.cfi_def_cfa_offset 16
 202 0004 00AF     		add	r7, sp, #0
 203              	.LCFI9:
 204              		.cfi_def_cfa_register 7
 219:.\Generated_Source\PSoC5/SPIS_1.c ****     uint8 enableInterrupts;
 220:.\Generated_Source\PSoC5/SPIS_1.c ****     enableInterrupts = CyEnterCriticalSection();
 205              		.loc 1 220 0
 206 0006 FFF7FEFF 		bl	CyEnterCriticalSection
 207 000a 0346     		mov	r3, r0
 208 000c FB71     		strb	r3, [r7, #7]
 221:.\Generated_Source\PSoC5/SPIS_1.c **** 
 222:.\Generated_Source\PSoC5/SPIS_1.c ****     SPIS_1_TX_STATUS_ACTL_REG &= (uint8)~SPIS_1_INT_ENABLE;
 209              		.loc 1 222 0
 210 000e 46F29953 		movw	r3, #26009
 211 0012 C4F20003 		movt	r3, 16384
 212 0016 46F29952 		movw	r2, #26009
 213 001a C4F20002 		movt	r2, 16384
 214 001e 1278     		ldrb	r2, [r2, #0]
 215 0020 D2B2     		uxtb	r2, r2
 216 0022 22F01002 		bic	r2, r2, #16
 217 0026 D2B2     		uxtb	r2, r2
 218 0028 1A70     		strb	r2, [r3, #0]
 223:.\Generated_Source\PSoC5/SPIS_1.c ****     SPIS_1_RX_STATUS_ACTL_REG &= (uint8)~SPIS_1_INT_ENABLE;
 219              		.loc 1 223 0
 220 002a 46F29843 		movw	r3, #25752
 221 002e C4F20003 		movt	r3, 16384
 222 0032 46F29842 		movw	r2, #25752
 223 0036 C4F20002 		movt	r2, 16384
 224 003a 1278     		ldrb	r2, [r2, #0]
 225 003c D2B2     		uxtb	r2, r2
 226 003e 22F01002 		bic	r2, r2, #16
 227 0042 D2B2     		uxtb	r2, r2
 228 0044 1A70     		strb	r2, [r3, #0]
 224:.\Generated_Source\PSoC5/SPIS_1.c **** 
 225:.\Generated_Source\PSoC5/SPIS_1.c ****     CyExitCriticalSection(enableInterrupts);
 229              		.loc 1 225 0
 230 0046 FB79     		ldrb	r3, [r7, #7]	@ zero_extendqisi2
 231 0048 1846     		mov	r0, r3
ARM GAS  C:\Users\Brian\AppData\Local\Temp\ccwQyePA.s 			page 9


 232 004a FFF7FEFF 		bl	CyExitCriticalSection
 226:.\Generated_Source\PSoC5/SPIS_1.c **** 
 227:.\Generated_Source\PSoC5/SPIS_1.c ****     #if(SPIS_1_INTERNAL_TX_INT_ENABLED)
 228:.\Generated_Source\PSoC5/SPIS_1.c ****         CyIntDisable(SPIS_1_TX_ISR_NUMBER);
 229:.\Generated_Source\PSoC5/SPIS_1.c ****     #endif /* SPIS_1_INTERNAL_TX_INT_ENABLED */
 230:.\Generated_Source\PSoC5/SPIS_1.c **** 
 231:.\Generated_Source\PSoC5/SPIS_1.c ****     #if(SPIS_1_INTERNAL_RX_INT_ENABLED)
 232:.\Generated_Source\PSoC5/SPIS_1.c ****         CyIntDisable(SPIS_1_RX_ISR_NUMBER);
 233:.\Generated_Source\PSoC5/SPIS_1.c ****     #endif /* SPIS_1_INTERNAL_RX_INT_ENABLED */
 234:.\Generated_Source\PSoC5/SPIS_1.c **** }
 233              		.loc 1 234 0
 234 004e 07F10807 		add	r7, r7, #8
 235 0052 BD46     		mov	sp, r7
 236 0054 80BD     		pop	{r7, pc}
 237              		.cfi_endproc
 238              	.LFE3:
 239              		.size	SPIS_1_Stop, .-SPIS_1_Stop
 240 0056 00BF     		.section	.text.SPIS_1_EnableTxInt,"ax",%progbits
 241              		.align	2
 242              		.global	SPIS_1_EnableTxInt
 243              		.thumb
 244              		.thumb_func
 245              		.type	SPIS_1_EnableTxInt, %function
 246              	SPIS_1_EnableTxInt:
 247              	.LFB4:
 235:.\Generated_Source\PSoC5/SPIS_1.c **** 
 236:.\Generated_Source\PSoC5/SPIS_1.c **** 
 237:.\Generated_Source\PSoC5/SPIS_1.c **** /*******************************************************************************
 238:.\Generated_Source\PSoC5/SPIS_1.c **** * Function Name: SPIS_1_EnableTxInt
 239:.\Generated_Source\PSoC5/SPIS_1.c **** ********************************************************************************
 240:.\Generated_Source\PSoC5/SPIS_1.c **** *
 241:.\Generated_Source\PSoC5/SPIS_1.c **** * Summary:
 242:.\Generated_Source\PSoC5/SPIS_1.c **** *  Enable internal Tx interrupt generation.
 243:.\Generated_Source\PSoC5/SPIS_1.c **** *
 244:.\Generated_Source\PSoC5/SPIS_1.c **** * Parameters:
 245:.\Generated_Source\PSoC5/SPIS_1.c **** *  None.
 246:.\Generated_Source\PSoC5/SPIS_1.c **** *
 247:.\Generated_Source\PSoC5/SPIS_1.c **** * Return:
 248:.\Generated_Source\PSoC5/SPIS_1.c **** *  None.
 249:.\Generated_Source\PSoC5/SPIS_1.c **** *
 250:.\Generated_Source\PSoC5/SPIS_1.c **** * Theory:
 251:.\Generated_Source\PSoC5/SPIS_1.c **** *  Enable the internal Tx interrupt output -or- the interrupt component itself.
 252:.\Generated_Source\PSoC5/SPIS_1.c **** *
 253:.\Generated_Source\PSoC5/SPIS_1.c **** *******************************************************************************/
 254:.\Generated_Source\PSoC5/SPIS_1.c **** void SPIS_1_EnableTxInt(void) 
 255:.\Generated_Source\PSoC5/SPIS_1.c **** {
 248              		.loc 1 255 0
 249              		.cfi_startproc
 250              		@ args = 0, pretend = 0, frame = 0
 251              		@ frame_needed = 1, uses_anonymous_args = 0
 252              		@ link register save eliminated.
 253 0000 80B4     		push	{r7}
 254              	.LCFI10:
 255              		.cfi_def_cfa_offset 4
 256              		.cfi_offset 7, -4
 257 0002 00AF     		add	r7, sp, #0
 258              	.LCFI11:
ARM GAS  C:\Users\Brian\AppData\Local\Temp\ccwQyePA.s 			page 10


 259              		.cfi_def_cfa_register 7
 256:.\Generated_Source\PSoC5/SPIS_1.c ****     #if(SPIS_1_INTERNAL_TX_INT_ENABLED)
 257:.\Generated_Source\PSoC5/SPIS_1.c ****         CyIntEnable(SPIS_1_TX_ISR_NUMBER);
 258:.\Generated_Source\PSoC5/SPIS_1.c ****     #endif /* SPIS_1_INTERNAL_TX_INT_ENABLED */
 259:.\Generated_Source\PSoC5/SPIS_1.c **** }
 260              		.loc 1 259 0
 261 0004 BD46     		mov	sp, r7
 262 0006 80BC     		pop	{r7}
 263 0008 7047     		bx	lr
 264              		.cfi_endproc
 265              	.LFE4:
 266              		.size	SPIS_1_EnableTxInt, .-SPIS_1_EnableTxInt
 267 000a 00BF     		.section	.text.SPIS_1_EnableRxInt,"ax",%progbits
 268              		.align	2
 269              		.global	SPIS_1_EnableRxInt
 270              		.thumb
 271              		.thumb_func
 272              		.type	SPIS_1_EnableRxInt, %function
 273              	SPIS_1_EnableRxInt:
 274              	.LFB5:
 260:.\Generated_Source\PSoC5/SPIS_1.c **** 
 261:.\Generated_Source\PSoC5/SPIS_1.c **** 
 262:.\Generated_Source\PSoC5/SPIS_1.c **** /*******************************************************************************
 263:.\Generated_Source\PSoC5/SPIS_1.c **** * Function Name: SPIS_1_EnableRxInt
 264:.\Generated_Source\PSoC5/SPIS_1.c **** ********************************************************************************
 265:.\Generated_Source\PSoC5/SPIS_1.c **** *
 266:.\Generated_Source\PSoC5/SPIS_1.c **** * Summary:
 267:.\Generated_Source\PSoC5/SPIS_1.c **** *  Enable internal Rx interrupt generation.
 268:.\Generated_Source\PSoC5/SPIS_1.c **** *
 269:.\Generated_Source\PSoC5/SPIS_1.c **** * Parameters:
 270:.\Generated_Source\PSoC5/SPIS_1.c **** *  None.
 271:.\Generated_Source\PSoC5/SPIS_1.c **** *
 272:.\Generated_Source\PSoC5/SPIS_1.c **** * Return:
 273:.\Generated_Source\PSoC5/SPIS_1.c **** *  None.
 274:.\Generated_Source\PSoC5/SPIS_1.c **** *
 275:.\Generated_Source\PSoC5/SPIS_1.c **** * Theory:
 276:.\Generated_Source\PSoC5/SPIS_1.c **** *  Enable the internal Rx interrupt output -or- the interrupt component itself.
 277:.\Generated_Source\PSoC5/SPIS_1.c **** *
 278:.\Generated_Source\PSoC5/SPIS_1.c **** *******************************************************************************/
 279:.\Generated_Source\PSoC5/SPIS_1.c **** void SPIS_1_EnableRxInt(void) 
 280:.\Generated_Source\PSoC5/SPIS_1.c **** {
 275              		.loc 1 280 0
 276              		.cfi_startproc
 277              		@ args = 0, pretend = 0, frame = 0
 278              		@ frame_needed = 1, uses_anonymous_args = 0
 279              		@ link register save eliminated.
 280 0000 80B4     		push	{r7}
 281              	.LCFI12:
 282              		.cfi_def_cfa_offset 4
 283              		.cfi_offset 7, -4
 284 0002 00AF     		add	r7, sp, #0
 285              	.LCFI13:
 286              		.cfi_def_cfa_register 7
 281:.\Generated_Source\PSoC5/SPIS_1.c ****     #if(SPIS_1_INTERNAL_RX_INT_ENABLED)
 282:.\Generated_Source\PSoC5/SPIS_1.c ****         CyIntEnable(SPIS_1_RX_ISR_NUMBER);
 283:.\Generated_Source\PSoC5/SPIS_1.c ****     #endif /* SPIS_1_INTERNAL_RX_INT_ENABLED */
 284:.\Generated_Source\PSoC5/SPIS_1.c **** }
ARM GAS  C:\Users\Brian\AppData\Local\Temp\ccwQyePA.s 			page 11


 287              		.loc 1 284 0
 288 0004 BD46     		mov	sp, r7
 289 0006 80BC     		pop	{r7}
 290 0008 7047     		bx	lr
 291              		.cfi_endproc
 292              	.LFE5:
 293              		.size	SPIS_1_EnableRxInt, .-SPIS_1_EnableRxInt
 294 000a 00BF     		.section	.text.SPIS_1_DisableTxInt,"ax",%progbits
 295              		.align	2
 296              		.global	SPIS_1_DisableTxInt
 297              		.thumb
 298              		.thumb_func
 299              		.type	SPIS_1_DisableTxInt, %function
 300              	SPIS_1_DisableTxInt:
 301              	.LFB6:
 285:.\Generated_Source\PSoC5/SPIS_1.c **** 
 286:.\Generated_Source\PSoC5/SPIS_1.c **** 
 287:.\Generated_Source\PSoC5/SPIS_1.c **** /*******************************************************************************
 288:.\Generated_Source\PSoC5/SPIS_1.c **** * Function Name: SPIS_1_DisableTxInt
 289:.\Generated_Source\PSoC5/SPIS_1.c **** ********************************************************************************
 290:.\Generated_Source\PSoC5/SPIS_1.c **** *
 291:.\Generated_Source\PSoC5/SPIS_1.c **** * Summary:
 292:.\Generated_Source\PSoC5/SPIS_1.c **** *  Disable internal Tx interrupt generation.
 293:.\Generated_Source\PSoC5/SPIS_1.c **** *
 294:.\Generated_Source\PSoC5/SPIS_1.c **** * Parameters:
 295:.\Generated_Source\PSoC5/SPIS_1.c **** *  None.
 296:.\Generated_Source\PSoC5/SPIS_1.c **** *
 297:.\Generated_Source\PSoC5/SPIS_1.c **** * Return:
 298:.\Generated_Source\PSoC5/SPIS_1.c **** *  None.
 299:.\Generated_Source\PSoC5/SPIS_1.c **** *
 300:.\Generated_Source\PSoC5/SPIS_1.c **** * Theory:
 301:.\Generated_Source\PSoC5/SPIS_1.c **** *  Disable the internal Tx interrupt output -or- the interrupt component itself.
 302:.\Generated_Source\PSoC5/SPIS_1.c **** *
 303:.\Generated_Source\PSoC5/SPIS_1.c **** *******************************************************************************/
 304:.\Generated_Source\PSoC5/SPIS_1.c **** void SPIS_1_DisableTxInt(void) 
 305:.\Generated_Source\PSoC5/SPIS_1.c **** {
 302              		.loc 1 305 0
 303              		.cfi_startproc
 304              		@ args = 0, pretend = 0, frame = 0
 305              		@ frame_needed = 1, uses_anonymous_args = 0
 306              		@ link register save eliminated.
 307 0000 80B4     		push	{r7}
 308              	.LCFI14:
 309              		.cfi_def_cfa_offset 4
 310              		.cfi_offset 7, -4
 311 0002 00AF     		add	r7, sp, #0
 312              	.LCFI15:
 313              		.cfi_def_cfa_register 7
 306:.\Generated_Source\PSoC5/SPIS_1.c ****     #if(SPIS_1_INTERNAL_TX_INT_ENABLED)
 307:.\Generated_Source\PSoC5/SPIS_1.c ****         CyIntDisable(SPIS_1_TX_ISR_NUMBER);
 308:.\Generated_Source\PSoC5/SPIS_1.c ****     #endif /* SPIS_1_INTERNAL_TX_INT_ENABLED */
 309:.\Generated_Source\PSoC5/SPIS_1.c **** }
 314              		.loc 1 309 0
 315 0004 BD46     		mov	sp, r7
 316 0006 80BC     		pop	{r7}
 317 0008 7047     		bx	lr
 318              		.cfi_endproc
ARM GAS  C:\Users\Brian\AppData\Local\Temp\ccwQyePA.s 			page 12


 319              	.LFE6:
 320              		.size	SPIS_1_DisableTxInt, .-SPIS_1_DisableTxInt
 321 000a 00BF     		.section	.text.SPIS_1_DisableRxInt,"ax",%progbits
 322              		.align	2
 323              		.global	SPIS_1_DisableRxInt
 324              		.thumb
 325              		.thumb_func
 326              		.type	SPIS_1_DisableRxInt, %function
 327              	SPIS_1_DisableRxInt:
 328              	.LFB7:
 310:.\Generated_Source\PSoC5/SPIS_1.c **** 
 311:.\Generated_Source\PSoC5/SPIS_1.c **** 
 312:.\Generated_Source\PSoC5/SPIS_1.c **** /*******************************************************************************
 313:.\Generated_Source\PSoC5/SPIS_1.c **** * Function Name: SPIS_1_DisableRxInt
 314:.\Generated_Source\PSoC5/SPIS_1.c **** ********************************************************************************
 315:.\Generated_Source\PSoC5/SPIS_1.c **** *
 316:.\Generated_Source\PSoC5/SPIS_1.c **** * Summary:
 317:.\Generated_Source\PSoC5/SPIS_1.c **** *  Disable internal Rx interrupt generation.
 318:.\Generated_Source\PSoC5/SPIS_1.c **** *
 319:.\Generated_Source\PSoC5/SPIS_1.c **** * Parameters:
 320:.\Generated_Source\PSoC5/SPIS_1.c **** *  None.
 321:.\Generated_Source\PSoC5/SPIS_1.c **** *
 322:.\Generated_Source\PSoC5/SPIS_1.c **** * Return:
 323:.\Generated_Source\PSoC5/SPIS_1.c **** *  None.
 324:.\Generated_Source\PSoC5/SPIS_1.c **** *
 325:.\Generated_Source\PSoC5/SPIS_1.c **** * Theory:
 326:.\Generated_Source\PSoC5/SPIS_1.c **** *  Disable the internal Rx interrupt output -or- the interrupt component itself.
 327:.\Generated_Source\PSoC5/SPIS_1.c **** *
 328:.\Generated_Source\PSoC5/SPIS_1.c **** *******************************************************************************/
 329:.\Generated_Source\PSoC5/SPIS_1.c **** void SPIS_1_DisableRxInt(void) 
 330:.\Generated_Source\PSoC5/SPIS_1.c **** {
 329              		.loc 1 330 0
 330              		.cfi_startproc
 331              		@ args = 0, pretend = 0, frame = 0
 332              		@ frame_needed = 1, uses_anonymous_args = 0
 333              		@ link register save eliminated.
 334 0000 80B4     		push	{r7}
 335              	.LCFI16:
 336              		.cfi_def_cfa_offset 4
 337              		.cfi_offset 7, -4
 338 0002 00AF     		add	r7, sp, #0
 339              	.LCFI17:
 340              		.cfi_def_cfa_register 7
 331:.\Generated_Source\PSoC5/SPIS_1.c ****     #if(SPIS_1_INTERNAL_RX_INT_ENABLED)
 332:.\Generated_Source\PSoC5/SPIS_1.c ****         CyIntDisable(SPIS_1_RX_ISR_NUMBER);
 333:.\Generated_Source\PSoC5/SPIS_1.c ****     #endif /* SPIS_1_INTERNAL_RX_INT_ENABLED */
 334:.\Generated_Source\PSoC5/SPIS_1.c **** }
 341              		.loc 1 334 0
 342 0004 BD46     		mov	sp, r7
 343 0006 80BC     		pop	{r7}
 344 0008 7047     		bx	lr
 345              		.cfi_endproc
 346              	.LFE7:
 347              		.size	SPIS_1_DisableRxInt, .-SPIS_1_DisableRxInt
 348 000a 00BF     		.section	.text.SPIS_1_SetTxInterruptMode,"ax",%progbits
 349              		.align	2
 350              		.global	SPIS_1_SetTxInterruptMode
ARM GAS  C:\Users\Brian\AppData\Local\Temp\ccwQyePA.s 			page 13


 351              		.thumb
 352              		.thumb_func
 353              		.type	SPIS_1_SetTxInterruptMode, %function
 354              	SPIS_1_SetTxInterruptMode:
 355              	.LFB8:
 335:.\Generated_Source\PSoC5/SPIS_1.c **** 
 336:.\Generated_Source\PSoC5/SPIS_1.c **** 
 337:.\Generated_Source\PSoC5/SPIS_1.c **** /*******************************************************************************
 338:.\Generated_Source\PSoC5/SPIS_1.c **** * Function Name: SPIS_1_SetTxInterruptMode
 339:.\Generated_Source\PSoC5/SPIS_1.c **** ********************************************************************************
 340:.\Generated_Source\PSoC5/SPIS_1.c **** *
 341:.\Generated_Source\PSoC5/SPIS_1.c **** * Summary:
 342:.\Generated_Source\PSoC5/SPIS_1.c **** *  Configure which status bits trigger an interrupt event.
 343:.\Generated_Source\PSoC5/SPIS_1.c **** *
 344:.\Generated_Source\PSoC5/SPIS_1.c **** * Parameters:
 345:.\Generated_Source\PSoC5/SPIS_1.c **** *  intSrc: An or'd combination of the desired status bit masks (defined in the
 346:.\Generated_Source\PSoC5/SPIS_1.c **** *  header file).
 347:.\Generated_Source\PSoC5/SPIS_1.c **** *
 348:.\Generated_Source\PSoC5/SPIS_1.c **** * Return:
 349:.\Generated_Source\PSoC5/SPIS_1.c **** *  None.
 350:.\Generated_Source\PSoC5/SPIS_1.c **** *
 351:.\Generated_Source\PSoC5/SPIS_1.c **** * Theory:
 352:.\Generated_Source\PSoC5/SPIS_1.c **** *  Enables the output of specific status bits to the interrupt controller.
 353:.\Generated_Source\PSoC5/SPIS_1.c **** *
 354:.\Generated_Source\PSoC5/SPIS_1.c **** *******************************************************************************/
 355:.\Generated_Source\PSoC5/SPIS_1.c **** void SPIS_1_SetTxInterruptMode(uint8 intSrc) 
 356:.\Generated_Source\PSoC5/SPIS_1.c **** {
 356              		.loc 1 356 0
 357              		.cfi_startproc
 358              		@ args = 0, pretend = 0, frame = 8
 359              		@ frame_needed = 1, uses_anonymous_args = 0
 360              		@ link register save eliminated.
 361 0000 80B4     		push	{r7}
 362              	.LCFI18:
 363              		.cfi_def_cfa_offset 4
 364              		.cfi_offset 7, -4
 365 0002 83B0     		sub	sp, sp, #12
 366              	.LCFI19:
 367              		.cfi_def_cfa_offset 16
 368 0004 00AF     		add	r7, sp, #0
 369              	.LCFI20:
 370              		.cfi_def_cfa_register 7
 371 0006 0346     		mov	r3, r0
 372 0008 FB71     		strb	r3, [r7, #7]
 357:.\Generated_Source\PSoC5/SPIS_1.c ****     SPIS_1_TX_STATUS_MASK_REG  = intSrc;
 373              		.loc 1 357 0
 374 000a 46F28953 		movw	r3, #25993
 375 000e C4F20003 		movt	r3, 16384
 376 0012 FA79     		ldrb	r2, [r7, #7]
 377 0014 1A70     		strb	r2, [r3, #0]
 358:.\Generated_Source\PSoC5/SPIS_1.c **** }
 378              		.loc 1 358 0
 379 0016 07F10C07 		add	r7, r7, #12
 380 001a BD46     		mov	sp, r7
 381 001c 80BC     		pop	{r7}
 382 001e 7047     		bx	lr
 383              		.cfi_endproc
ARM GAS  C:\Users\Brian\AppData\Local\Temp\ccwQyePA.s 			page 14


 384              	.LFE8:
 385              		.size	SPIS_1_SetTxInterruptMode, .-SPIS_1_SetTxInterruptMode
 386              		.section	.text.SPIS_1_SetRxInterruptMode,"ax",%progbits
 387              		.align	2
 388              		.global	SPIS_1_SetRxInterruptMode
 389              		.thumb
 390              		.thumb_func
 391              		.type	SPIS_1_SetRxInterruptMode, %function
 392              	SPIS_1_SetRxInterruptMode:
 393              	.LFB9:
 359:.\Generated_Source\PSoC5/SPIS_1.c **** 
 360:.\Generated_Source\PSoC5/SPIS_1.c **** 
 361:.\Generated_Source\PSoC5/SPIS_1.c **** /*******************************************************************************
 362:.\Generated_Source\PSoC5/SPIS_1.c **** * Function Name: SPIS_1_SetRxInterruptMode
 363:.\Generated_Source\PSoC5/SPIS_1.c **** ********************************************************************************
 364:.\Generated_Source\PSoC5/SPIS_1.c **** *
 365:.\Generated_Source\PSoC5/SPIS_1.c **** * Summary:
 366:.\Generated_Source\PSoC5/SPIS_1.c **** *  Configure which status bits trigger an interrupt event.
 367:.\Generated_Source\PSoC5/SPIS_1.c **** *
 368:.\Generated_Source\PSoC5/SPIS_1.c **** * Parameters:
 369:.\Generated_Source\PSoC5/SPIS_1.c **** *  intSrc: An or'd combination of the desired status bit masks (defined in the
 370:.\Generated_Source\PSoC5/SPIS_1.c **** *  header file).
 371:.\Generated_Source\PSoC5/SPIS_1.c **** *
 372:.\Generated_Source\PSoC5/SPIS_1.c **** * Return:
 373:.\Generated_Source\PSoC5/SPIS_1.c **** *  None.
 374:.\Generated_Source\PSoC5/SPIS_1.c **** *
 375:.\Generated_Source\PSoC5/SPIS_1.c **** * Theory:
 376:.\Generated_Source\PSoC5/SPIS_1.c **** *  Enables the output of specific status bits to the interrupt controller.
 377:.\Generated_Source\PSoC5/SPIS_1.c **** *
 378:.\Generated_Source\PSoC5/SPIS_1.c **** *******************************************************************************/
 379:.\Generated_Source\PSoC5/SPIS_1.c **** void SPIS_1_SetRxInterruptMode(uint8 intSrc) 
 380:.\Generated_Source\PSoC5/SPIS_1.c **** {
 394              		.loc 1 380 0
 395              		.cfi_startproc
 396              		@ args = 0, pretend = 0, frame = 8
 397              		@ frame_needed = 1, uses_anonymous_args = 0
 398              		@ link register save eliminated.
 399 0000 80B4     		push	{r7}
 400              	.LCFI21:
 401              		.cfi_def_cfa_offset 4
 402              		.cfi_offset 7, -4
 403 0002 83B0     		sub	sp, sp, #12
 404              	.LCFI22:
 405              		.cfi_def_cfa_offset 16
 406 0004 00AF     		add	r7, sp, #0
 407              	.LCFI23:
 408              		.cfi_def_cfa_register 7
 409 0006 0346     		mov	r3, r0
 410 0008 FB71     		strb	r3, [r7, #7]
 381:.\Generated_Source\PSoC5/SPIS_1.c ****     SPIS_1_RX_STATUS_MASK_REG  = intSrc;
 411              		.loc 1 381 0
 412 000a 46F28843 		movw	r3, #25736
 413 000e C4F20003 		movt	r3, 16384
 414 0012 FA79     		ldrb	r2, [r7, #7]
 415 0014 1A70     		strb	r2, [r3, #0]
 382:.\Generated_Source\PSoC5/SPIS_1.c **** }
 416              		.loc 1 382 0
ARM GAS  C:\Users\Brian\AppData\Local\Temp\ccwQyePA.s 			page 15


 417 0016 07F10C07 		add	r7, r7, #12
 418 001a BD46     		mov	sp, r7
 419 001c 80BC     		pop	{r7}
 420 001e 7047     		bx	lr
 421              		.cfi_endproc
 422              	.LFE9:
 423              		.size	SPIS_1_SetRxInterruptMode, .-SPIS_1_SetRxInterruptMode
 424              		.section	.text.SPIS_1_ReadTxStatus,"ax",%progbits
 425              		.align	2
 426              		.global	SPIS_1_ReadTxStatus
 427              		.thumb
 428              		.thumb_func
 429              		.type	SPIS_1_ReadTxStatus, %function
 430              	SPIS_1_ReadTxStatus:
 431              	.LFB10:
 383:.\Generated_Source\PSoC5/SPIS_1.c **** 
 384:.\Generated_Source\PSoC5/SPIS_1.c **** 
 385:.\Generated_Source\PSoC5/SPIS_1.c **** /*******************************************************************************
 386:.\Generated_Source\PSoC5/SPIS_1.c **** * Function Name: SPIS_1_ReadTxStatus
 387:.\Generated_Source\PSoC5/SPIS_1.c **** ********************************************************************************
 388:.\Generated_Source\PSoC5/SPIS_1.c **** *
 389:.\Generated_Source\PSoC5/SPIS_1.c **** * Summary:
 390:.\Generated_Source\PSoC5/SPIS_1.c **** *  Read the Tx status register for the component.
 391:.\Generated_Source\PSoC5/SPIS_1.c **** *
 392:.\Generated_Source\PSoC5/SPIS_1.c **** * Parameters:
 393:.\Generated_Source\PSoC5/SPIS_1.c **** *  None.
 394:.\Generated_Source\PSoC5/SPIS_1.c **** *
 395:.\Generated_Source\PSoC5/SPIS_1.c **** * Return:
 396:.\Generated_Source\PSoC5/SPIS_1.c **** *  Contents of the Tx status register.
 397:.\Generated_Source\PSoC5/SPIS_1.c **** *
 398:.\Generated_Source\PSoC5/SPIS_1.c **** * Global variables:
 399:.\Generated_Source\PSoC5/SPIS_1.c **** *  SPIS_1_swStatusTx - used to store in software status register,
 400:.\Generated_Source\PSoC5/SPIS_1.c **** *  modified every function call - resets to zero.
 401:.\Generated_Source\PSoC5/SPIS_1.c **** *
 402:.\Generated_Source\PSoC5/SPIS_1.c **** * Theory:
 403:.\Generated_Source\PSoC5/SPIS_1.c **** *  Allows the user and the API to read the Tx status register for error
 404:.\Generated_Source\PSoC5/SPIS_1.c **** *  detection and flow control.
 405:.\Generated_Source\PSoC5/SPIS_1.c **** *
 406:.\Generated_Source\PSoC5/SPIS_1.c **** * Side Effects:
 407:.\Generated_Source\PSoC5/SPIS_1.c **** *  Clear Tx status register of the component.
 408:.\Generated_Source\PSoC5/SPIS_1.c **** *
 409:.\Generated_Source\PSoC5/SPIS_1.c **** * Reentrant:
 410:.\Generated_Source\PSoC5/SPIS_1.c **** *  No.
 411:.\Generated_Source\PSoC5/SPIS_1.c **** *
 412:.\Generated_Source\PSoC5/SPIS_1.c **** *******************************************************************************/
 413:.\Generated_Source\PSoC5/SPIS_1.c **** uint8 SPIS_1_ReadTxStatus(void) 
 414:.\Generated_Source\PSoC5/SPIS_1.c **** {
 432              		.loc 1 414 0
 433              		.cfi_startproc
 434              		@ args = 0, pretend = 0, frame = 8
 435              		@ frame_needed = 1, uses_anonymous_args = 0
 436              		@ link register save eliminated.
 437 0000 80B4     		push	{r7}
 438              	.LCFI24:
 439              		.cfi_def_cfa_offset 4
 440              		.cfi_offset 7, -4
 441 0002 83B0     		sub	sp, sp, #12
ARM GAS  C:\Users\Brian\AppData\Local\Temp\ccwQyePA.s 			page 16


 442              	.LCFI25:
 443              		.cfi_def_cfa_offset 16
 444 0004 00AF     		add	r7, sp, #0
 445              	.LCFI26:
 446              		.cfi_def_cfa_register 7
 415:.\Generated_Source\PSoC5/SPIS_1.c ****     uint8 tmpStatus;
 416:.\Generated_Source\PSoC5/SPIS_1.c **** 
 417:.\Generated_Source\PSoC5/SPIS_1.c ****     #if (SPIS_1_TX_SOFTWARE_BUF_ENABLED)
 418:.\Generated_Source\PSoC5/SPIS_1.c **** 
 419:.\Generated_Source\PSoC5/SPIS_1.c ****         SPIS_1_DisableTxInt();
 420:.\Generated_Source\PSoC5/SPIS_1.c **** 
 421:.\Generated_Source\PSoC5/SPIS_1.c ****         tmpStatus = SPIS_1_GET_STATUS_TX(SPIS_1_swStatusTx);
 422:.\Generated_Source\PSoC5/SPIS_1.c **** 
 423:.\Generated_Source\PSoC5/SPIS_1.c ****         SPIS_1_swStatusTx = 0u;
 424:.\Generated_Source\PSoC5/SPIS_1.c **** 
 425:.\Generated_Source\PSoC5/SPIS_1.c ****         /* Enable Interrupts */
 426:.\Generated_Source\PSoC5/SPIS_1.c ****         SPIS_1_EnableTxInt();
 427:.\Generated_Source\PSoC5/SPIS_1.c **** 
 428:.\Generated_Source\PSoC5/SPIS_1.c ****     #else /* !SPIS_1_TX_SOFTWARE_BUF_ENABLED */
 429:.\Generated_Source\PSoC5/SPIS_1.c **** 
 430:.\Generated_Source\PSoC5/SPIS_1.c ****         tmpStatus = SPIS_1_TX_STATUS_REG;
 447              		.loc 1 430 0
 448 0006 46F26953 		movw	r3, #25961
 449 000a C4F20003 		movt	r3, 16384
 450 000e 1B78     		ldrb	r3, [r3, #0]
 451 0010 FB71     		strb	r3, [r7, #7]
 431:.\Generated_Source\PSoC5/SPIS_1.c **** 
 432:.\Generated_Source\PSoC5/SPIS_1.c ****     #endif /* SPIS_1_TX_SOFTWARE_BUF_ENABLED */
 433:.\Generated_Source\PSoC5/SPIS_1.c **** 
 434:.\Generated_Source\PSoC5/SPIS_1.c ****     return(tmpStatus);
 452              		.loc 1 434 0
 453 0012 FB79     		ldrb	r3, [r7, #7]	@ zero_extendqisi2
 435:.\Generated_Source\PSoC5/SPIS_1.c **** }
 454              		.loc 1 435 0
 455 0014 1846     		mov	r0, r3
 456 0016 07F10C07 		add	r7, r7, #12
 457 001a BD46     		mov	sp, r7
 458 001c 80BC     		pop	{r7}
 459 001e 7047     		bx	lr
 460              		.cfi_endproc
 461              	.LFE10:
 462              		.size	SPIS_1_ReadTxStatus, .-SPIS_1_ReadTxStatus
 463              		.section	.text.SPIS_1_ReadRxStatus,"ax",%progbits
 464              		.align	2
 465              		.global	SPIS_1_ReadRxStatus
 466              		.thumb
 467              		.thumb_func
 468              		.type	SPIS_1_ReadRxStatus, %function
 469              	SPIS_1_ReadRxStatus:
 470              	.LFB11:
 436:.\Generated_Source\PSoC5/SPIS_1.c **** 
 437:.\Generated_Source\PSoC5/SPIS_1.c **** 
 438:.\Generated_Source\PSoC5/SPIS_1.c **** /*******************************************************************************
 439:.\Generated_Source\PSoC5/SPIS_1.c **** * Function Name: SPIS_1_ReadRxStatus
 440:.\Generated_Source\PSoC5/SPIS_1.c **** ********************************************************************************
 441:.\Generated_Source\PSoC5/SPIS_1.c **** *
 442:.\Generated_Source\PSoC5/SPIS_1.c **** * Summary:
ARM GAS  C:\Users\Brian\AppData\Local\Temp\ccwQyePA.s 			page 17


 443:.\Generated_Source\PSoC5/SPIS_1.c **** *  Read the Rx status register for the component.
 444:.\Generated_Source\PSoC5/SPIS_1.c **** *
 445:.\Generated_Source\PSoC5/SPIS_1.c **** * Parameters:
 446:.\Generated_Source\PSoC5/SPIS_1.c **** *  None.
 447:.\Generated_Source\PSoC5/SPIS_1.c **** *
 448:.\Generated_Source\PSoC5/SPIS_1.c **** * Return:
 449:.\Generated_Source\PSoC5/SPIS_1.c **** *  Contents of the Rx status register.
 450:.\Generated_Source\PSoC5/SPIS_1.c **** *
 451:.\Generated_Source\PSoC5/SPIS_1.c **** * Global variables:
 452:.\Generated_Source\PSoC5/SPIS_1.c **** *  SPIS_1_swStatusRx - used to store in software Rx status register,
 453:.\Generated_Source\PSoC5/SPIS_1.c **** *  modified every function call - resets to zero.
 454:.\Generated_Source\PSoC5/SPIS_1.c **** *
 455:.\Generated_Source\PSoC5/SPIS_1.c **** * Theory:
 456:.\Generated_Source\PSoC5/SPIS_1.c **** *  Allows the user and the API to read the Rx status register for error
 457:.\Generated_Source\PSoC5/SPIS_1.c **** *  detection and flow control.
 458:.\Generated_Source\PSoC5/SPIS_1.c **** *
 459:.\Generated_Source\PSoC5/SPIS_1.c **** * Side Effects:
 460:.\Generated_Source\PSoC5/SPIS_1.c **** *  Clear Rx status register of the component.
 461:.\Generated_Source\PSoC5/SPIS_1.c **** *
 462:.\Generated_Source\PSoC5/SPIS_1.c **** * Reentrant:
 463:.\Generated_Source\PSoC5/SPIS_1.c **** *  No.
 464:.\Generated_Source\PSoC5/SPIS_1.c **** *
 465:.\Generated_Source\PSoC5/SPIS_1.c **** *******************************************************************************/
 466:.\Generated_Source\PSoC5/SPIS_1.c **** uint8 SPIS_1_ReadRxStatus(void) 
 467:.\Generated_Source\PSoC5/SPIS_1.c **** {
 471              		.loc 1 467 0
 472              		.cfi_startproc
 473              		@ args = 0, pretend = 0, frame = 8
 474              		@ frame_needed = 1, uses_anonymous_args = 0
 475              		@ link register save eliminated.
 476 0000 80B4     		push	{r7}
 477              	.LCFI27:
 478              		.cfi_def_cfa_offset 4
 479              		.cfi_offset 7, -4
 480 0002 83B0     		sub	sp, sp, #12
 481              	.LCFI28:
 482              		.cfi_def_cfa_offset 16
 483 0004 00AF     		add	r7, sp, #0
 484              	.LCFI29:
 485              		.cfi_def_cfa_register 7
 468:.\Generated_Source\PSoC5/SPIS_1.c ****     uint8 tmpStatus;
 469:.\Generated_Source\PSoC5/SPIS_1.c **** 
 470:.\Generated_Source\PSoC5/SPIS_1.c ****     #if (SPIS_1_RX_SOFTWARE_BUF_ENABLED)
 471:.\Generated_Source\PSoC5/SPIS_1.c **** 
 472:.\Generated_Source\PSoC5/SPIS_1.c ****         SPIS_1_DisableRxInt();
 473:.\Generated_Source\PSoC5/SPIS_1.c **** 
 474:.\Generated_Source\PSoC5/SPIS_1.c ****         tmpStatus = SPIS_1_GET_STATUS_RX(SPIS_1_swStatusRx);
 475:.\Generated_Source\PSoC5/SPIS_1.c **** 
 476:.\Generated_Source\PSoC5/SPIS_1.c ****         SPIS_1_swStatusRx = 0u;
 477:.\Generated_Source\PSoC5/SPIS_1.c **** 
 478:.\Generated_Source\PSoC5/SPIS_1.c ****         /* Enable Interrupts */
 479:.\Generated_Source\PSoC5/SPIS_1.c ****         SPIS_1_EnableRxInt();
 480:.\Generated_Source\PSoC5/SPIS_1.c **** 
 481:.\Generated_Source\PSoC5/SPIS_1.c ****     #else /* !SPIS_1_RX_SOFTWARE_BUF_ENABLED */
 482:.\Generated_Source\PSoC5/SPIS_1.c **** 
 483:.\Generated_Source\PSoC5/SPIS_1.c ****         tmpStatus = SPIS_1_RX_STATUS_REG;
 486              		.loc 1 483 0
ARM GAS  C:\Users\Brian\AppData\Local\Temp\ccwQyePA.s 			page 18


 487 0006 46F26843 		movw	r3, #25704
 488 000a C4F20003 		movt	r3, 16384
 489 000e 1B78     		ldrb	r3, [r3, #0]
 490 0010 FB71     		strb	r3, [r7, #7]
 484:.\Generated_Source\PSoC5/SPIS_1.c **** 
 485:.\Generated_Source\PSoC5/SPIS_1.c ****     #endif /* SPIS_1_RX_SOFTWARE_BUF_ENABLED */
 486:.\Generated_Source\PSoC5/SPIS_1.c **** 
 487:.\Generated_Source\PSoC5/SPIS_1.c ****     return(tmpStatus);
 491              		.loc 1 487 0
 492 0012 FB79     		ldrb	r3, [r7, #7]	@ zero_extendqisi2
 488:.\Generated_Source\PSoC5/SPIS_1.c **** }
 493              		.loc 1 488 0
 494 0014 1846     		mov	r0, r3
 495 0016 07F10C07 		add	r7, r7, #12
 496 001a BD46     		mov	sp, r7
 497 001c 80BC     		pop	{r7}
 498 001e 7047     		bx	lr
 499              		.cfi_endproc
 500              	.LFE11:
 501              		.size	SPIS_1_ReadRxStatus, .-SPIS_1_ReadRxStatus
 502              		.section	.text.SPIS_1_WriteTxData,"ax",%progbits
 503              		.align	2
 504              		.global	SPIS_1_WriteTxData
 505              		.thumb
 506              		.thumb_func
 507              		.type	SPIS_1_WriteTxData, %function
 508              	SPIS_1_WriteTxData:
 509              	.LFB12:
 489:.\Generated_Source\PSoC5/SPIS_1.c **** 
 490:.\Generated_Source\PSoC5/SPIS_1.c **** 
 491:.\Generated_Source\PSoC5/SPIS_1.c **** /*******************************************************************************
 492:.\Generated_Source\PSoC5/SPIS_1.c **** * Function Name: SPIS_1_WriteTxData
 493:.\Generated_Source\PSoC5/SPIS_1.c **** ********************************************************************************
 494:.\Generated_Source\PSoC5/SPIS_1.c **** *
 495:.\Generated_Source\PSoC5/SPIS_1.c **** * Summary:
 496:.\Generated_Source\PSoC5/SPIS_1.c **** *  Write a byte of data to be sent across the SPI.
 497:.\Generated_Source\PSoC5/SPIS_1.c **** *
 498:.\Generated_Source\PSoC5/SPIS_1.c **** * Parameters:
 499:.\Generated_Source\PSoC5/SPIS_1.c **** *  txDataByte: The data value to send across the SPI.
 500:.\Generated_Source\PSoC5/SPIS_1.c **** *
 501:.\Generated_Source\PSoC5/SPIS_1.c **** * Return:
 502:.\Generated_Source\PSoC5/SPIS_1.c **** *  None.
 503:.\Generated_Source\PSoC5/SPIS_1.c **** *
 504:.\Generated_Source\PSoC5/SPIS_1.c **** * Global variables:
 505:.\Generated_Source\PSoC5/SPIS_1.c **** *  SPIS_1_txBufferWrite - used for the account of the bytes which
 506:.\Generated_Source\PSoC5/SPIS_1.c **** *  have been written down in the TX software buffer, modified every function
 507:.\Generated_Source\PSoC5/SPIS_1.c **** *  call if TX Software Buffer is used.
 508:.\Generated_Source\PSoC5/SPIS_1.c **** *  SPIS_1_txBufferRead - used for the account of the bytes which
 509:.\Generated_Source\PSoC5/SPIS_1.c **** *  have been read from the TX software buffer.
 510:.\Generated_Source\PSoC5/SPIS_1.c **** *  SPIS_1_txBuffer[SPIS_1_TX_BUFFER_SIZE] - used to store
 511:.\Generated_Source\PSoC5/SPIS_1.c **** *  data to sending, modified every function call if TX Software Buffer is used.
 512:.\Generated_Source\PSoC5/SPIS_1.c **** *
 513:.\Generated_Source\PSoC5/SPIS_1.c **** * Theory:
 514:.\Generated_Source\PSoC5/SPIS_1.c **** *  Allows the user to transmit any byte of data in a single transfer.
 515:.\Generated_Source\PSoC5/SPIS_1.c **** *
 516:.\Generated_Source\PSoC5/SPIS_1.c **** * Side Effects:
 517:.\Generated_Source\PSoC5/SPIS_1.c **** *  If this function is called again before the previous byte is finished then
ARM GAS  C:\Users\Brian\AppData\Local\Temp\ccwQyePA.s 			page 19


 518:.\Generated_Source\PSoC5/SPIS_1.c **** *  the next byte will be appended to the transfer with no time between
 519:.\Generated_Source\PSoC5/SPIS_1.c **** *  the byte transfers. Clear Tx status register of the component.
 520:.\Generated_Source\PSoC5/SPIS_1.c **** *
 521:.\Generated_Source\PSoC5/SPIS_1.c **** * Reentrant:
 522:.\Generated_Source\PSoC5/SPIS_1.c **** *  No.
 523:.\Generated_Source\PSoC5/SPIS_1.c **** *
 524:.\Generated_Source\PSoC5/SPIS_1.c **** *******************************************************************************/
 525:.\Generated_Source\PSoC5/SPIS_1.c **** void SPIS_1_WriteTxData(uint8 txData) 
 526:.\Generated_Source\PSoC5/SPIS_1.c **** {
 510              		.loc 1 526 0
 511              		.cfi_startproc
 512              		@ args = 0, pretend = 0, frame = 8
 513              		@ frame_needed = 1, uses_anonymous_args = 0
 514              		@ link register save eliminated.
 515 0000 80B4     		push	{r7}
 516              	.LCFI30:
 517              		.cfi_def_cfa_offset 4
 518              		.cfi_offset 7, -4
 519 0002 83B0     		sub	sp, sp, #12
 520              	.LCFI31:
 521              		.cfi_def_cfa_offset 16
 522 0004 00AF     		add	r7, sp, #0
 523              	.LCFI32:
 524              		.cfi_def_cfa_register 7
 525 0006 0346     		mov	r3, r0
 526 0008 FB71     		strb	r3, [r7, #7]
 527:.\Generated_Source\PSoC5/SPIS_1.c ****     #if(SPIS_1_TX_SOFTWARE_BUF_ENABLED)
 528:.\Generated_Source\PSoC5/SPIS_1.c **** 
 529:.\Generated_Source\PSoC5/SPIS_1.c ****         uint8 tempStatus;
 530:.\Generated_Source\PSoC5/SPIS_1.c ****         uint8 tmpTxBufferRead;
 531:.\Generated_Source\PSoC5/SPIS_1.c **** 
 532:.\Generated_Source\PSoC5/SPIS_1.c ****         /* Block if buffer is full, so we don't overwrite. */
 533:.\Generated_Source\PSoC5/SPIS_1.c ****         do
 534:.\Generated_Source\PSoC5/SPIS_1.c ****         {
 535:.\Generated_Source\PSoC5/SPIS_1.c ****             tmpTxBufferRead = SPIS_1_txBufferRead;
 536:.\Generated_Source\PSoC5/SPIS_1.c ****             if (0u == tmpTxBufferRead)
 537:.\Generated_Source\PSoC5/SPIS_1.c ****             {
 538:.\Generated_Source\PSoC5/SPIS_1.c ****                 tmpTxBufferRead = SPIS_1_TX_BUFFER_SIZE - 1u;
 539:.\Generated_Source\PSoC5/SPIS_1.c ****             }
 540:.\Generated_Source\PSoC5/SPIS_1.c ****             else
 541:.\Generated_Source\PSoC5/SPIS_1.c ****             {
 542:.\Generated_Source\PSoC5/SPIS_1.c ****                 tmpTxBufferRead--;
 543:.\Generated_Source\PSoC5/SPIS_1.c ****             }
 544:.\Generated_Source\PSoC5/SPIS_1.c **** 
 545:.\Generated_Source\PSoC5/SPIS_1.c ****         } while(tmpTxBufferRead == SPIS_1_txBufferWrite);
 546:.\Generated_Source\PSoC5/SPIS_1.c **** 
 547:.\Generated_Source\PSoC5/SPIS_1.c ****         /* Disable Interrupt to protect variables that could change on interrupt. */
 548:.\Generated_Source\PSoC5/SPIS_1.c ****         SPIS_1_DisableTxInt();
 549:.\Generated_Source\PSoC5/SPIS_1.c **** 
 550:.\Generated_Source\PSoC5/SPIS_1.c ****         tempStatus = SPIS_1_GET_STATUS_TX(SPIS_1_swStatusTx);
 551:.\Generated_Source\PSoC5/SPIS_1.c ****         SPIS_1_swStatusTx = tempStatus;
 552:.\Generated_Source\PSoC5/SPIS_1.c **** 
 553:.\Generated_Source\PSoC5/SPIS_1.c ****         if((SPIS_1_txBufferRead == SPIS_1_txBufferWrite) &&
 554:.\Generated_Source\PSoC5/SPIS_1.c ****             (0u != (SPIS_1_swStatusTx & SPIS_1_STS_TX_FIFO_NOT_FULL)))
 555:.\Generated_Source\PSoC5/SPIS_1.c ****         {
 556:.\Generated_Source\PSoC5/SPIS_1.c ****             /* Add directly to the FIFO. */
 557:.\Generated_Source\PSoC5/SPIS_1.c ****             CY_SET_REG8(SPIS_1_TXDATA_PTR, txData);
ARM GAS  C:\Users\Brian\AppData\Local\Temp\ccwQyePA.s 			page 20


 558:.\Generated_Source\PSoC5/SPIS_1.c ****         }
 559:.\Generated_Source\PSoC5/SPIS_1.c ****         else
 560:.\Generated_Source\PSoC5/SPIS_1.c ****         {
 561:.\Generated_Source\PSoC5/SPIS_1.c ****             /* Add to the software buffer. */
 562:.\Generated_Source\PSoC5/SPIS_1.c ****             SPIS_1_txBufferWrite++;
 563:.\Generated_Source\PSoC5/SPIS_1.c ****             if(SPIS_1_txBufferWrite >= SPIS_1_TX_BUFFER_SIZE)
 564:.\Generated_Source\PSoC5/SPIS_1.c ****             {
 565:.\Generated_Source\PSoC5/SPIS_1.c ****                 SPIS_1_txBufferWrite = 0u;
 566:.\Generated_Source\PSoC5/SPIS_1.c ****             }
 567:.\Generated_Source\PSoC5/SPIS_1.c **** 
 568:.\Generated_Source\PSoC5/SPIS_1.c ****             if(SPIS_1_txBufferWrite == SPIS_1_txBufferRead)
 569:.\Generated_Source\PSoC5/SPIS_1.c ****             {
 570:.\Generated_Source\PSoC5/SPIS_1.c ****                 SPIS_1_txBufferRead++;
 571:.\Generated_Source\PSoC5/SPIS_1.c ****                 if(SPIS_1_txBufferRead >= SPIS_1_RX_BUFFER_SIZE)
 572:.\Generated_Source\PSoC5/SPIS_1.c ****                 {
 573:.\Generated_Source\PSoC5/SPIS_1.c ****                     SPIS_1_txBufferRead = 0u;
 574:.\Generated_Source\PSoC5/SPIS_1.c ****                 }
 575:.\Generated_Source\PSoC5/SPIS_1.c ****                 SPIS_1_txBufferFull = 1u;
 576:.\Generated_Source\PSoC5/SPIS_1.c ****             }
 577:.\Generated_Source\PSoC5/SPIS_1.c **** 
 578:.\Generated_Source\PSoC5/SPIS_1.c ****             SPIS_1_txBuffer[SPIS_1_txBufferWrite] = txData;
 579:.\Generated_Source\PSoC5/SPIS_1.c **** 
 580:.\Generated_Source\PSoC5/SPIS_1.c ****             SPIS_1_TX_STATUS_MASK_REG |= SPIS_1_STS_TX_FIFO_NOT_FULL;
 581:.\Generated_Source\PSoC5/SPIS_1.c ****         }
 582:.\Generated_Source\PSoC5/SPIS_1.c **** 
 583:.\Generated_Source\PSoC5/SPIS_1.c ****         /* Enable Interrupt. */
 584:.\Generated_Source\PSoC5/SPIS_1.c ****         SPIS_1_EnableTxInt();
 585:.\Generated_Source\PSoC5/SPIS_1.c **** 
 586:.\Generated_Source\PSoC5/SPIS_1.c ****     #else /* !SPIS_1_TX_SOFTWARE_BUF_ENABLED*/
 587:.\Generated_Source\PSoC5/SPIS_1.c **** 
 588:.\Generated_Source\PSoC5/SPIS_1.c ****         
 589:.\Generated_Source\PSoC5/SPIS_1.c ****         while(0u == (SPIS_1_TX_STATUS_REG & SPIS_1_STS_TX_FIFO_NOT_FULL))
 527              		.loc 1 589 0
 528 000a 00BF     		nop
 529              	.L17:
 530              		.loc 1 589 0 is_stmt 0 discriminator 1
 531 000c 46F26953 		movw	r3, #25961
 532 0010 C4F20003 		movt	r3, 16384
 533 0014 1B78     		ldrb	r3, [r3, #0]
 534 0016 DBB2     		uxtb	r3, r3
 535 0018 03F00203 		and	r3, r3, #2
 536 001c 002B     		cmp	r3, #0
 537 001e F5D0     		beq	.L17
 590:.\Generated_Source\PSoC5/SPIS_1.c **** 		{
 591:.\Generated_Source\PSoC5/SPIS_1.c **** 			; /* Block while FIFO is full */
 592:.\Generated_Source\PSoC5/SPIS_1.c **** 		}
 593:.\Generated_Source\PSoC5/SPIS_1.c **** 
 594:.\Generated_Source\PSoC5/SPIS_1.c ****         /* Then write the byte */
 595:.\Generated_Source\PSoC5/SPIS_1.c ****         CY_SET_REG8(SPIS_1_TXDATA_PTR, txData);
 538              		.loc 1 595 0 is_stmt 1
 539 0020 46F24943 		movw	r3, #25673
 540 0024 C4F20003 		movt	r3, 16384
 541 0028 FA79     		ldrb	r2, [r7, #7]
 542 002a 1A70     		strb	r2, [r3, #0]
 596:.\Generated_Source\PSoC5/SPIS_1.c **** 
 597:.\Generated_Source\PSoC5/SPIS_1.c ****     #endif /* SPIS_1_TX_SOFTWARE_BUF_ENABLED */
 598:.\Generated_Source\PSoC5/SPIS_1.c **** }
ARM GAS  C:\Users\Brian\AppData\Local\Temp\ccwQyePA.s 			page 21


 543              		.loc 1 598 0
 544 002c 07F10C07 		add	r7, r7, #12
 545 0030 BD46     		mov	sp, r7
 546 0032 80BC     		pop	{r7}
 547 0034 7047     		bx	lr
 548              		.cfi_endproc
 549              	.LFE12:
 550              		.size	SPIS_1_WriteTxData, .-SPIS_1_WriteTxData
 551 0036 00BF     		.section	.text.SPIS_1_WriteTxDataZero,"ax",%progbits
 552              		.align	2
 553              		.global	SPIS_1_WriteTxDataZero
 554              		.thumb
 555              		.thumb_func
 556              		.type	SPIS_1_WriteTxDataZero, %function
 557              	SPIS_1_WriteTxDataZero:
 558              	.LFB13:
 599:.\Generated_Source\PSoC5/SPIS_1.c **** 
 600:.\Generated_Source\PSoC5/SPIS_1.c **** #if(SPIS_1_MODE_USE_ZERO != 0u)
 601:.\Generated_Source\PSoC5/SPIS_1.c **** 
 602:.\Generated_Source\PSoC5/SPIS_1.c ****     /*******************************************************************************
 603:.\Generated_Source\PSoC5/SPIS_1.c ****     * Function Name: SPIS_1_WriteTxDataZero
 604:.\Generated_Source\PSoC5/SPIS_1.c ****     ********************************************************************************
 605:.\Generated_Source\PSoC5/SPIS_1.c ****     *
 606:.\Generated_Source\PSoC5/SPIS_1.c ****     * Summary:
 607:.\Generated_Source\PSoC5/SPIS_1.c ****     *  Write a byte zero of data to be sent across the SPI. This must be used in
 608:.\Generated_Source\PSoC5/SPIS_1.c ****     *  Mode 00 and 01 if the FIFO is empty and data is not being sent.
 609:.\Generated_Source\PSoC5/SPIS_1.c ****     *
 610:.\Generated_Source\PSoC5/SPIS_1.c ****     * Parameters:
 611:.\Generated_Source\PSoC5/SPIS_1.c ****     *  txDataByte: The data value to send across the SPI.
 612:.\Generated_Source\PSoC5/SPIS_1.c ****     *
 613:.\Generated_Source\PSoC5/SPIS_1.c ****     * Return:
 614:.\Generated_Source\PSoC5/SPIS_1.c ****     *  None.
 615:.\Generated_Source\PSoC5/SPIS_1.c ****     *
 616:.\Generated_Source\PSoC5/SPIS_1.c ****     * Theory:
 617:.\Generated_Source\PSoC5/SPIS_1.c ****     *  Allows the user to transmit any byte of data in a single transfer. Clear
 618:.\Generated_Source\PSoC5/SPIS_1.c ****     *  status register of the component.
 619:.\Generated_Source\PSoC5/SPIS_1.c ****     *
 620:.\Generated_Source\PSoC5/SPIS_1.c ****     *******************************************************************************/
 621:.\Generated_Source\PSoC5/SPIS_1.c ****     void SPIS_1_WriteTxDataZero(uint8 txDataByte)
 622:.\Generated_Source\PSoC5/SPIS_1.c ****                                         
 623:.\Generated_Source\PSoC5/SPIS_1.c ****     {
 559              		.loc 1 623 0
 560              		.cfi_startproc
 561              		@ args = 0, pretend = 0, frame = 8
 562              		@ frame_needed = 1, uses_anonymous_args = 0
 563              		@ link register save eliminated.
 564 0000 80B4     		push	{r7}
 565              	.LCFI33:
 566              		.cfi_def_cfa_offset 4
 567              		.cfi_offset 7, -4
 568 0002 83B0     		sub	sp, sp, #12
 569              	.LCFI34:
 570              		.cfi_def_cfa_offset 16
 571 0004 00AF     		add	r7, sp, #0
 572              	.LCFI35:
 573              		.cfi_def_cfa_register 7
 574 0006 0346     		mov	r3, r0
ARM GAS  C:\Users\Brian\AppData\Local\Temp\ccwQyePA.s 			page 22


 575 0008 FB71     		strb	r3, [r7, #7]
 624:.\Generated_Source\PSoC5/SPIS_1.c ****         CY_SET_REG8(SPIS_1_TXDATA_ZERO_PTR, txDataByte);
 576              		.loc 1 624 0
 577 000a 46F20943 		movw	r3, #25609
 578 000e C4F20003 		movt	r3, 16384
 579 0012 FA79     		ldrb	r2, [r7, #7]
 580 0014 1A70     		strb	r2, [r3, #0]
 625:.\Generated_Source\PSoC5/SPIS_1.c ****     }
 581              		.loc 1 625 0
 582 0016 07F10C07 		add	r7, r7, #12
 583 001a BD46     		mov	sp, r7
 584 001c 80BC     		pop	{r7}
 585 001e 7047     		bx	lr
 586              		.cfi_endproc
 587              	.LFE13:
 588              		.size	SPIS_1_WriteTxDataZero, .-SPIS_1_WriteTxDataZero
 589              		.section	.text.SPIS_1_ReadRxData,"ax",%progbits
 590              		.align	2
 591              		.global	SPIS_1_ReadRxData
 592              		.thumb
 593              		.thumb_func
 594              		.type	SPIS_1_ReadRxData, %function
 595              	SPIS_1_ReadRxData:
 596              	.LFB14:
 626:.\Generated_Source\PSoC5/SPIS_1.c **** 
 627:.\Generated_Source\PSoC5/SPIS_1.c **** #endif /* (SPIS_1_MODE_USE_ZERO != 0u) */
 628:.\Generated_Source\PSoC5/SPIS_1.c **** 
 629:.\Generated_Source\PSoC5/SPIS_1.c **** 
 630:.\Generated_Source\PSoC5/SPIS_1.c **** /*******************************************************************************
 631:.\Generated_Source\PSoC5/SPIS_1.c **** * Function Name: SPIS_1_ReadRxData
 632:.\Generated_Source\PSoC5/SPIS_1.c **** ********************************************************************************
 633:.\Generated_Source\PSoC5/SPIS_1.c **** *
 634:.\Generated_Source\PSoC5/SPIS_1.c **** * Summary:
 635:.\Generated_Source\PSoC5/SPIS_1.c **** *  Read the next byte of data received across the SPI.
 636:.\Generated_Source\PSoC5/SPIS_1.c **** *
 637:.\Generated_Source\PSoC5/SPIS_1.c **** * Parameters:
 638:.\Generated_Source\PSoC5/SPIS_1.c **** *  None.
 639:.\Generated_Source\PSoC5/SPIS_1.c **** *
 640:.\Generated_Source\PSoC5/SPIS_1.c **** * Return:
 641:.\Generated_Source\PSoC5/SPIS_1.c **** *  The next byte of data read from the FIFO.
 642:.\Generated_Source\PSoC5/SPIS_1.c **** *
 643:.\Generated_Source\PSoC5/SPIS_1.c **** * Global variables:
 644:.\Generated_Source\PSoC5/SPIS_1.c **** *  SPIS_1_rxBufferWrite - used for the account of the bytes which
 645:.\Generated_Source\PSoC5/SPIS_1.c **** *  have been written down in the RX software buffer.
 646:.\Generated_Source\PSoC5/SPIS_1.c **** *  SPIS_1_rxBufferRead - used for the account of the bytes which
 647:.\Generated_Source\PSoC5/SPIS_1.c **** *  have been read from the RX software buffer, modified every function
 648:.\Generated_Source\PSoC5/SPIS_1.c **** *  call if RX Software Buffer is used.
 649:.\Generated_Source\PSoC5/SPIS_1.c **** *  SPIS_1_rxBuffer[SPIS_1_RX_BUFFER_SIZE] - used to store
 650:.\Generated_Source\PSoC5/SPIS_1.c **** *  received data.
 651:.\Generated_Source\PSoC5/SPIS_1.c **** *
 652:.\Generated_Source\PSoC5/SPIS_1.c **** * Theory:
 653:.\Generated_Source\PSoC5/SPIS_1.c **** *  Allows the user to read a byte of data received.
 654:.\Generated_Source\PSoC5/SPIS_1.c **** *
 655:.\Generated_Source\PSoC5/SPIS_1.c **** * Side Effects:
 656:.\Generated_Source\PSoC5/SPIS_1.c **** *  Will return invalid data if the FIFO is empty.  User should poll for FIFO
 657:.\Generated_Source\PSoC5/SPIS_1.c **** *  empty status before calling Read function.
 658:.\Generated_Source\PSoC5/SPIS_1.c **** *
ARM GAS  C:\Users\Brian\AppData\Local\Temp\ccwQyePA.s 			page 23


 659:.\Generated_Source\PSoC5/SPIS_1.c **** * Reentrant:
 660:.\Generated_Source\PSoC5/SPIS_1.c **** *  No.
 661:.\Generated_Source\PSoC5/SPIS_1.c **** *
 662:.\Generated_Source\PSoC5/SPIS_1.c **** *******************************************************************************/
 663:.\Generated_Source\PSoC5/SPIS_1.c **** uint8 SPIS_1_ReadRxData(void) 
 664:.\Generated_Source\PSoC5/SPIS_1.c **** {
 597              		.loc 1 664 0
 598              		.cfi_startproc
 599              		@ args = 0, pretend = 0, frame = 8
 600              		@ frame_needed = 1, uses_anonymous_args = 0
 601              		@ link register save eliminated.
 602 0000 80B4     		push	{r7}
 603              	.LCFI36:
 604              		.cfi_def_cfa_offset 4
 605              		.cfi_offset 7, -4
 606 0002 83B0     		sub	sp, sp, #12
 607              	.LCFI37:
 608              		.cfi_def_cfa_offset 16
 609 0004 00AF     		add	r7, sp, #0
 610              	.LCFI38:
 611              		.cfi_def_cfa_register 7
 665:.\Generated_Source\PSoC5/SPIS_1.c ****     uint8 rxData;
 666:.\Generated_Source\PSoC5/SPIS_1.c **** 
 667:.\Generated_Source\PSoC5/SPIS_1.c ****     #if(SPIS_1_RX_SOFTWARE_BUF_ENABLED)
 668:.\Generated_Source\PSoC5/SPIS_1.c **** 
 669:.\Generated_Source\PSoC5/SPIS_1.c ****         /* Disable Interrupt to protect variables that could change on interrupt. */
 670:.\Generated_Source\PSoC5/SPIS_1.c ****         SPIS_1_DisableRxInt();
 671:.\Generated_Source\PSoC5/SPIS_1.c **** 
 672:.\Generated_Source\PSoC5/SPIS_1.c ****         if(SPIS_1_rxBufferRead != SPIS_1_rxBufferWrite)
 673:.\Generated_Source\PSoC5/SPIS_1.c ****         {
 674:.\Generated_Source\PSoC5/SPIS_1.c ****             if(SPIS_1_rxBufferFull == 0u)
 675:.\Generated_Source\PSoC5/SPIS_1.c ****             {
 676:.\Generated_Source\PSoC5/SPIS_1.c ****                 SPIS_1_rxBufferRead++;
 677:.\Generated_Source\PSoC5/SPIS_1.c ****                 if(SPIS_1_rxBufferRead >= SPIS_1_RX_BUFFER_SIZE)
 678:.\Generated_Source\PSoC5/SPIS_1.c ****                 {
 679:.\Generated_Source\PSoC5/SPIS_1.c ****                     SPIS_1_rxBufferRead = 0u;
 680:.\Generated_Source\PSoC5/SPIS_1.c ****                 }
 681:.\Generated_Source\PSoC5/SPIS_1.c ****             }
 682:.\Generated_Source\PSoC5/SPIS_1.c ****             else
 683:.\Generated_Source\PSoC5/SPIS_1.c ****             {
 684:.\Generated_Source\PSoC5/SPIS_1.c ****                 SPIS_1_rxBufferFull = 0u;
 685:.\Generated_Source\PSoC5/SPIS_1.c ****             }
 686:.\Generated_Source\PSoC5/SPIS_1.c ****         }
 687:.\Generated_Source\PSoC5/SPIS_1.c **** 
 688:.\Generated_Source\PSoC5/SPIS_1.c ****         rxData = SPIS_1_rxBuffer[SPIS_1_rxBufferRead];
 689:.\Generated_Source\PSoC5/SPIS_1.c **** 
 690:.\Generated_Source\PSoC5/SPIS_1.c ****         /* Enable Interrupt. */
 691:.\Generated_Source\PSoC5/SPIS_1.c ****         SPIS_1_EnableRxInt();
 692:.\Generated_Source\PSoC5/SPIS_1.c **** 
 693:.\Generated_Source\PSoC5/SPIS_1.c ****     #else /* !SPIS_1_RX_SOFTWARE_BUF_ENABLED */
 694:.\Generated_Source\PSoC5/SPIS_1.c **** 
 695:.\Generated_Source\PSoC5/SPIS_1.c ****         rxData = CY_GET_REG8(SPIS_1_RXDATA_PTR);
 612              		.loc 1 695 0
 613 0006 46F25943 		movw	r3, #25689
 614 000a C4F20003 		movt	r3, 16384
 615 000e 1B78     		ldrb	r3, [r3, #0]
 616 0010 FB71     		strb	r3, [r7, #7]
ARM GAS  C:\Users\Brian\AppData\Local\Temp\ccwQyePA.s 			page 24


 696:.\Generated_Source\PSoC5/SPIS_1.c **** 
 697:.\Generated_Source\PSoC5/SPIS_1.c ****     #endif /* SPIS_1_RX_SOFTWARE_BUF_ENABLED */
 698:.\Generated_Source\PSoC5/SPIS_1.c **** 
 699:.\Generated_Source\PSoC5/SPIS_1.c ****     return (rxData);
 617              		.loc 1 699 0
 618 0012 FB79     		ldrb	r3, [r7, #7]	@ zero_extendqisi2
 700:.\Generated_Source\PSoC5/SPIS_1.c **** 
 701:.\Generated_Source\PSoC5/SPIS_1.c **** }
 619              		.loc 1 701 0
 620 0014 1846     		mov	r0, r3
 621 0016 07F10C07 		add	r7, r7, #12
 622 001a BD46     		mov	sp, r7
 623 001c 80BC     		pop	{r7}
 624 001e 7047     		bx	lr
 625              		.cfi_endproc
 626              	.LFE14:
 627              		.size	SPIS_1_ReadRxData, .-SPIS_1_ReadRxData
 628              		.section	.text.SPIS_1_GetRxBufferSize,"ax",%progbits
 629              		.align	2
 630              		.global	SPIS_1_GetRxBufferSize
 631              		.thumb
 632              		.thumb_func
 633              		.type	SPIS_1_GetRxBufferSize, %function
 634              	SPIS_1_GetRxBufferSize:
 635              	.LFB15:
 702:.\Generated_Source\PSoC5/SPIS_1.c **** 
 703:.\Generated_Source\PSoC5/SPIS_1.c **** 
 704:.\Generated_Source\PSoC5/SPIS_1.c **** /*******************************************************************************
 705:.\Generated_Source\PSoC5/SPIS_1.c **** * Function Name: SPIS_1_GetRxBufferSize
 706:.\Generated_Source\PSoC5/SPIS_1.c **** ********************************************************************************
 707:.\Generated_Source\PSoC5/SPIS_1.c **** *
 708:.\Generated_Source\PSoC5/SPIS_1.c **** * Summary:
 709:.\Generated_Source\PSoC5/SPIS_1.c **** *  Returns the number of bytes/words of data currently held in the RX buffer.
 710:.\Generated_Source\PSoC5/SPIS_1.c **** *  If RX Software Buffer not used then function return 0 if FIFO empty or 1 if
 711:.\Generated_Source\PSoC5/SPIS_1.c **** *  FIFO not empty. In another case function return size of RX Software Buffer.
 712:.\Generated_Source\PSoC5/SPIS_1.c **** *
 713:.\Generated_Source\PSoC5/SPIS_1.c **** * Parameters:
 714:.\Generated_Source\PSoC5/SPIS_1.c **** *  None.
 715:.\Generated_Source\PSoC5/SPIS_1.c **** *
 716:.\Generated_Source\PSoC5/SPIS_1.c **** * Return:
 717:.\Generated_Source\PSoC5/SPIS_1.c **** *  Integer count of the number of bytes/words in the RX buffer.
 718:.\Generated_Source\PSoC5/SPIS_1.c **** *
 719:.\Generated_Source\PSoC5/SPIS_1.c **** * Global variables:
 720:.\Generated_Source\PSoC5/SPIS_1.c **** *  SPIS_1_rxBufferWrite - used for the account of the bytes which
 721:.\Generated_Source\PSoC5/SPIS_1.c **** *  have been written down in the RX software buffer.
 722:.\Generated_Source\PSoC5/SPIS_1.c **** *  SPIS_1_rxBufferRead - used for the account of the bytes which
 723:.\Generated_Source\PSoC5/SPIS_1.c **** *  have been read from the RX software buffer.
 724:.\Generated_Source\PSoC5/SPIS_1.c **** *
 725:.\Generated_Source\PSoC5/SPIS_1.c **** * Theory:
 726:.\Generated_Source\PSoC5/SPIS_1.c **** *  Allows the user to find out how full the RX Buffer is.
 727:.\Generated_Source\PSoC5/SPIS_1.c **** *
 728:.\Generated_Source\PSoC5/SPIS_1.c **** *******************************************************************************/
 729:.\Generated_Source\PSoC5/SPIS_1.c **** uint8 SPIS_1_GetRxBufferSize(void) 
 730:.\Generated_Source\PSoC5/SPIS_1.c **** {
 636              		.loc 1 730 0
 637              		.cfi_startproc
 638              		@ args = 0, pretend = 0, frame = 8
ARM GAS  C:\Users\Brian\AppData\Local\Temp\ccwQyePA.s 			page 25


 639              		@ frame_needed = 1, uses_anonymous_args = 0
 640              		@ link register save eliminated.
 641 0000 80B4     		push	{r7}
 642              	.LCFI39:
 643              		.cfi_def_cfa_offset 4
 644              		.cfi_offset 7, -4
 645 0002 83B0     		sub	sp, sp, #12
 646              	.LCFI40:
 647              		.cfi_def_cfa_offset 16
 648 0004 00AF     		add	r7, sp, #0
 649              	.LCFI41:
 650              		.cfi_def_cfa_register 7
 731:.\Generated_Source\PSoC5/SPIS_1.c ****     uint8 size;
 732:.\Generated_Source\PSoC5/SPIS_1.c **** 
 733:.\Generated_Source\PSoC5/SPIS_1.c ****     #if(SPIS_1_RX_SOFTWARE_BUF_ENABLED)
 734:.\Generated_Source\PSoC5/SPIS_1.c **** 
 735:.\Generated_Source\PSoC5/SPIS_1.c ****         /* Disable Interrupt to protect variables that could change on interrupt. */
 736:.\Generated_Source\PSoC5/SPIS_1.c ****         SPIS_1_DisableRxInt();
 737:.\Generated_Source\PSoC5/SPIS_1.c **** 
 738:.\Generated_Source\PSoC5/SPIS_1.c ****         if(SPIS_1_rxBufferRead == SPIS_1_rxBufferWrite)
 739:.\Generated_Source\PSoC5/SPIS_1.c ****         {
 740:.\Generated_Source\PSoC5/SPIS_1.c ****             size = 0u; /* No data in RX buffer */
 741:.\Generated_Source\PSoC5/SPIS_1.c ****         }
 742:.\Generated_Source\PSoC5/SPIS_1.c ****         else if(SPIS_1_rxBufferRead < SPIS_1_rxBufferWrite)
 743:.\Generated_Source\PSoC5/SPIS_1.c ****         {
 744:.\Generated_Source\PSoC5/SPIS_1.c ****             size = (SPIS_1_rxBufferWrite - SPIS_1_rxBufferRead);
 745:.\Generated_Source\PSoC5/SPIS_1.c ****         }
 746:.\Generated_Source\PSoC5/SPIS_1.c ****         else
 747:.\Generated_Source\PSoC5/SPIS_1.c ****         {
 748:.\Generated_Source\PSoC5/SPIS_1.c ****             size = (SPIS_1_RX_BUFFER_SIZE - SPIS_1_rxBufferRead) + SPIS_1_rxBufferWrite;
 749:.\Generated_Source\PSoC5/SPIS_1.c ****         }
 750:.\Generated_Source\PSoC5/SPIS_1.c **** 
 751:.\Generated_Source\PSoC5/SPIS_1.c ****         /* Enable interrupt. */
 752:.\Generated_Source\PSoC5/SPIS_1.c ****         SPIS_1_EnableRxInt();
 753:.\Generated_Source\PSoC5/SPIS_1.c **** 
 754:.\Generated_Source\PSoC5/SPIS_1.c ****     #else /* !SPIS_1_RX_SOFTWARE_BUF_ENABLED*/
 755:.\Generated_Source\PSoC5/SPIS_1.c **** 
 756:.\Generated_Source\PSoC5/SPIS_1.c ****         /* We can only know if there is data in the fifo. */
 757:.\Generated_Source\PSoC5/SPIS_1.c ****         size = ((SPIS_1_RX_STATUS_REG & SPIS_1_STS_RX_FIFO_NOT_EMPTY) != 0u) ? 1u : 0u;
 651              		.loc 1 757 0
 652 0006 46F26843 		movw	r3, #25704
 653 000a C4F20003 		movt	r3, 16384
 654 000e 1B78     		ldrb	r3, [r3, #0]
 655 0010 DBB2     		uxtb	r3, r3
 656 0012 03F00803 		and	r3, r3, #8
 657 0016 002B     		cmp	r3, #0
 658 0018 02D0     		beq	.L22
 659              		.loc 1 757 0 is_stmt 0 discriminator 1
 660 001a 4FF00103 		mov	r3, #1
 661 001e 01E0     		b	.L23
 662              	.L22:
 663              		.loc 1 757 0 discriminator 2
 664 0020 4FF00003 		mov	r3, #0
 665              	.L23:
 666              		.loc 1 757 0 discriminator 3
 667 0024 FB71     		strb	r3, [r7, #7]
 758:.\Generated_Source\PSoC5/SPIS_1.c **** 
ARM GAS  C:\Users\Brian\AppData\Local\Temp\ccwQyePA.s 			page 26


 759:.\Generated_Source\PSoC5/SPIS_1.c ****     #endif /* SPIS_1_RX_SOFTWARE_BUF_ENABLED */
 760:.\Generated_Source\PSoC5/SPIS_1.c **** 
 761:.\Generated_Source\PSoC5/SPIS_1.c ****     return (size);
 668              		.loc 1 761 0 is_stmt 1 discriminator 3
 669 0026 FB79     		ldrb	r3, [r7, #7]	@ zero_extendqisi2
 762:.\Generated_Source\PSoC5/SPIS_1.c **** }
 670              		.loc 1 762 0 discriminator 3
 671 0028 1846     		mov	r0, r3
 672 002a 07F10C07 		add	r7, r7, #12
 673 002e BD46     		mov	sp, r7
 674 0030 80BC     		pop	{r7}
 675 0032 7047     		bx	lr
 676              		.cfi_endproc
 677              	.LFE15:
 678              		.size	SPIS_1_GetRxBufferSize, .-SPIS_1_GetRxBufferSize
 679              		.section	.text.SPIS_1_GetTxBufferSize,"ax",%progbits
 680              		.align	2
 681              		.global	SPIS_1_GetTxBufferSize
 682              		.thumb
 683              		.thumb_func
 684              		.type	SPIS_1_GetTxBufferSize, %function
 685              	SPIS_1_GetTxBufferSize:
 686              	.LFB16:
 763:.\Generated_Source\PSoC5/SPIS_1.c **** 
 764:.\Generated_Source\PSoC5/SPIS_1.c **** 
 765:.\Generated_Source\PSoC5/SPIS_1.c **** /*******************************************************************************
 766:.\Generated_Source\PSoC5/SPIS_1.c **** * Function Name: SPIS_1_GetTxBufferSize
 767:.\Generated_Source\PSoC5/SPIS_1.c **** ********************************************************************************
 768:.\Generated_Source\PSoC5/SPIS_1.c **** *
 769:.\Generated_Source\PSoC5/SPIS_1.c **** * Summary:
 770:.\Generated_Source\PSoC5/SPIS_1.c **** *  Returns the number of bytes/words of data currently held in the TX buffer.
 771:.\Generated_Source\PSoC5/SPIS_1.c **** *  If TX Software Buffer not used then function return 0 - if FIFO empty, 1 - if
 772:.\Generated_Source\PSoC5/SPIS_1.c **** *  FIFO not full, 4 - if FIFO full. In another case function return size of TX
 773:.\Generated_Source\PSoC5/SPIS_1.c **** *  Software Buffer.
 774:.\Generated_Source\PSoC5/SPIS_1.c **** *
 775:.\Generated_Source\PSoC5/SPIS_1.c **** * Parameters:
 776:.\Generated_Source\PSoC5/SPIS_1.c **** *  None.
 777:.\Generated_Source\PSoC5/SPIS_1.c **** *
 778:.\Generated_Source\PSoC5/SPIS_1.c **** * Return:
 779:.\Generated_Source\PSoC5/SPIS_1.c **** *  Integer count of the number of bytes/words in the TX buffer.
 780:.\Generated_Source\PSoC5/SPIS_1.c **** *
 781:.\Generated_Source\PSoC5/SPIS_1.c **** * Global variables:
 782:.\Generated_Source\PSoC5/SPIS_1.c **** *  SPIS_1_txBufferWrite - used for the account of the bytes which
 783:.\Generated_Source\PSoC5/SPIS_1.c **** *  have been written down in the TX software buffer.
 784:.\Generated_Source\PSoC5/SPIS_1.c **** *  SPIS_1_txBufferRead - used for the account of the bytes which
 785:.\Generated_Source\PSoC5/SPIS_1.c **** *  have been read from the TX software buffer.
 786:.\Generated_Source\PSoC5/SPIS_1.c **** *
 787:.\Generated_Source\PSoC5/SPIS_1.c **** * Theory:
 788:.\Generated_Source\PSoC5/SPIS_1.c **** *  Allows the user to find out how full the TX Buffer is.
 789:.\Generated_Source\PSoC5/SPIS_1.c **** *
 790:.\Generated_Source\PSoC5/SPIS_1.c **** * Side Effects:
 791:.\Generated_Source\PSoC5/SPIS_1.c **** *  Clear status register of the component.
 792:.\Generated_Source\PSoC5/SPIS_1.c **** *
 793:.\Generated_Source\PSoC5/SPIS_1.c **** *******************************************************************************/
 794:.\Generated_Source\PSoC5/SPIS_1.c **** uint8  SPIS_1_GetTxBufferSize(void) 
 795:.\Generated_Source\PSoC5/SPIS_1.c **** {
 687              		.loc 1 795 0
ARM GAS  C:\Users\Brian\AppData\Local\Temp\ccwQyePA.s 			page 27


 688              		.cfi_startproc
 689              		@ args = 0, pretend = 0, frame = 8
 690              		@ frame_needed = 1, uses_anonymous_args = 0
 691              		@ link register save eliminated.
 692 0000 80B4     		push	{r7}
 693              	.LCFI42:
 694              		.cfi_def_cfa_offset 4
 695              		.cfi_offset 7, -4
 696 0002 83B0     		sub	sp, sp, #12
 697              	.LCFI43:
 698              		.cfi_def_cfa_offset 16
 699 0004 00AF     		add	r7, sp, #0
 700              	.LCFI44:
 701              		.cfi_def_cfa_register 7
 796:.\Generated_Source\PSoC5/SPIS_1.c ****     uint8 size;
 797:.\Generated_Source\PSoC5/SPIS_1.c **** 
 798:.\Generated_Source\PSoC5/SPIS_1.c ****     #if(SPIS_1_TX_SOFTWARE_BUF_ENABLED)
 799:.\Generated_Source\PSoC5/SPIS_1.c **** 
 800:.\Generated_Source\PSoC5/SPIS_1.c ****         /* Disable Interrupt to protect variables that could change on interrupt. */
 801:.\Generated_Source\PSoC5/SPIS_1.c ****         SPIS_1_DisableTxInt();
 802:.\Generated_Source\PSoC5/SPIS_1.c **** 
 803:.\Generated_Source\PSoC5/SPIS_1.c ****         if(SPIS_1_txBufferRead == SPIS_1_txBufferWrite)
 804:.\Generated_Source\PSoC5/SPIS_1.c ****         {
 805:.\Generated_Source\PSoC5/SPIS_1.c ****             size = 0u;
 806:.\Generated_Source\PSoC5/SPIS_1.c ****         }
 807:.\Generated_Source\PSoC5/SPIS_1.c ****         else if(SPIS_1_txBufferRead < SPIS_1_txBufferWrite)
 808:.\Generated_Source\PSoC5/SPIS_1.c ****         {
 809:.\Generated_Source\PSoC5/SPIS_1.c ****             size = (SPIS_1_txBufferWrite - SPIS_1_txBufferRead);
 810:.\Generated_Source\PSoC5/SPIS_1.c ****         }
 811:.\Generated_Source\PSoC5/SPIS_1.c ****         else
 812:.\Generated_Source\PSoC5/SPIS_1.c ****         {
 813:.\Generated_Source\PSoC5/SPIS_1.c ****             size = (SPIS_1_TX_BUFFER_SIZE - SPIS_1_txBufferRead) + SPIS_1_txBufferWrite;
 814:.\Generated_Source\PSoC5/SPIS_1.c ****         }
 815:.\Generated_Source\PSoC5/SPIS_1.c **** 
 816:.\Generated_Source\PSoC5/SPIS_1.c ****         /* Enable Interrupt. */
 817:.\Generated_Source\PSoC5/SPIS_1.c ****         SPIS_1_EnableTxInt();
 818:.\Generated_Source\PSoC5/SPIS_1.c **** 
 819:.\Generated_Source\PSoC5/SPIS_1.c ****     #else /* !SPIS_1_TX_SOFTWARE_BUF_ENABLED */
 820:.\Generated_Source\PSoC5/SPIS_1.c **** 
 821:.\Generated_Source\PSoC5/SPIS_1.c ****         size = SPIS_1_TX_STATUS_REG;
 702              		.loc 1 821 0
 703 0006 46F26953 		movw	r3, #25961
 704 000a C4F20003 		movt	r3, 16384
 705 000e 1B78     		ldrb	r3, [r3, #0]
 706 0010 FB71     		strb	r3, [r7, #7]
 822:.\Generated_Source\PSoC5/SPIS_1.c **** 
 823:.\Generated_Source\PSoC5/SPIS_1.c ****         /* Is the fifo is full. */
 824:.\Generated_Source\PSoC5/SPIS_1.c ****         if((size & SPIS_1_STS_TX_FIFO_EMPTY) != 0u)
 707              		.loc 1 824 0
 708 0012 FB79     		ldrb	r3, [r7, #7]	@ zero_extendqisi2
 709 0014 03F00403 		and	r3, r3, #4
 710 0018 002B     		cmp	r3, #0
 711 001a 03D0     		beq	.L26
 825:.\Generated_Source\PSoC5/SPIS_1.c ****         {
 826:.\Generated_Source\PSoC5/SPIS_1.c ****             size = 0u;
 712              		.loc 1 826 0
 713 001c 4FF00003 		mov	r3, #0
ARM GAS  C:\Users\Brian\AppData\Local\Temp\ccwQyePA.s 			page 28


 714 0020 FB71     		strb	r3, [r7, #7]
 715 0022 0BE0     		b	.L27
 716              	.L26:
 827:.\Generated_Source\PSoC5/SPIS_1.c ****         }
 828:.\Generated_Source\PSoC5/SPIS_1.c ****         else if((size & SPIS_1_STS_TX_FIFO_NOT_FULL) != 0u)
 717              		.loc 1 828 0
 718 0024 FB79     		ldrb	r3, [r7, #7]	@ zero_extendqisi2
 719 0026 03F00203 		and	r3, r3, #2
 720 002a 002B     		cmp	r3, #0
 721 002c 03D0     		beq	.L28
 829:.\Generated_Source\PSoC5/SPIS_1.c ****         {
 830:.\Generated_Source\PSoC5/SPIS_1.c ****             size = 1u;
 722              		.loc 1 830 0
 723 002e 4FF00103 		mov	r3, #1
 724 0032 FB71     		strb	r3, [r7, #7]
 725 0034 02E0     		b	.L27
 726              	.L28:
 831:.\Generated_Source\PSoC5/SPIS_1.c ****         }
 832:.\Generated_Source\PSoC5/SPIS_1.c ****         else
 833:.\Generated_Source\PSoC5/SPIS_1.c ****         {
 834:.\Generated_Source\PSoC5/SPIS_1.c ****             size = 4u;
 727              		.loc 1 834 0
 728 0036 4FF00403 		mov	r3, #4
 729 003a FB71     		strb	r3, [r7, #7]
 730              	.L27:
 835:.\Generated_Source\PSoC5/SPIS_1.c ****         }
 836:.\Generated_Source\PSoC5/SPIS_1.c **** 
 837:.\Generated_Source\PSoC5/SPIS_1.c ****     #endif /* SPIS_1_TX_SOFTWARE_BUF_ENABLED */
 838:.\Generated_Source\PSoC5/SPIS_1.c **** 
 839:.\Generated_Source\PSoC5/SPIS_1.c ****     return (size);
 731              		.loc 1 839 0
 732 003c FB79     		ldrb	r3, [r7, #7]	@ zero_extendqisi2
 840:.\Generated_Source\PSoC5/SPIS_1.c **** }
 733              		.loc 1 840 0
 734 003e 1846     		mov	r0, r3
 735 0040 07F10C07 		add	r7, r7, #12
 736 0044 BD46     		mov	sp, r7
 737 0046 80BC     		pop	{r7}
 738 0048 7047     		bx	lr
 739              		.cfi_endproc
 740              	.LFE16:
 741              		.size	SPIS_1_GetTxBufferSize, .-SPIS_1_GetTxBufferSize
 742 004a 00BF     		.section	.text.SPIS_1_ClearRxBuffer,"ax",%progbits
 743              		.align	2
 744              		.global	SPIS_1_ClearRxBuffer
 745              		.thumb
 746              		.thumb_func
 747              		.type	SPIS_1_ClearRxBuffer, %function
 748              	SPIS_1_ClearRxBuffer:
 749              	.LFB17:
 841:.\Generated_Source\PSoC5/SPIS_1.c **** 
 842:.\Generated_Source\PSoC5/SPIS_1.c **** 
 843:.\Generated_Source\PSoC5/SPIS_1.c **** /*******************************************************************************
 844:.\Generated_Source\PSoC5/SPIS_1.c **** * Function Name: SPIS_1_ClearRxBuffer
 845:.\Generated_Source\PSoC5/SPIS_1.c **** ********************************************************************************
 846:.\Generated_Source\PSoC5/SPIS_1.c **** *
 847:.\Generated_Source\PSoC5/SPIS_1.c **** * Summary:
ARM GAS  C:\Users\Brian\AppData\Local\Temp\ccwQyePA.s 			page 29


 848:.\Generated_Source\PSoC5/SPIS_1.c **** *  Clear the RX RAM buffer by setting the read and write pointers both to zero.
 849:.\Generated_Source\PSoC5/SPIS_1.c **** *
 850:.\Generated_Source\PSoC5/SPIS_1.c **** * Parameters:
 851:.\Generated_Source\PSoC5/SPIS_1.c **** *  None.
 852:.\Generated_Source\PSoC5/SPIS_1.c **** *
 853:.\Generated_Source\PSoC5/SPIS_1.c **** * Return:
 854:.\Generated_Source\PSoC5/SPIS_1.c **** *  None.
 855:.\Generated_Source\PSoC5/SPIS_1.c **** *
 856:.\Generated_Source\PSoC5/SPIS_1.c **** * Global variables:
 857:.\Generated_Source\PSoC5/SPIS_1.c **** *  SPIS_1_rxBufferWrite - used for the account of the bytes which
 858:.\Generated_Source\PSoC5/SPIS_1.c **** *  have been written down in the RX software buffer, modified every function
 859:.\Generated_Source\PSoC5/SPIS_1.c **** *  call - resets to zero.
 860:.\Generated_Source\PSoC5/SPIS_1.c **** *  SPIS_1_rxBufferRead - used for the account of the bytes which
 861:.\Generated_Source\PSoC5/SPIS_1.c **** *  have been read from the RX software buffer, modified every function call -
 862:.\Generated_Source\PSoC5/SPIS_1.c **** *  resets to zero.
 863:.\Generated_Source\PSoC5/SPIS_1.c **** *
 864:.\Generated_Source\PSoC5/SPIS_1.c **** * Theory:
 865:.\Generated_Source\PSoC5/SPIS_1.c **** *  Setting the pointers to zero makes the system believe there is no data to
 866:.\Generated_Source\PSoC5/SPIS_1.c **** *  read and writing will resume at address 0 overwriting any data that may have
 867:.\Generated_Source\PSoC5/SPIS_1.c **** *  remained in the RAM.
 868:.\Generated_Source\PSoC5/SPIS_1.c **** *
 869:.\Generated_Source\PSoC5/SPIS_1.c **** * Side Effects:
 870:.\Generated_Source\PSoC5/SPIS_1.c **** *  Any received data not read from the RAM buffer will be lost when overwritten.
 871:.\Generated_Source\PSoC5/SPIS_1.c **** *
 872:.\Generated_Source\PSoC5/SPIS_1.c **** * Reentrant:
 873:.\Generated_Source\PSoC5/SPIS_1.c **** *  No.
 874:.\Generated_Source\PSoC5/SPIS_1.c **** *
 875:.\Generated_Source\PSoC5/SPIS_1.c **** *******************************************************************************/
 876:.\Generated_Source\PSoC5/SPIS_1.c **** void SPIS_1_ClearRxBuffer(void) 
 877:.\Generated_Source\PSoC5/SPIS_1.c **** {
 750              		.loc 1 877 0
 751              		.cfi_startproc
 752              		@ args = 0, pretend = 0, frame = 0
 753              		@ frame_needed = 1, uses_anonymous_args = 0
 754              		@ link register save eliminated.
 755 0000 80B4     		push	{r7}
 756              	.LCFI45:
 757              		.cfi_def_cfa_offset 4
 758              		.cfi_offset 7, -4
 759 0002 00AF     		add	r7, sp, #0
 760              	.LCFI46:
 761              		.cfi_def_cfa_register 7
 878:.\Generated_Source\PSoC5/SPIS_1.c ****     /* Clear Hardware RX FIFO */
 879:.\Generated_Source\PSoC5/SPIS_1.c ****     while((SPIS_1_RX_STATUS_REG & SPIS_1_STS_RX_FIFO_NOT_EMPTY) != 0u)
 762              		.loc 1 879 0
 763 0004 04E0     		b	.L31
 764              	.L32:
 880:.\Generated_Source\PSoC5/SPIS_1.c ****     {
 881:.\Generated_Source\PSoC5/SPIS_1.c ****         CY_GET_REG8(SPIS_1_RXDATA_PTR);
 765              		.loc 1 881 0
 766 0006 46F25943 		movw	r3, #25689
 767 000a C4F20003 		movt	r3, 16384
 768 000e 1B78     		ldrb	r3, [r3, #0]
 769              	.L31:
 879:.\Generated_Source\PSoC5/SPIS_1.c ****     while((SPIS_1_RX_STATUS_REG & SPIS_1_STS_RX_FIFO_NOT_EMPTY) != 0u)
 770              		.loc 1 879 0 discriminator 1
 771 0010 46F26843 		movw	r3, #25704
ARM GAS  C:\Users\Brian\AppData\Local\Temp\ccwQyePA.s 			page 30


 772 0014 C4F20003 		movt	r3, 16384
 773 0018 1B78     		ldrb	r3, [r3, #0]
 774 001a DBB2     		uxtb	r3, r3
 775 001c 03F00803 		and	r3, r3, #8
 776 0020 002B     		cmp	r3, #0
 777 0022 F0D1     		bne	.L32
 882:.\Generated_Source\PSoC5/SPIS_1.c ****     }
 883:.\Generated_Source\PSoC5/SPIS_1.c **** 
 884:.\Generated_Source\PSoC5/SPIS_1.c ****     #if(SPIS_1_RX_SOFTWARE_BUF_ENABLED)
 885:.\Generated_Source\PSoC5/SPIS_1.c **** 
 886:.\Generated_Source\PSoC5/SPIS_1.c ****         /* Disable interrupt to protect variables that could change on interrupt. */
 887:.\Generated_Source\PSoC5/SPIS_1.c ****         SPIS_1_DisableRxInt();
 888:.\Generated_Source\PSoC5/SPIS_1.c **** 
 889:.\Generated_Source\PSoC5/SPIS_1.c ****         SPIS_1_rxBufferRead  = 0u;
 890:.\Generated_Source\PSoC5/SPIS_1.c ****         SPIS_1_rxBufferWrite = 0u;
 891:.\Generated_Source\PSoC5/SPIS_1.c **** 		SPIS_1_rxBufferFull  = 0u;
 892:.\Generated_Source\PSoC5/SPIS_1.c ****         /* Enable interrupt. */
 893:.\Generated_Source\PSoC5/SPIS_1.c ****         SPIS_1_EnableRxInt();
 894:.\Generated_Source\PSoC5/SPIS_1.c **** 
 895:.\Generated_Source\PSoC5/SPIS_1.c ****     #endif /* SPIS_1_RX_SOFTWARE_BUF_ENABLED */
 896:.\Generated_Source\PSoC5/SPIS_1.c **** }
 778              		.loc 1 896 0
 779 0024 BD46     		mov	sp, r7
 780 0026 80BC     		pop	{r7}
 781 0028 7047     		bx	lr
 782              		.cfi_endproc
 783              	.LFE17:
 784              		.size	SPIS_1_ClearRxBuffer, .-SPIS_1_ClearRxBuffer
 785 002a 00BF     		.section	.text.SPIS_1_ClearTxBuffer,"ax",%progbits
 786              		.align	2
 787              		.global	SPIS_1_ClearTxBuffer
 788              		.thumb
 789              		.thumb_func
 790              		.type	SPIS_1_ClearTxBuffer, %function
 791              	SPIS_1_ClearTxBuffer:
 792              	.LFB18:
 897:.\Generated_Source\PSoC5/SPIS_1.c **** 
 898:.\Generated_Source\PSoC5/SPIS_1.c **** 
 899:.\Generated_Source\PSoC5/SPIS_1.c **** /*******************************************************************************
 900:.\Generated_Source\PSoC5/SPIS_1.c **** * Function Name: SPIS_1_ClearTxBuffer
 901:.\Generated_Source\PSoC5/SPIS_1.c **** ********************************************************************************
 902:.\Generated_Source\PSoC5/SPIS_1.c **** *
 903:.\Generated_Source\PSoC5/SPIS_1.c **** * Summary:
 904:.\Generated_Source\PSoC5/SPIS_1.c **** *  Clear the TX RAM buffer by setting the read and write pointers both to zero.
 905:.\Generated_Source\PSoC5/SPIS_1.c **** *
 906:.\Generated_Source\PSoC5/SPIS_1.c **** * Parameters:
 907:.\Generated_Source\PSoC5/SPIS_1.c **** *  None.
 908:.\Generated_Source\PSoC5/SPIS_1.c **** *
 909:.\Generated_Source\PSoC5/SPIS_1.c **** * Return:
 910:.\Generated_Source\PSoC5/SPIS_1.c **** *  None.
 911:.\Generated_Source\PSoC5/SPIS_1.c **** *
 912:.\Generated_Source\PSoC5/SPIS_1.c **** * Global variables:
 913:.\Generated_Source\PSoC5/SPIS_1.c **** *  SPIS_1_txBufferWrite - used for the account of the bytes which
 914:.\Generated_Source\PSoC5/SPIS_1.c **** *  have been written down in the TX software buffer, modified every function
 915:.\Generated_Source\PSoC5/SPIS_1.c **** *  call - resets to zero.
 916:.\Generated_Source\PSoC5/SPIS_1.c **** *  SPIS_1_txBufferRead - used for the account of the bytes which
 917:.\Generated_Source\PSoC5/SPIS_1.c **** *  have been read from the TX software buffer, modified every function call -
ARM GAS  C:\Users\Brian\AppData\Local\Temp\ccwQyePA.s 			page 31


 918:.\Generated_Source\PSoC5/SPIS_1.c **** *  resets to zero.
 919:.\Generated_Source\PSoC5/SPIS_1.c **** *
 920:.\Generated_Source\PSoC5/SPIS_1.c **** * Theory:
 921:.\Generated_Source\PSoC5/SPIS_1.c **** *  Setting the pointers to zero makes the system believe there is no data to
 922:.\Generated_Source\PSoC5/SPIS_1.c **** *  read and writing will resume at address 0 overwriting any data that may have
 923:.\Generated_Source\PSoC5/SPIS_1.c **** *  remained in the RAM.
 924:.\Generated_Source\PSoC5/SPIS_1.c **** *
 925:.\Generated_Source\PSoC5/SPIS_1.c **** * Side Effects:
 926:.\Generated_Source\PSoC5/SPIS_1.c **** *  Any data not yet transmitted from the RAM buffer will be lost when
 927:.\Generated_Source\PSoC5/SPIS_1.c **** *  overwritten.
 928:.\Generated_Source\PSoC5/SPIS_1.c **** *
 929:.\Generated_Source\PSoC5/SPIS_1.c **** * Reentrant:
 930:.\Generated_Source\PSoC5/SPIS_1.c **** *  No.
 931:.\Generated_Source\PSoC5/SPIS_1.c **** *
 932:.\Generated_Source\PSoC5/SPIS_1.c **** *******************************************************************************/
 933:.\Generated_Source\PSoC5/SPIS_1.c **** void SPIS_1_ClearTxBuffer(void) 
 934:.\Generated_Source\PSoC5/SPIS_1.c **** {
 793              		.loc 1 934 0
 794              		.cfi_startproc
 795              		@ args = 0, pretend = 0, frame = 8
 796              		@ frame_needed = 1, uses_anonymous_args = 0
 797 0000 80B5     		push	{r7, lr}
 798              	.LCFI47:
 799              		.cfi_def_cfa_offset 8
 800              		.cfi_offset 7, -8
 801              		.cfi_offset 14, -4
 802 0002 82B0     		sub	sp, sp, #8
 803              	.LCFI48:
 804              		.cfi_def_cfa_offset 16
 805 0004 00AF     		add	r7, sp, #0
 806              	.LCFI49:
 807              		.cfi_def_cfa_register 7
 935:.\Generated_Source\PSoC5/SPIS_1.c ****     uint8 enableInterrupts;
 936:.\Generated_Source\PSoC5/SPIS_1.c **** 
 937:.\Generated_Source\PSoC5/SPIS_1.c ****     /* Clear Hardware TX FIFO */
 938:.\Generated_Source\PSoC5/SPIS_1.c ****     enableInterrupts = CyEnterCriticalSection();
 808              		.loc 1 938 0
 809 0006 FFF7FEFF 		bl	CyEnterCriticalSection
 810 000a 0346     		mov	r3, r0
 811 000c FB71     		strb	r3, [r7, #7]
 939:.\Generated_Source\PSoC5/SPIS_1.c **** 
 940:.\Generated_Source\PSoC5/SPIS_1.c ****     #if(SPIS_1_DATA_WIDTH <= 8u)
 941:.\Generated_Source\PSoC5/SPIS_1.c **** 
 942:.\Generated_Source\PSoC5/SPIS_1.c ****         /* Clear TX FIFO */
 943:.\Generated_Source\PSoC5/SPIS_1.c ****         SPIS_1_TX_AUX_CONTROL_DP0_REG |= (uint8)SPIS_1_FIFO_CLR;
 812              		.loc 1 943 0
 813 000e 46F29943 		movw	r3, #25753
 814 0012 C4F20003 		movt	r3, 16384
 815 0016 46F29942 		movw	r2, #25753
 816 001a C4F20002 		movt	r2, 16384
 817 001e 1278     		ldrb	r2, [r2, #0]
 818 0020 D2B2     		uxtb	r2, r2
 819 0022 42F00302 		orr	r2, r2, #3
 820 0026 D2B2     		uxtb	r2, r2
 821 0028 1A70     		strb	r2, [r3, #0]
 944:.\Generated_Source\PSoC5/SPIS_1.c ****         SPIS_1_TX_AUX_CONTROL_DP0_REG &= (uint8)~SPIS_1_FIFO_CLR;
 822              		.loc 1 944 0
ARM GAS  C:\Users\Brian\AppData\Local\Temp\ccwQyePA.s 			page 32


 823 002a 46F29943 		movw	r3, #25753
 824 002e C4F20003 		movt	r3, 16384
 825 0032 46F29942 		movw	r2, #25753
 826 0036 C4F20002 		movt	r2, 16384
 827 003a 1278     		ldrb	r2, [r2, #0]
 828 003c D2B2     		uxtb	r2, r2
 829 003e 22F00302 		bic	r2, r2, #3
 830 0042 D2B2     		uxtb	r2, r2
 831 0044 1A70     		strb	r2, [r3, #0]
 945:.\Generated_Source\PSoC5/SPIS_1.c **** 
 946:.\Generated_Source\PSoC5/SPIS_1.c ****     #else
 947:.\Generated_Source\PSoC5/SPIS_1.c **** 
 948:.\Generated_Source\PSoC5/SPIS_1.c ****         /* Clear TX FIFO */
 949:.\Generated_Source\PSoC5/SPIS_1.c ****         SPIS_1_TX_AUX_CONTROL_DP0_REG |= (uint8)SPIS_1_FIFO_CLR;
 950:.\Generated_Source\PSoC5/SPIS_1.c ****         SPIS_1_TX_AUX_CONTROL_DP0_REG &= (uint8)~SPIS_1_FIFO_CLR;
 951:.\Generated_Source\PSoC5/SPIS_1.c ****         SPIS_1_TX_AUX_CONTROL_DP1_REG |= (uint8)SPIS_1_FIFO_CLR;
 952:.\Generated_Source\PSoC5/SPIS_1.c ****         SPIS_1_TX_AUX_CONTROL_DP1_REG &= (uint8)~SPIS_1_FIFO_CLR;
 953:.\Generated_Source\PSoC5/SPIS_1.c **** 
 954:.\Generated_Source\PSoC5/SPIS_1.c ****     #endif /* SPIS_1_DATA_WIDTH > 8u */
 955:.\Generated_Source\PSoC5/SPIS_1.c **** 
 956:.\Generated_Source\PSoC5/SPIS_1.c ****     CyExitCriticalSection(enableInterrupts);
 832              		.loc 1 956 0
 833 0046 FB79     		ldrb	r3, [r7, #7]	@ zero_extendqisi2
 834 0048 1846     		mov	r0, r3
 835 004a FFF7FEFF 		bl	CyExitCriticalSection
 957:.\Generated_Source\PSoC5/SPIS_1.c **** 
 958:.\Generated_Source\PSoC5/SPIS_1.c ****     #if(SPIS_1_TX_SOFTWARE_BUF_ENABLED)
 959:.\Generated_Source\PSoC5/SPIS_1.c **** 
 960:.\Generated_Source\PSoC5/SPIS_1.c ****         /* Disable Interrupt to protect variables that could change on interrupt. */
 961:.\Generated_Source\PSoC5/SPIS_1.c ****         SPIS_1_DisableTxInt();
 962:.\Generated_Source\PSoC5/SPIS_1.c **** 
 963:.\Generated_Source\PSoC5/SPIS_1.c ****         SPIS_1_txBufferRead  = 0u;
 964:.\Generated_Source\PSoC5/SPIS_1.c ****         SPIS_1_txBufferWrite = 0u;
 965:.\Generated_Source\PSoC5/SPIS_1.c **** 		SPIS_1_txBufferFull  = 0u;
 966:.\Generated_Source\PSoC5/SPIS_1.c **** 		
 967:.\Generated_Source\PSoC5/SPIS_1.c ****         /* If Buffer is empty then disable TX FIFO status interrupt */
 968:.\Generated_Source\PSoC5/SPIS_1.c ****         SPIS_1_TX_STATUS_MASK_REG &= (uint8)~SPIS_1_STS_TX_FIFO_NOT_FULL;
 969:.\Generated_Source\PSoC5/SPIS_1.c **** 
 970:.\Generated_Source\PSoC5/SPIS_1.c ****         /* Enable Interrupt. */
 971:.\Generated_Source\PSoC5/SPIS_1.c ****         SPIS_1_EnableTxInt();
 972:.\Generated_Source\PSoC5/SPIS_1.c **** 
 973:.\Generated_Source\PSoC5/SPIS_1.c ****     #endif /* SPIS_1_TX_SOFTWARE_BUF_ENABLED */
 974:.\Generated_Source\PSoC5/SPIS_1.c **** }
 836              		.loc 1 974 0
 837 004e 07F10807 		add	r7, r7, #8
 838 0052 BD46     		mov	sp, r7
 839 0054 80BD     		pop	{r7, pc}
 840              		.cfi_endproc
 841              	.LFE18:
 842              		.size	SPIS_1_ClearTxBuffer, .-SPIS_1_ClearTxBuffer
 843 0056 00BF     		.section	.text.SPIS_1_PutArray,"ax",%progbits
 844              		.align	2
 845              		.global	SPIS_1_PutArray
 846              		.thumb
 847              		.thumb_func
 848              		.type	SPIS_1_PutArray, %function
 849              	SPIS_1_PutArray:
ARM GAS  C:\Users\Brian\AppData\Local\Temp\ccwQyePA.s 			page 33


 850              	.LFB19:
 975:.\Generated_Source\PSoC5/SPIS_1.c **** 
 976:.\Generated_Source\PSoC5/SPIS_1.c **** 
 977:.\Generated_Source\PSoC5/SPIS_1.c **** #if (SPIS_1_BIDIRECTIONAL_MODE != 0u)
 978:.\Generated_Source\PSoC5/SPIS_1.c **** 
 979:.\Generated_Source\PSoC5/SPIS_1.c ****     /*******************************************************************************
 980:.\Generated_Source\PSoC5/SPIS_1.c ****     * Function Name: SPIS_1_TxEnable
 981:.\Generated_Source\PSoC5/SPIS_1.c ****     ********************************************************************************
 982:.\Generated_Source\PSoC5/SPIS_1.c ****     *
 983:.\Generated_Source\PSoC5/SPIS_1.c ****     * Summary:
 984:.\Generated_Source\PSoC5/SPIS_1.c ****     *  If the SPI Slave is configured to use a single bi-directional pin then this
 985:.\Generated_Source\PSoC5/SPIS_1.c ****     *  will set the bi-directional pin to transmit.
 986:.\Generated_Source\PSoC5/SPIS_1.c ****     *
 987:.\Generated_Source\PSoC5/SPIS_1.c ****     * Parameters:
 988:.\Generated_Source\PSoC5/SPIS_1.c ****     *  None.
 989:.\Generated_Source\PSoC5/SPIS_1.c ****     *
 990:.\Generated_Source\PSoC5/SPIS_1.c ****     * Return:
 991:.\Generated_Source\PSoC5/SPIS_1.c ****     *  None.
 992:.\Generated_Source\PSoC5/SPIS_1.c ****     *
 993:.\Generated_Source\PSoC5/SPIS_1.c ****     *******************************************************************************/
 994:.\Generated_Source\PSoC5/SPIS_1.c ****     void SPIS_1_TxEnable(void) 
 995:.\Generated_Source\PSoC5/SPIS_1.c ****     {
 996:.\Generated_Source\PSoC5/SPIS_1.c ****             SPIS_1_CONTROL_REG |= SPIS_1_CTRL_TX_SIGNAL_EN;
 997:.\Generated_Source\PSoC5/SPIS_1.c ****     }
 998:.\Generated_Source\PSoC5/SPIS_1.c **** 
 999:.\Generated_Source\PSoC5/SPIS_1.c **** 
1000:.\Generated_Source\PSoC5/SPIS_1.c ****     /*******************************************************************************
1001:.\Generated_Source\PSoC5/SPIS_1.c ****     * Function Name: SPIS_1_TxDisable
1002:.\Generated_Source\PSoC5/SPIS_1.c ****     ********************************************************************************
1003:.\Generated_Source\PSoC5/SPIS_1.c ****     *
1004:.\Generated_Source\PSoC5/SPIS_1.c ****     * Summary:
1005:.\Generated_Source\PSoC5/SPIS_1.c ****     *  If the SPI Slave is configured to use a single bi-directional pin then this
1006:.\Generated_Source\PSoC5/SPIS_1.c ****     *  will set the bi-directional pin to receive.
1007:.\Generated_Source\PSoC5/SPIS_1.c ****     *
1008:.\Generated_Source\PSoC5/SPIS_1.c ****     * Parameters:
1009:.\Generated_Source\PSoC5/SPIS_1.c ****     *  None.
1010:.\Generated_Source\PSoC5/SPIS_1.c ****     *
1011:.\Generated_Source\PSoC5/SPIS_1.c ****     * Return:
1012:.\Generated_Source\PSoC5/SPIS_1.c ****     *  None.
1013:.\Generated_Source\PSoC5/SPIS_1.c ****     *
1014:.\Generated_Source\PSoC5/SPIS_1.c ****     *******************************************************************************/
1015:.\Generated_Source\PSoC5/SPIS_1.c ****     void SPIS_1_TxDisable(void) 
1016:.\Generated_Source\PSoC5/SPIS_1.c ****     {
1017:.\Generated_Source\PSoC5/SPIS_1.c ****             SPIS_1_CONTROL_REG &= (uint8)~SPIS_1_CTRL_TX_SIGNAL_EN;
1018:.\Generated_Source\PSoC5/SPIS_1.c ****     }
1019:.\Generated_Source\PSoC5/SPIS_1.c **** 
1020:.\Generated_Source\PSoC5/SPIS_1.c **** #endif /* SPIS_1_BIDIRECTIONAL_MODE != 0u */
1021:.\Generated_Source\PSoC5/SPIS_1.c **** 
1022:.\Generated_Source\PSoC5/SPIS_1.c **** 
1023:.\Generated_Source\PSoC5/SPIS_1.c **** /*******************************************************************************
1024:.\Generated_Source\PSoC5/SPIS_1.c **** * Function Name: SPIS_1_PutArray
1025:.\Generated_Source\PSoC5/SPIS_1.c **** ********************************************************************************
1026:.\Generated_Source\PSoC5/SPIS_1.c **** *
1027:.\Generated_Source\PSoC5/SPIS_1.c **** * Summary:
1028:.\Generated_Source\PSoC5/SPIS_1.c **** *  Write available data from RAM/ROM to the TX buffer while space is available
1029:.\Generated_Source\PSoC5/SPIS_1.c **** *  in the TX buffer. Keep trying until all data is passed to the TX buffer. If
1030:.\Generated_Source\PSoC5/SPIS_1.c **** *  used Mode 00 or 01 before PutArray() function should be called
ARM GAS  C:\Users\Brian\AppData\Local\Temp\ccwQyePA.s 			page 34


1031:.\Generated_Source\PSoC5/SPIS_1.c **** *  WriteTxDataZero() function.
1032:.\Generated_Source\PSoC5/SPIS_1.c **** *
1033:.\Generated_Source\PSoC5/SPIS_1.c **** * Parameters:
1034:.\Generated_Source\PSoC5/SPIS_1.c **** *  *buffer: Pointer to the location in RAM containing the data to send
1035:.\Generated_Source\PSoC5/SPIS_1.c **** *  byteCount: The number of bytes to move to the transmit buffer.
1036:.\Generated_Source\PSoC5/SPIS_1.c **** *
1037:.\Generated_Source\PSoC5/SPIS_1.c **** * Return:
1038:.\Generated_Source\PSoC5/SPIS_1.c **** *  None.
1039:.\Generated_Source\PSoC5/SPIS_1.c **** *
1040:.\Generated_Source\PSoC5/SPIS_1.c **** * Side Effects:
1041:.\Generated_Source\PSoC5/SPIS_1.c **** *  Will stay in this routine until all data has been sent.  May get locked in
1042:.\Generated_Source\PSoC5/SPIS_1.c **** *  this loop if data is not being initiated by the master if there is not
1043:.\Generated_Source\PSoC5/SPIS_1.c **** *  enough room in the TX FIFO.
1044:.\Generated_Source\PSoC5/SPIS_1.c **** *
1045:.\Generated_Source\PSoC5/SPIS_1.c **** * Reentrant:
1046:.\Generated_Source\PSoC5/SPIS_1.c **** *  No.
1047:.\Generated_Source\PSoC5/SPIS_1.c **** *
1048:.\Generated_Source\PSoC5/SPIS_1.c **** *******************************************************************************/
1049:.\Generated_Source\PSoC5/SPIS_1.c **** void SPIS_1_PutArray(const uint8 buffer[], uint8 byteCount)
1050:.\Generated_Source\PSoC5/SPIS_1.c ****                                                                     
1051:.\Generated_Source\PSoC5/SPIS_1.c **** {
 851              		.loc 1 1051 0
 852              		.cfi_startproc
 853              		@ args = 0, pretend = 0, frame = 16
 854              		@ frame_needed = 1, uses_anonymous_args = 0
 855 0000 80B5     		push	{r7, lr}
 856              	.LCFI50:
 857              		.cfi_def_cfa_offset 8
 858              		.cfi_offset 7, -8
 859              		.cfi_offset 14, -4
 860 0002 84B0     		sub	sp, sp, #16
 861              	.LCFI51:
 862              		.cfi_def_cfa_offset 24
 863 0004 00AF     		add	r7, sp, #0
 864              	.LCFI52:
 865              		.cfi_def_cfa_register 7
 866 0006 7860     		str	r0, [r7, #4]
 867 0008 0B46     		mov	r3, r1
 868 000a FB70     		strb	r3, [r7, #3]
1052:.\Generated_Source\PSoC5/SPIS_1.c ****     uint8 bufIndex;
1053:.\Generated_Source\PSoC5/SPIS_1.c ****     bufIndex = 0u;
 869              		.loc 1 1053 0
 870 000c 4FF00003 		mov	r3, #0
 871 0010 FB73     		strb	r3, [r7, #15]
1054:.\Generated_Source\PSoC5/SPIS_1.c **** 
1055:.\Generated_Source\PSoC5/SPIS_1.c ****     while(byteCount > 0u)
 872              		.loc 1 1055 0
 873 0012 0EE0     		b	.L35
 874              	.L36:
1056:.\Generated_Source\PSoC5/SPIS_1.c ****     {
1057:.\Generated_Source\PSoC5/SPIS_1.c ****         SPIS_1_WriteTxData(buffer[bufIndex]);
 875              		.loc 1 1057 0
 876 0014 FB7B     		ldrb	r3, [r7, #15]	@ zero_extendqisi2
 877 0016 7A68     		ldr	r2, [r7, #4]
 878 0018 D318     		adds	r3, r2, r3
 879 001a 1B78     		ldrb	r3, [r3, #0]	@ zero_extendqisi2
 880 001c 1846     		mov	r0, r3
ARM GAS  C:\Users\Brian\AppData\Local\Temp\ccwQyePA.s 			page 35


 881 001e FFF7FEFF 		bl	SPIS_1_WriteTxData
1058:.\Generated_Source\PSoC5/SPIS_1.c ****         bufIndex++;
 882              		.loc 1 1058 0
 883 0022 FB7B     		ldrb	r3, [r7, #15]
 884 0024 03F10103 		add	r3, r3, #1
 885 0028 FB73     		strb	r3, [r7, #15]
1059:.\Generated_Source\PSoC5/SPIS_1.c ****         byteCount--;
 886              		.loc 1 1059 0
 887 002a FB78     		ldrb	r3, [r7, #3]
 888 002c 03F1FF33 		add	r3, r3, #-1
 889 0030 FB70     		strb	r3, [r7, #3]
 890              	.L35:
1055:.\Generated_Source\PSoC5/SPIS_1.c ****     while(byteCount > 0u)
 891              		.loc 1 1055 0 discriminator 1
 892 0032 FB78     		ldrb	r3, [r7, #3]	@ zero_extendqisi2
 893 0034 002B     		cmp	r3, #0
 894 0036 EDD1     		bne	.L36
1060:.\Generated_Source\PSoC5/SPIS_1.c ****     }
1061:.\Generated_Source\PSoC5/SPIS_1.c **** }
 895              		.loc 1 1061 0
 896 0038 07F11007 		add	r7, r7, #16
 897 003c BD46     		mov	sp, r7
 898 003e 80BD     		pop	{r7, pc}
 899              		.cfi_endproc
 900              	.LFE19:
 901              		.size	SPIS_1_PutArray, .-SPIS_1_PutArray
 902              		.section	.text.SPIS_1_ClearFIFO,"ax",%progbits
 903              		.align	2
 904              		.global	SPIS_1_ClearFIFO
 905              		.thumb
 906              		.thumb_func
 907              		.type	SPIS_1_ClearFIFO, %function
 908              	SPIS_1_ClearFIFO:
 909              	.LFB20:
1062:.\Generated_Source\PSoC5/SPIS_1.c **** 
1063:.\Generated_Source\PSoC5/SPIS_1.c **** 
1064:.\Generated_Source\PSoC5/SPIS_1.c **** /*******************************************************************************
1065:.\Generated_Source\PSoC5/SPIS_1.c **** * Function Name: SPIS_1_ClearFIFO
1066:.\Generated_Source\PSoC5/SPIS_1.c **** ********************************************************************************
1067:.\Generated_Source\PSoC5/SPIS_1.c **** *
1068:.\Generated_Source\PSoC5/SPIS_1.c **** * Summary:
1069:.\Generated_Source\PSoC5/SPIS_1.c **** *  Clear the RX and TX FIFO's of all data for a fresh start.
1070:.\Generated_Source\PSoC5/SPIS_1.c **** *
1071:.\Generated_Source\PSoC5/SPIS_1.c **** * Parameters:
1072:.\Generated_Source\PSoC5/SPIS_1.c **** *  None.
1073:.\Generated_Source\PSoC5/SPIS_1.c **** *
1074:.\Generated_Source\PSoC5/SPIS_1.c **** * Return:
1075:.\Generated_Source\PSoC5/SPIS_1.c **** *  None.
1076:.\Generated_Source\PSoC5/SPIS_1.c **** *
1077:.\Generated_Source\PSoC5/SPIS_1.c **** * Side Effects:
1078:.\Generated_Source\PSoC5/SPIS_1.c **** *  Clear status register of the component.
1079:.\Generated_Source\PSoC5/SPIS_1.c **** *
1080:.\Generated_Source\PSoC5/SPIS_1.c **** *******************************************************************************/
1081:.\Generated_Source\PSoC5/SPIS_1.c **** void SPIS_1_ClearFIFO(void) 
1082:.\Generated_Source\PSoC5/SPIS_1.c **** {
 910              		.loc 1 1082 0
 911              		.cfi_startproc
ARM GAS  C:\Users\Brian\AppData\Local\Temp\ccwQyePA.s 			page 36


 912              		@ args = 0, pretend = 0, frame = 8
 913              		@ frame_needed = 1, uses_anonymous_args = 0
 914 0000 80B5     		push	{r7, lr}
 915              	.LCFI53:
 916              		.cfi_def_cfa_offset 8
 917              		.cfi_offset 7, -8
 918              		.cfi_offset 14, -4
 919 0002 82B0     		sub	sp, sp, #8
 920              	.LCFI54:
 921              		.cfi_def_cfa_offset 16
 922 0004 00AF     		add	r7, sp, #0
 923              	.LCFI55:
 924              		.cfi_def_cfa_register 7
1083:.\Generated_Source\PSoC5/SPIS_1.c ****     uint8 enableInterrupts;
1084:.\Generated_Source\PSoC5/SPIS_1.c **** 
1085:.\Generated_Source\PSoC5/SPIS_1.c ****     while((SPIS_1_RX_STATUS_REG & SPIS_1_STS_RX_FIFO_NOT_EMPTY) != 0u)
 925              		.loc 1 1085 0
 926 0006 04E0     		b	.L38
 927              	.L39:
1086:.\Generated_Source\PSoC5/SPIS_1.c ****     {
1087:.\Generated_Source\PSoC5/SPIS_1.c ****         CY_GET_REG8(SPIS_1_RXDATA_PTR);
 928              		.loc 1 1087 0
 929 0008 46F25943 		movw	r3, #25689
 930 000c C4F20003 		movt	r3, 16384
 931 0010 1B78     		ldrb	r3, [r3, #0]
 932              	.L38:
1085:.\Generated_Source\PSoC5/SPIS_1.c ****     while((SPIS_1_RX_STATUS_REG & SPIS_1_STS_RX_FIFO_NOT_EMPTY) != 0u)
 933              		.loc 1 1085 0 discriminator 1
 934 0012 46F26843 		movw	r3, #25704
 935 0016 C4F20003 		movt	r3, 16384
 936 001a 1B78     		ldrb	r3, [r3, #0]
 937 001c DBB2     		uxtb	r3, r3
 938 001e 03F00803 		and	r3, r3, #8
 939 0022 002B     		cmp	r3, #0
 940 0024 F0D1     		bne	.L39
1088:.\Generated_Source\PSoC5/SPIS_1.c ****     }
1089:.\Generated_Source\PSoC5/SPIS_1.c **** 
1090:.\Generated_Source\PSoC5/SPIS_1.c ****     enableInterrupts = CyEnterCriticalSection();
 941              		.loc 1 1090 0
 942 0026 FFF7FEFF 		bl	CyEnterCriticalSection
 943 002a 0346     		mov	r3, r0
 944 002c FB71     		strb	r3, [r7, #7]
1091:.\Generated_Source\PSoC5/SPIS_1.c **** 
1092:.\Generated_Source\PSoC5/SPIS_1.c ****     #if(SPIS_1_DATA_WIDTH <= 8u)
1093:.\Generated_Source\PSoC5/SPIS_1.c **** 
1094:.\Generated_Source\PSoC5/SPIS_1.c ****         /* Clear TX FIFO */
1095:.\Generated_Source\PSoC5/SPIS_1.c ****         SPIS_1_TX_AUX_CONTROL_DP0_REG |= (uint8)SPIS_1_FIFO_CLR;
 945              		.loc 1 1095 0
 946 002e 46F29943 		movw	r3, #25753
 947 0032 C4F20003 		movt	r3, 16384
 948 0036 46F29942 		movw	r2, #25753
 949 003a C4F20002 		movt	r2, 16384
 950 003e 1278     		ldrb	r2, [r2, #0]
 951 0040 D2B2     		uxtb	r2, r2
 952 0042 42F00302 		orr	r2, r2, #3
 953 0046 D2B2     		uxtb	r2, r2
 954 0048 1A70     		strb	r2, [r3, #0]
ARM GAS  C:\Users\Brian\AppData\Local\Temp\ccwQyePA.s 			page 37


1096:.\Generated_Source\PSoC5/SPIS_1.c ****         SPIS_1_TX_AUX_CONTROL_DP0_REG &= (uint8)~SPIS_1_FIFO_CLR;
 955              		.loc 1 1096 0
 956 004a 46F29943 		movw	r3, #25753
 957 004e C4F20003 		movt	r3, 16384
 958 0052 46F29942 		movw	r2, #25753
 959 0056 C4F20002 		movt	r2, 16384
 960 005a 1278     		ldrb	r2, [r2, #0]
 961 005c D2B2     		uxtb	r2, r2
 962 005e 22F00302 		bic	r2, r2, #3
 963 0062 D2B2     		uxtb	r2, r2
 964 0064 1A70     		strb	r2, [r3, #0]
1097:.\Generated_Source\PSoC5/SPIS_1.c **** 
1098:.\Generated_Source\PSoC5/SPIS_1.c ****     #else
1099:.\Generated_Source\PSoC5/SPIS_1.c **** 
1100:.\Generated_Source\PSoC5/SPIS_1.c ****         /* Clear TX FIFO */
1101:.\Generated_Source\PSoC5/SPIS_1.c ****         SPIS_1_TX_AUX_CONTROL_DP0_REG |= (uint8)SPIS_1_FIFO_CLR;
1102:.\Generated_Source\PSoC5/SPIS_1.c ****         SPIS_1_TX_AUX_CONTROL_DP0_REG &= (uint8)~SPIS_1_FIFO_CLR;
1103:.\Generated_Source\PSoC5/SPIS_1.c ****         SPIS_1_TX_AUX_CONTROL_DP1_REG |= (uint8)SPIS_1_FIFO_CLR;
1104:.\Generated_Source\PSoC5/SPIS_1.c ****         SPIS_1_TX_AUX_CONTROL_DP1_REG &= (uint8)~SPIS_1_FIFO_CLR;
1105:.\Generated_Source\PSoC5/SPIS_1.c **** 
1106:.\Generated_Source\PSoC5/SPIS_1.c ****     #endif /* SPIS_1_DATA_WIDTH <= 8u */
1107:.\Generated_Source\PSoC5/SPIS_1.c **** 
1108:.\Generated_Source\PSoC5/SPIS_1.c ****     CyExitCriticalSection(enableInterrupts);
 965              		.loc 1 1108 0
 966 0066 FB79     		ldrb	r3, [r7, #7]	@ zero_extendqisi2
 967 0068 1846     		mov	r0, r3
 968 006a FFF7FEFF 		bl	CyExitCriticalSection
1109:.\Generated_Source\PSoC5/SPIS_1.c **** }
 969              		.loc 1 1109 0
 970 006e 07F10807 		add	r7, r7, #8
 971 0072 BD46     		mov	sp, r7
 972 0074 80BD     		pop	{r7, pc}
 973              		.cfi_endproc
 974              	.LFE20:
 975              		.size	SPIS_1_ClearFIFO, .-SPIS_1_ClearFIFO
 976 0076 00BF     		.section	.text.SPIS_1_EnableInt,"ax",%progbits
 977              		.align	2
 978              		.global	SPIS_1_EnableInt
 979              		.thumb
 980              		.thumb_func
 981              		.type	SPIS_1_EnableInt, %function
 982              	SPIS_1_EnableInt:
 983              	.LFB21:
1110:.\Generated_Source\PSoC5/SPIS_1.c **** 
1111:.\Generated_Source\PSoC5/SPIS_1.c **** 
1112:.\Generated_Source\PSoC5/SPIS_1.c **** /* Following functions are for version Compatibility, they are obsolete.
1113:.\Generated_Source\PSoC5/SPIS_1.c **** *  Please do not use it in new projects.
1114:.\Generated_Source\PSoC5/SPIS_1.c **** */
1115:.\Generated_Source\PSoC5/SPIS_1.c **** 
1116:.\Generated_Source\PSoC5/SPIS_1.c **** 
1117:.\Generated_Source\PSoC5/SPIS_1.c **** /*******************************************************************************
1118:.\Generated_Source\PSoC5/SPIS_1.c **** * Function Name: SPIS_1_EnableInt
1119:.\Generated_Source\PSoC5/SPIS_1.c **** ********************************************************************************
1120:.\Generated_Source\PSoC5/SPIS_1.c **** *
1121:.\Generated_Source\PSoC5/SPIS_1.c **** * Summary:
1122:.\Generated_Source\PSoC5/SPIS_1.c **** *  Enable internal interrupt generation.
1123:.\Generated_Source\PSoC5/SPIS_1.c **** *
ARM GAS  C:\Users\Brian\AppData\Local\Temp\ccwQyePA.s 			page 38


1124:.\Generated_Source\PSoC5/SPIS_1.c **** * Parameters:
1125:.\Generated_Source\PSoC5/SPIS_1.c **** *  None.
1126:.\Generated_Source\PSoC5/SPIS_1.c **** *
1127:.\Generated_Source\PSoC5/SPIS_1.c **** * Return:
1128:.\Generated_Source\PSoC5/SPIS_1.c **** *  None.
1129:.\Generated_Source\PSoC5/SPIS_1.c **** *
1130:.\Generated_Source\PSoC5/SPIS_1.c **** * Theory:
1131:.\Generated_Source\PSoC5/SPIS_1.c **** *  Enable the internal interrupt output -or- the interrupt component itself.
1132:.\Generated_Source\PSoC5/SPIS_1.c **** *
1133:.\Generated_Source\PSoC5/SPIS_1.c **** *******************************************************************************/
1134:.\Generated_Source\PSoC5/SPIS_1.c **** void SPIS_1_EnableInt(void) 
1135:.\Generated_Source\PSoC5/SPIS_1.c **** {
 984              		.loc 1 1135 0
 985              		.cfi_startproc
 986              		@ args = 0, pretend = 0, frame = 0
 987              		@ frame_needed = 1, uses_anonymous_args = 0
 988              		@ link register save eliminated.
 989 0000 80B4     		push	{r7}
 990              	.LCFI56:
 991              		.cfi_def_cfa_offset 4
 992              		.cfi_offset 7, -4
 993 0002 00AF     		add	r7, sp, #0
 994              	.LCFI57:
 995              		.cfi_def_cfa_register 7
1136:.\Generated_Source\PSoC5/SPIS_1.c ****     #if(SPIS_1_INTERNAL_TX_INT_ENABLED)
1137:.\Generated_Source\PSoC5/SPIS_1.c ****         CyIntEnable(SPIS_1_TX_ISR_NUMBER);
1138:.\Generated_Source\PSoC5/SPIS_1.c ****     #endif /* SPIS_1_INTERNAL_TX_INT_ENABLED */
1139:.\Generated_Source\PSoC5/SPIS_1.c **** 
1140:.\Generated_Source\PSoC5/SPIS_1.c ****     #if(SPIS_1_INTERNAL_RX_INT_ENABLED)
1141:.\Generated_Source\PSoC5/SPIS_1.c ****         CyIntEnable(SPIS_1_RX_ISR_NUMBER);
1142:.\Generated_Source\PSoC5/SPIS_1.c ****     #endif /* SPIS_1_INTERNAL_RX_INT_ENABLED */
1143:.\Generated_Source\PSoC5/SPIS_1.c **** }
 996              		.loc 1 1143 0
 997 0004 BD46     		mov	sp, r7
 998 0006 80BC     		pop	{r7}
 999 0008 7047     		bx	lr
 1000              		.cfi_endproc
 1001              	.LFE21:
 1002              		.size	SPIS_1_EnableInt, .-SPIS_1_EnableInt
 1003 000a 00BF     		.section	.text.SPIS_1_DisableInt,"ax",%progbits
 1004              		.align	2
 1005              		.global	SPIS_1_DisableInt
 1006              		.thumb
 1007              		.thumb_func
 1008              		.type	SPIS_1_DisableInt, %function
 1009              	SPIS_1_DisableInt:
 1010              	.LFB22:
1144:.\Generated_Source\PSoC5/SPIS_1.c **** 
1145:.\Generated_Source\PSoC5/SPIS_1.c **** 
1146:.\Generated_Source\PSoC5/SPIS_1.c **** /*******************************************************************************
1147:.\Generated_Source\PSoC5/SPIS_1.c **** * Function Name: SPIS_1_DisableInt
1148:.\Generated_Source\PSoC5/SPIS_1.c **** ********************************************************************************
1149:.\Generated_Source\PSoC5/SPIS_1.c **** *
1150:.\Generated_Source\PSoC5/SPIS_1.c **** * Summary:
1151:.\Generated_Source\PSoC5/SPIS_1.c **** *  Disable internal interrupt generation.
1152:.\Generated_Source\PSoC5/SPIS_1.c **** *
1153:.\Generated_Source\PSoC5/SPIS_1.c **** * Parameters:
ARM GAS  C:\Users\Brian\AppData\Local\Temp\ccwQyePA.s 			page 39


1154:.\Generated_Source\PSoC5/SPIS_1.c **** *  None.
1155:.\Generated_Source\PSoC5/SPIS_1.c **** *
1156:.\Generated_Source\PSoC5/SPIS_1.c **** * Return:
1157:.\Generated_Source\PSoC5/SPIS_1.c **** *  None.
1158:.\Generated_Source\PSoC5/SPIS_1.c **** *
1159:.\Generated_Source\PSoC5/SPIS_1.c **** * Theory:
1160:.\Generated_Source\PSoC5/SPIS_1.c **** *  Disable the internal interrupt output -or- the interrupt component itself.
1161:.\Generated_Source\PSoC5/SPIS_1.c **** *
1162:.\Generated_Source\PSoC5/SPIS_1.c **** *******************************************************************************/
1163:.\Generated_Source\PSoC5/SPIS_1.c **** void SPIS_1_DisableInt(void) 
1164:.\Generated_Source\PSoC5/SPIS_1.c **** {
 1011              		.loc 1 1164 0
 1012              		.cfi_startproc
 1013              		@ args = 0, pretend = 0, frame = 0
 1014              		@ frame_needed = 1, uses_anonymous_args = 0
 1015              		@ link register save eliminated.
 1016 0000 80B4     		push	{r7}
 1017              	.LCFI58:
 1018              		.cfi_def_cfa_offset 4
 1019              		.cfi_offset 7, -4
 1020 0002 00AF     		add	r7, sp, #0
 1021              	.LCFI59:
 1022              		.cfi_def_cfa_register 7
1165:.\Generated_Source\PSoC5/SPIS_1.c ****     #if(SPIS_1_INTERNAL_TX_INT_ENABLED)
1166:.\Generated_Source\PSoC5/SPIS_1.c ****         CyIntDisable(SPIS_1_TX_ISR_NUMBER);
1167:.\Generated_Source\PSoC5/SPIS_1.c ****     #endif /* SPIS_1_INTERNAL_TX_INT_ENABLED */
1168:.\Generated_Source\PSoC5/SPIS_1.c **** 
1169:.\Generated_Source\PSoC5/SPIS_1.c ****     #if(SPIS_1_INTERNAL_RX_INT_ENABLED)
1170:.\Generated_Source\PSoC5/SPIS_1.c ****         CyIntDisable(SPIS_1_RX_ISR_NUMBER);
1171:.\Generated_Source\PSoC5/SPIS_1.c ****     #endif /* SPIS_1_INTERNAL_RX_INT_ENABLED */
1172:.\Generated_Source\PSoC5/SPIS_1.c **** }
 1023              		.loc 1 1172 0
 1024 0004 BD46     		mov	sp, r7
 1025 0006 80BC     		pop	{r7}
 1026 0008 7047     		bx	lr
 1027              		.cfi_endproc
 1028              	.LFE22:
 1029              		.size	SPIS_1_DisableInt, .-SPIS_1_DisableInt
 1030 000a 00BF     		.section	.text.SPIS_1_SetInterruptMode,"ax",%progbits
 1031              		.align	2
 1032              		.global	SPIS_1_SetInterruptMode
 1033              		.thumb
 1034              		.thumb_func
 1035              		.type	SPIS_1_SetInterruptMode, %function
 1036              	SPIS_1_SetInterruptMode:
 1037              	.LFB23:
1173:.\Generated_Source\PSoC5/SPIS_1.c **** 
1174:.\Generated_Source\PSoC5/SPIS_1.c **** 
1175:.\Generated_Source\PSoC5/SPIS_1.c **** /*******************************************************************************
1176:.\Generated_Source\PSoC5/SPIS_1.c **** * Function Name: SPIS_1_SetInterruptMode
1177:.\Generated_Source\PSoC5/SPIS_1.c **** ********************************************************************************
1178:.\Generated_Source\PSoC5/SPIS_1.c **** *
1179:.\Generated_Source\PSoC5/SPIS_1.c **** * Summary:
1180:.\Generated_Source\PSoC5/SPIS_1.c **** *  Configure which status bits trigger an interrupt event.
1181:.\Generated_Source\PSoC5/SPIS_1.c **** *
1182:.\Generated_Source\PSoC5/SPIS_1.c **** * Parameters:
1183:.\Generated_Source\PSoC5/SPIS_1.c **** *  intSrc: An or'd combination of the desired status bit masks (defined in the
ARM GAS  C:\Users\Brian\AppData\Local\Temp\ccwQyePA.s 			page 40


1184:.\Generated_Source\PSoC5/SPIS_1.c **** *  header file).
1185:.\Generated_Source\PSoC5/SPIS_1.c **** *
1186:.\Generated_Source\PSoC5/SPIS_1.c **** * Return:
1187:.\Generated_Source\PSoC5/SPIS_1.c **** *  None.
1188:.\Generated_Source\PSoC5/SPIS_1.c **** *
1189:.\Generated_Source\PSoC5/SPIS_1.c **** * Theory:
1190:.\Generated_Source\PSoC5/SPIS_1.c **** *  Enables the output of specific status bits to the interrupt controller.
1191:.\Generated_Source\PSoC5/SPIS_1.c **** *
1192:.\Generated_Source\PSoC5/SPIS_1.c **** *******************************************************************************/
1193:.\Generated_Source\PSoC5/SPIS_1.c **** void SPIS_1_SetInterruptMode(uint8 intSrc) 
1194:.\Generated_Source\PSoC5/SPIS_1.c **** {
 1038              		.loc 1 1194 0
 1039              		.cfi_startproc
 1040              		@ args = 0, pretend = 0, frame = 8
 1041              		@ frame_needed = 1, uses_anonymous_args = 0
 1042              		@ link register save eliminated.
 1043 0000 80B4     		push	{r7}
 1044              	.LCFI60:
 1045              		.cfi_def_cfa_offset 4
 1046              		.cfi_offset 7, -4
 1047 0002 83B0     		sub	sp, sp, #12
 1048              	.LCFI61:
 1049              		.cfi_def_cfa_offset 16
 1050 0004 00AF     		add	r7, sp, #0
 1051              	.LCFI62:
 1052              		.cfi_def_cfa_register 7
 1053 0006 0346     		mov	r3, r0
 1054 0008 FB71     		strb	r3, [r7, #7]
1195:.\Generated_Source\PSoC5/SPIS_1.c ****     SPIS_1_TX_STATUS_MASK_REG  = intSrc;
 1055              		.loc 1 1195 0
 1056 000a 46F28953 		movw	r3, #25993
 1057 000e C4F20003 		movt	r3, 16384
 1058 0012 FA79     		ldrb	r2, [r7, #7]
 1059 0014 1A70     		strb	r2, [r3, #0]
1196:.\Generated_Source\PSoC5/SPIS_1.c ****     SPIS_1_RX_STATUS_MASK_REG  = intSrc;
 1060              		.loc 1 1196 0
 1061 0016 46F28843 		movw	r3, #25736
 1062 001a C4F20003 		movt	r3, 16384
 1063 001e FA79     		ldrb	r2, [r7, #7]
 1064 0020 1A70     		strb	r2, [r3, #0]
1197:.\Generated_Source\PSoC5/SPIS_1.c **** }
 1065              		.loc 1 1197 0
 1066 0022 07F10C07 		add	r7, r7, #12
 1067 0026 BD46     		mov	sp, r7
 1068 0028 80BC     		pop	{r7}
 1069 002a 7047     		bx	lr
 1070              		.cfi_endproc
 1071              	.LFE23:
 1072              		.size	SPIS_1_SetInterruptMode, .-SPIS_1_SetInterruptMode
 1073              		.section	.text.SPIS_1_ReadStatus,"ax",%progbits
 1074              		.align	2
 1075              		.global	SPIS_1_ReadStatus
 1076              		.thumb
 1077              		.thumb_func
 1078              		.type	SPIS_1_ReadStatus, %function
 1079              	SPIS_1_ReadStatus:
 1080              	.LFB24:
ARM GAS  C:\Users\Brian\AppData\Local\Temp\ccwQyePA.s 			page 41


1198:.\Generated_Source\PSoC5/SPIS_1.c **** 
1199:.\Generated_Source\PSoC5/SPIS_1.c **** 
1200:.\Generated_Source\PSoC5/SPIS_1.c **** /*******************************************************************************
1201:.\Generated_Source\PSoC5/SPIS_1.c **** * Function Name: SPIS_1_ReadStatus
1202:.\Generated_Source\PSoC5/SPIS_1.c **** ********************************************************************************
1203:.\Generated_Source\PSoC5/SPIS_1.c **** *
1204:.\Generated_Source\PSoC5/SPIS_1.c **** * Summary:
1205:.\Generated_Source\PSoC5/SPIS_1.c **** *  Read the status register for the component.
1206:.\Generated_Source\PSoC5/SPIS_1.c **** *
1207:.\Generated_Source\PSoC5/SPIS_1.c **** * Parameters:
1208:.\Generated_Source\PSoC5/SPIS_1.c **** *  None.
1209:.\Generated_Source\PSoC5/SPIS_1.c **** *
1210:.\Generated_Source\PSoC5/SPIS_1.c **** * Return:
1211:.\Generated_Source\PSoC5/SPIS_1.c **** *  Contents of the status register.
1212:.\Generated_Source\PSoC5/SPIS_1.c **** *
1213:.\Generated_Source\PSoC5/SPIS_1.c **** * Global variables:
1214:.\Generated_Source\PSoC5/SPIS_1.c **** *  SPIS_1_swStatus - used to store in software status register,
1215:.\Generated_Source\PSoC5/SPIS_1.c **** *  modified every function call - resets to zero.
1216:.\Generated_Source\PSoC5/SPIS_1.c **** *
1217:.\Generated_Source\PSoC5/SPIS_1.c **** * Theory:
1218:.\Generated_Source\PSoC5/SPIS_1.c **** *  Allows the user and the API to read the status register for error detection
1219:.\Generated_Source\PSoC5/SPIS_1.c **** *  and flow control.
1220:.\Generated_Source\PSoC5/SPIS_1.c **** *
1221:.\Generated_Source\PSoC5/SPIS_1.c **** * Side Effects:
1222:.\Generated_Source\PSoC5/SPIS_1.c **** *  Clear status register of the component.
1223:.\Generated_Source\PSoC5/SPIS_1.c **** *
1224:.\Generated_Source\PSoC5/SPIS_1.c **** * Reentrant:
1225:.\Generated_Source\PSoC5/SPIS_1.c **** *  No.
1226:.\Generated_Source\PSoC5/SPIS_1.c **** *
1227:.\Generated_Source\PSoC5/SPIS_1.c **** *******************************************************************************/
1228:.\Generated_Source\PSoC5/SPIS_1.c **** uint8 SPIS_1_ReadStatus(void) 
1229:.\Generated_Source\PSoC5/SPIS_1.c **** {
 1081              		.loc 1 1229 0
 1082              		.cfi_startproc
 1083              		@ args = 0, pretend = 0, frame = 8
 1084              		@ frame_needed = 1, uses_anonymous_args = 0
 1085              		@ link register save eliminated.
 1086 0000 80B4     		push	{r7}
 1087              	.LCFI63:
 1088              		.cfi_def_cfa_offset 4
 1089              		.cfi_offset 7, -4
 1090 0002 83B0     		sub	sp, sp, #12
 1091              	.LCFI64:
 1092              		.cfi_def_cfa_offset 16
 1093 0004 00AF     		add	r7, sp, #0
 1094              	.LCFI65:
 1095              		.cfi_def_cfa_register 7
1230:.\Generated_Source\PSoC5/SPIS_1.c ****     uint8 tmpStatus;
1231:.\Generated_Source\PSoC5/SPIS_1.c **** 
1232:.\Generated_Source\PSoC5/SPIS_1.c ****     #if ((SPIS_1_TX_SOFTWARE_BUF_ENABLED) || (SPIS_1_RX_SOFTWARE_BUF_ENABLED))
1233:.\Generated_Source\PSoC5/SPIS_1.c **** 
1234:.\Generated_Source\PSoC5/SPIS_1.c ****         SPIS_1_DisableInt();
1235:.\Generated_Source\PSoC5/SPIS_1.c **** 
1236:.\Generated_Source\PSoC5/SPIS_1.c ****         tmpStatus = SPIS_1_GET_STATUS_TX(SPIS_1_swStatusTx) |
1237:.\Generated_Source\PSoC5/SPIS_1.c ****               (SPIS_1_GET_STATUS_RX(SPIS_1_swStatusRx) & (uint8)~SPIS_1_STS_RX_FIFO_FULL);
1238:.\Generated_Source\PSoC5/SPIS_1.c **** 
1239:.\Generated_Source\PSoC5/SPIS_1.c ****         SPIS_1_swStatusTx = 0u;
ARM GAS  C:\Users\Brian\AppData\Local\Temp\ccwQyePA.s 			page 42


1240:.\Generated_Source\PSoC5/SPIS_1.c ****         SPIS_1_swStatusRx = 0u;
1241:.\Generated_Source\PSoC5/SPIS_1.c **** 
1242:.\Generated_Source\PSoC5/SPIS_1.c ****         /* Enable Interrupts */
1243:.\Generated_Source\PSoC5/SPIS_1.c ****         SPIS_1_EnableInt();
1244:.\Generated_Source\PSoC5/SPIS_1.c **** 
1245:.\Generated_Source\PSoC5/SPIS_1.c ****     #else /* !((SPIS_1_TX_SOFTWARE_BUF_ENABLED) || (SPIS_1_RX_SOFTWARE_BUF_ENABLED)) */
1246:.\Generated_Source\PSoC5/SPIS_1.c **** 
1247:.\Generated_Source\PSoC5/SPIS_1.c ****         tmpStatus = SPIS_1_TX_STATUS_REG | (SPIS_1_RX_STATUS_REG &
 1096              		.loc 1 1247 0
 1097 0006 46F26953 		movw	r3, #25961
 1098 000a C4F20003 		movt	r3, 16384
 1099 000e 1B78     		ldrb	r3, [r3, #0]
 1100 0010 DBB2     		uxtb	r3, r3
 1101 0012 DAB2     		uxtb	r2, r3
 1102 0014 46F26843 		movw	r3, #25704
 1103 0018 C4F20003 		movt	r3, 16384
 1104 001c 1B78     		ldrb	r3, [r3, #0]
 1105 001e DBB2     		uxtb	r3, r3
 1106 0020 DBB2     		uxtb	r3, r3
 1107 0022 23F04003 		bic	r3, r3, #64
 1108 0026 DBB2     		uxtb	r3, r3
 1109 0028 1343     		orrs	r3, r3, r2
 1110 002a DBB2     		uxtb	r3, r3
 1111 002c FB71     		strb	r3, [r7, #7]
1248:.\Generated_Source\PSoC5/SPIS_1.c ****                                                       (uint8)~SPIS_1_STS_RX_FIFO_FULL);
1249:.\Generated_Source\PSoC5/SPIS_1.c **** 
1250:.\Generated_Source\PSoC5/SPIS_1.c ****     #endif /* (SPIS_1_TX_SOFTWARE_BUF_ENABLED) || (SPIS_1_RX_SOFTWARE_BUF_ENABLED) */
1251:.\Generated_Source\PSoC5/SPIS_1.c **** 
1252:.\Generated_Source\PSoC5/SPIS_1.c ****     return(tmpStatus);
 1112              		.loc 1 1252 0
 1113 002e FB79     		ldrb	r3, [r7, #7]	@ zero_extendqisi2
1253:.\Generated_Source\PSoC5/SPIS_1.c **** }
 1114              		.loc 1 1253 0
 1115 0030 1846     		mov	r0, r3
 1116 0032 07F10C07 		add	r7, r7, #12
 1117 0036 BD46     		mov	sp, r7
 1118 0038 80BC     		pop	{r7}
 1119 003a 7047     		bx	lr
 1120              		.cfi_endproc
 1121              	.LFE24:
 1122              		.size	SPIS_1_ReadStatus, .-SPIS_1_ReadStatus
 1123              		.text
 1124              	.Letext0:
 1125              		.file 2 ".\\Generated_Source\\PSoC5\\cytypes.h"