ARM GAS  C:\Users\Brian\AppData\Local\Temp\ccYKepjC.s 			page 1


   1              		.syntax unified
   2              		.cpu cortex-m3
   3              		.fpu softvfp
   4              		.eabi_attribute 20, 1
   5              		.eabi_attribute 21, 1
   6              		.eabi_attribute 23, 3
   7              		.eabi_attribute 24, 1
   8              		.eabi_attribute 25, 1
   9              		.eabi_attribute 26, 1
  10              		.eabi_attribute 30, 6
  11              		.eabi_attribute 34, 1
  12              		.eabi_attribute 18, 4
  13              		.thumb
  14              		.file	"SPIS_1_IntClock.c"
  15              		.text
  16              	.Ltext0:
  17              		.cfi_sections	.debug_frame
  18              		.section	.text.SPIS_1_IntClock_Start,"ax",%progbits
  19              		.align	2
  20              		.global	SPIS_1_IntClock_Start
  21              		.thumb
  22              		.thumb_func
  23              		.type	SPIS_1_IntClock_Start, %function
  24              	SPIS_1_IntClock_Start:
  25              	.LFB0:
  26              		.file 1 ".\\Generated_Source\\PSoC5\\SPIS_1_IntClock.c"
   1:.\Generated_Source\PSoC5/SPIS_1_IntClock.c **** /*******************************************************************************
   2:.\Generated_Source\PSoC5/SPIS_1_IntClock.c **** * File Name: SPIS_1_IntClock.c
   3:.\Generated_Source\PSoC5/SPIS_1_IntClock.c **** * Version 2.20
   4:.\Generated_Source\PSoC5/SPIS_1_IntClock.c **** *
   5:.\Generated_Source\PSoC5/SPIS_1_IntClock.c **** *  Description:
   6:.\Generated_Source\PSoC5/SPIS_1_IntClock.c **** *   This file provides the source code to the API for the clock component.
   7:.\Generated_Source\PSoC5/SPIS_1_IntClock.c **** *
   8:.\Generated_Source\PSoC5/SPIS_1_IntClock.c **** *  Note:
   9:.\Generated_Source\PSoC5/SPIS_1_IntClock.c **** *
  10:.\Generated_Source\PSoC5/SPIS_1_IntClock.c **** ********************************************************************************
  11:.\Generated_Source\PSoC5/SPIS_1_IntClock.c **** * Copyright 2008-2012, Cypress Semiconductor Corporation.  All rights reserved.
  12:.\Generated_Source\PSoC5/SPIS_1_IntClock.c **** * You may use this file only in accordance with the license, terms, conditions, 
  13:.\Generated_Source\PSoC5/SPIS_1_IntClock.c **** * disclaimers, and limitations in the end user license agreement accompanying 
  14:.\Generated_Source\PSoC5/SPIS_1_IntClock.c **** * the software package with which this file was provided.
  15:.\Generated_Source\PSoC5/SPIS_1_IntClock.c **** *******************************************************************************/
  16:.\Generated_Source\PSoC5/SPIS_1_IntClock.c **** 
  17:.\Generated_Source\PSoC5/SPIS_1_IntClock.c **** #include <cydevice_trm.h>
  18:.\Generated_Source\PSoC5/SPIS_1_IntClock.c **** #include "SPIS_1_IntClock.h"
  19:.\Generated_Source\PSoC5/SPIS_1_IntClock.c **** 
  20:.\Generated_Source\PSoC5/SPIS_1_IntClock.c **** /* Clock Distribution registers. */
  21:.\Generated_Source\PSoC5/SPIS_1_IntClock.c **** #define CLK_DIST_LD              (* (reg8 *) CYREG_CLKDIST_LD)
  22:.\Generated_Source\PSoC5/SPIS_1_IntClock.c **** #define CLK_DIST_BCFG2           (* (reg8 *) CYREG_CLKDIST_BCFG2)
  23:.\Generated_Source\PSoC5/SPIS_1_IntClock.c **** #define BCFG2_MASK               (0x80u)
  24:.\Generated_Source\PSoC5/SPIS_1_IntClock.c **** #define CLK_DIST_DMASK           (* (reg8 *) CYREG_CLKDIST_DMASK)
  25:.\Generated_Source\PSoC5/SPIS_1_IntClock.c **** #define CLK_DIST_AMASK           (* (reg8 *) CYREG_CLKDIST_AMASK)
  26:.\Generated_Source\PSoC5/SPIS_1_IntClock.c **** 
  27:.\Generated_Source\PSoC5/SPIS_1_IntClock.c **** #define HAS_CLKDIST_LD_DISABLE   (CY_PSOC3 || CY_PSOC5LP)
  28:.\Generated_Source\PSoC5/SPIS_1_IntClock.c **** 
  29:.\Generated_Source\PSoC5/SPIS_1_IntClock.c **** 
  30:.\Generated_Source\PSoC5/SPIS_1_IntClock.c **** /*******************************************************************************
  31:.\Generated_Source\PSoC5/SPIS_1_IntClock.c **** * Function Name: SPIS_1_IntClock_Start
ARM GAS  C:\Users\Brian\AppData\Local\Temp\ccYKepjC.s 			page 2


  32:.\Generated_Source\PSoC5/SPIS_1_IntClock.c **** ********************************************************************************
  33:.\Generated_Source\PSoC5/SPIS_1_IntClock.c **** *
  34:.\Generated_Source\PSoC5/SPIS_1_IntClock.c **** * Summary:
  35:.\Generated_Source\PSoC5/SPIS_1_IntClock.c **** *  Starts the clock. Note that on startup, clocks may be already running if the
  36:.\Generated_Source\PSoC5/SPIS_1_IntClock.c **** *  "Start on Reset" option is enabled in the DWR.
  37:.\Generated_Source\PSoC5/SPIS_1_IntClock.c **** *
  38:.\Generated_Source\PSoC5/SPIS_1_IntClock.c **** * Parameters:
  39:.\Generated_Source\PSoC5/SPIS_1_IntClock.c **** *  None
  40:.\Generated_Source\PSoC5/SPIS_1_IntClock.c **** *
  41:.\Generated_Source\PSoC5/SPIS_1_IntClock.c **** * Returns:
  42:.\Generated_Source\PSoC5/SPIS_1_IntClock.c **** *  None
  43:.\Generated_Source\PSoC5/SPIS_1_IntClock.c **** *
  44:.\Generated_Source\PSoC5/SPIS_1_IntClock.c **** *******************************************************************************/
  45:.\Generated_Source\PSoC5/SPIS_1_IntClock.c **** void SPIS_1_IntClock_Start(void) 
  46:.\Generated_Source\PSoC5/SPIS_1_IntClock.c **** {
  27              		.loc 1 46 0
  28              		.cfi_startproc
  29              		@ args = 0, pretend = 0, frame = 0
  30              		@ frame_needed = 1, uses_anonymous_args = 0
  31              		@ link register save eliminated.
  32 0000 80B4     		push	{r7}
  33              	.LCFI0:
  34              		.cfi_def_cfa_offset 4
  35              		.cfi_offset 7, -4
  36 0002 00AF     		add	r7, sp, #0
  37              	.LCFI1:
  38              		.cfi_def_cfa_register 7
  47:.\Generated_Source\PSoC5/SPIS_1_IntClock.c ****     /* Set the bit to enable the clock. */
  48:.\Generated_Source\PSoC5/SPIS_1_IntClock.c ****     SPIS_1_IntClock_CLKEN |= SPIS_1_IntClock_CLKEN_MASK;
  39              		.loc 1 48 0
  40 0004 44F2A233 		movw	r3, #17314
  41 0008 C4F20003 		movt	r3, 16384
  42 000c 44F2A232 		movw	r2, #17314
  43 0010 C4F20002 		movt	r2, 16384
  44 0014 1278     		ldrb	r2, [r2, #0]
  45 0016 D2B2     		uxtb	r2, r2
  46 0018 62F07F02 		orn	r2, r2, #127
  47 001c D2B2     		uxtb	r2, r2
  48 001e 1A70     		strb	r2, [r3, #0]
  49:.\Generated_Source\PSoC5/SPIS_1_IntClock.c **** 	SPIS_1_IntClock_CLKSTBY |= SPIS_1_IntClock_CLKSTBY_MASK;
  49              		.loc 1 49 0
  50 0020 44F2B233 		movw	r3, #17330
  51 0024 C4F20003 		movt	r3, 16384
  52 0028 44F2B232 		movw	r2, #17330
  53 002c C4F20002 		movt	r2, 16384
  54 0030 1278     		ldrb	r2, [r2, #0]
  55 0032 D2B2     		uxtb	r2, r2
  56 0034 62F07F02 		orn	r2, r2, #127
  57 0038 D2B2     		uxtb	r2, r2
  58 003a 1A70     		strb	r2, [r3, #0]
  50:.\Generated_Source\PSoC5/SPIS_1_IntClock.c **** }
  59              		.loc 1 50 0
  60 003c BD46     		mov	sp, r7
  61 003e 80BC     		pop	{r7}
  62 0040 7047     		bx	lr
  63              		.cfi_endproc
  64              	.LFE0:
ARM GAS  C:\Users\Brian\AppData\Local\Temp\ccYKepjC.s 			page 3


  65              		.size	SPIS_1_IntClock_Start, .-SPIS_1_IntClock_Start
  66 0042 00BF     		.section	.text.SPIS_1_IntClock_Stop,"ax",%progbits
  67              		.align	2
  68              		.global	SPIS_1_IntClock_Stop
  69              		.thumb
  70              		.thumb_func
  71              		.type	SPIS_1_IntClock_Stop, %function
  72              	SPIS_1_IntClock_Stop:
  73              	.LFB1:
  51:.\Generated_Source\PSoC5/SPIS_1_IntClock.c **** 
  52:.\Generated_Source\PSoC5/SPIS_1_IntClock.c **** 
  53:.\Generated_Source\PSoC5/SPIS_1_IntClock.c **** /*******************************************************************************
  54:.\Generated_Source\PSoC5/SPIS_1_IntClock.c **** * Function Name: SPIS_1_IntClock_Stop
  55:.\Generated_Source\PSoC5/SPIS_1_IntClock.c **** ********************************************************************************
  56:.\Generated_Source\PSoC5/SPIS_1_IntClock.c **** *
  57:.\Generated_Source\PSoC5/SPIS_1_IntClock.c **** * Summary:
  58:.\Generated_Source\PSoC5/SPIS_1_IntClock.c **** *  Stops the clock and returns immediately. This API does not require the
  59:.\Generated_Source\PSoC5/SPIS_1_IntClock.c **** *  source clock to be running but may return before the hardware is actually
  60:.\Generated_Source\PSoC5/SPIS_1_IntClock.c **** *  disabled. If the settings of the clock are changed after calling this
  61:.\Generated_Source\PSoC5/SPIS_1_IntClock.c **** *  function, the clock may glitch when it is started. To avoid the clock
  62:.\Generated_Source\PSoC5/SPIS_1_IntClock.c **** *  glitch, use the StopBlock function.
  63:.\Generated_Source\PSoC5/SPIS_1_IntClock.c **** *
  64:.\Generated_Source\PSoC5/SPIS_1_IntClock.c **** * Parameters:
  65:.\Generated_Source\PSoC5/SPIS_1_IntClock.c **** *  None
  66:.\Generated_Source\PSoC5/SPIS_1_IntClock.c **** *
  67:.\Generated_Source\PSoC5/SPIS_1_IntClock.c **** * Returns:
  68:.\Generated_Source\PSoC5/SPIS_1_IntClock.c **** *  None
  69:.\Generated_Source\PSoC5/SPIS_1_IntClock.c **** *
  70:.\Generated_Source\PSoC5/SPIS_1_IntClock.c **** *******************************************************************************/
  71:.\Generated_Source\PSoC5/SPIS_1_IntClock.c **** void SPIS_1_IntClock_Stop(void) 
  72:.\Generated_Source\PSoC5/SPIS_1_IntClock.c **** {
  74              		.loc 1 72 0
  75              		.cfi_startproc
  76              		@ args = 0, pretend = 0, frame = 0
  77              		@ frame_needed = 1, uses_anonymous_args = 0
  78              		@ link register save eliminated.
  79 0000 80B4     		push	{r7}
  80              	.LCFI2:
  81              		.cfi_def_cfa_offset 4
  82              		.cfi_offset 7, -4
  83 0002 00AF     		add	r7, sp, #0
  84              	.LCFI3:
  85              		.cfi_def_cfa_register 7
  73:.\Generated_Source\PSoC5/SPIS_1_IntClock.c ****     /* Clear the bit to disable the clock. */
  74:.\Generated_Source\PSoC5/SPIS_1_IntClock.c ****     SPIS_1_IntClock_CLKEN &= (uint8)(~SPIS_1_IntClock_CLKEN_MASK);
  86              		.loc 1 74 0
  87 0004 44F2A233 		movw	r3, #17314
  88 0008 C4F20003 		movt	r3, 16384
  89 000c 44F2A232 		movw	r2, #17314
  90 0010 C4F20002 		movt	r2, 16384
  91 0014 1278     		ldrb	r2, [r2, #0]
  92 0016 D2B2     		uxtb	r2, r2
  93 0018 02F07F02 		and	r2, r2, #127
  94 001c D2B2     		uxtb	r2, r2
  95 001e 1A70     		strb	r2, [r3, #0]
  75:.\Generated_Source\PSoC5/SPIS_1_IntClock.c **** 	SPIS_1_IntClock_CLKSTBY &= (uint8)(~SPIS_1_IntClock_CLKSTBY_MASK);
  96              		.loc 1 75 0
ARM GAS  C:\Users\Brian\AppData\Local\Temp\ccYKepjC.s 			page 4


  97 0020 44F2B233 		movw	r3, #17330
  98 0024 C4F20003 		movt	r3, 16384
  99 0028 44F2B232 		movw	r2, #17330
 100 002c C4F20002 		movt	r2, 16384
 101 0030 1278     		ldrb	r2, [r2, #0]
 102 0032 D2B2     		uxtb	r2, r2
 103 0034 02F07F02 		and	r2, r2, #127
 104 0038 D2B2     		uxtb	r2, r2
 105 003a 1A70     		strb	r2, [r3, #0]
  76:.\Generated_Source\PSoC5/SPIS_1_IntClock.c **** }
 106              		.loc 1 76 0
 107 003c BD46     		mov	sp, r7
 108 003e 80BC     		pop	{r7}
 109 0040 7047     		bx	lr
 110              		.cfi_endproc
 111              	.LFE1:
 112              		.size	SPIS_1_IntClock_Stop, .-SPIS_1_IntClock_Stop
 113 0042 00BF     		.section	.text.SPIS_1_IntClock_StopBlock,"ax",%progbits
 114              		.align	2
 115              		.global	SPIS_1_IntClock_StopBlock
 116              		.thumb
 117              		.thumb_func
 118              		.type	SPIS_1_IntClock_StopBlock, %function
 119              	SPIS_1_IntClock_StopBlock:
 120              	.LFB2:
  77:.\Generated_Source\PSoC5/SPIS_1_IntClock.c **** 
  78:.\Generated_Source\PSoC5/SPIS_1_IntClock.c **** 
  79:.\Generated_Source\PSoC5/SPIS_1_IntClock.c **** #if(CY_PSOC3 || CY_PSOC5LP)
  80:.\Generated_Source\PSoC5/SPIS_1_IntClock.c **** 
  81:.\Generated_Source\PSoC5/SPIS_1_IntClock.c **** 
  82:.\Generated_Source\PSoC5/SPIS_1_IntClock.c **** /*******************************************************************************
  83:.\Generated_Source\PSoC5/SPIS_1_IntClock.c **** * Function Name: SPIS_1_IntClock_StopBlock
  84:.\Generated_Source\PSoC5/SPIS_1_IntClock.c **** ********************************************************************************
  85:.\Generated_Source\PSoC5/SPIS_1_IntClock.c **** *
  86:.\Generated_Source\PSoC5/SPIS_1_IntClock.c **** * Summary:
  87:.\Generated_Source\PSoC5/SPIS_1_IntClock.c **** *  Stops the clock and waits for the hardware to actually be disabled before
  88:.\Generated_Source\PSoC5/SPIS_1_IntClock.c **** *  returning. This ensures that the clock is never truncated (high part of the
  89:.\Generated_Source\PSoC5/SPIS_1_IntClock.c **** *  cycle will terminate before the clock is disabled and the API returns).
  90:.\Generated_Source\PSoC5/SPIS_1_IntClock.c **** *  Note that the source clock must be running or this API will never return as
  91:.\Generated_Source\PSoC5/SPIS_1_IntClock.c **** *  a stopped clock cannot be disabled.
  92:.\Generated_Source\PSoC5/SPIS_1_IntClock.c **** *
  93:.\Generated_Source\PSoC5/SPIS_1_IntClock.c **** * Parameters:
  94:.\Generated_Source\PSoC5/SPIS_1_IntClock.c **** *  None
  95:.\Generated_Source\PSoC5/SPIS_1_IntClock.c **** *
  96:.\Generated_Source\PSoC5/SPIS_1_IntClock.c **** * Returns:
  97:.\Generated_Source\PSoC5/SPIS_1_IntClock.c **** *  None
  98:.\Generated_Source\PSoC5/SPIS_1_IntClock.c **** *
  99:.\Generated_Source\PSoC5/SPIS_1_IntClock.c **** *******************************************************************************/
 100:.\Generated_Source\PSoC5/SPIS_1_IntClock.c **** void SPIS_1_IntClock_StopBlock(void) 
 101:.\Generated_Source\PSoC5/SPIS_1_IntClock.c **** {
 121              		.loc 1 101 0
 122              		.cfi_startproc
 123              		@ args = 0, pretend = 0, frame = 8
 124              		@ frame_needed = 1, uses_anonymous_args = 0
 125              		@ link register save eliminated.
 126 0000 80B4     		push	{r7}
 127              	.LCFI4:
ARM GAS  C:\Users\Brian\AppData\Local\Temp\ccYKepjC.s 			page 5


 128              		.cfi_def_cfa_offset 4
 129              		.cfi_offset 7, -4
 130 0002 83B0     		sub	sp, sp, #12
 131              	.LCFI5:
 132              		.cfi_def_cfa_offset 16
 133 0004 00AF     		add	r7, sp, #0
 134              	.LCFI6:
 135              		.cfi_def_cfa_register 7
 102:.\Generated_Source\PSoC5/SPIS_1_IntClock.c ****     if ((SPIS_1_IntClock_CLKEN & SPIS_1_IntClock_CLKEN_MASK) != 0u)
 136              		.loc 1 102 0
 137 0006 44F2A233 		movw	r3, #17314
 138 000a C4F20003 		movt	r3, 16384
 139 000e 1B78     		ldrb	r3, [r3, #0]
 140 0010 DBB2     		uxtb	r3, r3
 141 0012 DBB2     		uxtb	r3, r3
 142 0014 5BB2     		sxtb	r3, r3
 143 0016 002B     		cmp	r3, #0
 144 0018 69DA     		bge	.L3
 145              	.LBB2:
 103:.\Generated_Source\PSoC5/SPIS_1_IntClock.c ****     {
 104:.\Generated_Source\PSoC5/SPIS_1_IntClock.c **** #if HAS_CLKDIST_LD_DISABLE
 105:.\Generated_Source\PSoC5/SPIS_1_IntClock.c ****         uint16 oldDivider;
 106:.\Generated_Source\PSoC5/SPIS_1_IntClock.c **** 
 107:.\Generated_Source\PSoC5/SPIS_1_IntClock.c ****         CLK_DIST_LD = 0u;
 146              		.loc 1 107 0
 147 001a 44F20103 		movw	r3, #16385
 148 001e C4F20003 		movt	r3, 16384
 149 0022 4FF00002 		mov	r2, #0
 150 0026 1A70     		strb	r2, [r3, #0]
 108:.\Generated_Source\PSoC5/SPIS_1_IntClock.c **** 
 109:.\Generated_Source\PSoC5/SPIS_1_IntClock.c ****         /* Clear all the mask bits except ours. */
 110:.\Generated_Source\PSoC5/SPIS_1_IntClock.c **** #if defined(SPIS_1_IntClock__CFG3)
 111:.\Generated_Source\PSoC5/SPIS_1_IntClock.c ****         CLK_DIST_AMASK = SPIS_1_IntClock_CLKEN_MASK;
 112:.\Generated_Source\PSoC5/SPIS_1_IntClock.c ****         CLK_DIST_DMASK = 0x00u;
 113:.\Generated_Source\PSoC5/SPIS_1_IntClock.c **** #else
 114:.\Generated_Source\PSoC5/SPIS_1_IntClock.c ****         CLK_DIST_DMASK = SPIS_1_IntClock_CLKEN_MASK;
 151              		.loc 1 114 0
 152 0028 44F21003 		movw	r3, #16400
 153 002c C4F20003 		movt	r3, 16384
 154 0030 4FF08002 		mov	r2, #128
 155 0034 1A70     		strb	r2, [r3, #0]
 115:.\Generated_Source\PSoC5/SPIS_1_IntClock.c ****         CLK_DIST_AMASK = 0x00u;
 156              		.loc 1 115 0
 157 0036 44F21403 		movw	r3, #16404
 158 003a C4F20003 		movt	r3, 16384
 159 003e 4FF00002 		mov	r2, #0
 160 0042 1A70     		strb	r2, [r3, #0]
 116:.\Generated_Source\PSoC5/SPIS_1_IntClock.c **** #endif /* SPIS_1_IntClock__CFG3 */
 117:.\Generated_Source\PSoC5/SPIS_1_IntClock.c **** 
 118:.\Generated_Source\PSoC5/SPIS_1_IntClock.c ****         /* Clear mask of bus clock. */
 119:.\Generated_Source\PSoC5/SPIS_1_IntClock.c ****         CLK_DIST_BCFG2 &= (uint8)(~BCFG2_MASK);
 161              		.loc 1 119 0
 162 0044 44F20803 		movw	r3, #16392
 163 0048 C4F20003 		movt	r3, 16384
 164 004c 44F20802 		movw	r2, #16392
 165 0050 C4F20002 		movt	r2, 16384
 166 0054 1278     		ldrb	r2, [r2, #0]
ARM GAS  C:\Users\Brian\AppData\Local\Temp\ccYKepjC.s 			page 6


 167 0056 D2B2     		uxtb	r2, r2
 168 0058 02F07F02 		and	r2, r2, #127
 169 005c D2B2     		uxtb	r2, r2
 170 005e 1A70     		strb	r2, [r3, #0]
 120:.\Generated_Source\PSoC5/SPIS_1_IntClock.c **** 
 121:.\Generated_Source\PSoC5/SPIS_1_IntClock.c ****         oldDivider = CY_GET_REG16(SPIS_1_IntClock_DIV_PTR);
 171              		.loc 1 121 0
 172 0060 44F29C03 		movw	r3, #16540
 173 0064 C4F20003 		movt	r3, 16384
 174 0068 1B88     		ldrh	r3, [r3, #0]	@ movhi
 175 006a FB80     		strh	r3, [r7, #6]	@ movhi
 122:.\Generated_Source\PSoC5/SPIS_1_IntClock.c ****         CY_SET_REG16(CYREG_CLKDIST_WRK0, oldDivider);
 176              		.loc 1 122 0
 177 006c 44F20203 		movw	r3, #16386
 178 0070 C4F20003 		movt	r3, 16384
 179 0074 FA88     		ldrh	r2, [r7, #6]	@ movhi
 180 0076 1A80     		strh	r2, [r3, #0]	@ movhi
 123:.\Generated_Source\PSoC5/SPIS_1_IntClock.c ****         CLK_DIST_LD = CYCLK_LD_DISABLE | CYCLK_LD_SYNC_EN | CYCLK_LD_LOAD;
 181              		.loc 1 123 0
 182 0078 44F20103 		movw	r3, #16385
 183 007c C4F20003 		movt	r3, 16384
 184 0080 4FF00702 		mov	r2, #7
 185 0084 1A70     		strb	r2, [r3, #0]
 124:.\Generated_Source\PSoC5/SPIS_1_IntClock.c **** 
 125:.\Generated_Source\PSoC5/SPIS_1_IntClock.c ****         /* Wait for clock to be disabled */
 126:.\Generated_Source\PSoC5/SPIS_1_IntClock.c ****         while ((CLK_DIST_LD & CYCLK_LD_LOAD) != 0u) { }
 186              		.loc 1 126 0
 187 0086 00BF     		nop
 188              	.L5:
 189              		.loc 1 126 0 is_stmt 0 discriminator 1
 190 0088 44F20103 		movw	r3, #16385
 191 008c C4F20003 		movt	r3, 16384
 192 0090 1B78     		ldrb	r3, [r3, #0]
 193 0092 DBB2     		uxtb	r3, r3
 194 0094 03F00103 		and	r3, r3, #1
 195 0098 002B     		cmp	r3, #0
 196 009a F5D1     		bne	.L5
 127:.\Generated_Source\PSoC5/SPIS_1_IntClock.c **** #endif /* HAS_CLKDIST_LD_DISABLE */
 128:.\Generated_Source\PSoC5/SPIS_1_IntClock.c **** 
 129:.\Generated_Source\PSoC5/SPIS_1_IntClock.c ****         /* Clear the bit to disable the clock. */
 130:.\Generated_Source\PSoC5/SPIS_1_IntClock.c ****         SPIS_1_IntClock_CLKEN &= (uint8)(~SPIS_1_IntClock_CLKEN_MASK);
 197              		.loc 1 130 0 is_stmt 1
 198 009c 44F2A233 		movw	r3, #17314
 199 00a0 C4F20003 		movt	r3, 16384
 200 00a4 44F2A232 		movw	r2, #17314
 201 00a8 C4F20002 		movt	r2, 16384
 202 00ac 1278     		ldrb	r2, [r2, #0]
 203 00ae D2B2     		uxtb	r2, r2
 204 00b0 02F07F02 		and	r2, r2, #127
 205 00b4 D2B2     		uxtb	r2, r2
 206 00b6 1A70     		strb	r2, [r3, #0]
 131:.\Generated_Source\PSoC5/SPIS_1_IntClock.c ****         SPIS_1_IntClock_CLKSTBY &= (uint8)(~SPIS_1_IntClock_CLKSTBY_MASK);
 207              		.loc 1 131 0
 208 00b8 44F2B233 		movw	r3, #17330
 209 00bc C4F20003 		movt	r3, 16384
 210 00c0 44F2B232 		movw	r2, #17330
 211 00c4 C4F20002 		movt	r2, 16384
ARM GAS  C:\Users\Brian\AppData\Local\Temp\ccYKepjC.s 			page 7


 212 00c8 1278     		ldrb	r2, [r2, #0]
 213 00ca D2B2     		uxtb	r2, r2
 214 00cc 02F07F02 		and	r2, r2, #127
 215 00d0 D2B2     		uxtb	r2, r2
 216 00d2 1A70     		strb	r2, [r3, #0]
 132:.\Generated_Source\PSoC5/SPIS_1_IntClock.c **** 
 133:.\Generated_Source\PSoC5/SPIS_1_IntClock.c **** #if HAS_CLKDIST_LD_DISABLE
 134:.\Generated_Source\PSoC5/SPIS_1_IntClock.c ****         /* Clear the disable bit */
 135:.\Generated_Source\PSoC5/SPIS_1_IntClock.c ****         CLK_DIST_LD = 0x00u;
 217              		.loc 1 135 0
 218 00d4 44F20103 		movw	r3, #16385
 219 00d8 C4F20003 		movt	r3, 16384
 220 00dc 4FF00002 		mov	r2, #0
 221 00e0 1A70     		strb	r2, [r3, #0]
 136:.\Generated_Source\PSoC5/SPIS_1_IntClock.c ****         CY_SET_REG16(SPIS_1_IntClock_DIV_PTR, oldDivider);
 222              		.loc 1 136 0
 223 00e2 44F29C03 		movw	r3, #16540
 224 00e6 C4F20003 		movt	r3, 16384
 225 00ea FA88     		ldrh	r2, [r7, #6]	@ movhi
 226 00ec 1A80     		strh	r2, [r3, #0]	@ movhi
 227              	.L3:
 228              	.LBE2:
 137:.\Generated_Source\PSoC5/SPIS_1_IntClock.c **** #endif /* HAS_CLKDIST_LD_DISABLE */
 138:.\Generated_Source\PSoC5/SPIS_1_IntClock.c ****     }
 139:.\Generated_Source\PSoC5/SPIS_1_IntClock.c **** }
 229              		.loc 1 139 0
 230 00ee 07F10C07 		add	r7, r7, #12
 231 00f2 BD46     		mov	sp, r7
 232 00f4 80BC     		pop	{r7}
 233 00f6 7047     		bx	lr
 234              		.cfi_endproc
 235              	.LFE2:
 236              		.size	SPIS_1_IntClock_StopBlock, .-SPIS_1_IntClock_StopBlock
 237              		.section	.text.SPIS_1_IntClock_StandbyPower,"ax",%progbits
 238              		.align	2
 239              		.global	SPIS_1_IntClock_StandbyPower
 240              		.thumb
 241              		.thumb_func
 242              		.type	SPIS_1_IntClock_StandbyPower, %function
 243              	SPIS_1_IntClock_StandbyPower:
 244              	.LFB3:
 140:.\Generated_Source\PSoC5/SPIS_1_IntClock.c **** #endif /* (CY_PSOC3 || CY_PSOC5LP) */
 141:.\Generated_Source\PSoC5/SPIS_1_IntClock.c **** 
 142:.\Generated_Source\PSoC5/SPIS_1_IntClock.c **** 
 143:.\Generated_Source\PSoC5/SPIS_1_IntClock.c **** /*******************************************************************************
 144:.\Generated_Source\PSoC5/SPIS_1_IntClock.c **** * Function Name: SPIS_1_IntClock_StandbyPower
 145:.\Generated_Source\PSoC5/SPIS_1_IntClock.c **** ********************************************************************************
 146:.\Generated_Source\PSoC5/SPIS_1_IntClock.c **** *
 147:.\Generated_Source\PSoC5/SPIS_1_IntClock.c **** * Summary:
 148:.\Generated_Source\PSoC5/SPIS_1_IntClock.c **** *  Sets whether the clock is active in standby mode.
 149:.\Generated_Source\PSoC5/SPIS_1_IntClock.c **** *
 150:.\Generated_Source\PSoC5/SPIS_1_IntClock.c **** * Parameters:
 151:.\Generated_Source\PSoC5/SPIS_1_IntClock.c **** *  state:  0 to disable clock during standby, nonzero to enable.
 152:.\Generated_Source\PSoC5/SPIS_1_IntClock.c **** *
 153:.\Generated_Source\PSoC5/SPIS_1_IntClock.c **** * Returns:
 154:.\Generated_Source\PSoC5/SPIS_1_IntClock.c **** *  None
 155:.\Generated_Source\PSoC5/SPIS_1_IntClock.c **** *
ARM GAS  C:\Users\Brian\AppData\Local\Temp\ccYKepjC.s 			page 8


 156:.\Generated_Source\PSoC5/SPIS_1_IntClock.c **** *******************************************************************************/
 157:.\Generated_Source\PSoC5/SPIS_1_IntClock.c **** void SPIS_1_IntClock_StandbyPower(uint8 state) 
 158:.\Generated_Source\PSoC5/SPIS_1_IntClock.c **** {
 245              		.loc 1 158 0
 246              		.cfi_startproc
 247              		@ args = 0, pretend = 0, frame = 8
 248              		@ frame_needed = 1, uses_anonymous_args = 0
 249              		@ link register save eliminated.
 250 0000 80B4     		push	{r7}
 251              	.LCFI7:
 252              		.cfi_def_cfa_offset 4
 253              		.cfi_offset 7, -4
 254 0002 83B0     		sub	sp, sp, #12
 255              	.LCFI8:
 256              		.cfi_def_cfa_offset 16
 257 0004 00AF     		add	r7, sp, #0
 258              	.LCFI9:
 259              		.cfi_def_cfa_register 7
 260 0006 0346     		mov	r3, r0
 261 0008 FB71     		strb	r3, [r7, #7]
 159:.\Generated_Source\PSoC5/SPIS_1_IntClock.c ****     if(state == 0u)
 262              		.loc 1 159 0
 263 000a FB79     		ldrb	r3, [r7, #7]	@ zero_extendqisi2
 264 000c 002B     		cmp	r3, #0
 265 000e 0ED1     		bne	.L7
 160:.\Generated_Source\PSoC5/SPIS_1_IntClock.c ****     {
 161:.\Generated_Source\PSoC5/SPIS_1_IntClock.c ****         SPIS_1_IntClock_CLKSTBY &= (uint8)(~SPIS_1_IntClock_CLKSTBY_MASK);
 266              		.loc 1 161 0
 267 0010 44F2B233 		movw	r3, #17330
 268 0014 C4F20003 		movt	r3, 16384
 269 0018 44F2B232 		movw	r2, #17330
 270 001c C4F20002 		movt	r2, 16384
 271 0020 1278     		ldrb	r2, [r2, #0]
 272 0022 D2B2     		uxtb	r2, r2
 273 0024 02F07F02 		and	r2, r2, #127
 274 0028 D2B2     		uxtb	r2, r2
 275 002a 1A70     		strb	r2, [r3, #0]
 276 002c 0DE0     		b	.L6
 277              	.L7:
 162:.\Generated_Source\PSoC5/SPIS_1_IntClock.c ****     }
 163:.\Generated_Source\PSoC5/SPIS_1_IntClock.c ****     else
 164:.\Generated_Source\PSoC5/SPIS_1_IntClock.c ****     {
 165:.\Generated_Source\PSoC5/SPIS_1_IntClock.c ****         SPIS_1_IntClock_CLKSTBY |= SPIS_1_IntClock_CLKSTBY_MASK;
 278              		.loc 1 165 0
 279 002e 44F2B233 		movw	r3, #17330
 280 0032 C4F20003 		movt	r3, 16384
 281 0036 44F2B232 		movw	r2, #17330
 282 003a C4F20002 		movt	r2, 16384
 283 003e 1278     		ldrb	r2, [r2, #0]
 284 0040 D2B2     		uxtb	r2, r2
 285 0042 62F07F02 		orn	r2, r2, #127
 286 0046 D2B2     		uxtb	r2, r2
 287 0048 1A70     		strb	r2, [r3, #0]
 288              	.L6:
 166:.\Generated_Source\PSoC5/SPIS_1_IntClock.c ****     }
 167:.\Generated_Source\PSoC5/SPIS_1_IntClock.c **** }
 289              		.loc 1 167 0
ARM GAS  C:\Users\Brian\AppData\Local\Temp\ccYKepjC.s 			page 9


 290 004a 07F10C07 		add	r7, r7, #12
 291 004e BD46     		mov	sp, r7
 292 0050 80BC     		pop	{r7}
 293 0052 7047     		bx	lr
 294              		.cfi_endproc
 295              	.LFE3:
 296              		.size	SPIS_1_IntClock_StandbyPower, .-SPIS_1_IntClock_StandbyPower
 297              		.section	.text.SPIS_1_IntClock_SetDividerRegister,"ax",%progbits
 298              		.align	2
 299              		.global	SPIS_1_IntClock_SetDividerRegister
 300              		.thumb
 301              		.thumb_func
 302              		.type	SPIS_1_IntClock_SetDividerRegister, %function
 303              	SPIS_1_IntClock_SetDividerRegister:
 304              	.LFB4:
 168:.\Generated_Source\PSoC5/SPIS_1_IntClock.c **** 
 169:.\Generated_Source\PSoC5/SPIS_1_IntClock.c **** 
 170:.\Generated_Source\PSoC5/SPIS_1_IntClock.c **** /*******************************************************************************
 171:.\Generated_Source\PSoC5/SPIS_1_IntClock.c **** * Function Name: SPIS_1_IntClock_SetDividerRegister
 172:.\Generated_Source\PSoC5/SPIS_1_IntClock.c **** ********************************************************************************
 173:.\Generated_Source\PSoC5/SPIS_1_IntClock.c **** *
 174:.\Generated_Source\PSoC5/SPIS_1_IntClock.c **** * Summary:
 175:.\Generated_Source\PSoC5/SPIS_1_IntClock.c **** *  Modifies the clock divider and, thus, the frequency. When the clock divider
 176:.\Generated_Source\PSoC5/SPIS_1_IntClock.c **** *  register is set to zero or changed from zero, the clock will be temporarily
 177:.\Generated_Source\PSoC5/SPIS_1_IntClock.c **** *  disabled in order to change the SSS mode bit. If the clock is enabled when
 178:.\Generated_Source\PSoC5/SPIS_1_IntClock.c **** *  SetDividerRegister is called, then the source clock must be running.
 179:.\Generated_Source\PSoC5/SPIS_1_IntClock.c **** *
 180:.\Generated_Source\PSoC5/SPIS_1_IntClock.c **** * Parameters:
 181:.\Generated_Source\PSoC5/SPIS_1_IntClock.c **** *  clkDivider:  Divider register value (0-65,535). This value is NOT the
 182:.\Generated_Source\PSoC5/SPIS_1_IntClock.c **** *    divider; the clock hardware divides by clkDivider plus one. For example,
 183:.\Generated_Source\PSoC5/SPIS_1_IntClock.c **** *    to divide the clock by 2, this parameter should be set to 1.
 184:.\Generated_Source\PSoC5/SPIS_1_IntClock.c **** *  restart:  If nonzero, restarts the clock divider: the current clock cycle
 185:.\Generated_Source\PSoC5/SPIS_1_IntClock.c **** *   will be truncated and the new divide value will take effect immediately. If
 186:.\Generated_Source\PSoC5/SPIS_1_IntClock.c **** *   zero, the new divide value will take effect at the end of the current clock
 187:.\Generated_Source\PSoC5/SPIS_1_IntClock.c **** *   cycle.
 188:.\Generated_Source\PSoC5/SPIS_1_IntClock.c **** *
 189:.\Generated_Source\PSoC5/SPIS_1_IntClock.c **** * Returns:
 190:.\Generated_Source\PSoC5/SPIS_1_IntClock.c **** *  None
 191:.\Generated_Source\PSoC5/SPIS_1_IntClock.c **** *
 192:.\Generated_Source\PSoC5/SPIS_1_IntClock.c **** *******************************************************************************/
 193:.\Generated_Source\PSoC5/SPIS_1_IntClock.c **** void SPIS_1_IntClock_SetDividerRegister(uint16 clkDivider, uint8 restart)
 194:.\Generated_Source\PSoC5/SPIS_1_IntClock.c ****                                 
 195:.\Generated_Source\PSoC5/SPIS_1_IntClock.c **** {
 305              		.loc 1 195 0
 306              		.cfi_startproc
 307              		@ args = 0, pretend = 0, frame = 16
 308              		@ frame_needed = 1, uses_anonymous_args = 0
 309 0000 80B5     		push	{r7, lr}
 310              	.LCFI10:
 311              		.cfi_def_cfa_offset 8
 312              		.cfi_offset 7, -8
 313              		.cfi_offset 14, -4
 314 0002 84B0     		sub	sp, sp, #16
 315              	.LCFI11:
 316              		.cfi_def_cfa_offset 24
 317 0004 00AF     		add	r7, sp, #0
 318              	.LCFI12:
ARM GAS  C:\Users\Brian\AppData\Local\Temp\ccYKepjC.s 			page 10


 319              		.cfi_def_cfa_register 7
 320 0006 0246     		mov	r2, r0
 321 0008 0B46     		mov	r3, r1
 322 000a FA80     		strh	r2, [r7, #6]	@ movhi
 323 000c 7B71     		strb	r3, [r7, #5]
 196:.\Generated_Source\PSoC5/SPIS_1_IntClock.c ****     uint8 enabled;
 197:.\Generated_Source\PSoC5/SPIS_1_IntClock.c **** 
 198:.\Generated_Source\PSoC5/SPIS_1_IntClock.c ****     uint8 currSrc = SPIS_1_IntClock_GetSourceRegister();
 324              		.loc 1 198 0
 325 000e FFF7FEFF 		bl	SPIS_1_IntClock_GetSourceRegister
 326 0012 0346     		mov	r3, r0
 327 0014 FB73     		strb	r3, [r7, #15]
 199:.\Generated_Source\PSoC5/SPIS_1_IntClock.c ****     uint16 oldDivider = SPIS_1_IntClock_GetDividerRegister();
 328              		.loc 1 199 0
 329 0016 FFF7FEFF 		bl	SPIS_1_IntClock_GetDividerRegister
 330 001a 0346     		mov	r3, r0
 331 001c BB81     		strh	r3, [r7, #12]	@ movhi
 200:.\Generated_Source\PSoC5/SPIS_1_IntClock.c **** 
 201:.\Generated_Source\PSoC5/SPIS_1_IntClock.c ****     if (clkDivider != oldDivider)
 332              		.loc 1 201 0
 333 001e FA88     		ldrh	r2, [r7, #6]
 334 0020 BB89     		ldrh	r3, [r7, #12]
 335 0022 9A42     		cmp	r2, r3
 336 0024 00F0DC80 		beq	.L9
 202:.\Generated_Source\PSoC5/SPIS_1_IntClock.c ****     {
 203:.\Generated_Source\PSoC5/SPIS_1_IntClock.c ****         enabled = SPIS_1_IntClock_CLKEN & SPIS_1_IntClock_CLKEN_MASK;
 337              		.loc 1 203 0
 338 0028 44F2A233 		movw	r3, #17314
 339 002c C4F20003 		movt	r3, 16384
 340 0030 1B78     		ldrb	r3, [r3, #0]
 341 0032 DBB2     		uxtb	r3, r3
 342 0034 23F07F03 		bic	r3, r3, #127
 343 0038 FB72     		strb	r3, [r7, #11]
 204:.\Generated_Source\PSoC5/SPIS_1_IntClock.c **** 
 205:.\Generated_Source\PSoC5/SPIS_1_IntClock.c ****         if ((currSrc == (uint8)CYCLK_SRC_SEL_CLK_SYNC_D) && ((oldDivider == 0u) || (clkDivider == 0
 344              		.loc 1 205 0
 345 003a FB7B     		ldrb	r3, [r7, #15]	@ zero_extendqisi2
 346 003c 002B     		cmp	r3, #0
 347 003e 32D1     		bne	.L11
 348              		.loc 1 205 0 is_stmt 0 discriminator 1
 349 0040 BB89     		ldrh	r3, [r7, #12]
 350 0042 002B     		cmp	r3, #0
 351 0044 02D0     		beq	.L12
 352 0046 FB88     		ldrh	r3, [r7, #6]
 353 0048 002B     		cmp	r3, #0
 354 004a 2CD1     		bne	.L11
 355              	.L12:
 206:.\Generated_Source\PSoC5/SPIS_1_IntClock.c ****         {
 207:.\Generated_Source\PSoC5/SPIS_1_IntClock.c ****             /* Moving to/from SSS requires correct ordering to prevent halting the clock    */
 208:.\Generated_Source\PSoC5/SPIS_1_IntClock.c ****             if (oldDivider == 0u)
 356              		.loc 1 208 0 is_stmt 1
 357 004c BB89     		ldrh	r3, [r7, #12]
 358 004e 002B     		cmp	r3, #0
 359 0050 14D1     		bne	.L13
 209:.\Generated_Source\PSoC5/SPIS_1_IntClock.c ****             {
 210:.\Generated_Source\PSoC5/SPIS_1_IntClock.c ****                 /* Moving away from SSS, set the divider first so when SSS is cleared we    */
 211:.\Generated_Source\PSoC5/SPIS_1_IntClock.c ****                 /* don't halt the clock.  Using the shadow load isn't required as the       */
ARM GAS  C:\Users\Brian\AppData\Local\Temp\ccYKepjC.s 			page 11


 212:.\Generated_Source\PSoC5/SPIS_1_IntClock.c ****                 /* divider is ignored while SSS is set.                                     */
 213:.\Generated_Source\PSoC5/SPIS_1_IntClock.c ****                 CY_SET_REG16(SPIS_1_IntClock_DIV_PTR, clkDivider);
 360              		.loc 1 213 0
 361 0052 44F29C03 		movw	r3, #16540
 362 0056 C4F20003 		movt	r3, 16384
 363 005a FA88     		ldrh	r2, [r7, #6]	@ movhi
 364 005c 1A80     		strh	r2, [r3, #0]	@ movhi
 214:.\Generated_Source\PSoC5/SPIS_1_IntClock.c ****                 SPIS_1_IntClock_MOD_SRC &= (uint8)(~CYCLK_SSS);
 365              		.loc 1 214 0
 366 005e 44F29E03 		movw	r3, #16542
 367 0062 C4F20003 		movt	r3, 16384
 368 0066 44F29E02 		movw	r2, #16542
 369 006a C4F20002 		movt	r2, 16384
 370 006e 1278     		ldrb	r2, [r2, #0]
 371 0070 D2B2     		uxtb	r2, r2
 372 0072 22F04002 		bic	r2, r2, #64
 373 0076 D2B2     		uxtb	r2, r2
 374 0078 1A70     		strb	r2, [r3, #0]
 208:.\Generated_Source\PSoC5/SPIS_1_IntClock.c ****             if (oldDivider == 0u)
 375              		.loc 1 208 0
 376 007a B1E0     		b	.L9
 377              	.L13:
 215:.\Generated_Source\PSoC5/SPIS_1_IntClock.c ****             }
 216:.\Generated_Source\PSoC5/SPIS_1_IntClock.c ****             else
 217:.\Generated_Source\PSoC5/SPIS_1_IntClock.c ****             {
 218:.\Generated_Source\PSoC5/SPIS_1_IntClock.c ****                 /* Moving to SSS, set SSS which then ignores the divider and we can set     */
 219:.\Generated_Source\PSoC5/SPIS_1_IntClock.c ****                 /* it without bothering with the shadow load.                               */
 220:.\Generated_Source\PSoC5/SPIS_1_IntClock.c ****                 SPIS_1_IntClock_MOD_SRC |= CYCLK_SSS;
 378              		.loc 1 220 0
 379 007c 44F29E03 		movw	r3, #16542
 380 0080 C4F20003 		movt	r3, 16384
 381 0084 44F29E02 		movw	r2, #16542
 382 0088 C4F20002 		movt	r2, 16384
 383 008c 1278     		ldrb	r2, [r2, #0]
 384 008e D2B2     		uxtb	r2, r2
 385 0090 42F04002 		orr	r2, r2, #64
 386 0094 D2B2     		uxtb	r2, r2
 387 0096 1A70     		strb	r2, [r3, #0]
 221:.\Generated_Source\PSoC5/SPIS_1_IntClock.c ****                 CY_SET_REG16(SPIS_1_IntClock_DIV_PTR, clkDivider);
 388              		.loc 1 221 0
 389 0098 44F29C03 		movw	r3, #16540
 390 009c C4F20003 		movt	r3, 16384
 391 00a0 FA88     		ldrh	r2, [r7, #6]	@ movhi
 392 00a2 1A80     		strh	r2, [r3, #0]	@ movhi
 208:.\Generated_Source\PSoC5/SPIS_1_IntClock.c ****             if (oldDivider == 0u)
 393              		.loc 1 208 0
 394 00a4 9CE0     		b	.L9
 395              	.L11:
 222:.\Generated_Source\PSoC5/SPIS_1_IntClock.c ****             }
 223:.\Generated_Source\PSoC5/SPIS_1_IntClock.c ****         }
 224:.\Generated_Source\PSoC5/SPIS_1_IntClock.c ****         else
 225:.\Generated_Source\PSoC5/SPIS_1_IntClock.c ****         {
 226:.\Generated_Source\PSoC5/SPIS_1_IntClock.c **** 			
 227:.\Generated_Source\PSoC5/SPIS_1_IntClock.c ****             if (enabled != 0u)
 396              		.loc 1 227 0
 397 00a6 FB7A     		ldrb	r3, [r7, #11]	@ zero_extendqisi2
 398 00a8 002B     		cmp	r3, #0
ARM GAS  C:\Users\Brian\AppData\Local\Temp\ccYKepjC.s 			page 12


 399 00aa 5CD0     		beq	.L15
 228:.\Generated_Source\PSoC5/SPIS_1_IntClock.c ****             {
 229:.\Generated_Source\PSoC5/SPIS_1_IntClock.c ****                 CLK_DIST_LD = 0x00u;
 400              		.loc 1 229 0
 401 00ac 44F20103 		movw	r3, #16385
 402 00b0 C4F20003 		movt	r3, 16384
 403 00b4 4FF00002 		mov	r2, #0
 404 00b8 1A70     		strb	r2, [r3, #0]
 230:.\Generated_Source\PSoC5/SPIS_1_IntClock.c **** 
 231:.\Generated_Source\PSoC5/SPIS_1_IntClock.c ****                 /* Clear all the mask bits except ours. */
 232:.\Generated_Source\PSoC5/SPIS_1_IntClock.c **** #if defined(SPIS_1_IntClock__CFG3)
 233:.\Generated_Source\PSoC5/SPIS_1_IntClock.c ****                 CLK_DIST_AMASK = SPIS_1_IntClock_CLKEN_MASK;
 234:.\Generated_Source\PSoC5/SPIS_1_IntClock.c ****                 CLK_DIST_DMASK = 0x00u;
 235:.\Generated_Source\PSoC5/SPIS_1_IntClock.c **** #else
 236:.\Generated_Source\PSoC5/SPIS_1_IntClock.c ****                 CLK_DIST_DMASK = SPIS_1_IntClock_CLKEN_MASK;
 405              		.loc 1 236 0
 406 00ba 44F21003 		movw	r3, #16400
 407 00be C4F20003 		movt	r3, 16384
 408 00c2 4FF08002 		mov	r2, #128
 409 00c6 1A70     		strb	r2, [r3, #0]
 237:.\Generated_Source\PSoC5/SPIS_1_IntClock.c ****                 CLK_DIST_AMASK = 0x00u;
 410              		.loc 1 237 0
 411 00c8 44F21403 		movw	r3, #16404
 412 00cc C4F20003 		movt	r3, 16384
 413 00d0 4FF00002 		mov	r2, #0
 414 00d4 1A70     		strb	r2, [r3, #0]
 238:.\Generated_Source\PSoC5/SPIS_1_IntClock.c **** #endif /* SPIS_1_IntClock__CFG3 */
 239:.\Generated_Source\PSoC5/SPIS_1_IntClock.c ****                 /* Clear mask of bus clock. */
 240:.\Generated_Source\PSoC5/SPIS_1_IntClock.c ****                 CLK_DIST_BCFG2 &= (uint8)(~BCFG2_MASK);
 415              		.loc 1 240 0
 416 00d6 44F20803 		movw	r3, #16392
 417 00da C4F20003 		movt	r3, 16384
 418 00de 44F20802 		movw	r2, #16392
 419 00e2 C4F20002 		movt	r2, 16384
 420 00e6 1278     		ldrb	r2, [r2, #0]
 421 00e8 D2B2     		uxtb	r2, r2
 422 00ea 02F07F02 		and	r2, r2, #127
 423 00ee D2B2     		uxtb	r2, r2
 424 00f0 1A70     		strb	r2, [r3, #0]
 241:.\Generated_Source\PSoC5/SPIS_1_IntClock.c **** 
 242:.\Generated_Source\PSoC5/SPIS_1_IntClock.c ****                 /* If clock is currently enabled, disable it if async or going from N-to-1*/
 243:.\Generated_Source\PSoC5/SPIS_1_IntClock.c ****                 if (((SPIS_1_IntClock_MOD_SRC & CYCLK_SYNC) == 0u) || (clkDivider == 0u))
 425              		.loc 1 243 0
 426 00f2 44F29E03 		movw	r3, #16542
 427 00f6 C4F20003 		movt	r3, 16384
 428 00fa 1B78     		ldrb	r3, [r3, #0]
 429 00fc DBB2     		uxtb	r3, r3
 430 00fe 03F00803 		and	r3, r3, #8
 431 0102 002B     		cmp	r3, #0
 432 0104 02D0     		beq	.L16
 433              		.loc 1 243 0 is_stmt 0 discriminator 1
 434 0106 FB88     		ldrh	r3, [r7, #6]
 435 0108 002B     		cmp	r3, #0
 436 010a 2CD1     		bne	.L15
 437              	.L16:
 244:.\Generated_Source\PSoC5/SPIS_1_IntClock.c ****                 {
 245:.\Generated_Source\PSoC5/SPIS_1_IntClock.c **** #if HAS_CLKDIST_LD_DISABLE
ARM GAS  C:\Users\Brian\AppData\Local\Temp\ccYKepjC.s 			page 13


 246:.\Generated_Source\PSoC5/SPIS_1_IntClock.c ****                     CY_SET_REG16(CYREG_CLKDIST_WRK0, oldDivider);
 438              		.loc 1 246 0 is_stmt 1
 439 010c 44F20203 		movw	r3, #16386
 440 0110 C4F20003 		movt	r3, 16384
 441 0114 BA89     		ldrh	r2, [r7, #12]	@ movhi
 442 0116 1A80     		strh	r2, [r3, #0]	@ movhi
 247:.\Generated_Source\PSoC5/SPIS_1_IntClock.c ****                     CLK_DIST_LD = CYCLK_LD_DISABLE|CYCLK_LD_SYNC_EN|CYCLK_LD_LOAD;
 443              		.loc 1 247 0
 444 0118 44F20103 		movw	r3, #16385
 445 011c C4F20003 		movt	r3, 16384
 446 0120 4FF00702 		mov	r2, #7
 447 0124 1A70     		strb	r2, [r3, #0]
 248:.\Generated_Source\PSoC5/SPIS_1_IntClock.c **** 
 249:.\Generated_Source\PSoC5/SPIS_1_IntClock.c ****                     /* Wait for clock to be disabled */
 250:.\Generated_Source\PSoC5/SPIS_1_IntClock.c ****                     while ((CLK_DIST_LD & CYCLK_LD_LOAD) != 0u) { }
 448              		.loc 1 250 0
 449 0126 00BF     		nop
 450              	.L17:
 451              		.loc 1 250 0 is_stmt 0 discriminator 1
 452 0128 44F20103 		movw	r3, #16385
 453 012c C4F20003 		movt	r3, 16384
 454 0130 1B78     		ldrb	r3, [r3, #0]
 455 0132 DBB2     		uxtb	r3, r3
 456 0134 03F00103 		and	r3, r3, #1
 457 0138 002B     		cmp	r3, #0
 458 013a F5D1     		bne	.L17
 251:.\Generated_Source\PSoC5/SPIS_1_IntClock.c **** #endif /* HAS_CLKDIST_LD_DISABLE */
 252:.\Generated_Source\PSoC5/SPIS_1_IntClock.c **** 
 253:.\Generated_Source\PSoC5/SPIS_1_IntClock.c ****                     SPIS_1_IntClock_CLKEN &= (uint8)(~SPIS_1_IntClock_CLKEN_MASK);
 459              		.loc 1 253 0 is_stmt 1
 460 013c 44F2A233 		movw	r3, #17314
 461 0140 C4F20003 		movt	r3, 16384
 462 0144 44F2A232 		movw	r2, #17314
 463 0148 C4F20002 		movt	r2, 16384
 464 014c 1278     		ldrb	r2, [r2, #0]
 465 014e D2B2     		uxtb	r2, r2
 466 0150 02F07F02 		and	r2, r2, #127
 467 0154 D2B2     		uxtb	r2, r2
 468 0156 1A70     		strb	r2, [r3, #0]
 254:.\Generated_Source\PSoC5/SPIS_1_IntClock.c **** 
 255:.\Generated_Source\PSoC5/SPIS_1_IntClock.c **** #if HAS_CLKDIST_LD_DISABLE
 256:.\Generated_Source\PSoC5/SPIS_1_IntClock.c ****                     /* Clear the disable bit */
 257:.\Generated_Source\PSoC5/SPIS_1_IntClock.c ****                     CLK_DIST_LD = 0x00u;
 469              		.loc 1 257 0
 470 0158 44F20103 		movw	r3, #16385
 471 015c C4F20003 		movt	r3, 16384
 472 0160 4FF00002 		mov	r2, #0
 473 0164 1A70     		strb	r2, [r3, #0]
 474              	.L15:
 258:.\Generated_Source\PSoC5/SPIS_1_IntClock.c **** #endif /* HAS_CLKDIST_LD_DISABLE */
 259:.\Generated_Source\PSoC5/SPIS_1_IntClock.c ****                 }
 260:.\Generated_Source\PSoC5/SPIS_1_IntClock.c ****             }
 261:.\Generated_Source\PSoC5/SPIS_1_IntClock.c **** 
 262:.\Generated_Source\PSoC5/SPIS_1_IntClock.c ****             /* Load divide value. */
 263:.\Generated_Source\PSoC5/SPIS_1_IntClock.c ****             if ((SPIS_1_IntClock_CLKEN & SPIS_1_IntClock_CLKEN_MASK) != 0u)
 475              		.loc 1 263 0
 476 0166 44F2A233 		movw	r3, #17314
ARM GAS  C:\Users\Brian\AppData\Local\Temp\ccYKepjC.s 			page 14


 477 016a C4F20003 		movt	r3, 16384
 478 016e 1B78     		ldrb	r3, [r3, #0]
 479 0170 DBB2     		uxtb	r3, r3
 480 0172 DBB2     		uxtb	r3, r3
 481 0174 5BB2     		sxtb	r3, r3
 482 0176 002B     		cmp	r3, #0
 483 0178 1EDA     		bge	.L18
 264:.\Generated_Source\PSoC5/SPIS_1_IntClock.c ****             {
 265:.\Generated_Source\PSoC5/SPIS_1_IntClock.c ****                 /* If the clock is still enabled, use the shadow registers */
 266:.\Generated_Source\PSoC5/SPIS_1_IntClock.c ****                 CY_SET_REG16(CYREG_CLKDIST_WRK0, clkDivider);
 484              		.loc 1 266 0
 485 017a 44F20203 		movw	r3, #16386
 486 017e C4F20003 		movt	r3, 16384
 487 0182 FA88     		ldrh	r2, [r7, #6]	@ movhi
 488 0184 1A80     		strh	r2, [r3, #0]	@ movhi
 267:.\Generated_Source\PSoC5/SPIS_1_IntClock.c **** 
 268:.\Generated_Source\PSoC5/SPIS_1_IntClock.c ****                 CLK_DIST_LD = (CYCLK_LD_LOAD | ((restart != 0u) ? CYCLK_LD_SYNC_EN : 0x00u));
 489              		.loc 1 268 0
 490 0186 44F20103 		movw	r3, #16385
 491 018a C4F20003 		movt	r3, 16384
 492 018e 7A79     		ldrb	r2, [r7, #5]	@ zero_extendqisi2
 493 0190 002A     		cmp	r2, #0
 494 0192 02D0     		beq	.L19
 495              		.loc 1 268 0 is_stmt 0 discriminator 1
 496 0194 4FF00302 		mov	r2, #3
 497 0198 01E0     		b	.L20
 498              	.L19:
 499              		.loc 1 268 0 discriminator 2
 500 019a 4FF00102 		mov	r2, #1
 501              	.L20:
 502              		.loc 1 268 0 discriminator 3
 503 019e 1A70     		strb	r2, [r3, #0]
 269:.\Generated_Source\PSoC5/SPIS_1_IntClock.c ****                 while ((CLK_DIST_LD & CYCLK_LD_LOAD) != 0u) { }
 504              		.loc 1 269 0 is_stmt 1
 505 01a0 00BF     		nop
 506              	.L21:
 507              		.loc 1 269 0 is_stmt 0 discriminator 1
 508 01a2 44F20103 		movw	r3, #16385
 509 01a6 C4F20003 		movt	r3, 16384
 510 01aa 1B78     		ldrb	r3, [r3, #0]
 511 01ac DBB2     		uxtb	r3, r3
 512 01ae 03F00103 		and	r3, r3, #1
 513 01b2 002B     		cmp	r3, #0
 514 01b4 F5D1     		bne	.L21
 515              		.loc 1 269 0
 516 01b6 13E0     		b	.L9
 517              	.L18:
 270:.\Generated_Source\PSoC5/SPIS_1_IntClock.c ****             }
 271:.\Generated_Source\PSoC5/SPIS_1_IntClock.c ****             else
 272:.\Generated_Source\PSoC5/SPIS_1_IntClock.c ****             {
 273:.\Generated_Source\PSoC5/SPIS_1_IntClock.c ****                 /* If the clock is disabled, set the divider directly */
 274:.\Generated_Source\PSoC5/SPIS_1_IntClock.c ****                 CY_SET_REG16(SPIS_1_IntClock_DIV_PTR, clkDivider);
 518              		.loc 1 274 0 is_stmt 1
 519 01b8 44F29C03 		movw	r3, #16540
 520 01bc C4F20003 		movt	r3, 16384
 521 01c0 FA88     		ldrh	r2, [r7, #6]	@ movhi
 522 01c2 1A80     		strh	r2, [r3, #0]	@ movhi
ARM GAS  C:\Users\Brian\AppData\Local\Temp\ccYKepjC.s 			page 15


 275:.\Generated_Source\PSoC5/SPIS_1_IntClock.c **** 				SPIS_1_IntClock_CLKEN |= enabled;
 523              		.loc 1 275 0
 524 01c4 44F2A233 		movw	r3, #17314
 525 01c8 C4F20003 		movt	r3, 16384
 526 01cc 44F2A232 		movw	r2, #17314
 527 01d0 C4F20002 		movt	r2, 16384
 528 01d4 1278     		ldrb	r2, [r2, #0]
 529 01d6 D1B2     		uxtb	r1, r2
 530 01d8 FA7A     		ldrb	r2, [r7, #11]
 531 01da 0A43     		orrs	r2, r2, r1
 532 01dc D2B2     		uxtb	r2, r2
 533 01de 1A70     		strb	r2, [r3, #0]
 534              	.L9:
 276:.\Generated_Source\PSoC5/SPIS_1_IntClock.c ****             }
 277:.\Generated_Source\PSoC5/SPIS_1_IntClock.c ****         }
 278:.\Generated_Source\PSoC5/SPIS_1_IntClock.c ****     }
 279:.\Generated_Source\PSoC5/SPIS_1_IntClock.c **** }
 535              		.loc 1 279 0
 536 01e0 07F11007 		add	r7, r7, #16
 537 01e4 BD46     		mov	sp, r7
 538 01e6 80BD     		pop	{r7, pc}
 539              		.cfi_endproc
 540              	.LFE4:
 541              		.size	SPIS_1_IntClock_SetDividerRegister, .-SPIS_1_IntClock_SetDividerRegister
 542              		.section	.text.SPIS_1_IntClock_GetDividerRegister,"ax",%progbits
 543              		.align	2
 544              		.global	SPIS_1_IntClock_GetDividerRegister
 545              		.thumb
 546              		.thumb_func
 547              		.type	SPIS_1_IntClock_GetDividerRegister, %function
 548              	SPIS_1_IntClock_GetDividerRegister:
 549              	.LFB5:
 280:.\Generated_Source\PSoC5/SPIS_1_IntClock.c **** 
 281:.\Generated_Source\PSoC5/SPIS_1_IntClock.c **** 
 282:.\Generated_Source\PSoC5/SPIS_1_IntClock.c **** /*******************************************************************************
 283:.\Generated_Source\PSoC5/SPIS_1_IntClock.c **** * Function Name: SPIS_1_IntClock_GetDividerRegister
 284:.\Generated_Source\PSoC5/SPIS_1_IntClock.c **** ********************************************************************************
 285:.\Generated_Source\PSoC5/SPIS_1_IntClock.c **** *
 286:.\Generated_Source\PSoC5/SPIS_1_IntClock.c **** * Summary:
 287:.\Generated_Source\PSoC5/SPIS_1_IntClock.c **** *  Gets the clock divider register value.
 288:.\Generated_Source\PSoC5/SPIS_1_IntClock.c **** *
 289:.\Generated_Source\PSoC5/SPIS_1_IntClock.c **** * Parameters:
 290:.\Generated_Source\PSoC5/SPIS_1_IntClock.c **** *  None
 291:.\Generated_Source\PSoC5/SPIS_1_IntClock.c **** *
 292:.\Generated_Source\PSoC5/SPIS_1_IntClock.c **** * Returns:
 293:.\Generated_Source\PSoC5/SPIS_1_IntClock.c **** *  Divide value of the clock minus 1. For example, if the clock is set to
 294:.\Generated_Source\PSoC5/SPIS_1_IntClock.c **** *  divide by 2, the return value will be 1.
 295:.\Generated_Source\PSoC5/SPIS_1_IntClock.c **** *
 296:.\Generated_Source\PSoC5/SPIS_1_IntClock.c **** *******************************************************************************/
 297:.\Generated_Source\PSoC5/SPIS_1_IntClock.c **** uint16 SPIS_1_IntClock_GetDividerRegister(void) 
 298:.\Generated_Source\PSoC5/SPIS_1_IntClock.c **** {
 550              		.loc 1 298 0
 551              		.cfi_startproc
 552              		@ args = 0, pretend = 0, frame = 0
 553              		@ frame_needed = 1, uses_anonymous_args = 0
 554              		@ link register save eliminated.
 555 0000 80B4     		push	{r7}
ARM GAS  C:\Users\Brian\AppData\Local\Temp\ccYKepjC.s 			page 16


 556              	.LCFI13:
 557              		.cfi_def_cfa_offset 4
 558              		.cfi_offset 7, -4
 559 0002 00AF     		add	r7, sp, #0
 560              	.LCFI14:
 561              		.cfi_def_cfa_register 7
 299:.\Generated_Source\PSoC5/SPIS_1_IntClock.c ****     return CY_GET_REG16(SPIS_1_IntClock_DIV_PTR);
 562              		.loc 1 299 0
 563 0004 44F29C03 		movw	r3, #16540
 564 0008 C4F20003 		movt	r3, 16384
 565 000c 1B88     		ldrh	r3, [r3, #0]	@ movhi
 566 000e 9BB2     		uxth	r3, r3
 300:.\Generated_Source\PSoC5/SPIS_1_IntClock.c **** }
 567              		.loc 1 300 0
 568 0010 1846     		mov	r0, r3
 569 0012 BD46     		mov	sp, r7
 570 0014 80BC     		pop	{r7}
 571 0016 7047     		bx	lr
 572              		.cfi_endproc
 573              	.LFE5:
 574              		.size	SPIS_1_IntClock_GetDividerRegister, .-SPIS_1_IntClock_GetDividerRegister
 575              		.section	.text.SPIS_1_IntClock_SetModeRegister,"ax",%progbits
 576              		.align	2
 577              		.global	SPIS_1_IntClock_SetModeRegister
 578              		.thumb
 579              		.thumb_func
 580              		.type	SPIS_1_IntClock_SetModeRegister, %function
 581              	SPIS_1_IntClock_SetModeRegister:
 582              	.LFB6:
 301:.\Generated_Source\PSoC5/SPIS_1_IntClock.c **** 
 302:.\Generated_Source\PSoC5/SPIS_1_IntClock.c **** 
 303:.\Generated_Source\PSoC5/SPIS_1_IntClock.c **** /*******************************************************************************
 304:.\Generated_Source\PSoC5/SPIS_1_IntClock.c **** * Function Name: SPIS_1_IntClock_SetModeRegister
 305:.\Generated_Source\PSoC5/SPIS_1_IntClock.c **** ********************************************************************************
 306:.\Generated_Source\PSoC5/SPIS_1_IntClock.c **** *
 307:.\Generated_Source\PSoC5/SPIS_1_IntClock.c **** * Summary:
 308:.\Generated_Source\PSoC5/SPIS_1_IntClock.c **** *  Sets flags that control the operating mode of the clock. This function only
 309:.\Generated_Source\PSoC5/SPIS_1_IntClock.c **** *  changes flags from 0 to 1; flags that are already 1 will remain unchanged.
 310:.\Generated_Source\PSoC5/SPIS_1_IntClock.c **** *  To clear flags, use the ClearModeRegister function. The clock must be
 311:.\Generated_Source\PSoC5/SPIS_1_IntClock.c **** *  disabled before changing the mode.
 312:.\Generated_Source\PSoC5/SPIS_1_IntClock.c **** *
 313:.\Generated_Source\PSoC5/SPIS_1_IntClock.c **** * Parameters:
 314:.\Generated_Source\PSoC5/SPIS_1_IntClock.c **** *  clkMode: Bit mask containing the bits to set. For PSoC 3 and PSoC 5,
 315:.\Generated_Source\PSoC5/SPIS_1_IntClock.c **** *   clkMode should be a set of the following optional bits or'ed together.
 316:.\Generated_Source\PSoC5/SPIS_1_IntClock.c **** *   - CYCLK_EARLY Enable early phase mode. Rising edge of output clock will
 317:.\Generated_Source\PSoC5/SPIS_1_IntClock.c **** *                 occur when the divider count reaches half of the divide
 318:.\Generated_Source\PSoC5/SPIS_1_IntClock.c **** *                 value.
 319:.\Generated_Source\PSoC5/SPIS_1_IntClock.c **** *   - CYCLK_DUTY  Enable 50% duty cycle output. When enabled, the output clock
 320:.\Generated_Source\PSoC5/SPIS_1_IntClock.c **** *                 is asserted for approximately half of its period. When
 321:.\Generated_Source\PSoC5/SPIS_1_IntClock.c **** *                 disabled, the output clock is asserted for one period of the
 322:.\Generated_Source\PSoC5/SPIS_1_IntClock.c **** *                 source clock.
 323:.\Generated_Source\PSoC5/SPIS_1_IntClock.c **** *   - CYCLK_SYNC  Enable output synchronization to master clock. This should
 324:.\Generated_Source\PSoC5/SPIS_1_IntClock.c **** *                 be enabled for all synchronous clocks.
 325:.\Generated_Source\PSoC5/SPIS_1_IntClock.c **** *   See the Technical Reference Manual for details about setting the mode of
 326:.\Generated_Source\PSoC5/SPIS_1_IntClock.c **** *   the clock. Specifically, see the CLKDIST.DCFG.CFG2 register.
 327:.\Generated_Source\PSoC5/SPIS_1_IntClock.c **** *
 328:.\Generated_Source\PSoC5/SPIS_1_IntClock.c **** * Returns:
ARM GAS  C:\Users\Brian\AppData\Local\Temp\ccYKepjC.s 			page 17


 329:.\Generated_Source\PSoC5/SPIS_1_IntClock.c **** *  None
 330:.\Generated_Source\PSoC5/SPIS_1_IntClock.c **** *
 331:.\Generated_Source\PSoC5/SPIS_1_IntClock.c **** *******************************************************************************/
 332:.\Generated_Source\PSoC5/SPIS_1_IntClock.c **** void SPIS_1_IntClock_SetModeRegister(uint8 modeBitMask) 
 333:.\Generated_Source\PSoC5/SPIS_1_IntClock.c **** {
 583              		.loc 1 333 0
 584              		.cfi_startproc
 585              		@ args = 0, pretend = 0, frame = 8
 586              		@ frame_needed = 1, uses_anonymous_args = 0
 587              		@ link register save eliminated.
 588 0000 80B4     		push	{r7}
 589              	.LCFI15:
 590              		.cfi_def_cfa_offset 4
 591              		.cfi_offset 7, -4
 592 0002 83B0     		sub	sp, sp, #12
 593              	.LCFI16:
 594              		.cfi_def_cfa_offset 16
 595 0004 00AF     		add	r7, sp, #0
 596              	.LCFI17:
 597              		.cfi_def_cfa_register 7
 598 0006 0346     		mov	r3, r0
 599 0008 FB71     		strb	r3, [r7, #7]
 334:.\Generated_Source\PSoC5/SPIS_1_IntClock.c ****     SPIS_1_IntClock_MOD_SRC |= modeBitMask & (uint8)SPIS_1_IntClock_MODE_MASK;
 600              		.loc 1 334 0
 601 000a 44F29E03 		movw	r3, #16542
 602 000e C4F20003 		movt	r3, 16384
 603 0012 44F29E02 		movw	r2, #16542
 604 0016 C4F20002 		movt	r2, 16384
 605 001a 1278     		ldrb	r2, [r2, #0]
 606 001c D2B2     		uxtb	r2, r2
 607 001e D1B2     		uxtb	r1, r2
 608 0020 FA79     		ldrb	r2, [r7, #7]	@ zero_extendqisi2
 609 0022 22F00702 		bic	r2, r2, #7
 610 0026 D2B2     		uxtb	r2, r2
 611 0028 0A43     		orrs	r2, r2, r1
 612 002a D2B2     		uxtb	r2, r2
 613 002c D2B2     		uxtb	r2, r2
 614 002e 1A70     		strb	r2, [r3, #0]
 335:.\Generated_Source\PSoC5/SPIS_1_IntClock.c **** }
 615              		.loc 1 335 0
 616 0030 07F10C07 		add	r7, r7, #12
 617 0034 BD46     		mov	sp, r7
 618 0036 80BC     		pop	{r7}
 619 0038 7047     		bx	lr
 620              		.cfi_endproc
 621              	.LFE6:
 622              		.size	SPIS_1_IntClock_SetModeRegister, .-SPIS_1_IntClock_SetModeRegister
 623 003a 00BF     		.section	.text.SPIS_1_IntClock_ClearModeRegister,"ax",%progbits
 624              		.align	2
 625              		.global	SPIS_1_IntClock_ClearModeRegister
 626              		.thumb
 627              		.thumb_func
 628              		.type	SPIS_1_IntClock_ClearModeRegister, %function
 629              	SPIS_1_IntClock_ClearModeRegister:
 630              	.LFB7:
 336:.\Generated_Source\PSoC5/SPIS_1_IntClock.c **** 
 337:.\Generated_Source\PSoC5/SPIS_1_IntClock.c **** 
ARM GAS  C:\Users\Brian\AppData\Local\Temp\ccYKepjC.s 			page 18


 338:.\Generated_Source\PSoC5/SPIS_1_IntClock.c **** /*******************************************************************************
 339:.\Generated_Source\PSoC5/SPIS_1_IntClock.c **** * Function Name: SPIS_1_IntClock_ClearModeRegister
 340:.\Generated_Source\PSoC5/SPIS_1_IntClock.c **** ********************************************************************************
 341:.\Generated_Source\PSoC5/SPIS_1_IntClock.c **** *
 342:.\Generated_Source\PSoC5/SPIS_1_IntClock.c **** * Summary:
 343:.\Generated_Source\PSoC5/SPIS_1_IntClock.c **** *  Clears flags that control the operating mode of the clock. This function
 344:.\Generated_Source\PSoC5/SPIS_1_IntClock.c **** *  only changes flags from 1 to 0; flags that are already 0 will remain
 345:.\Generated_Source\PSoC5/SPIS_1_IntClock.c **** *  unchanged. To set flags, use the SetModeRegister function. The clock must be
 346:.\Generated_Source\PSoC5/SPIS_1_IntClock.c **** *  disabled before changing the mode.
 347:.\Generated_Source\PSoC5/SPIS_1_IntClock.c **** *
 348:.\Generated_Source\PSoC5/SPIS_1_IntClock.c **** * Parameters:
 349:.\Generated_Source\PSoC5/SPIS_1_IntClock.c **** *  clkMode: Bit mask containing the bits to clear. For PSoC 3 and PSoC 5,
 350:.\Generated_Source\PSoC5/SPIS_1_IntClock.c **** *   clkMode should be a set of the following optional bits or'ed together.
 351:.\Generated_Source\PSoC5/SPIS_1_IntClock.c **** *   - CYCLK_EARLY Enable early phase mode. Rising edge of output clock will
 352:.\Generated_Source\PSoC5/SPIS_1_IntClock.c **** *                 occur when the divider count reaches half of the divide
 353:.\Generated_Source\PSoC5/SPIS_1_IntClock.c **** *                 value.
 354:.\Generated_Source\PSoC5/SPIS_1_IntClock.c **** *   - CYCLK_DUTY  Enable 50% duty cycle output. When enabled, the output clock
 355:.\Generated_Source\PSoC5/SPIS_1_IntClock.c **** *                 is asserted for approximately half of its period. When
 356:.\Generated_Source\PSoC5/SPIS_1_IntClock.c **** *                 disabled, the output clock is asserted for one period of the
 357:.\Generated_Source\PSoC5/SPIS_1_IntClock.c **** *                 source clock.
 358:.\Generated_Source\PSoC5/SPIS_1_IntClock.c **** *   - CYCLK_SYNC  Enable output synchronization to master clock. This should
 359:.\Generated_Source\PSoC5/SPIS_1_IntClock.c **** *                 be enabled for all synchronous clocks.
 360:.\Generated_Source\PSoC5/SPIS_1_IntClock.c **** *   See the Technical Reference Manual for details about setting the mode of
 361:.\Generated_Source\PSoC5/SPIS_1_IntClock.c **** *   the clock. Specifically, see the CLKDIST.DCFG.CFG2 register.
 362:.\Generated_Source\PSoC5/SPIS_1_IntClock.c **** *
 363:.\Generated_Source\PSoC5/SPIS_1_IntClock.c **** * Returns:
 364:.\Generated_Source\PSoC5/SPIS_1_IntClock.c **** *  None
 365:.\Generated_Source\PSoC5/SPIS_1_IntClock.c **** *
 366:.\Generated_Source\PSoC5/SPIS_1_IntClock.c **** *******************************************************************************/
 367:.\Generated_Source\PSoC5/SPIS_1_IntClock.c **** void SPIS_1_IntClock_ClearModeRegister(uint8 modeBitMask) 
 368:.\Generated_Source\PSoC5/SPIS_1_IntClock.c **** {
 631              		.loc 1 368 0
 632              		.cfi_startproc
 633              		@ args = 0, pretend = 0, frame = 8
 634              		@ frame_needed = 1, uses_anonymous_args = 0
 635              		@ link register save eliminated.
 636 0000 80B4     		push	{r7}
 637              	.LCFI18:
 638              		.cfi_def_cfa_offset 4
 639              		.cfi_offset 7, -4
 640 0002 83B0     		sub	sp, sp, #12
 641              	.LCFI19:
 642              		.cfi_def_cfa_offset 16
 643 0004 00AF     		add	r7, sp, #0
 644              	.LCFI20:
 645              		.cfi_def_cfa_register 7
 646 0006 0346     		mov	r3, r0
 647 0008 FB71     		strb	r3, [r7, #7]
 369:.\Generated_Source\PSoC5/SPIS_1_IntClock.c ****     SPIS_1_IntClock_MOD_SRC &= (uint8)(~modeBitMask) | (uint8)(~(uint8)(SPIS_1_IntClock_MODE_MASK))
 648              		.loc 1 369 0
 649 000a 44F29E03 		movw	r3, #16542
 650 000e C4F20003 		movt	r3, 16384
 651 0012 44F29E02 		movw	r2, #16542
 652 0016 C4F20002 		movt	r2, 16384
 653 001a 1278     		ldrb	r2, [r2, #0]
 654 001c D1B2     		uxtb	r1, r2
 655 001e FA79     		ldrb	r2, [r7, #7]
ARM GAS  C:\Users\Brian\AppData\Local\Temp\ccYKepjC.s 			page 19


 656 0020 6FEA0202 		mvn	r2, r2
 657 0024 D2B2     		uxtb	r2, r2
 658 0026 42F00702 		orr	r2, r2, #7
 659 002a D2B2     		uxtb	r2, r2
 660 002c 0A40     		ands	r2, r2, r1
 661 002e D2B2     		uxtb	r2, r2
 662 0030 1A70     		strb	r2, [r3, #0]
 370:.\Generated_Source\PSoC5/SPIS_1_IntClock.c **** }
 663              		.loc 1 370 0
 664 0032 07F10C07 		add	r7, r7, #12
 665 0036 BD46     		mov	sp, r7
 666 0038 80BC     		pop	{r7}
 667 003a 7047     		bx	lr
 668              		.cfi_endproc
 669              	.LFE7:
 670              		.size	SPIS_1_IntClock_ClearModeRegister, .-SPIS_1_IntClock_ClearModeRegister
 671              		.section	.text.SPIS_1_IntClock_GetModeRegister,"ax",%progbits
 672              		.align	2
 673              		.global	SPIS_1_IntClock_GetModeRegister
 674              		.thumb
 675              		.thumb_func
 676              		.type	SPIS_1_IntClock_GetModeRegister, %function
 677              	SPIS_1_IntClock_GetModeRegister:
 678              	.LFB8:
 371:.\Generated_Source\PSoC5/SPIS_1_IntClock.c **** 
 372:.\Generated_Source\PSoC5/SPIS_1_IntClock.c **** 
 373:.\Generated_Source\PSoC5/SPIS_1_IntClock.c **** /*******************************************************************************
 374:.\Generated_Source\PSoC5/SPIS_1_IntClock.c **** * Function Name: SPIS_1_IntClock_GetModeRegister
 375:.\Generated_Source\PSoC5/SPIS_1_IntClock.c **** ********************************************************************************
 376:.\Generated_Source\PSoC5/SPIS_1_IntClock.c **** *
 377:.\Generated_Source\PSoC5/SPIS_1_IntClock.c **** * Summary:
 378:.\Generated_Source\PSoC5/SPIS_1_IntClock.c **** *  Gets the clock mode register value.
 379:.\Generated_Source\PSoC5/SPIS_1_IntClock.c **** *
 380:.\Generated_Source\PSoC5/SPIS_1_IntClock.c **** * Parameters:
 381:.\Generated_Source\PSoC5/SPIS_1_IntClock.c **** *  None
 382:.\Generated_Source\PSoC5/SPIS_1_IntClock.c **** *
 383:.\Generated_Source\PSoC5/SPIS_1_IntClock.c **** * Returns:
 384:.\Generated_Source\PSoC5/SPIS_1_IntClock.c **** *  Bit mask representing the enabled mode bits. See the SetModeRegister and
 385:.\Generated_Source\PSoC5/SPIS_1_IntClock.c **** *  ClearModeRegister descriptions for details about the mode bits.
 386:.\Generated_Source\PSoC5/SPIS_1_IntClock.c **** *
 387:.\Generated_Source\PSoC5/SPIS_1_IntClock.c **** *******************************************************************************/
 388:.\Generated_Source\PSoC5/SPIS_1_IntClock.c **** uint8 SPIS_1_IntClock_GetModeRegister(void) 
 389:.\Generated_Source\PSoC5/SPIS_1_IntClock.c **** {
 679              		.loc 1 389 0
 680              		.cfi_startproc
 681              		@ args = 0, pretend = 0, frame = 0
 682              		@ frame_needed = 1, uses_anonymous_args = 0
 683              		@ link register save eliminated.
 684 0000 80B4     		push	{r7}
 685              	.LCFI21:
 686              		.cfi_def_cfa_offset 4
 687              		.cfi_offset 7, -4
 688 0002 00AF     		add	r7, sp, #0
 689              	.LCFI22:
 690              		.cfi_def_cfa_register 7
 390:.\Generated_Source\PSoC5/SPIS_1_IntClock.c ****     return SPIS_1_IntClock_MOD_SRC & (uint8)(SPIS_1_IntClock_MODE_MASK);
 691              		.loc 1 390 0
ARM GAS  C:\Users\Brian\AppData\Local\Temp\ccYKepjC.s 			page 20


 692 0004 44F29E03 		movw	r3, #16542
 693 0008 C4F20003 		movt	r3, 16384
 694 000c 1B78     		ldrb	r3, [r3, #0]
 695 000e DBB2     		uxtb	r3, r3
 696 0010 23F00703 		bic	r3, r3, #7
 697 0014 DBB2     		uxtb	r3, r3
 391:.\Generated_Source\PSoC5/SPIS_1_IntClock.c **** }
 698              		.loc 1 391 0
 699 0016 1846     		mov	r0, r3
 700 0018 BD46     		mov	sp, r7
 701 001a 80BC     		pop	{r7}
 702 001c 7047     		bx	lr
 703              		.cfi_endproc
 704              	.LFE8:
 705              		.size	SPIS_1_IntClock_GetModeRegister, .-SPIS_1_IntClock_GetModeRegister
 706 001e 00BF     		.section	.text.SPIS_1_IntClock_SetSourceRegister,"ax",%progbits
 707              		.align	2
 708              		.global	SPIS_1_IntClock_SetSourceRegister
 709              		.thumb
 710              		.thumb_func
 711              		.type	SPIS_1_IntClock_SetSourceRegister, %function
 712              	SPIS_1_IntClock_SetSourceRegister:
 713              	.LFB9:
 392:.\Generated_Source\PSoC5/SPIS_1_IntClock.c **** 
 393:.\Generated_Source\PSoC5/SPIS_1_IntClock.c **** 
 394:.\Generated_Source\PSoC5/SPIS_1_IntClock.c **** /*******************************************************************************
 395:.\Generated_Source\PSoC5/SPIS_1_IntClock.c **** * Function Name: SPIS_1_IntClock_SetSourceRegister
 396:.\Generated_Source\PSoC5/SPIS_1_IntClock.c **** ********************************************************************************
 397:.\Generated_Source\PSoC5/SPIS_1_IntClock.c **** *
 398:.\Generated_Source\PSoC5/SPIS_1_IntClock.c **** * Summary:
 399:.\Generated_Source\PSoC5/SPIS_1_IntClock.c **** *  Sets the input source of the clock. The clock must be disabled before
 400:.\Generated_Source\PSoC5/SPIS_1_IntClock.c **** *  changing the source. The old and new clock sources must be running.
 401:.\Generated_Source\PSoC5/SPIS_1_IntClock.c **** *
 402:.\Generated_Source\PSoC5/SPIS_1_IntClock.c **** * Parameters:
 403:.\Generated_Source\PSoC5/SPIS_1_IntClock.c **** *  clkSource:  For PSoC 3 and PSoC 5 devices, clkSource should be one of the
 404:.\Generated_Source\PSoC5/SPIS_1_IntClock.c **** *   following input sources:
 405:.\Generated_Source\PSoC5/SPIS_1_IntClock.c **** *   - CYCLK_SRC_SEL_SYNC_DIG
 406:.\Generated_Source\PSoC5/SPIS_1_IntClock.c **** *   - CYCLK_SRC_SEL_IMO
 407:.\Generated_Source\PSoC5/SPIS_1_IntClock.c **** *   - CYCLK_SRC_SEL_XTALM
 408:.\Generated_Source\PSoC5/SPIS_1_IntClock.c **** *   - CYCLK_SRC_SEL_ILO
 409:.\Generated_Source\PSoC5/SPIS_1_IntClock.c **** *   - CYCLK_SRC_SEL_PLL
 410:.\Generated_Source\PSoC5/SPIS_1_IntClock.c **** *   - CYCLK_SRC_SEL_XTALK
 411:.\Generated_Source\PSoC5/SPIS_1_IntClock.c **** *   - CYCLK_SRC_SEL_DSI_G
 412:.\Generated_Source\PSoC5/SPIS_1_IntClock.c **** *   - CYCLK_SRC_SEL_DSI_D/CYCLK_SRC_SEL_DSI_A
 413:.\Generated_Source\PSoC5/SPIS_1_IntClock.c **** *   See the Technical Reference Manual for details on clock sources.
 414:.\Generated_Source\PSoC5/SPIS_1_IntClock.c **** *
 415:.\Generated_Source\PSoC5/SPIS_1_IntClock.c **** * Returns:
 416:.\Generated_Source\PSoC5/SPIS_1_IntClock.c **** *  None
 417:.\Generated_Source\PSoC5/SPIS_1_IntClock.c **** *
 418:.\Generated_Source\PSoC5/SPIS_1_IntClock.c **** *******************************************************************************/
 419:.\Generated_Source\PSoC5/SPIS_1_IntClock.c **** void SPIS_1_IntClock_SetSourceRegister(uint8 clkSource) 
 420:.\Generated_Source\PSoC5/SPIS_1_IntClock.c **** {
 714              		.loc 1 420 0
 715              		.cfi_startproc
 716              		@ args = 0, pretend = 0, frame = 16
 717              		@ frame_needed = 1, uses_anonymous_args = 0
 718 0000 80B5     		push	{r7, lr}
ARM GAS  C:\Users\Brian\AppData\Local\Temp\ccYKepjC.s 			page 21


 719              	.LCFI23:
 720              		.cfi_def_cfa_offset 8
 721              		.cfi_offset 7, -8
 722              		.cfi_offset 14, -4
 723 0002 84B0     		sub	sp, sp, #16
 724              	.LCFI24:
 725              		.cfi_def_cfa_offset 24
 726 0004 00AF     		add	r7, sp, #0
 727              	.LCFI25:
 728              		.cfi_def_cfa_register 7
 729 0006 0346     		mov	r3, r0
 730 0008 FB71     		strb	r3, [r7, #7]
 421:.\Generated_Source\PSoC5/SPIS_1_IntClock.c ****     uint16 currDiv = SPIS_1_IntClock_GetDividerRegister();
 731              		.loc 1 421 0
 732 000a FFF7FEFF 		bl	SPIS_1_IntClock_GetDividerRegister
 733 000e 0346     		mov	r3, r0
 734 0010 FB81     		strh	r3, [r7, #14]	@ movhi
 422:.\Generated_Source\PSoC5/SPIS_1_IntClock.c ****     uint8 oldSrc = SPIS_1_IntClock_GetSourceRegister();
 735              		.loc 1 422 0
 736 0012 FFF7FEFF 		bl	SPIS_1_IntClock_GetSourceRegister
 737 0016 0346     		mov	r3, r0
 738 0018 7B73     		strb	r3, [r7, #13]
 423:.\Generated_Source\PSoC5/SPIS_1_IntClock.c **** 
 424:.\Generated_Source\PSoC5/SPIS_1_IntClock.c ****     if (((oldSrc != ((uint8)CYCLK_SRC_SEL_CLK_SYNC_D)) && 
 739              		.loc 1 424 0
 740 001a 7B7B     		ldrb	r3, [r7, #13]	@ zero_extendqisi2
 741 001c 002B     		cmp	r3, #0
 742 001e 27D0     		beq	.L29
 743              		.loc 1 424 0 is_stmt 0 discriminator 1
 744 0020 FB79     		ldrb	r3, [r7, #7]	@ zero_extendqisi2
 745 0022 002B     		cmp	r3, #0
 746 0024 24D1     		bne	.L29
 425:.\Generated_Source\PSoC5/SPIS_1_IntClock.c ****         (clkSource == ((uint8)CYCLK_SRC_SEL_CLK_SYNC_D))) && (currDiv == 0u))
 747              		.loc 1 425 0 is_stmt 1
 748 0026 FB89     		ldrh	r3, [r7, #14]
 749 0028 002B     		cmp	r3, #0
 750 002a 21D1     		bne	.L29
 426:.\Generated_Source\PSoC5/SPIS_1_IntClock.c ****     {
 427:.\Generated_Source\PSoC5/SPIS_1_IntClock.c ****         /* Switching to Master and divider is 1, set SSS, which will output master, */
 428:.\Generated_Source\PSoC5/SPIS_1_IntClock.c ****         /* then set the source so we are consistent.                                */
 429:.\Generated_Source\PSoC5/SPIS_1_IntClock.c ****         SPIS_1_IntClock_MOD_SRC |= CYCLK_SSS;
 751              		.loc 1 429 0
 752 002c 44F29E03 		movw	r3, #16542
 753 0030 C4F20003 		movt	r3, 16384
 754 0034 44F29E02 		movw	r2, #16542
 755 0038 C4F20002 		movt	r2, 16384
 756 003c 1278     		ldrb	r2, [r2, #0]
 757 003e D2B2     		uxtb	r2, r2
 758 0040 42F04002 		orr	r2, r2, #64
 759 0044 D2B2     		uxtb	r2, r2
 760 0046 1A70     		strb	r2, [r3, #0]
 430:.\Generated_Source\PSoC5/SPIS_1_IntClock.c ****         SPIS_1_IntClock_MOD_SRC =
 761              		.loc 1 430 0
 762 0048 44F29E03 		movw	r3, #16542
 763 004c C4F20003 		movt	r3, 16384
 431:.\Generated_Source\PSoC5/SPIS_1_IntClock.c ****             (SPIS_1_IntClock_MOD_SRC & (uint8)(~SPIS_1_IntClock_SRC_SEL_MSK)) | clkSource;
 764              		.loc 1 431 0
ARM GAS  C:\Users\Brian\AppData\Local\Temp\ccYKepjC.s 			page 22


 765 0050 44F29E02 		movw	r2, #16542
 766 0054 C4F20002 		movt	r2, 16384
 767 0058 1278     		ldrb	r2, [r2, #0]
 768 005a D2B2     		uxtb	r2, r2
 430:.\Generated_Source\PSoC5/SPIS_1_IntClock.c ****         SPIS_1_IntClock_MOD_SRC =
 769              		.loc 1 430 0
 770 005c D2B2     		uxtb	r2, r2
 771 005e 22F00702 		bic	r2, r2, #7
 772 0062 D1B2     		uxtb	r1, r2
 773 0064 FA79     		ldrb	r2, [r7, #7]	@ zero_extendqisi2
 774 0066 0A43     		orrs	r2, r2, r1
 775 0068 D2B2     		uxtb	r2, r2
 776 006a D2B2     		uxtb	r2, r2
 777 006c 1A70     		strb	r2, [r3, #0]
 778 006e 3DE0     		b	.L28
 779              	.L29:
 432:.\Generated_Source\PSoC5/SPIS_1_IntClock.c ****     }
 433:.\Generated_Source\PSoC5/SPIS_1_IntClock.c ****     else if (((oldSrc == ((uint8)CYCLK_SRC_SEL_CLK_SYNC_D)) && 
 780              		.loc 1 433 0
 781 0070 7B7B     		ldrb	r3, [r7, #13]	@ zero_extendqisi2
 782 0072 002B     		cmp	r3, #0
 783 0074 27D1     		bne	.L31
 784              		.loc 1 433 0 is_stmt 0 discriminator 1
 785 0076 FB79     		ldrb	r3, [r7, #7]	@ zero_extendqisi2
 786 0078 002B     		cmp	r3, #0
 787 007a 24D0     		beq	.L31
 434:.\Generated_Source\PSoC5/SPIS_1_IntClock.c ****             (clkSource != ((uint8)CYCLK_SRC_SEL_CLK_SYNC_D))) && (currDiv == 0u))
 788              		.loc 1 434 0 is_stmt 1
 789 007c FB89     		ldrh	r3, [r7, #14]
 790 007e 002B     		cmp	r3, #0
 791 0080 21D1     		bne	.L31
 435:.\Generated_Source\PSoC5/SPIS_1_IntClock.c ****     {
 436:.\Generated_Source\PSoC5/SPIS_1_IntClock.c ****         /* Switching from Master to not and divider is 1, set source, so we don't   */
 437:.\Generated_Source\PSoC5/SPIS_1_IntClock.c ****         /* lock when we clear SSS.                                                  */
 438:.\Generated_Source\PSoC5/SPIS_1_IntClock.c ****         SPIS_1_IntClock_MOD_SRC =
 792              		.loc 1 438 0
 793 0082 44F29E03 		movw	r3, #16542
 794 0086 C4F20003 		movt	r3, 16384
 439:.\Generated_Source\PSoC5/SPIS_1_IntClock.c ****             (SPIS_1_IntClock_MOD_SRC & (uint8)(~SPIS_1_IntClock_SRC_SEL_MSK)) | clkSource;
 795              		.loc 1 439 0
 796 008a 44F29E02 		movw	r2, #16542
 797 008e C4F20002 		movt	r2, 16384
 798 0092 1278     		ldrb	r2, [r2, #0]
 799 0094 D2B2     		uxtb	r2, r2
 438:.\Generated_Source\PSoC5/SPIS_1_IntClock.c ****         SPIS_1_IntClock_MOD_SRC =
 800              		.loc 1 438 0
 801 0096 D2B2     		uxtb	r2, r2
 802 0098 22F00702 		bic	r2, r2, #7
 803 009c D1B2     		uxtb	r1, r2
 804 009e FA79     		ldrb	r2, [r7, #7]	@ zero_extendqisi2
 805 00a0 0A43     		orrs	r2, r2, r1
 806 00a2 D2B2     		uxtb	r2, r2
 807 00a4 D2B2     		uxtb	r2, r2
 808 00a6 1A70     		strb	r2, [r3, #0]
 440:.\Generated_Source\PSoC5/SPIS_1_IntClock.c ****         SPIS_1_IntClock_MOD_SRC &= (uint8)(~CYCLK_SSS);
 809              		.loc 1 440 0
 810 00a8 44F29E03 		movw	r3, #16542
ARM GAS  C:\Users\Brian\AppData\Local\Temp\ccYKepjC.s 			page 23


 811 00ac C4F20003 		movt	r3, 16384
 812 00b0 44F29E02 		movw	r2, #16542
 813 00b4 C4F20002 		movt	r2, 16384
 814 00b8 1278     		ldrb	r2, [r2, #0]
 815 00ba D2B2     		uxtb	r2, r2
 816 00bc 22F04002 		bic	r2, r2, #64
 817 00c0 D2B2     		uxtb	r2, r2
 818 00c2 1A70     		strb	r2, [r3, #0]
 819 00c4 12E0     		b	.L28
 820              	.L31:
 441:.\Generated_Source\PSoC5/SPIS_1_IntClock.c ****     }
 442:.\Generated_Source\PSoC5/SPIS_1_IntClock.c ****     else
 443:.\Generated_Source\PSoC5/SPIS_1_IntClock.c ****     {
 444:.\Generated_Source\PSoC5/SPIS_1_IntClock.c ****         SPIS_1_IntClock_MOD_SRC =
 821              		.loc 1 444 0
 822 00c6 44F29E03 		movw	r3, #16542
 823 00ca C4F20003 		movt	r3, 16384
 445:.\Generated_Source\PSoC5/SPIS_1_IntClock.c ****             (SPIS_1_IntClock_MOD_SRC & (uint8)(~SPIS_1_IntClock_SRC_SEL_MSK)) | clkSource;
 824              		.loc 1 445 0
 825 00ce 44F29E02 		movw	r2, #16542
 826 00d2 C4F20002 		movt	r2, 16384
 827 00d6 1278     		ldrb	r2, [r2, #0]
 828 00d8 D2B2     		uxtb	r2, r2
 444:.\Generated_Source\PSoC5/SPIS_1_IntClock.c ****         SPIS_1_IntClock_MOD_SRC =
 829              		.loc 1 444 0
 830 00da D2B2     		uxtb	r2, r2
 831 00dc 22F00702 		bic	r2, r2, #7
 832 00e0 D1B2     		uxtb	r1, r2
 833 00e2 FA79     		ldrb	r2, [r7, #7]	@ zero_extendqisi2
 834 00e4 0A43     		orrs	r2, r2, r1
 835 00e6 D2B2     		uxtb	r2, r2
 836 00e8 D2B2     		uxtb	r2, r2
 837 00ea 1A70     		strb	r2, [r3, #0]
 838              	.L28:
 446:.\Generated_Source\PSoC5/SPIS_1_IntClock.c ****     }
 447:.\Generated_Source\PSoC5/SPIS_1_IntClock.c **** }
 839              		.loc 1 447 0
 840 00ec 07F11007 		add	r7, r7, #16
 841 00f0 BD46     		mov	sp, r7
 842 00f2 80BD     		pop	{r7, pc}
 843              		.cfi_endproc
 844              	.LFE9:
 845              		.size	SPIS_1_IntClock_SetSourceRegister, .-SPIS_1_IntClock_SetSourceRegister
 846              		.section	.text.SPIS_1_IntClock_GetSourceRegister,"ax",%progbits
 847              		.align	2
 848              		.global	SPIS_1_IntClock_GetSourceRegister
 849              		.thumb
 850              		.thumb_func
 851              		.type	SPIS_1_IntClock_GetSourceRegister, %function
 852              	SPIS_1_IntClock_GetSourceRegister:
 853              	.LFB10:
 448:.\Generated_Source\PSoC5/SPIS_1_IntClock.c **** 
 449:.\Generated_Source\PSoC5/SPIS_1_IntClock.c **** 
 450:.\Generated_Source\PSoC5/SPIS_1_IntClock.c **** /*******************************************************************************
 451:.\Generated_Source\PSoC5/SPIS_1_IntClock.c **** * Function Name: SPIS_1_IntClock_GetSourceRegister
 452:.\Generated_Source\PSoC5/SPIS_1_IntClock.c **** ********************************************************************************
 453:.\Generated_Source\PSoC5/SPIS_1_IntClock.c **** *
ARM GAS  C:\Users\Brian\AppData\Local\Temp\ccYKepjC.s 			page 24


 454:.\Generated_Source\PSoC5/SPIS_1_IntClock.c **** * Summary:
 455:.\Generated_Source\PSoC5/SPIS_1_IntClock.c **** *  Gets the input source of the clock.
 456:.\Generated_Source\PSoC5/SPIS_1_IntClock.c **** *
 457:.\Generated_Source\PSoC5/SPIS_1_IntClock.c **** * Parameters:
 458:.\Generated_Source\PSoC5/SPIS_1_IntClock.c **** *  None
 459:.\Generated_Source\PSoC5/SPIS_1_IntClock.c **** *
 460:.\Generated_Source\PSoC5/SPIS_1_IntClock.c **** * Returns:
 461:.\Generated_Source\PSoC5/SPIS_1_IntClock.c **** *  The input source of the clock. See SetSourceRegister for details.
 462:.\Generated_Source\PSoC5/SPIS_1_IntClock.c **** *
 463:.\Generated_Source\PSoC5/SPIS_1_IntClock.c **** *******************************************************************************/
 464:.\Generated_Source\PSoC5/SPIS_1_IntClock.c **** uint8 SPIS_1_IntClock_GetSourceRegister(void) 
 465:.\Generated_Source\PSoC5/SPIS_1_IntClock.c **** {
 854              		.loc 1 465 0
 855              		.cfi_startproc
 856              		@ args = 0, pretend = 0, frame = 0
 857              		@ frame_needed = 1, uses_anonymous_args = 0
 858              		@ link register save eliminated.
 859 0000 80B4     		push	{r7}
 860              	.LCFI26:
 861              		.cfi_def_cfa_offset 4
 862              		.cfi_offset 7, -4
 863 0002 00AF     		add	r7, sp, #0
 864              	.LCFI27:
 865              		.cfi_def_cfa_register 7
 466:.\Generated_Source\PSoC5/SPIS_1_IntClock.c ****     return SPIS_1_IntClock_MOD_SRC & SPIS_1_IntClock_SRC_SEL_MSK;
 866              		.loc 1 466 0
 867 0004 44F29E03 		movw	r3, #16542
 868 0008 C4F20003 		movt	r3, 16384
 869 000c 1B78     		ldrb	r3, [r3, #0]
 870 000e DBB2     		uxtb	r3, r3
 871 0010 03F00703 		and	r3, r3, #7
 872 0014 DBB2     		uxtb	r3, r3
 467:.\Generated_Source\PSoC5/SPIS_1_IntClock.c **** }
 873              		.loc 1 467 0
 874 0016 1846     		mov	r0, r3
 875 0018 BD46     		mov	sp, r7
 876 001a 80BC     		pop	{r7}
 877 001c 7047     		bx	lr
 878              		.cfi_endproc
 879              	.LFE10:
 880              		.size	SPIS_1_IntClock_GetSourceRegister, .-SPIS_1_IntClock_GetSourceRegister
 881 001e 00BF     		.text
 882              	.Letext0:
 883              		.file 2 "./Generated_Source/PSoC5/cytypes.h"