ARM GAS  C:\Users\Brian\AppData\Local\Temp\ccmWfef3.s 			page 1


   1              		.syntax unified
   2              		.cpu cortex-m3
   3              		.fpu softvfp
   4              		.eabi_attribute 20, 1
   5              		.eabi_attribute 21, 1
   6              		.eabi_attribute 23, 3
   7              		.eabi_attribute 24, 1
   8              		.eabi_attribute 25, 1
   9              		.eabi_attribute 26, 1
  10              		.eabi_attribute 30, 6
  11              		.eabi_attribute 34, 1
  12              		.eabi_attribute 18, 4
  13              		.thumb
  14              		.file	"TFTSHIELD_1_SPIM_1_PM.c"
  15              		.text
  16              	.Ltext0:
  17              		.cfi_sections	.debug_frame
  18              		.data
  19              		.align	2
  20              		.type	TFTSHIELD_1_SPIM_1_backup, %object
  21              		.size	TFTSHIELD_1_SPIM_1_backup, 2
  22              	TFTSHIELD_1_SPIM_1_backup:
  23 0000 00       		.byte	0
  24 0001 0F       		.byte	15
  25 0002 0000     		.section	.text.TFTSHIELD_1_SPIM_1_SaveConfig,"ax",%progbits
  26              		.align	2
  27              		.global	TFTSHIELD_1_SPIM_1_SaveConfig
  28              		.thumb
  29              		.thumb_func
  30              		.type	TFTSHIELD_1_SPIM_1_SaveConfig, %function
  31              	TFTSHIELD_1_SPIM_1_SaveConfig:
  32              	.LFB0:
  33              		.file 1 ".\\Generated_Source\\PSoC5\\TFTSHIELD_1_SPIM_1_PM.c"
   1:.\Generated_Source\PSoC5/TFTSHIELD_1_SPIM_1_PM.c **** /*******************************************************************************
   2:.\Generated_Source\PSoC5/TFTSHIELD_1_SPIM_1_PM.c **** * File Name: TFTSHIELD_1_SPIM_1_PM.c
   3:.\Generated_Source\PSoC5/TFTSHIELD_1_SPIM_1_PM.c **** * Version 2.40
   4:.\Generated_Source\PSoC5/TFTSHIELD_1_SPIM_1_PM.c **** *
   5:.\Generated_Source\PSoC5/TFTSHIELD_1_SPIM_1_PM.c **** * Description:
   6:.\Generated_Source\PSoC5/TFTSHIELD_1_SPIM_1_PM.c **** *  This file contains the setup, control and status commands to support
   7:.\Generated_Source\PSoC5/TFTSHIELD_1_SPIM_1_PM.c **** *  component operations in low power mode.
   8:.\Generated_Source\PSoC5/TFTSHIELD_1_SPIM_1_PM.c **** *
   9:.\Generated_Source\PSoC5/TFTSHIELD_1_SPIM_1_PM.c **** * Note:
  10:.\Generated_Source\PSoC5/TFTSHIELD_1_SPIM_1_PM.c **** *
  11:.\Generated_Source\PSoC5/TFTSHIELD_1_SPIM_1_PM.c **** ********************************************************************************
  12:.\Generated_Source\PSoC5/TFTSHIELD_1_SPIM_1_PM.c **** * Copyright 2008-2012, Cypress Semiconductor Corporation.  All rights reserved.
  13:.\Generated_Source\PSoC5/TFTSHIELD_1_SPIM_1_PM.c **** * You may use this file only in accordance with the license, terms, conditions,
  14:.\Generated_Source\PSoC5/TFTSHIELD_1_SPIM_1_PM.c **** * disclaimers, and limitations in the end user license agreement accompanying
  15:.\Generated_Source\PSoC5/TFTSHIELD_1_SPIM_1_PM.c **** * the software package with which this file was provided.
  16:.\Generated_Source\PSoC5/TFTSHIELD_1_SPIM_1_PM.c **** *******************************************************************************/
  17:.\Generated_Source\PSoC5/TFTSHIELD_1_SPIM_1_PM.c **** 
  18:.\Generated_Source\PSoC5/TFTSHIELD_1_SPIM_1_PM.c **** #include "TFTSHIELD_1_SPIM_1_PVT.h"
  19:.\Generated_Source\PSoC5/TFTSHIELD_1_SPIM_1_PM.c **** 
  20:.\Generated_Source\PSoC5/TFTSHIELD_1_SPIM_1_PM.c **** static TFTSHIELD_1_SPIM_1_BACKUP_STRUCT TFTSHIELD_1_SPIM_1_backup =
  21:.\Generated_Source\PSoC5/TFTSHIELD_1_SPIM_1_PM.c **** {
  22:.\Generated_Source\PSoC5/TFTSHIELD_1_SPIM_1_PM.c ****     TFTSHIELD_1_SPIM_1_DISABLED,
  23:.\Generated_Source\PSoC5/TFTSHIELD_1_SPIM_1_PM.c ****     TFTSHIELD_1_SPIM_1_BITCTR_INIT,
  24:.\Generated_Source\PSoC5/TFTSHIELD_1_SPIM_1_PM.c ****     #if(CY_UDB_V0)
ARM GAS  C:\Users\Brian\AppData\Local\Temp\ccmWfef3.s 			page 2


  25:.\Generated_Source\PSoC5/TFTSHIELD_1_SPIM_1_PM.c ****         TFTSHIELD_1_SPIM_1_TX_INIT_INTERRUPTS_MASK,
  26:.\Generated_Source\PSoC5/TFTSHIELD_1_SPIM_1_PM.c ****         TFTSHIELD_1_SPIM_1_RX_INIT_INTERRUPTS_MASK
  27:.\Generated_Source\PSoC5/TFTSHIELD_1_SPIM_1_PM.c ****     #endif /* CY_UDB_V0 */
  28:.\Generated_Source\PSoC5/TFTSHIELD_1_SPIM_1_PM.c **** };
  29:.\Generated_Source\PSoC5/TFTSHIELD_1_SPIM_1_PM.c **** 
  30:.\Generated_Source\PSoC5/TFTSHIELD_1_SPIM_1_PM.c **** 
  31:.\Generated_Source\PSoC5/TFTSHIELD_1_SPIM_1_PM.c **** /*******************************************************************************
  32:.\Generated_Source\PSoC5/TFTSHIELD_1_SPIM_1_PM.c **** * Function Name: TFTSHIELD_1_SPIM_1_SaveConfig
  33:.\Generated_Source\PSoC5/TFTSHIELD_1_SPIM_1_PM.c **** ********************************************************************************
  34:.\Generated_Source\PSoC5/TFTSHIELD_1_SPIM_1_PM.c **** *
  35:.\Generated_Source\PSoC5/TFTSHIELD_1_SPIM_1_PM.c **** * Summary:
  36:.\Generated_Source\PSoC5/TFTSHIELD_1_SPIM_1_PM.c **** *  Saves SPIM configuration.
  37:.\Generated_Source\PSoC5/TFTSHIELD_1_SPIM_1_PM.c **** *
  38:.\Generated_Source\PSoC5/TFTSHIELD_1_SPIM_1_PM.c **** * Parameters:
  39:.\Generated_Source\PSoC5/TFTSHIELD_1_SPIM_1_PM.c **** *  None.
  40:.\Generated_Source\PSoC5/TFTSHIELD_1_SPIM_1_PM.c **** *
  41:.\Generated_Source\PSoC5/TFTSHIELD_1_SPIM_1_PM.c **** * Return:
  42:.\Generated_Source\PSoC5/TFTSHIELD_1_SPIM_1_PM.c **** *  None.
  43:.\Generated_Source\PSoC5/TFTSHIELD_1_SPIM_1_PM.c **** *
  44:.\Generated_Source\PSoC5/TFTSHIELD_1_SPIM_1_PM.c **** * Global Variables:
  45:.\Generated_Source\PSoC5/TFTSHIELD_1_SPIM_1_PM.c **** *  TFTSHIELD_1_SPIM_1_backup - modified when non-retention registers are saved.
  46:.\Generated_Source\PSoC5/TFTSHIELD_1_SPIM_1_PM.c **** *
  47:.\Generated_Source\PSoC5/TFTSHIELD_1_SPIM_1_PM.c **** * Reentrant:
  48:.\Generated_Source\PSoC5/TFTSHIELD_1_SPIM_1_PM.c **** *  No.
  49:.\Generated_Source\PSoC5/TFTSHIELD_1_SPIM_1_PM.c **** *
  50:.\Generated_Source\PSoC5/TFTSHIELD_1_SPIM_1_PM.c **** *******************************************************************************/
  51:.\Generated_Source\PSoC5/TFTSHIELD_1_SPIM_1_PM.c **** void TFTSHIELD_1_SPIM_1_SaveConfig(void) 
  52:.\Generated_Source\PSoC5/TFTSHIELD_1_SPIM_1_PM.c **** {
  34              		.loc 1 52 0
  35              		.cfi_startproc
  36              		@ args = 0, pretend = 0, frame = 0
  37              		@ frame_needed = 1, uses_anonymous_args = 0
  38              		@ link register save eliminated.
  39 0000 80B4     		push	{r7}
  40              	.LCFI0:
  41              		.cfi_def_cfa_offset 4
  42              		.cfi_offset 7, -4
  43 0002 00AF     		add	r7, sp, #0
  44              	.LCFI1:
  45              		.cfi_def_cfa_register 7
  53:.\Generated_Source\PSoC5/TFTSHIELD_1_SPIM_1_PM.c ****     /* Store Status Mask registers */
  54:.\Generated_Source\PSoC5/TFTSHIELD_1_SPIM_1_PM.c ****     #if(CY_UDB_V0)
  55:.\Generated_Source\PSoC5/TFTSHIELD_1_SPIM_1_PM.c ****        TFTSHIELD_1_SPIM_1_backup.cntrPeriod      = TFTSHIELD_1_SPIM_1_COUNTER_PERIOD_REG;
  56:.\Generated_Source\PSoC5/TFTSHIELD_1_SPIM_1_PM.c ****        TFTSHIELD_1_SPIM_1_backup.saveSrTxIntMask = TFTSHIELD_1_SPIM_1_TX_STATUS_MASK_REG;
  57:.\Generated_Source\PSoC5/TFTSHIELD_1_SPIM_1_PM.c ****        TFTSHIELD_1_SPIM_1_backup.saveSrRxIntMask = TFTSHIELD_1_SPIM_1_RX_STATUS_MASK_REG;
  58:.\Generated_Source\PSoC5/TFTSHIELD_1_SPIM_1_PM.c ****     #endif /* (CY_UDB_V0) */
  59:.\Generated_Source\PSoC5/TFTSHIELD_1_SPIM_1_PM.c **** }
  46              		.loc 1 59 0
  47 0004 BD46     		mov	sp, r7
  48 0006 80BC     		pop	{r7}
  49 0008 7047     		bx	lr
  50              		.cfi_endproc
  51              	.LFE0:
  52              		.size	TFTSHIELD_1_SPIM_1_SaveConfig, .-TFTSHIELD_1_SPIM_1_SaveConfig
  53 000a 00BF     		.section	.text.TFTSHIELD_1_SPIM_1_RestoreConfig,"ax",%progbits
  54              		.align	2
  55              		.global	TFTSHIELD_1_SPIM_1_RestoreConfig
ARM GAS  C:\Users\Brian\AppData\Local\Temp\ccmWfef3.s 			page 3


  56              		.thumb
  57              		.thumb_func
  58              		.type	TFTSHIELD_1_SPIM_1_RestoreConfig, %function
  59              	TFTSHIELD_1_SPIM_1_RestoreConfig:
  60              	.LFB1:
  60:.\Generated_Source\PSoC5/TFTSHIELD_1_SPIM_1_PM.c **** 
  61:.\Generated_Source\PSoC5/TFTSHIELD_1_SPIM_1_PM.c **** 
  62:.\Generated_Source\PSoC5/TFTSHIELD_1_SPIM_1_PM.c **** /*******************************************************************************
  63:.\Generated_Source\PSoC5/TFTSHIELD_1_SPIM_1_PM.c **** * Function Name: TFTSHIELD_1_SPIM_1_RestoreConfig
  64:.\Generated_Source\PSoC5/TFTSHIELD_1_SPIM_1_PM.c **** ********************************************************************************
  65:.\Generated_Source\PSoC5/TFTSHIELD_1_SPIM_1_PM.c **** *
  66:.\Generated_Source\PSoC5/TFTSHIELD_1_SPIM_1_PM.c **** * Summary:
  67:.\Generated_Source\PSoC5/TFTSHIELD_1_SPIM_1_PM.c **** *  Restores SPIM configuration.
  68:.\Generated_Source\PSoC5/TFTSHIELD_1_SPIM_1_PM.c **** *
  69:.\Generated_Source\PSoC5/TFTSHIELD_1_SPIM_1_PM.c **** * Parameters:
  70:.\Generated_Source\PSoC5/TFTSHIELD_1_SPIM_1_PM.c **** *  None.
  71:.\Generated_Source\PSoC5/TFTSHIELD_1_SPIM_1_PM.c **** *
  72:.\Generated_Source\PSoC5/TFTSHIELD_1_SPIM_1_PM.c **** * Return:
  73:.\Generated_Source\PSoC5/TFTSHIELD_1_SPIM_1_PM.c **** *  None.
  74:.\Generated_Source\PSoC5/TFTSHIELD_1_SPIM_1_PM.c **** *
  75:.\Generated_Source\PSoC5/TFTSHIELD_1_SPIM_1_PM.c **** * Global Variables:
  76:.\Generated_Source\PSoC5/TFTSHIELD_1_SPIM_1_PM.c **** *  TFTSHIELD_1_SPIM_1_backup - used when non-retention registers are restored.
  77:.\Generated_Source\PSoC5/TFTSHIELD_1_SPIM_1_PM.c **** *
  78:.\Generated_Source\PSoC5/TFTSHIELD_1_SPIM_1_PM.c **** * Side Effects:
  79:.\Generated_Source\PSoC5/TFTSHIELD_1_SPIM_1_PM.c **** *  If this API is called without first calling SaveConfig then in the following
  80:.\Generated_Source\PSoC5/TFTSHIELD_1_SPIM_1_PM.c **** *  registers will be default values from Customizer:
  81:.\Generated_Source\PSoC5/TFTSHIELD_1_SPIM_1_PM.c **** *  TFTSHIELD_1_SPIM_1_STATUS_MASK_REG and TFTSHIELD_1_SPIM_1_COUNTER_PERIOD_REG.
  82:.\Generated_Source\PSoC5/TFTSHIELD_1_SPIM_1_PM.c **** *
  83:.\Generated_Source\PSoC5/TFTSHIELD_1_SPIM_1_PM.c **** *******************************************************************************/
  84:.\Generated_Source\PSoC5/TFTSHIELD_1_SPIM_1_PM.c **** void TFTSHIELD_1_SPIM_1_RestoreConfig(void) 
  85:.\Generated_Source\PSoC5/TFTSHIELD_1_SPIM_1_PM.c **** {
  61              		.loc 1 85 0
  62              		.cfi_startproc
  63              		@ args = 0, pretend = 0, frame = 0
  64              		@ frame_needed = 1, uses_anonymous_args = 0
  65              		@ link register save eliminated.
  66 0000 80B4     		push	{r7}
  67              	.LCFI2:
  68              		.cfi_def_cfa_offset 4
  69              		.cfi_offset 7, -4
  70 0002 00AF     		add	r7, sp, #0
  71              	.LCFI3:
  72              		.cfi_def_cfa_register 7
  86:.\Generated_Source\PSoC5/TFTSHIELD_1_SPIM_1_PM.c ****     /* Restore the data, saved by SaveConfig() function */
  87:.\Generated_Source\PSoC5/TFTSHIELD_1_SPIM_1_PM.c ****     #if(CY_UDB_V0)
  88:.\Generated_Source\PSoC5/TFTSHIELD_1_SPIM_1_PM.c ****         TFTSHIELD_1_SPIM_1_COUNTER_PERIOD_REG = TFTSHIELD_1_SPIM_1_backup.cntrPeriod;
  89:.\Generated_Source\PSoC5/TFTSHIELD_1_SPIM_1_PM.c ****         TFTSHIELD_1_SPIM_1_TX_STATUS_MASK_REG = ((uint8) TFTSHIELD_1_SPIM_1_backup.saveSrTxIntMask)
  90:.\Generated_Source\PSoC5/TFTSHIELD_1_SPIM_1_PM.c ****         TFTSHIELD_1_SPIM_1_RX_STATUS_MASK_REG = ((uint8) TFTSHIELD_1_SPIM_1_backup.saveSrRxIntMask)
  91:.\Generated_Source\PSoC5/TFTSHIELD_1_SPIM_1_PM.c ****     #endif /* (CY_UDB_V0) */
  92:.\Generated_Source\PSoC5/TFTSHIELD_1_SPIM_1_PM.c **** }
  73              		.loc 1 92 0
  74 0004 BD46     		mov	sp, r7
  75 0006 80BC     		pop	{r7}
  76 0008 7047     		bx	lr
  77              		.cfi_endproc
  78              	.LFE1:
  79              		.size	TFTSHIELD_1_SPIM_1_RestoreConfig, .-TFTSHIELD_1_SPIM_1_RestoreConfig
ARM GAS  C:\Users\Brian\AppData\Local\Temp\ccmWfef3.s 			page 4


  80 000a 00BF     		.section	.text.TFTSHIELD_1_SPIM_1_Sleep,"ax",%progbits
  81              		.align	2
  82              		.global	TFTSHIELD_1_SPIM_1_Sleep
  83              		.thumb
  84              		.thumb_func
  85              		.type	TFTSHIELD_1_SPIM_1_Sleep, %function
  86              	TFTSHIELD_1_SPIM_1_Sleep:
  87              	.LFB2:
  93:.\Generated_Source\PSoC5/TFTSHIELD_1_SPIM_1_PM.c **** 
  94:.\Generated_Source\PSoC5/TFTSHIELD_1_SPIM_1_PM.c **** 
  95:.\Generated_Source\PSoC5/TFTSHIELD_1_SPIM_1_PM.c **** /*******************************************************************************
  96:.\Generated_Source\PSoC5/TFTSHIELD_1_SPIM_1_PM.c **** * Function Name: TFTSHIELD_1_SPIM_1_Sleep
  97:.\Generated_Source\PSoC5/TFTSHIELD_1_SPIM_1_PM.c **** ********************************************************************************
  98:.\Generated_Source\PSoC5/TFTSHIELD_1_SPIM_1_PM.c **** *
  99:.\Generated_Source\PSoC5/TFTSHIELD_1_SPIM_1_PM.c **** * Summary:
 100:.\Generated_Source\PSoC5/TFTSHIELD_1_SPIM_1_PM.c **** *  Prepare SPIM Component goes to sleep.
 101:.\Generated_Source\PSoC5/TFTSHIELD_1_SPIM_1_PM.c **** *
 102:.\Generated_Source\PSoC5/TFTSHIELD_1_SPIM_1_PM.c **** * Parameters:
 103:.\Generated_Source\PSoC5/TFTSHIELD_1_SPIM_1_PM.c **** *  None.
 104:.\Generated_Source\PSoC5/TFTSHIELD_1_SPIM_1_PM.c **** *
 105:.\Generated_Source\PSoC5/TFTSHIELD_1_SPIM_1_PM.c **** * Return:
 106:.\Generated_Source\PSoC5/TFTSHIELD_1_SPIM_1_PM.c **** *  None.
 107:.\Generated_Source\PSoC5/TFTSHIELD_1_SPIM_1_PM.c **** *
 108:.\Generated_Source\PSoC5/TFTSHIELD_1_SPIM_1_PM.c **** * Global Variables:
 109:.\Generated_Source\PSoC5/TFTSHIELD_1_SPIM_1_PM.c **** *  TFTSHIELD_1_SPIM_1_backup - modified when non-retention registers are saved.
 110:.\Generated_Source\PSoC5/TFTSHIELD_1_SPIM_1_PM.c **** *
 111:.\Generated_Source\PSoC5/TFTSHIELD_1_SPIM_1_PM.c **** * Reentrant:
 112:.\Generated_Source\PSoC5/TFTSHIELD_1_SPIM_1_PM.c **** *  No.
 113:.\Generated_Source\PSoC5/TFTSHIELD_1_SPIM_1_PM.c **** *
 114:.\Generated_Source\PSoC5/TFTSHIELD_1_SPIM_1_PM.c **** *******************************************************************************/
 115:.\Generated_Source\PSoC5/TFTSHIELD_1_SPIM_1_PM.c **** void TFTSHIELD_1_SPIM_1_Sleep(void) 
 116:.\Generated_Source\PSoC5/TFTSHIELD_1_SPIM_1_PM.c **** {
  88              		.loc 1 116 0
  89              		.cfi_startproc
  90              		@ args = 0, pretend = 0, frame = 0
  91              		@ frame_needed = 1, uses_anonymous_args = 0
  92 0000 80B5     		push	{r7, lr}
  93              	.LCFI4:
  94              		.cfi_def_cfa_offset 8
  95              		.cfi_offset 7, -8
  96              		.cfi_offset 14, -4
  97 0002 00AF     		add	r7, sp, #0
  98              	.LCFI5:
  99              		.cfi_def_cfa_register 7
 117:.\Generated_Source\PSoC5/TFTSHIELD_1_SPIM_1_PM.c ****     /* Save components enable state */
 118:.\Generated_Source\PSoC5/TFTSHIELD_1_SPIM_1_PM.c ****     TFTSHIELD_1_SPIM_1_backup.enableState = ((uint8) TFTSHIELD_1_SPIM_1_IS_ENABLED);
 100              		.loc 1 118 0
 101 0004 46F29E43 		movw	r3, #25758
 102 0008 C4F20003 		movt	r3, 16384
 103 000c 1B78     		ldrb	r3, [r3, #0]
 104 000e DBB2     		uxtb	r3, r3
 105 0010 03F01003 		and	r3, r3, #16
 106 0014 002B     		cmp	r3, #0
 107 0016 0CBF     		ite	eq
 108 0018 0023     		moveq	r3, #0
 109 001a 0123     		movne	r3, #1
 110 001c DBB2     		uxtb	r3, r3
ARM GAS  C:\Users\Brian\AppData\Local\Temp\ccmWfef3.s 			page 5


 111 001e 1A46     		mov	r2, r3
 112 0020 40F20003 		movw	r3, #:lower16:TFTSHIELD_1_SPIM_1_backup
 113 0024 C0F20003 		movt	r3, #:upper16:TFTSHIELD_1_SPIM_1_backup
 114 0028 1A70     		strb	r2, [r3, #0]
 119:.\Generated_Source\PSoC5/TFTSHIELD_1_SPIM_1_PM.c **** 
 120:.\Generated_Source\PSoC5/TFTSHIELD_1_SPIM_1_PM.c ****     TFTSHIELD_1_SPIM_1_Stop();
 115              		.loc 1 120 0
 116 002a FFF7FEFF 		bl	TFTSHIELD_1_SPIM_1_Stop
 121:.\Generated_Source\PSoC5/TFTSHIELD_1_SPIM_1_PM.c ****     TFTSHIELD_1_SPIM_1_SaveConfig();
 117              		.loc 1 121 0
 118 002e FFF7FEFF 		bl	TFTSHIELD_1_SPIM_1_SaveConfig
 122:.\Generated_Source\PSoC5/TFTSHIELD_1_SPIM_1_PM.c **** }
 119              		.loc 1 122 0
 120 0032 80BD     		pop	{r7, pc}
 121              		.cfi_endproc
 122              	.LFE2:
 123              		.size	TFTSHIELD_1_SPIM_1_Sleep, .-TFTSHIELD_1_SPIM_1_Sleep
 124              		.section	.text.TFTSHIELD_1_SPIM_1_Wakeup,"ax",%progbits
 125              		.align	2
 126              		.global	TFTSHIELD_1_SPIM_1_Wakeup
 127              		.thumb
 128              		.thumb_func
 129              		.type	TFTSHIELD_1_SPIM_1_Wakeup, %function
 130              	TFTSHIELD_1_SPIM_1_Wakeup:
 131              	.LFB3:
 123:.\Generated_Source\PSoC5/TFTSHIELD_1_SPIM_1_PM.c **** 
 124:.\Generated_Source\PSoC5/TFTSHIELD_1_SPIM_1_PM.c **** 
 125:.\Generated_Source\PSoC5/TFTSHIELD_1_SPIM_1_PM.c **** /*******************************************************************************
 126:.\Generated_Source\PSoC5/TFTSHIELD_1_SPIM_1_PM.c **** * Function Name: TFTSHIELD_1_SPIM_1_Wakeup
 127:.\Generated_Source\PSoC5/TFTSHIELD_1_SPIM_1_PM.c **** ********************************************************************************
 128:.\Generated_Source\PSoC5/TFTSHIELD_1_SPIM_1_PM.c **** *
 129:.\Generated_Source\PSoC5/TFTSHIELD_1_SPIM_1_PM.c **** * Summary:
 130:.\Generated_Source\PSoC5/TFTSHIELD_1_SPIM_1_PM.c **** *  Prepare SPIM Component to wake up.
 131:.\Generated_Source\PSoC5/TFTSHIELD_1_SPIM_1_PM.c **** *
 132:.\Generated_Source\PSoC5/TFTSHIELD_1_SPIM_1_PM.c **** * Parameters:
 133:.\Generated_Source\PSoC5/TFTSHIELD_1_SPIM_1_PM.c **** *  None.
 134:.\Generated_Source\PSoC5/TFTSHIELD_1_SPIM_1_PM.c **** *
 135:.\Generated_Source\PSoC5/TFTSHIELD_1_SPIM_1_PM.c **** * Return:
 136:.\Generated_Source\PSoC5/TFTSHIELD_1_SPIM_1_PM.c **** *  None.
 137:.\Generated_Source\PSoC5/TFTSHIELD_1_SPIM_1_PM.c **** *
 138:.\Generated_Source\PSoC5/TFTSHIELD_1_SPIM_1_PM.c **** * Global Variables:
 139:.\Generated_Source\PSoC5/TFTSHIELD_1_SPIM_1_PM.c **** *  TFTSHIELD_1_SPIM_1_backup - used when non-retention registers are restored.
 140:.\Generated_Source\PSoC5/TFTSHIELD_1_SPIM_1_PM.c **** *  TFTSHIELD_1_SPIM_1_txBufferWrite - modified every function call - resets to
 141:.\Generated_Source\PSoC5/TFTSHIELD_1_SPIM_1_PM.c **** *  zero.
 142:.\Generated_Source\PSoC5/TFTSHIELD_1_SPIM_1_PM.c **** *  TFTSHIELD_1_SPIM_1_txBufferRead - modified every function call - resets to
 143:.\Generated_Source\PSoC5/TFTSHIELD_1_SPIM_1_PM.c **** *  zero.
 144:.\Generated_Source\PSoC5/TFTSHIELD_1_SPIM_1_PM.c **** *  TFTSHIELD_1_SPIM_1_rxBufferWrite - modified every function call - resets to
 145:.\Generated_Source\PSoC5/TFTSHIELD_1_SPIM_1_PM.c **** *  zero.
 146:.\Generated_Source\PSoC5/TFTSHIELD_1_SPIM_1_PM.c **** *  TFTSHIELD_1_SPIM_1_rxBufferRead - modified every function call - resets to
 147:.\Generated_Source\PSoC5/TFTSHIELD_1_SPIM_1_PM.c **** *  zero.
 148:.\Generated_Source\PSoC5/TFTSHIELD_1_SPIM_1_PM.c **** *
 149:.\Generated_Source\PSoC5/TFTSHIELD_1_SPIM_1_PM.c **** * Reentrant:
 150:.\Generated_Source\PSoC5/TFTSHIELD_1_SPIM_1_PM.c **** *  No.
 151:.\Generated_Source\PSoC5/TFTSHIELD_1_SPIM_1_PM.c **** *
 152:.\Generated_Source\PSoC5/TFTSHIELD_1_SPIM_1_PM.c **** *******************************************************************************/
 153:.\Generated_Source\PSoC5/TFTSHIELD_1_SPIM_1_PM.c **** void TFTSHIELD_1_SPIM_1_Wakeup(void) 
 154:.\Generated_Source\PSoC5/TFTSHIELD_1_SPIM_1_PM.c **** {
ARM GAS  C:\Users\Brian\AppData\Local\Temp\ccmWfef3.s 			page 6


 132              		.loc 1 154 0
 133              		.cfi_startproc
 134              		@ args = 0, pretend = 0, frame = 0
 135              		@ frame_needed = 1, uses_anonymous_args = 0
 136 0000 80B5     		push	{r7, lr}
 137              	.LCFI6:
 138              		.cfi_def_cfa_offset 8
 139              		.cfi_offset 7, -8
 140              		.cfi_offset 14, -4
 141 0002 00AF     		add	r7, sp, #0
 142              	.LCFI7:
 143              		.cfi_def_cfa_register 7
 155:.\Generated_Source\PSoC5/TFTSHIELD_1_SPIM_1_PM.c ****     TFTSHIELD_1_SPIM_1_RestoreConfig();
 144              		.loc 1 155 0
 145 0004 FFF7FEFF 		bl	TFTSHIELD_1_SPIM_1_RestoreConfig
 156:.\Generated_Source\PSoC5/TFTSHIELD_1_SPIM_1_PM.c **** 
 157:.\Generated_Source\PSoC5/TFTSHIELD_1_SPIM_1_PM.c ****     #if(TFTSHIELD_1_SPIM_1_RX_SOFTWARE_BUF_ENABLED)
 158:.\Generated_Source\PSoC5/TFTSHIELD_1_SPIM_1_PM.c ****         TFTSHIELD_1_SPIM_1_rxBufferFull  = 0u;
 159:.\Generated_Source\PSoC5/TFTSHIELD_1_SPIM_1_PM.c ****         TFTSHIELD_1_SPIM_1_rxBufferRead  = 0u;
 160:.\Generated_Source\PSoC5/TFTSHIELD_1_SPIM_1_PM.c ****         TFTSHIELD_1_SPIM_1_rxBufferWrite = 0u;
 161:.\Generated_Source\PSoC5/TFTSHIELD_1_SPIM_1_PM.c ****     #endif /* (TFTSHIELD_1_SPIM_1_RX_SOFTWARE_BUF_ENABLED) */
 162:.\Generated_Source\PSoC5/TFTSHIELD_1_SPIM_1_PM.c **** 
 163:.\Generated_Source\PSoC5/TFTSHIELD_1_SPIM_1_PM.c ****     #if(TFTSHIELD_1_SPIM_1_TX_SOFTWARE_BUF_ENABLED)
 164:.\Generated_Source\PSoC5/TFTSHIELD_1_SPIM_1_PM.c ****         TFTSHIELD_1_SPIM_1_txBufferFull  = 0u;
 165:.\Generated_Source\PSoC5/TFTSHIELD_1_SPIM_1_PM.c ****         TFTSHIELD_1_SPIM_1_txBufferRead  = 0u;
 166:.\Generated_Source\PSoC5/TFTSHIELD_1_SPIM_1_PM.c ****         TFTSHIELD_1_SPIM_1_txBufferWrite = 0u;
 167:.\Generated_Source\PSoC5/TFTSHIELD_1_SPIM_1_PM.c ****     #endif /* (TFTSHIELD_1_SPIM_1_TX_SOFTWARE_BUF_ENABLED) */
 168:.\Generated_Source\PSoC5/TFTSHIELD_1_SPIM_1_PM.c **** 
 169:.\Generated_Source\PSoC5/TFTSHIELD_1_SPIM_1_PM.c ****     /* Clear any data from the RX and TX FIFO */
 170:.\Generated_Source\PSoC5/TFTSHIELD_1_SPIM_1_PM.c ****     TFTSHIELD_1_SPIM_1_ClearFIFO();
 146              		.loc 1 170 0
 147 0008 FFF7FEFF 		bl	TFTSHIELD_1_SPIM_1_ClearFIFO
 171:.\Generated_Source\PSoC5/TFTSHIELD_1_SPIM_1_PM.c **** 
 172:.\Generated_Source\PSoC5/TFTSHIELD_1_SPIM_1_PM.c ****     /* Restore components block enable state */
 173:.\Generated_Source\PSoC5/TFTSHIELD_1_SPIM_1_PM.c ****     if(0u != TFTSHIELD_1_SPIM_1_backup.enableState)
 148              		.loc 1 173 0
 149 000c 40F20003 		movw	r3, #:lower16:TFTSHIELD_1_SPIM_1_backup
 150 0010 C0F20003 		movt	r3, #:upper16:TFTSHIELD_1_SPIM_1_backup
 151 0014 1B78     		ldrb	r3, [r3, #0]	@ zero_extendqisi2
 152 0016 002B     		cmp	r3, #0
 153 0018 01D0     		beq	.L4
 174:.\Generated_Source\PSoC5/TFTSHIELD_1_SPIM_1_PM.c ****     {
 175:.\Generated_Source\PSoC5/TFTSHIELD_1_SPIM_1_PM.c ****         TFTSHIELD_1_SPIM_1_Enable();
 154              		.loc 1 175 0
 155 001a FFF7FEFF 		bl	TFTSHIELD_1_SPIM_1_Enable
 156              	.L4:
 176:.\Generated_Source\PSoC5/TFTSHIELD_1_SPIM_1_PM.c ****     }
 177:.\Generated_Source\PSoC5/TFTSHIELD_1_SPIM_1_PM.c **** }
 157              		.loc 1 177 0
 158 001e 80BD     		pop	{r7, pc}
 159              		.cfi_endproc
 160              	.LFE3:
 161              		.size	TFTSHIELD_1_SPIM_1_Wakeup, .-TFTSHIELD_1_SPIM_1_Wakeup
 162              		.text
 163              	.Letext0:
 164              		.file 2 ".\\Generated_Source\\PSoC5\\cytypes.h"
 165              		.file 3 ".\\Generated_Source\\PSoC5\\TFTSHIELD_1_SPIM_1.h"
ARM GAS  C:\Users\Brian\AppData\Local\Temp\ccmWfef3.s 			page 7

