ARM GAS  C:\Users\Brian\AppData\Local\Temp\ccXKxAlv.s 			page 1


   1              		.syntax unified
   2              		.cpu cortex-m3
   3              		.fpu softvfp
   4              		.eabi_attribute 20, 1
   5              		.eabi_attribute 21, 1
   6              		.eabi_attribute 23, 3
   7              		.eabi_attribute 24, 1
   8              		.eabi_attribute 25, 1
   9              		.eabi_attribute 26, 1
  10              		.eabi_attribute 30, 6
  11              		.eabi_attribute 34, 1
  12              		.eabi_attribute 18, 4
  13              		.thumb
  14              		.file	"VDAC8_2.c"
  15              		.text
  16              	.Ltext0:
  17              		.cfi_sections	.debug_frame
  18              		.global	VDAC8_2_initVar
  19              		.bss
  20              		.type	VDAC8_2_initVar, %object
  21              		.size	VDAC8_2_initVar, 1
  22              	VDAC8_2_initVar:
  23 0000 00       		.space	1
  24              		.section	.text.VDAC8_2_Init,"ax",%progbits
  25              		.align	2
  26              		.global	VDAC8_2_Init
  27              		.thumb
  28              		.thumb_func
  29              		.type	VDAC8_2_Init, %function
  30              	VDAC8_2_Init:
  31              	.LFB0:
  32              		.file 1 ".\\Generated_Source\\PSoC5\\VDAC8_2.c"
   1:.\Generated_Source\PSoC5/VDAC8_2.c **** /*******************************************************************************
   2:.\Generated_Source\PSoC5/VDAC8_2.c **** * File Name: VDAC8_2.c  
   3:.\Generated_Source\PSoC5/VDAC8_2.c **** * Version 1.90
   4:.\Generated_Source\PSoC5/VDAC8_2.c **** *
   5:.\Generated_Source\PSoC5/VDAC8_2.c **** * Description:
   6:.\Generated_Source\PSoC5/VDAC8_2.c **** *  This file provides the source code to the API for the 8-bit Voltage DAC 
   7:.\Generated_Source\PSoC5/VDAC8_2.c **** *  (VDAC8) User Module.
   8:.\Generated_Source\PSoC5/VDAC8_2.c **** *
   9:.\Generated_Source\PSoC5/VDAC8_2.c **** * Note:
  10:.\Generated_Source\PSoC5/VDAC8_2.c **** *  Any unusual or non-standard behavior should be noted here. Other-
  11:.\Generated_Source\PSoC5/VDAC8_2.c **** *  wise, this section should remain blank.
  12:.\Generated_Source\PSoC5/VDAC8_2.c **** *
  13:.\Generated_Source\PSoC5/VDAC8_2.c **** ********************************************************************************
  14:.\Generated_Source\PSoC5/VDAC8_2.c **** * Copyright 2008-2012, Cypress Semiconductor Corporation.  All rights reserved.
  15:.\Generated_Source\PSoC5/VDAC8_2.c **** * You may use this file only in accordance with the license, terms, conditions, 
  16:.\Generated_Source\PSoC5/VDAC8_2.c **** * disclaimers, and limitations in the end user license agreement accompanying 
  17:.\Generated_Source\PSoC5/VDAC8_2.c **** * the software package with which this file was provided.
  18:.\Generated_Source\PSoC5/VDAC8_2.c **** *******************************************************************************/
  19:.\Generated_Source\PSoC5/VDAC8_2.c **** 
  20:.\Generated_Source\PSoC5/VDAC8_2.c **** #include "cytypes.h"
  21:.\Generated_Source\PSoC5/VDAC8_2.c **** #include "VDAC8_2.h"
  22:.\Generated_Source\PSoC5/VDAC8_2.c **** 
  23:.\Generated_Source\PSoC5/VDAC8_2.c **** #if (CY_PSOC5A)
  24:.\Generated_Source\PSoC5/VDAC8_2.c **** #include <CyLib.h>
  25:.\Generated_Source\PSoC5/VDAC8_2.c **** #endif /* CY_PSOC5A */
ARM GAS  C:\Users\Brian\AppData\Local\Temp\ccXKxAlv.s 			page 2


  26:.\Generated_Source\PSoC5/VDAC8_2.c **** 
  27:.\Generated_Source\PSoC5/VDAC8_2.c **** uint8 VDAC8_2_initVar = 0u;
  28:.\Generated_Source\PSoC5/VDAC8_2.c **** 
  29:.\Generated_Source\PSoC5/VDAC8_2.c **** #if (CY_PSOC5A)
  30:.\Generated_Source\PSoC5/VDAC8_2.c ****     static uint8 VDAC8_2_restoreVal = 0u;
  31:.\Generated_Source\PSoC5/VDAC8_2.c **** #endif /* CY_PSOC5A */
  32:.\Generated_Source\PSoC5/VDAC8_2.c **** 
  33:.\Generated_Source\PSoC5/VDAC8_2.c **** #if (CY_PSOC5A)
  34:.\Generated_Source\PSoC5/VDAC8_2.c ****     static VDAC8_2_backupStruct VDAC8_2_backup;
  35:.\Generated_Source\PSoC5/VDAC8_2.c **** #endif /* CY_PSOC5A */
  36:.\Generated_Source\PSoC5/VDAC8_2.c **** 
  37:.\Generated_Source\PSoC5/VDAC8_2.c **** 
  38:.\Generated_Source\PSoC5/VDAC8_2.c **** /*******************************************************************************
  39:.\Generated_Source\PSoC5/VDAC8_2.c **** * Function Name: VDAC8_2_Init
  40:.\Generated_Source\PSoC5/VDAC8_2.c **** ********************************************************************************
  41:.\Generated_Source\PSoC5/VDAC8_2.c **** * Summary:
  42:.\Generated_Source\PSoC5/VDAC8_2.c **** *  Initialize to the schematic state.
  43:.\Generated_Source\PSoC5/VDAC8_2.c **** * 
  44:.\Generated_Source\PSoC5/VDAC8_2.c **** * Parameters:
  45:.\Generated_Source\PSoC5/VDAC8_2.c **** *  void:
  46:.\Generated_Source\PSoC5/VDAC8_2.c **** *
  47:.\Generated_Source\PSoC5/VDAC8_2.c **** * Return:
  48:.\Generated_Source\PSoC5/VDAC8_2.c **** *  void
  49:.\Generated_Source\PSoC5/VDAC8_2.c **** *
  50:.\Generated_Source\PSoC5/VDAC8_2.c **** * Theory:
  51:.\Generated_Source\PSoC5/VDAC8_2.c **** *
  52:.\Generated_Source\PSoC5/VDAC8_2.c **** * Side Effects:
  53:.\Generated_Source\PSoC5/VDAC8_2.c **** *
  54:.\Generated_Source\PSoC5/VDAC8_2.c **** *******************************************************************************/
  55:.\Generated_Source\PSoC5/VDAC8_2.c **** void VDAC8_2_Init(void) 
  56:.\Generated_Source\PSoC5/VDAC8_2.c **** {
  33              		.loc 1 56 0
  34              		.cfi_startproc
  35              		@ args = 0, pretend = 0, frame = 0
  36              		@ frame_needed = 1, uses_anonymous_args = 0
  37 0000 80B5     		push	{r7, lr}
  38              	.LCFI0:
  39              		.cfi_def_cfa_offset 8
  40              		.cfi_offset 7, -8
  41              		.cfi_offset 14, -4
  42 0002 00AF     		add	r7, sp, #0
  43              	.LCFI1:
  44              		.cfi_def_cfa_register 7
  57:.\Generated_Source\PSoC5/VDAC8_2.c ****     VDAC8_2_CR0 = (VDAC8_2_MODE_V );
  45              		.loc 1 57 0
  46 0004 45F62403 		movw	r3, #22564
  47 0008 C4F20003 		movt	r3, 16384
  48 000c 4FF00002 		mov	r2, #0
  49 0010 1A70     		strb	r2, [r3, #0]
  58:.\Generated_Source\PSoC5/VDAC8_2.c **** 
  59:.\Generated_Source\PSoC5/VDAC8_2.c ****     /* Set default data source */
  60:.\Generated_Source\PSoC5/VDAC8_2.c ****     #if(VDAC8_2_DEFAULT_DATA_SRC != 0 )
  61:.\Generated_Source\PSoC5/VDAC8_2.c ****         VDAC8_2_CR1 = (VDAC8_2_DEFAULT_CNTL | VDAC8_2_DACBUS_ENABLE) ;
  62:.\Generated_Source\PSoC5/VDAC8_2.c ****     #else
  63:.\Generated_Source\PSoC5/VDAC8_2.c ****         VDAC8_2_CR1 = (VDAC8_2_DEFAULT_CNTL | VDAC8_2_DACBUS_DISABLE) ;
  50              		.loc 1 63 0
  51 0012 45F62503 		movw	r3, #22565
ARM GAS  C:\Users\Brian\AppData\Local\Temp\ccXKxAlv.s 			page 3


  52 0016 C4F20003 		movt	r3, 16384
  53 001a 4FF00002 		mov	r2, #0
  54 001e 1A70     		strb	r2, [r3, #0]
  64:.\Generated_Source\PSoC5/VDAC8_2.c ****     #endif /* (VDAC8_2_DEFAULT_DATA_SRC != 0 ) */
  65:.\Generated_Source\PSoC5/VDAC8_2.c **** 
  66:.\Generated_Source\PSoC5/VDAC8_2.c ****     /* Set default strobe mode */
  67:.\Generated_Source\PSoC5/VDAC8_2.c ****     #if(VDAC8_2_DEFAULT_STRB != 0)
  68:.\Generated_Source\PSoC5/VDAC8_2.c ****         VDAC8_2_Strobe |= VDAC8_2_STRB_EN ;
  69:.\Generated_Source\PSoC5/VDAC8_2.c ****     #endif/* (VDAC8_2_DEFAULT_STRB != 0) */
  70:.\Generated_Source\PSoC5/VDAC8_2.c **** 
  71:.\Generated_Source\PSoC5/VDAC8_2.c ****     /* Set default range */
  72:.\Generated_Source\PSoC5/VDAC8_2.c ****     VDAC8_2_SetRange(VDAC8_2_DEFAULT_RANGE); 
  55              		.loc 1 72 0
  56 0020 4FF00000 		mov	r0, #0
  57 0024 FFF7FEFF 		bl	VDAC8_2_SetRange
  73:.\Generated_Source\PSoC5/VDAC8_2.c **** 
  74:.\Generated_Source\PSoC5/VDAC8_2.c ****     /* Set default speed */
  75:.\Generated_Source\PSoC5/VDAC8_2.c ****     VDAC8_2_SetSpeed(VDAC8_2_DEFAULT_SPEED);
  58              		.loc 1 75 0
  59 0028 4FF00000 		mov	r0, #0
  60 002c FFF7FEFF 		bl	VDAC8_2_SetSpeed
  76:.\Generated_Source\PSoC5/VDAC8_2.c **** }
  61              		.loc 1 76 0
  62 0030 80BD     		pop	{r7, pc}
  63              		.cfi_endproc
  64              	.LFE0:
  65              		.size	VDAC8_2_Init, .-VDAC8_2_Init
  66 0032 00BF     		.section	.text.VDAC8_2_Enable,"ax",%progbits
  67              		.align	2
  68              		.global	VDAC8_2_Enable
  69              		.thumb
  70              		.thumb_func
  71              		.type	VDAC8_2_Enable, %function
  72              	VDAC8_2_Enable:
  73              	.LFB1:
  77:.\Generated_Source\PSoC5/VDAC8_2.c **** 
  78:.\Generated_Source\PSoC5/VDAC8_2.c **** 
  79:.\Generated_Source\PSoC5/VDAC8_2.c **** /*******************************************************************************
  80:.\Generated_Source\PSoC5/VDAC8_2.c **** * Function Name: VDAC8_2_Enable
  81:.\Generated_Source\PSoC5/VDAC8_2.c **** ********************************************************************************
  82:.\Generated_Source\PSoC5/VDAC8_2.c **** * Summary:
  83:.\Generated_Source\PSoC5/VDAC8_2.c **** *  Enable the VDAC8
  84:.\Generated_Source\PSoC5/VDAC8_2.c **** * 
  85:.\Generated_Source\PSoC5/VDAC8_2.c **** * Parameters:
  86:.\Generated_Source\PSoC5/VDAC8_2.c **** *  void
  87:.\Generated_Source\PSoC5/VDAC8_2.c **** *
  88:.\Generated_Source\PSoC5/VDAC8_2.c **** * Return:
  89:.\Generated_Source\PSoC5/VDAC8_2.c **** *  void
  90:.\Generated_Source\PSoC5/VDAC8_2.c **** *
  91:.\Generated_Source\PSoC5/VDAC8_2.c **** * Theory:
  92:.\Generated_Source\PSoC5/VDAC8_2.c **** *
  93:.\Generated_Source\PSoC5/VDAC8_2.c **** * Side Effects:
  94:.\Generated_Source\PSoC5/VDAC8_2.c **** *
  95:.\Generated_Source\PSoC5/VDAC8_2.c **** *******************************************************************************/
  96:.\Generated_Source\PSoC5/VDAC8_2.c **** void VDAC8_2_Enable(void) 
  97:.\Generated_Source\PSoC5/VDAC8_2.c **** {
  74              		.loc 1 97 0
ARM GAS  C:\Users\Brian\AppData\Local\Temp\ccXKxAlv.s 			page 4


  75              		.cfi_startproc
  76              		@ args = 0, pretend = 0, frame = 0
  77              		@ frame_needed = 1, uses_anonymous_args = 0
  78              		@ link register save eliminated.
  79 0000 80B4     		push	{r7}
  80              	.LCFI2:
  81              		.cfi_def_cfa_offset 4
  82              		.cfi_offset 7, -4
  83 0002 00AF     		add	r7, sp, #0
  84              	.LCFI3:
  85              		.cfi_def_cfa_register 7
  98:.\Generated_Source\PSoC5/VDAC8_2.c ****     VDAC8_2_PWRMGR |= VDAC8_2_ACT_PWR_EN;
  86              		.loc 1 98 0
  87 0004 44F2A833 		movw	r3, #17320
  88 0008 C4F20003 		movt	r3, 16384
  89 000c 44F2A832 		movw	r2, #17320
  90 0010 C4F20002 		movt	r2, 16384
  91 0014 1278     		ldrb	r2, [r2, #0]
  92 0016 D2B2     		uxtb	r2, r2
  93 0018 42F00202 		orr	r2, r2, #2
  94 001c D2B2     		uxtb	r2, r2
  95 001e 1A70     		strb	r2, [r3, #0]
  99:.\Generated_Source\PSoC5/VDAC8_2.c ****     VDAC8_2_STBY_PWRMGR |= VDAC8_2_STBY_PWR_EN;
  96              		.loc 1 99 0
  97 0020 44F2B833 		movw	r3, #17336
  98 0024 C4F20003 		movt	r3, 16384
  99 0028 44F2B832 		movw	r2, #17336
 100 002c C4F20002 		movt	r2, 16384
 101 0030 1278     		ldrb	r2, [r2, #0]
 102 0032 D2B2     		uxtb	r2, r2
 103 0034 42F00202 		orr	r2, r2, #2
 104 0038 D2B2     		uxtb	r2, r2
 105 003a 1A70     		strb	r2, [r3, #0]
 100:.\Generated_Source\PSoC5/VDAC8_2.c **** 
 101:.\Generated_Source\PSoC5/VDAC8_2.c ****     /*This is to restore the value of register CR0 ,
 102:.\Generated_Source\PSoC5/VDAC8_2.c ****     which is modified  in Stop API , this prevents misbehaviour of VDAC */
 103:.\Generated_Source\PSoC5/VDAC8_2.c ****     #if (CY_PSOC5A)
 104:.\Generated_Source\PSoC5/VDAC8_2.c ****         if(VDAC8_2_restoreVal == 1u) 
 105:.\Generated_Source\PSoC5/VDAC8_2.c ****         {
 106:.\Generated_Source\PSoC5/VDAC8_2.c ****              VDAC8_2_CR0 = VDAC8_2_backup.data_value;
 107:.\Generated_Source\PSoC5/VDAC8_2.c ****              VDAC8_2_restoreVal = 0u;
 108:.\Generated_Source\PSoC5/VDAC8_2.c ****         }
 109:.\Generated_Source\PSoC5/VDAC8_2.c ****     #endif /* CY_PSOC5A */
 110:.\Generated_Source\PSoC5/VDAC8_2.c **** }
 106              		.loc 1 110 0
 107 003c BD46     		mov	sp, r7
 108 003e 80BC     		pop	{r7}
 109 0040 7047     		bx	lr
 110              		.cfi_endproc
 111              	.LFE1:
 112              		.size	VDAC8_2_Enable, .-VDAC8_2_Enable
 113 0042 00BF     		.section	.text.VDAC8_2_Start,"ax",%progbits
 114              		.align	2
 115              		.global	VDAC8_2_Start
 116              		.thumb
 117              		.thumb_func
 118              		.type	VDAC8_2_Start, %function
ARM GAS  C:\Users\Brian\AppData\Local\Temp\ccXKxAlv.s 			page 5


 119              	VDAC8_2_Start:
 120              	.LFB2:
 111:.\Generated_Source\PSoC5/VDAC8_2.c **** 
 112:.\Generated_Source\PSoC5/VDAC8_2.c **** 
 113:.\Generated_Source\PSoC5/VDAC8_2.c **** /*******************************************************************************
 114:.\Generated_Source\PSoC5/VDAC8_2.c **** * Function Name: VDAC8_2_Start
 115:.\Generated_Source\PSoC5/VDAC8_2.c **** ********************************************************************************
 116:.\Generated_Source\PSoC5/VDAC8_2.c **** *
 117:.\Generated_Source\PSoC5/VDAC8_2.c **** * Summary:
 118:.\Generated_Source\PSoC5/VDAC8_2.c **** *  The start function initializes the voltage DAC with the default values, 
 119:.\Generated_Source\PSoC5/VDAC8_2.c **** *  and sets the power to the given level.  A power level of 0, is the same as
 120:.\Generated_Source\PSoC5/VDAC8_2.c **** *  executing the stop function.
 121:.\Generated_Source\PSoC5/VDAC8_2.c **** *
 122:.\Generated_Source\PSoC5/VDAC8_2.c **** * Parameters:
 123:.\Generated_Source\PSoC5/VDAC8_2.c **** *  Power: Sets power level between off (0) and (3) high power
 124:.\Generated_Source\PSoC5/VDAC8_2.c **** *
 125:.\Generated_Source\PSoC5/VDAC8_2.c **** * Return:
 126:.\Generated_Source\PSoC5/VDAC8_2.c **** *  void 
 127:.\Generated_Source\PSoC5/VDAC8_2.c **** *
 128:.\Generated_Source\PSoC5/VDAC8_2.c **** * Global variables:
 129:.\Generated_Source\PSoC5/VDAC8_2.c **** *  VDAC8_2_initVar: Is modified when this function is called for the 
 130:.\Generated_Source\PSoC5/VDAC8_2.c **** *  first time. Is used to ensure that initialization happens only once.
 131:.\Generated_Source\PSoC5/VDAC8_2.c **** *
 132:.\Generated_Source\PSoC5/VDAC8_2.c **** *******************************************************************************/
 133:.\Generated_Source\PSoC5/VDAC8_2.c **** void VDAC8_2_Start(void)  
 134:.\Generated_Source\PSoC5/VDAC8_2.c **** {
 121              		.loc 1 134 0
 122              		.cfi_startproc
 123              		@ args = 0, pretend = 0, frame = 0
 124              		@ frame_needed = 1, uses_anonymous_args = 0
 125 0000 80B5     		push	{r7, lr}
 126              	.LCFI4:
 127              		.cfi_def_cfa_offset 8
 128              		.cfi_offset 7, -8
 129              		.cfi_offset 14, -4
 130 0002 00AF     		add	r7, sp, #0
 131              	.LCFI5:
 132              		.cfi_def_cfa_register 7
 135:.\Generated_Source\PSoC5/VDAC8_2.c ****     /* Hardware initiazation only needs to occure the first time */
 136:.\Generated_Source\PSoC5/VDAC8_2.c ****     if(VDAC8_2_initVar == 0u)
 133              		.loc 1 136 0
 134 0004 40F20003 		movw	r3, #:lower16:VDAC8_2_initVar
 135 0008 C0F20003 		movt	r3, #:upper16:VDAC8_2_initVar
 136 000c 1B78     		ldrb	r3, [r3, #0]	@ zero_extendqisi2
 137 000e 002B     		cmp	r3, #0
 138 0010 08D1     		bne	.L4
 137:.\Generated_Source\PSoC5/VDAC8_2.c ****     { 
 138:.\Generated_Source\PSoC5/VDAC8_2.c ****         VDAC8_2_Init();
 139              		.loc 1 138 0
 140 0012 FFF7FEFF 		bl	VDAC8_2_Init
 139:.\Generated_Source\PSoC5/VDAC8_2.c ****         VDAC8_2_initVar = 1u;
 141              		.loc 1 139 0
 142 0016 40F20003 		movw	r3, #:lower16:VDAC8_2_initVar
 143 001a C0F20003 		movt	r3, #:upper16:VDAC8_2_initVar
 144 001e 4FF00102 		mov	r2, #1
 145 0022 1A70     		strb	r2, [r3, #0]
 146              	.L4:
ARM GAS  C:\Users\Brian\AppData\Local\Temp\ccXKxAlv.s 			page 6


 140:.\Generated_Source\PSoC5/VDAC8_2.c ****     }
 141:.\Generated_Source\PSoC5/VDAC8_2.c **** 
 142:.\Generated_Source\PSoC5/VDAC8_2.c ****     /* Enable power to DAC */
 143:.\Generated_Source\PSoC5/VDAC8_2.c ****     VDAC8_2_Enable();
 147              		.loc 1 143 0
 148 0024 FFF7FEFF 		bl	VDAC8_2_Enable
 144:.\Generated_Source\PSoC5/VDAC8_2.c **** 
 145:.\Generated_Source\PSoC5/VDAC8_2.c ****     /* Set default value */
 146:.\Generated_Source\PSoC5/VDAC8_2.c ****     VDAC8_2_SetValue(VDAC8_2_DEFAULT_DATA); 
 149              		.loc 1 146 0
 150 0028 4FF06400 		mov	r0, #100
 151 002c FFF7FEFF 		bl	VDAC8_2_SetValue
 147:.\Generated_Source\PSoC5/VDAC8_2.c **** }
 152              		.loc 1 147 0
 153 0030 80BD     		pop	{r7, pc}
 154              		.cfi_endproc
 155              	.LFE2:
 156              		.size	VDAC8_2_Start, .-VDAC8_2_Start
 157 0032 00BF     		.section	.text.VDAC8_2_Stop,"ax",%progbits
 158              		.align	2
 159              		.global	VDAC8_2_Stop
 160              		.thumb
 161              		.thumb_func
 162              		.type	VDAC8_2_Stop, %function
 163              	VDAC8_2_Stop:
 164              	.LFB3:
 148:.\Generated_Source\PSoC5/VDAC8_2.c **** 
 149:.\Generated_Source\PSoC5/VDAC8_2.c **** 
 150:.\Generated_Source\PSoC5/VDAC8_2.c **** /*******************************************************************************
 151:.\Generated_Source\PSoC5/VDAC8_2.c **** * Function Name: VDAC8_2_Stop
 152:.\Generated_Source\PSoC5/VDAC8_2.c **** ********************************************************************************
 153:.\Generated_Source\PSoC5/VDAC8_2.c **** *
 154:.\Generated_Source\PSoC5/VDAC8_2.c **** * Summary:
 155:.\Generated_Source\PSoC5/VDAC8_2.c **** *  Powers down DAC to lowest power state.
 156:.\Generated_Source\PSoC5/VDAC8_2.c **** *
 157:.\Generated_Source\PSoC5/VDAC8_2.c **** * Parameters:
 158:.\Generated_Source\PSoC5/VDAC8_2.c **** *  void
 159:.\Generated_Source\PSoC5/VDAC8_2.c **** *
 160:.\Generated_Source\PSoC5/VDAC8_2.c **** * Return:
 161:.\Generated_Source\PSoC5/VDAC8_2.c **** *  void
 162:.\Generated_Source\PSoC5/VDAC8_2.c **** *
 163:.\Generated_Source\PSoC5/VDAC8_2.c **** * Theory:
 164:.\Generated_Source\PSoC5/VDAC8_2.c **** *
 165:.\Generated_Source\PSoC5/VDAC8_2.c **** * Side Effects:
 166:.\Generated_Source\PSoC5/VDAC8_2.c **** *
 167:.\Generated_Source\PSoC5/VDAC8_2.c **** *******************************************************************************/
 168:.\Generated_Source\PSoC5/VDAC8_2.c **** void VDAC8_2_Stop(void) 
 169:.\Generated_Source\PSoC5/VDAC8_2.c **** {
 165              		.loc 1 169 0
 166              		.cfi_startproc
 167              		@ args = 0, pretend = 0, frame = 0
 168              		@ frame_needed = 1, uses_anonymous_args = 0
 169              		@ link register save eliminated.
 170 0000 80B4     		push	{r7}
 171              	.LCFI6:
 172              		.cfi_def_cfa_offset 4
 173              		.cfi_offset 7, -4
ARM GAS  C:\Users\Brian\AppData\Local\Temp\ccXKxAlv.s 			page 7


 174 0002 00AF     		add	r7, sp, #0
 175              	.LCFI7:
 176              		.cfi_def_cfa_register 7
 170:.\Generated_Source\PSoC5/VDAC8_2.c ****     /* Disble power to DAC */
 171:.\Generated_Source\PSoC5/VDAC8_2.c ****     VDAC8_2_PWRMGR &= (uint8)(~VDAC8_2_ACT_PWR_EN);
 177              		.loc 1 171 0
 178 0004 44F2A833 		movw	r3, #17320
 179 0008 C4F20003 		movt	r3, 16384
 180 000c 44F2A832 		movw	r2, #17320
 181 0010 C4F20002 		movt	r2, 16384
 182 0014 1278     		ldrb	r2, [r2, #0]
 183 0016 D2B2     		uxtb	r2, r2
 184 0018 22F00202 		bic	r2, r2, #2
 185 001c D2B2     		uxtb	r2, r2
 186 001e 1A70     		strb	r2, [r3, #0]
 172:.\Generated_Source\PSoC5/VDAC8_2.c ****     VDAC8_2_STBY_PWRMGR &= (uint8)(~VDAC8_2_STBY_PWR_EN);
 187              		.loc 1 172 0
 188 0020 44F2B833 		movw	r3, #17336
 189 0024 C4F20003 		movt	r3, 16384
 190 0028 44F2B832 		movw	r2, #17336
 191 002c C4F20002 		movt	r2, 16384
 192 0030 1278     		ldrb	r2, [r2, #0]
 193 0032 D2B2     		uxtb	r2, r2
 194 0034 22F00202 		bic	r2, r2, #2
 195 0038 D2B2     		uxtb	r2, r2
 196 003a 1A70     		strb	r2, [r3, #0]
 173:.\Generated_Source\PSoC5/VDAC8_2.c **** 
 174:.\Generated_Source\PSoC5/VDAC8_2.c ****     /* This is a work around for PSoC5A  ,
 175:.\Generated_Source\PSoC5/VDAC8_2.c ****     this sets VDAC to current mode with output off */
 176:.\Generated_Source\PSoC5/VDAC8_2.c ****     #if (CY_PSOC5A)
 177:.\Generated_Source\PSoC5/VDAC8_2.c ****         VDAC8_2_backup.data_value = VDAC8_2_CR0;
 178:.\Generated_Source\PSoC5/VDAC8_2.c ****         VDAC8_2_CR0 = VDAC8_2_CUR_MODE_OUT_OFF;
 179:.\Generated_Source\PSoC5/VDAC8_2.c ****         VDAC8_2_restoreVal = 1u;
 180:.\Generated_Source\PSoC5/VDAC8_2.c ****     #endif /* CY_PSOC5A */
 181:.\Generated_Source\PSoC5/VDAC8_2.c **** }
 197              		.loc 1 181 0
 198 003c BD46     		mov	sp, r7
 199 003e 80BC     		pop	{r7}
 200 0040 7047     		bx	lr
 201              		.cfi_endproc
 202              	.LFE3:
 203              		.size	VDAC8_2_Stop, .-VDAC8_2_Stop
 204 0042 00BF     		.section	.text.VDAC8_2_SetSpeed,"ax",%progbits
 205              		.align	2
 206              		.global	VDAC8_2_SetSpeed
 207              		.thumb
 208              		.thumb_func
 209              		.type	VDAC8_2_SetSpeed, %function
 210              	VDAC8_2_SetSpeed:
 211              	.LFB4:
 182:.\Generated_Source\PSoC5/VDAC8_2.c **** 
 183:.\Generated_Source\PSoC5/VDAC8_2.c **** 
 184:.\Generated_Source\PSoC5/VDAC8_2.c **** /*******************************************************************************
 185:.\Generated_Source\PSoC5/VDAC8_2.c **** * Function Name: VDAC8_2_SetSpeed
 186:.\Generated_Source\PSoC5/VDAC8_2.c **** ********************************************************************************
 187:.\Generated_Source\PSoC5/VDAC8_2.c **** *
 188:.\Generated_Source\PSoC5/VDAC8_2.c **** * Summary:
ARM GAS  C:\Users\Brian\AppData\Local\Temp\ccXKxAlv.s 			page 8


 189:.\Generated_Source\PSoC5/VDAC8_2.c **** *  Set DAC speed
 190:.\Generated_Source\PSoC5/VDAC8_2.c **** *
 191:.\Generated_Source\PSoC5/VDAC8_2.c **** * Parameters:
 192:.\Generated_Source\PSoC5/VDAC8_2.c **** *  power: Sets speed value
 193:.\Generated_Source\PSoC5/VDAC8_2.c **** *
 194:.\Generated_Source\PSoC5/VDAC8_2.c **** * Return:
 195:.\Generated_Source\PSoC5/VDAC8_2.c **** *  void
 196:.\Generated_Source\PSoC5/VDAC8_2.c **** *
 197:.\Generated_Source\PSoC5/VDAC8_2.c **** * Theory:
 198:.\Generated_Source\PSoC5/VDAC8_2.c **** *
 199:.\Generated_Source\PSoC5/VDAC8_2.c **** * Side Effects:
 200:.\Generated_Source\PSoC5/VDAC8_2.c **** *
 201:.\Generated_Source\PSoC5/VDAC8_2.c **** *******************************************************************************/
 202:.\Generated_Source\PSoC5/VDAC8_2.c **** void VDAC8_2_SetSpeed(uint8 speed) 
 203:.\Generated_Source\PSoC5/VDAC8_2.c **** {
 212              		.loc 1 203 0
 213              		.cfi_startproc
 214              		@ args = 0, pretend = 0, frame = 8
 215              		@ frame_needed = 1, uses_anonymous_args = 0
 216              		@ link register save eliminated.
 217 0000 80B4     		push	{r7}
 218              	.LCFI8:
 219              		.cfi_def_cfa_offset 4
 220              		.cfi_offset 7, -4
 221 0002 83B0     		sub	sp, sp, #12
 222              	.LCFI9:
 223              		.cfi_def_cfa_offset 16
 224 0004 00AF     		add	r7, sp, #0
 225              	.LCFI10:
 226              		.cfi_def_cfa_register 7
 227 0006 0346     		mov	r3, r0
 228 0008 FB71     		strb	r3, [r7, #7]
 204:.\Generated_Source\PSoC5/VDAC8_2.c ****     /* Clear power mask then write in new value */
 205:.\Generated_Source\PSoC5/VDAC8_2.c ****     VDAC8_2_CR0 &= (uint8)(~VDAC8_2_HS_MASK);
 229              		.loc 1 205 0
 230 000a 45F62403 		movw	r3, #22564
 231 000e C4F20003 		movt	r3, 16384
 232 0012 45F62402 		movw	r2, #22564
 233 0016 C4F20002 		movt	r2, 16384
 234 001a 1278     		ldrb	r2, [r2, #0]
 235 001c D2B2     		uxtb	r2, r2
 236 001e 22F00202 		bic	r2, r2, #2
 237 0022 D2B2     		uxtb	r2, r2
 238 0024 1A70     		strb	r2, [r3, #0]
 206:.\Generated_Source\PSoC5/VDAC8_2.c ****     VDAC8_2_CR0 |=  (speed & VDAC8_2_HS_MASK);
 239              		.loc 1 206 0
 240 0026 45F62403 		movw	r3, #22564
 241 002a C4F20003 		movt	r3, 16384
 242 002e 45F62402 		movw	r2, #22564
 243 0032 C4F20002 		movt	r2, 16384
 244 0036 1278     		ldrb	r2, [r2, #0]
 245 0038 D1B2     		uxtb	r1, r2
 246 003a FA79     		ldrb	r2, [r7, #7]
 247 003c 02F00202 		and	r2, r2, #2
 248 0040 D2B2     		uxtb	r2, r2
 249 0042 0A43     		orrs	r2, r2, r1
 250 0044 D2B2     		uxtb	r2, r2
ARM GAS  C:\Users\Brian\AppData\Local\Temp\ccXKxAlv.s 			page 9


 251 0046 1A70     		strb	r2, [r3, #0]
 207:.\Generated_Source\PSoC5/VDAC8_2.c **** }
 252              		.loc 1 207 0
 253 0048 07F10C07 		add	r7, r7, #12
 254 004c BD46     		mov	sp, r7
 255 004e 80BC     		pop	{r7}
 256 0050 7047     		bx	lr
 257              		.cfi_endproc
 258              	.LFE4:
 259              		.size	VDAC8_2_SetSpeed, .-VDAC8_2_SetSpeed
 260 0052 00BF     		.section	.text.VDAC8_2_SetRange,"ax",%progbits
 261              		.align	2
 262              		.global	VDAC8_2_SetRange
 263              		.thumb
 264              		.thumb_func
 265              		.type	VDAC8_2_SetRange, %function
 266              	VDAC8_2_SetRange:
 267              	.LFB5:
 208:.\Generated_Source\PSoC5/VDAC8_2.c **** 
 209:.\Generated_Source\PSoC5/VDAC8_2.c **** 
 210:.\Generated_Source\PSoC5/VDAC8_2.c **** /*******************************************************************************
 211:.\Generated_Source\PSoC5/VDAC8_2.c **** * Function Name: VDAC8_2_SetRange
 212:.\Generated_Source\PSoC5/VDAC8_2.c **** ********************************************************************************
 213:.\Generated_Source\PSoC5/VDAC8_2.c **** *
 214:.\Generated_Source\PSoC5/VDAC8_2.c **** * Summary:
 215:.\Generated_Source\PSoC5/VDAC8_2.c **** *  Set one of three current ranges.
 216:.\Generated_Source\PSoC5/VDAC8_2.c **** *
 217:.\Generated_Source\PSoC5/VDAC8_2.c **** * Parameters:
 218:.\Generated_Source\PSoC5/VDAC8_2.c **** *  Range: Sets one of Three valid ranges.
 219:.\Generated_Source\PSoC5/VDAC8_2.c **** *
 220:.\Generated_Source\PSoC5/VDAC8_2.c **** * Return:
 221:.\Generated_Source\PSoC5/VDAC8_2.c **** *  void 
 222:.\Generated_Source\PSoC5/VDAC8_2.c **** *
 223:.\Generated_Source\PSoC5/VDAC8_2.c **** * Theory:
 224:.\Generated_Source\PSoC5/VDAC8_2.c **** *
 225:.\Generated_Source\PSoC5/VDAC8_2.c **** * Side Effects:
 226:.\Generated_Source\PSoC5/VDAC8_2.c **** *
 227:.\Generated_Source\PSoC5/VDAC8_2.c **** *******************************************************************************/
 228:.\Generated_Source\PSoC5/VDAC8_2.c **** void VDAC8_2_SetRange(uint8 range) 
 229:.\Generated_Source\PSoC5/VDAC8_2.c **** {
 268              		.loc 1 229 0
 269              		.cfi_startproc
 270              		@ args = 0, pretend = 0, frame = 8
 271              		@ frame_needed = 1, uses_anonymous_args = 0
 272 0000 80B5     		push	{r7, lr}
 273              	.LCFI11:
 274              		.cfi_def_cfa_offset 8
 275              		.cfi_offset 7, -8
 276              		.cfi_offset 14, -4
 277 0002 82B0     		sub	sp, sp, #8
 278              	.LCFI12:
 279              		.cfi_def_cfa_offset 16
 280 0004 00AF     		add	r7, sp, #0
 281              	.LCFI13:
 282              		.cfi_def_cfa_register 7
 283 0006 0346     		mov	r3, r0
 284 0008 FB71     		strb	r3, [r7, #7]
ARM GAS  C:\Users\Brian\AppData\Local\Temp\ccXKxAlv.s 			page 10


 230:.\Generated_Source\PSoC5/VDAC8_2.c ****     VDAC8_2_CR0 &= (uint8)(~VDAC8_2_RANGE_MASK);      /* Clear existing mode */
 285              		.loc 1 230 0
 286 000a 45F62403 		movw	r3, #22564
 287 000e C4F20003 		movt	r3, 16384
 288 0012 45F62402 		movw	r2, #22564
 289 0016 C4F20002 		movt	r2, 16384
 290 001a 1278     		ldrb	r2, [r2, #0]
 291 001c D2B2     		uxtb	r2, r2
 292 001e 22F00C02 		bic	r2, r2, #12
 293 0022 D2B2     		uxtb	r2, r2
 294 0024 1A70     		strb	r2, [r3, #0]
 231:.\Generated_Source\PSoC5/VDAC8_2.c ****     VDAC8_2_CR0 |= (range & VDAC8_2_RANGE_MASK);      /*  Set Range  */
 295              		.loc 1 231 0
 296 0026 45F62403 		movw	r3, #22564
 297 002a C4F20003 		movt	r3, 16384
 298 002e 45F62402 		movw	r2, #22564
 299 0032 C4F20002 		movt	r2, 16384
 300 0036 1278     		ldrb	r2, [r2, #0]
 301 0038 D1B2     		uxtb	r1, r2
 302 003a FA79     		ldrb	r2, [r7, #7]
 303 003c 02F00C02 		and	r2, r2, #12
 304 0040 D2B2     		uxtb	r2, r2
 305 0042 0A43     		orrs	r2, r2, r1
 306 0044 D2B2     		uxtb	r2, r2
 307 0046 1A70     		strb	r2, [r3, #0]
 232:.\Generated_Source\PSoC5/VDAC8_2.c ****     VDAC8_2_DacTrim();
 308              		.loc 1 232 0
 309 0048 FFF7FEFF 		bl	VDAC8_2_DacTrim
 233:.\Generated_Source\PSoC5/VDAC8_2.c **** }
 310              		.loc 1 233 0
 311 004c 07F10807 		add	r7, r7, #8
 312 0050 BD46     		mov	sp, r7
 313 0052 80BD     		pop	{r7, pc}
 314              		.cfi_endproc
 315              	.LFE5:
 316              		.size	VDAC8_2_SetRange, .-VDAC8_2_SetRange
 317              		.section	.text.VDAC8_2_SetValue,"ax",%progbits
 318              		.align	2
 319              		.global	VDAC8_2_SetValue
 320              		.thumb
 321              		.thumb_func
 322              		.type	VDAC8_2_SetValue, %function
 323              	VDAC8_2_SetValue:
 324              	.LFB6:
 234:.\Generated_Source\PSoC5/VDAC8_2.c **** 
 235:.\Generated_Source\PSoC5/VDAC8_2.c **** 
 236:.\Generated_Source\PSoC5/VDAC8_2.c **** /*******************************************************************************
 237:.\Generated_Source\PSoC5/VDAC8_2.c **** * Function Name: VDAC8_2_SetValue
 238:.\Generated_Source\PSoC5/VDAC8_2.c **** ********************************************************************************
 239:.\Generated_Source\PSoC5/VDAC8_2.c **** *
 240:.\Generated_Source\PSoC5/VDAC8_2.c **** * Summary:
 241:.\Generated_Source\PSoC5/VDAC8_2.c **** *  Set 8-bit DAC value
 242:.\Generated_Source\PSoC5/VDAC8_2.c **** *
 243:.\Generated_Source\PSoC5/VDAC8_2.c **** * Parameters:  
 244:.\Generated_Source\PSoC5/VDAC8_2.c **** *  value:  Sets DAC value between 0 and 255.
 245:.\Generated_Source\PSoC5/VDAC8_2.c **** *
 246:.\Generated_Source\PSoC5/VDAC8_2.c **** * Return: 
ARM GAS  C:\Users\Brian\AppData\Local\Temp\ccXKxAlv.s 			page 11


 247:.\Generated_Source\PSoC5/VDAC8_2.c **** *  void 
 248:.\Generated_Source\PSoC5/VDAC8_2.c **** *
 249:.\Generated_Source\PSoC5/VDAC8_2.c **** * Theory: 
 250:.\Generated_Source\PSoC5/VDAC8_2.c **** *
 251:.\Generated_Source\PSoC5/VDAC8_2.c **** * Side Effects:
 252:.\Generated_Source\PSoC5/VDAC8_2.c **** *
 253:.\Generated_Source\PSoC5/VDAC8_2.c **** *******************************************************************************/
 254:.\Generated_Source\PSoC5/VDAC8_2.c **** void VDAC8_2_SetValue(uint8 value) 
 255:.\Generated_Source\PSoC5/VDAC8_2.c **** {
 325              		.loc 1 255 0
 326              		.cfi_startproc
 327              		@ args = 0, pretend = 0, frame = 8
 328              		@ frame_needed = 1, uses_anonymous_args = 0
 329              		@ link register save eliminated.
 330 0000 80B4     		push	{r7}
 331              	.LCFI14:
 332              		.cfi_def_cfa_offset 4
 333              		.cfi_offset 7, -4
 334 0002 83B0     		sub	sp, sp, #12
 335              	.LCFI15:
 336              		.cfi_def_cfa_offset 16
 337 0004 00AF     		add	r7, sp, #0
 338              	.LCFI16:
 339              		.cfi_def_cfa_register 7
 340 0006 0346     		mov	r3, r0
 341 0008 FB71     		strb	r3, [r7, #7]
 256:.\Generated_Source\PSoC5/VDAC8_2.c ****     #if (CY_PSOC5A)
 257:.\Generated_Source\PSoC5/VDAC8_2.c ****         uint8 VDAC8_2_intrStatus = CyEnterCriticalSection();
 258:.\Generated_Source\PSoC5/VDAC8_2.c ****     #endif /* CY_PSOC5A */
 259:.\Generated_Source\PSoC5/VDAC8_2.c **** 
 260:.\Generated_Source\PSoC5/VDAC8_2.c ****     VDAC8_2_Data = value;                /*  Set Value  */
 342              		.loc 1 260 0
 343 000a 45F68133 		movw	r3, #23425
 344 000e C4F20003 		movt	r3, 16384
 345 0012 FA79     		ldrb	r2, [r7, #7]
 346 0014 1A70     		strb	r2, [r3, #0]
 261:.\Generated_Source\PSoC5/VDAC8_2.c **** 
 262:.\Generated_Source\PSoC5/VDAC8_2.c ****     /* PSOC5A requires a double write */
 263:.\Generated_Source\PSoC5/VDAC8_2.c ****     /* Exit Critical Section */
 264:.\Generated_Source\PSoC5/VDAC8_2.c ****     #if (CY_PSOC5A)
 265:.\Generated_Source\PSoC5/VDAC8_2.c ****         VDAC8_2_Data = value;
 266:.\Generated_Source\PSoC5/VDAC8_2.c ****         CyExitCriticalSection(VDAC8_2_intrStatus);
 267:.\Generated_Source\PSoC5/VDAC8_2.c ****     #endif /* CY_PSOC5A */
 268:.\Generated_Source\PSoC5/VDAC8_2.c **** }
 347              		.loc 1 268 0
 348 0016 07F10C07 		add	r7, r7, #12
 349 001a BD46     		mov	sp, r7
 350 001c 80BC     		pop	{r7}
 351 001e 7047     		bx	lr
 352              		.cfi_endproc
 353              	.LFE6:
 354              		.size	VDAC8_2_SetValue, .-VDAC8_2_SetValue
 355              		.section	.text.VDAC8_2_DacTrim,"ax",%progbits
 356              		.align	2
 357              		.global	VDAC8_2_DacTrim
 358              		.thumb
 359              		.thumb_func
ARM GAS  C:\Users\Brian\AppData\Local\Temp\ccXKxAlv.s 			page 12


 360              		.type	VDAC8_2_DacTrim, %function
 361              	VDAC8_2_DacTrim:
 362              	.LFB7:
 269:.\Generated_Source\PSoC5/VDAC8_2.c **** 
 270:.\Generated_Source\PSoC5/VDAC8_2.c **** 
 271:.\Generated_Source\PSoC5/VDAC8_2.c **** /*******************************************************************************
 272:.\Generated_Source\PSoC5/VDAC8_2.c **** * Function Name: VDAC8_2_DacTrim
 273:.\Generated_Source\PSoC5/VDAC8_2.c **** ********************************************************************************
 274:.\Generated_Source\PSoC5/VDAC8_2.c **** *
 275:.\Generated_Source\PSoC5/VDAC8_2.c **** * Summary:
 276:.\Generated_Source\PSoC5/VDAC8_2.c **** *  Set the trim value for the given range.
 277:.\Generated_Source\PSoC5/VDAC8_2.c **** *
 278:.\Generated_Source\PSoC5/VDAC8_2.c **** * Parameters:
 279:.\Generated_Source\PSoC5/VDAC8_2.c **** *  range:  1V or 4V range.  See constants.
 280:.\Generated_Source\PSoC5/VDAC8_2.c **** *
 281:.\Generated_Source\PSoC5/VDAC8_2.c **** * Return:
 282:.\Generated_Source\PSoC5/VDAC8_2.c **** *  void
 283:.\Generated_Source\PSoC5/VDAC8_2.c **** *
 284:.\Generated_Source\PSoC5/VDAC8_2.c **** * Theory: 
 285:.\Generated_Source\PSoC5/VDAC8_2.c **** *
 286:.\Generated_Source\PSoC5/VDAC8_2.c **** * Side Effects:
 287:.\Generated_Source\PSoC5/VDAC8_2.c **** *
 288:.\Generated_Source\PSoC5/VDAC8_2.c **** *******************************************************************************/
 289:.\Generated_Source\PSoC5/VDAC8_2.c **** void VDAC8_2_DacTrim(void) 
 290:.\Generated_Source\PSoC5/VDAC8_2.c **** {
 363              		.loc 1 290 0
 364              		.cfi_startproc
 365              		@ args = 0, pretend = 0, frame = 8
 366              		@ frame_needed = 1, uses_anonymous_args = 0
 367              		@ link register save eliminated.
 368 0000 80B4     		push	{r7}
 369              	.LCFI17:
 370              		.cfi_def_cfa_offset 4
 371              		.cfi_offset 7, -4
 372 0002 83B0     		sub	sp, sp, #12
 373              	.LCFI18:
 374              		.cfi_def_cfa_offset 16
 375 0004 00AF     		add	r7, sp, #0
 376              	.LCFI19:
 377              		.cfi_def_cfa_register 7
 291:.\Generated_Source\PSoC5/VDAC8_2.c ****     uint8 mode;
 292:.\Generated_Source\PSoC5/VDAC8_2.c **** 
 293:.\Generated_Source\PSoC5/VDAC8_2.c ****     mode = (uint8)((VDAC8_2_CR0 & VDAC8_2_RANGE_MASK) >> 2) + VDAC8_2_TRIM_M7_1V_RNG_OFFSET;
 378              		.loc 1 293 0
 379 0006 45F62403 		movw	r3, #22564
 380 000a C4F20003 		movt	r3, 16384
 381 000e 1B78     		ldrb	r3, [r3, #0]
 382 0010 DBB2     		uxtb	r3, r3
 383 0012 03F00C03 		and	r3, r3, #12
 384 0016 4FEA9303 		lsr	r3, r3, #2
 385 001a DBB2     		uxtb	r3, r3
 386 001c 03F10603 		add	r3, r3, #6
 387 0020 FB71     		strb	r3, [r7, #7]
 294:.\Generated_Source\PSoC5/VDAC8_2.c ****     VDAC8_2_TR = CY_GET_XTND_REG8((uint8 *)(VDAC8_2_DAC_TRIM_BASE + mode));
 388              		.loc 1 294 0
 389 0022 44F20963 		movw	r3, #17929
 390 0026 C4F20003 		movt	r3, 16384
ARM GAS  C:\Users\Brian\AppData\Local\Temp\ccXKxAlv.s 			page 13


 391 002a FA79     		ldrb	r2, [r7, #7]	@ zero_extendqisi2
 392 002c 02F19242 		add	r2, r2, #1224736768
 393 0030 02F59872 		add	r2, r2, #304
 394 0034 1278     		ldrb	r2, [r2, #0]
 395 0036 D2B2     		uxtb	r2, r2
 396 0038 1A70     		strb	r2, [r3, #0]
 295:.\Generated_Source\PSoC5/VDAC8_2.c **** }
 397              		.loc 1 295 0
 398 003a 07F10C07 		add	r7, r7, #12
 399 003e BD46     		mov	sp, r7
 400 0040 80BC     		pop	{r7}
 401 0042 7047     		bx	lr
 402              		.cfi_endproc
 403              	.LFE7:
 404              		.size	VDAC8_2_DacTrim, .-VDAC8_2_DacTrim
 405              		.text
 406              	.Letext0:
 407              		.file 2 ".\\Generated_Source\\PSoC5\\cytypes.h"