ARM GAS  C:\Users\Robert\AppData\Local\Temp\ccKtbM0t.s 			page 1


   1              		.syntax unified
   2              		.cpu cortex-m3
   3              		.fpu softvfp
   4              		.eabi_attribute 20, 1
   5              		.eabi_attribute 21, 1
   6              		.eabi_attribute 23, 3
   7              		.eabi_attribute 24, 1
   8              		.eabi_attribute 25, 1
   9              		.eabi_attribute 26, 1
  10              		.eabi_attribute 30, 6
  11              		.eabi_attribute 34, 1
  12              		.eabi_attribute 18, 4
  13              		.thumb
  14              		.file	"WaveDAC8_1_BuffAmp.c"
  15              		.text
  16              	.Ltext0:
  17              		.cfi_sections	.debug_frame
  18              		.global	WaveDAC8_1_BuffAmp_initVar
  19              		.bss
  20              		.type	WaveDAC8_1_BuffAmp_initVar, %object
  21              		.size	WaveDAC8_1_BuffAmp_initVar, 1
  22              	WaveDAC8_1_BuffAmp_initVar:
  23 0000 00       		.space	1
  24              		.section	.text.WaveDAC8_1_BuffAmp_Init,"ax",%progbits
  25              		.align	2
  26              		.global	WaveDAC8_1_BuffAmp_Init
  27              		.thumb
  28              		.thumb_func
  29              		.type	WaveDAC8_1_BuffAmp_Init, %function
  30              	WaveDAC8_1_BuffAmp_Init:
  31              	.LFB0:
  32              		.file 1 ".\\Generated_Source\\PSoC5\\WaveDAC8_1_BuffAmp.c"
   1:.\Generated_Source\PSoC5/WaveDAC8_1_BuffAmp.c **** /*******************************************************************************
   2:.\Generated_Source\PSoC5/WaveDAC8_1_BuffAmp.c **** * File Name: WaveDAC8_1_BuffAmp.c
   3:.\Generated_Source\PSoC5/WaveDAC8_1_BuffAmp.c **** * Version 1.90
   4:.\Generated_Source\PSoC5/WaveDAC8_1_BuffAmp.c **** *
   5:.\Generated_Source\PSoC5/WaveDAC8_1_BuffAmp.c **** * Description:
   6:.\Generated_Source\PSoC5/WaveDAC8_1_BuffAmp.c **** *  This file provides the source code to the API for OpAmp (Analog Buffer) 
   7:.\Generated_Source\PSoC5/WaveDAC8_1_BuffAmp.c **** *  Component.
   8:.\Generated_Source\PSoC5/WaveDAC8_1_BuffAmp.c **** *
   9:.\Generated_Source\PSoC5/WaveDAC8_1_BuffAmp.c **** * Note:
  10:.\Generated_Source\PSoC5/WaveDAC8_1_BuffAmp.c **** *
  11:.\Generated_Source\PSoC5/WaveDAC8_1_BuffAmp.c **** ********************************************************************************
  12:.\Generated_Source\PSoC5/WaveDAC8_1_BuffAmp.c **** * Copyright 2008-2012, Cypress Semiconductor Corporation.  All rights reserved.
  13:.\Generated_Source\PSoC5/WaveDAC8_1_BuffAmp.c **** * You may use this file only in accordance with the license, terms, conditions, 
  14:.\Generated_Source\PSoC5/WaveDAC8_1_BuffAmp.c **** * disclaimers, and limitations in the end user license agreement accompanying 
  15:.\Generated_Source\PSoC5/WaveDAC8_1_BuffAmp.c **** * the software package with which this file was provided.
  16:.\Generated_Source\PSoC5/WaveDAC8_1_BuffAmp.c **** *******************************************************************************/
  17:.\Generated_Source\PSoC5/WaveDAC8_1_BuffAmp.c **** 
  18:.\Generated_Source\PSoC5/WaveDAC8_1_BuffAmp.c **** #include "WaveDAC8_1_BuffAmp.h"
  19:.\Generated_Source\PSoC5/WaveDAC8_1_BuffAmp.c **** 
  20:.\Generated_Source\PSoC5/WaveDAC8_1_BuffAmp.c **** uint8 WaveDAC8_1_BuffAmp_initVar = 0u;
  21:.\Generated_Source\PSoC5/WaveDAC8_1_BuffAmp.c **** 
  22:.\Generated_Source\PSoC5/WaveDAC8_1_BuffAmp.c **** 
  23:.\Generated_Source\PSoC5/WaveDAC8_1_BuffAmp.c **** /*******************************************************************************   
  24:.\Generated_Source\PSoC5/WaveDAC8_1_BuffAmp.c **** * Function Name: WaveDAC8_1_BuffAmp_Init
  25:.\Generated_Source\PSoC5/WaveDAC8_1_BuffAmp.c **** ********************************************************************************
ARM GAS  C:\Users\Robert\AppData\Local\Temp\ccKtbM0t.s 			page 2


  26:.\Generated_Source\PSoC5/WaveDAC8_1_BuffAmp.c **** *
  27:.\Generated_Source\PSoC5/WaveDAC8_1_BuffAmp.c **** * Summary:
  28:.\Generated_Source\PSoC5/WaveDAC8_1_BuffAmp.c **** *  Initialize component's parameters to the parameters set by user in the 
  29:.\Generated_Source\PSoC5/WaveDAC8_1_BuffAmp.c **** *  customizer of the component placed onto schematic. Usually called in 
  30:.\Generated_Source\PSoC5/WaveDAC8_1_BuffAmp.c **** *  WaveDAC8_1_BuffAmp_Start().
  31:.\Generated_Source\PSoC5/WaveDAC8_1_BuffAmp.c **** *
  32:.\Generated_Source\PSoC5/WaveDAC8_1_BuffAmp.c **** * Parameters:
  33:.\Generated_Source\PSoC5/WaveDAC8_1_BuffAmp.c **** *  void
  34:.\Generated_Source\PSoC5/WaveDAC8_1_BuffAmp.c **** *
  35:.\Generated_Source\PSoC5/WaveDAC8_1_BuffAmp.c **** * Return:
  36:.\Generated_Source\PSoC5/WaveDAC8_1_BuffAmp.c **** *  void
  37:.\Generated_Source\PSoC5/WaveDAC8_1_BuffAmp.c **** *
  38:.\Generated_Source\PSoC5/WaveDAC8_1_BuffAmp.c **** *******************************************************************************/
  39:.\Generated_Source\PSoC5/WaveDAC8_1_BuffAmp.c **** void WaveDAC8_1_BuffAmp_Init(void) 
  40:.\Generated_Source\PSoC5/WaveDAC8_1_BuffAmp.c **** {
  33              		.loc 1 40 0
  34              		.cfi_startproc
  35              		@ args = 0, pretend = 0, frame = 0
  36              		@ frame_needed = 1, uses_anonymous_args = 0
  37 0000 80B5     		push	{r7, lr}
  38              	.LCFI0:
  39              		.cfi_def_cfa_offset 8
  40              		.cfi_offset 7, -8
  41              		.cfi_offset 14, -4
  42 0002 00AF     		add	r7, sp, #0
  43              	.LCFI1:
  44              		.cfi_def_cfa_register 7
  41:.\Generated_Source\PSoC5/WaveDAC8_1_BuffAmp.c ****     WaveDAC8_1_BuffAmp_SetPower(WaveDAC8_1_BuffAmp_DEFAULT_POWER);
  45              		.loc 1 41 0
  46 0004 4FF00200 		mov	r0, #2
  47 0008 FFF7FEFF 		bl	WaveDAC8_1_BuffAmp_SetPower
  42:.\Generated_Source\PSoC5/WaveDAC8_1_BuffAmp.c **** }
  48              		.loc 1 42 0
  49 000c 80BD     		pop	{r7, pc}
  50              		.cfi_endproc
  51              	.LFE0:
  52              		.size	WaveDAC8_1_BuffAmp_Init, .-WaveDAC8_1_BuffAmp_Init
  53 000e 00BF     		.section	.text.WaveDAC8_1_BuffAmp_Enable,"ax",%progbits
  54              		.align	2
  55              		.global	WaveDAC8_1_BuffAmp_Enable
  56              		.thumb
  57              		.thumb_func
  58              		.type	WaveDAC8_1_BuffAmp_Enable, %function
  59              	WaveDAC8_1_BuffAmp_Enable:
  60              	.LFB1:
  43:.\Generated_Source\PSoC5/WaveDAC8_1_BuffAmp.c **** 
  44:.\Generated_Source\PSoC5/WaveDAC8_1_BuffAmp.c **** 
  45:.\Generated_Source\PSoC5/WaveDAC8_1_BuffAmp.c **** /*******************************************************************************   
  46:.\Generated_Source\PSoC5/WaveDAC8_1_BuffAmp.c **** * Function Name: WaveDAC8_1_BuffAmp_Enable
  47:.\Generated_Source\PSoC5/WaveDAC8_1_BuffAmp.c **** ********************************************************************************
  48:.\Generated_Source\PSoC5/WaveDAC8_1_BuffAmp.c **** *
  49:.\Generated_Source\PSoC5/WaveDAC8_1_BuffAmp.c **** * Summary:
  50:.\Generated_Source\PSoC5/WaveDAC8_1_BuffAmp.c **** *  Enables the OpAmp block operation
  51:.\Generated_Source\PSoC5/WaveDAC8_1_BuffAmp.c **** *
  52:.\Generated_Source\PSoC5/WaveDAC8_1_BuffAmp.c **** * Parameters:
  53:.\Generated_Source\PSoC5/WaveDAC8_1_BuffAmp.c **** *  void
  54:.\Generated_Source\PSoC5/WaveDAC8_1_BuffAmp.c **** *
ARM GAS  C:\Users\Robert\AppData\Local\Temp\ccKtbM0t.s 			page 3


  55:.\Generated_Source\PSoC5/WaveDAC8_1_BuffAmp.c **** * Return:
  56:.\Generated_Source\PSoC5/WaveDAC8_1_BuffAmp.c **** *  void
  57:.\Generated_Source\PSoC5/WaveDAC8_1_BuffAmp.c **** *
  58:.\Generated_Source\PSoC5/WaveDAC8_1_BuffAmp.c **** *******************************************************************************/
  59:.\Generated_Source\PSoC5/WaveDAC8_1_BuffAmp.c **** void WaveDAC8_1_BuffAmp_Enable(void) 
  60:.\Generated_Source\PSoC5/WaveDAC8_1_BuffAmp.c **** {
  61              		.loc 1 60 0
  62              		.cfi_startproc
  63              		@ args = 0, pretend = 0, frame = 0
  64              		@ frame_needed = 1, uses_anonymous_args = 0
  65              		@ link register save eliminated.
  66 0000 80B4     		push	{r7}
  67              	.LCFI2:
  68              		.cfi_def_cfa_offset 4
  69              		.cfi_offset 7, -4
  70 0002 00AF     		add	r7, sp, #0
  71              	.LCFI3:
  72              		.cfi_def_cfa_register 7
  61:.\Generated_Source\PSoC5/WaveDAC8_1_BuffAmp.c ****     /* Enable negative charge pumps in ANIF */
  62:.\Generated_Source\PSoC5/WaveDAC8_1_BuffAmp.c ****     WaveDAC8_1_BuffAmp_PUMP_CR1_REG  |= (WaveDAC8_1_BuffAmp_PUMP_CR1_CLKSEL | WaveDAC8_1_BuffAmp_PU
  73              		.loc 1 62 0
  74 0004 45F67703 		movw	r3, #22647
  75 0008 C4F20003 		movt	r3, 16384
  76 000c 45F67702 		movw	r2, #22647
  77 0010 C4F20002 		movt	r2, 16384
  78 0014 1278     		ldrb	r2, [r2, #0]
  79 0016 D2B2     		uxtb	r2, r2
  80 0018 42F06002 		orr	r2, r2, #96
  81 001c D2B2     		uxtb	r2, r2
  82 001e 1A70     		strb	r2, [r3, #0]
  63:.\Generated_Source\PSoC5/WaveDAC8_1_BuffAmp.c **** 
  64:.\Generated_Source\PSoC5/WaveDAC8_1_BuffAmp.c ****     /* Enable power to buffer in active mode */
  65:.\Generated_Source\PSoC5/WaveDAC8_1_BuffAmp.c ****     WaveDAC8_1_BuffAmp_PM_ACT_CFG_REG |= WaveDAC8_1_BuffAmp_ACT_PWR_EN;
  83              		.loc 1 65 0
  84 0020 44F2A433 		movw	r3, #17316
  85 0024 C4F20003 		movt	r3, 16384
  86 0028 44F2A432 		movw	r2, #17316
  87 002c C4F20002 		movt	r2, 16384
  88 0030 1278     		ldrb	r2, [r2, #0]
  89 0032 D2B2     		uxtb	r2, r2
  90 0034 42F00402 		orr	r2, r2, #4
  91 0038 D2B2     		uxtb	r2, r2
  92 003a 1A70     		strb	r2, [r3, #0]
  66:.\Generated_Source\PSoC5/WaveDAC8_1_BuffAmp.c **** 
  67:.\Generated_Source\PSoC5/WaveDAC8_1_BuffAmp.c ****     /* Enable power to buffer in alternative active mode */
  68:.\Generated_Source\PSoC5/WaveDAC8_1_BuffAmp.c ****     WaveDAC8_1_BuffAmp_PM_STBY_CFG_REG |= WaveDAC8_1_BuffAmp_STBY_PWR_EN;
  93              		.loc 1 68 0
  94 003c 44F2B433 		movw	r3, #17332
  95 0040 C4F20003 		movt	r3, 16384
  96 0044 44F2B432 		movw	r2, #17332
  97 0048 C4F20002 		movt	r2, 16384
  98 004c 1278     		ldrb	r2, [r2, #0]
  99 004e D2B2     		uxtb	r2, r2
 100 0050 42F00402 		orr	r2, r2, #4
 101 0054 D2B2     		uxtb	r2, r2
 102 0056 1A70     		strb	r2, [r3, #0]
  69:.\Generated_Source\PSoC5/WaveDAC8_1_BuffAmp.c **** }
ARM GAS  C:\Users\Robert\AppData\Local\Temp\ccKtbM0t.s 			page 4


 103              		.loc 1 69 0
 104 0058 BD46     		mov	sp, r7
 105 005a 80BC     		pop	{r7}
 106 005c 7047     		bx	lr
 107              		.cfi_endproc
 108              	.LFE1:
 109              		.size	WaveDAC8_1_BuffAmp_Enable, .-WaveDAC8_1_BuffAmp_Enable
 110 005e 00BF     		.section	.text.WaveDAC8_1_BuffAmp_Start,"ax",%progbits
 111              		.align	2
 112              		.global	WaveDAC8_1_BuffAmp_Start
 113              		.thumb
 114              		.thumb_func
 115              		.type	WaveDAC8_1_BuffAmp_Start, %function
 116              	WaveDAC8_1_BuffAmp_Start:
 117              	.LFB2:
  70:.\Generated_Source\PSoC5/WaveDAC8_1_BuffAmp.c **** 
  71:.\Generated_Source\PSoC5/WaveDAC8_1_BuffAmp.c **** 
  72:.\Generated_Source\PSoC5/WaveDAC8_1_BuffAmp.c **** /*******************************************************************************
  73:.\Generated_Source\PSoC5/WaveDAC8_1_BuffAmp.c **** * Function Name:   WaveDAC8_1_BuffAmp_Start
  74:.\Generated_Source\PSoC5/WaveDAC8_1_BuffAmp.c **** ********************************************************************************
  75:.\Generated_Source\PSoC5/WaveDAC8_1_BuffAmp.c **** *
  76:.\Generated_Source\PSoC5/WaveDAC8_1_BuffAmp.c **** * Summary:
  77:.\Generated_Source\PSoC5/WaveDAC8_1_BuffAmp.c **** *  The start function initializes the Analog Buffer with the default values and 
  78:.\Generated_Source\PSoC5/WaveDAC8_1_BuffAmp.c **** *  sets the power to the given level. A power level of 0, is same as 
  79:.\Generated_Source\PSoC5/WaveDAC8_1_BuffAmp.c **** *  executing the stop function.
  80:.\Generated_Source\PSoC5/WaveDAC8_1_BuffAmp.c **** *
  81:.\Generated_Source\PSoC5/WaveDAC8_1_BuffAmp.c **** * Parameters:
  82:.\Generated_Source\PSoC5/WaveDAC8_1_BuffAmp.c **** *  void
  83:.\Generated_Source\PSoC5/WaveDAC8_1_BuffAmp.c **** *
  84:.\Generated_Source\PSoC5/WaveDAC8_1_BuffAmp.c **** * Return:
  85:.\Generated_Source\PSoC5/WaveDAC8_1_BuffAmp.c **** *  void
  86:.\Generated_Source\PSoC5/WaveDAC8_1_BuffAmp.c **** *
  87:.\Generated_Source\PSoC5/WaveDAC8_1_BuffAmp.c **** * Global variables:
  88:.\Generated_Source\PSoC5/WaveDAC8_1_BuffAmp.c **** *  WaveDAC8_1_BuffAmp_initVar: Used to check the initial configuration, modified 
  89:.\Generated_Source\PSoC5/WaveDAC8_1_BuffAmp.c **** *  when this function is called for the first time.
  90:.\Generated_Source\PSoC5/WaveDAC8_1_BuffAmp.c **** *
  91:.\Generated_Source\PSoC5/WaveDAC8_1_BuffAmp.c **** *******************************************************************************/
  92:.\Generated_Source\PSoC5/WaveDAC8_1_BuffAmp.c **** void WaveDAC8_1_BuffAmp_Start(void) 
  93:.\Generated_Source\PSoC5/WaveDAC8_1_BuffAmp.c **** {
 118              		.loc 1 93 0
 119              		.cfi_startproc
 120              		@ args = 0, pretend = 0, frame = 0
 121              		@ frame_needed = 1, uses_anonymous_args = 0
 122 0000 80B5     		push	{r7, lr}
 123              	.LCFI4:
 124              		.cfi_def_cfa_offset 8
 125              		.cfi_offset 7, -8
 126              		.cfi_offset 14, -4
 127 0002 00AF     		add	r7, sp, #0
 128              	.LCFI5:
 129              		.cfi_def_cfa_register 7
  94:.\Generated_Source\PSoC5/WaveDAC8_1_BuffAmp.c ****     if(WaveDAC8_1_BuffAmp_initVar == 0u)
 130              		.loc 1 94 0
 131 0004 40F20003 		movw	r3, #:lower16:WaveDAC8_1_BuffAmp_initVar
 132 0008 C0F20003 		movt	r3, #:upper16:WaveDAC8_1_BuffAmp_initVar
 133 000c 1B78     		ldrb	r3, [r3, #0]	@ zero_extendqisi2
 134 000e 002B     		cmp	r3, #0
ARM GAS  C:\Users\Robert\AppData\Local\Temp\ccKtbM0t.s 			page 5


 135 0010 08D1     		bne	.L4
  95:.\Generated_Source\PSoC5/WaveDAC8_1_BuffAmp.c ****     {
  96:.\Generated_Source\PSoC5/WaveDAC8_1_BuffAmp.c ****         WaveDAC8_1_BuffAmp_initVar = 1u;
 136              		.loc 1 96 0
 137 0012 40F20003 		movw	r3, #:lower16:WaveDAC8_1_BuffAmp_initVar
 138 0016 C0F20003 		movt	r3, #:upper16:WaveDAC8_1_BuffAmp_initVar
 139 001a 4FF00102 		mov	r2, #1
 140 001e 1A70     		strb	r2, [r3, #0]
  97:.\Generated_Source\PSoC5/WaveDAC8_1_BuffAmp.c ****         WaveDAC8_1_BuffAmp_Init();
 141              		.loc 1 97 0
 142 0020 FFF7FEFF 		bl	WaveDAC8_1_BuffAmp_Init
 143              	.L4:
  98:.\Generated_Source\PSoC5/WaveDAC8_1_BuffAmp.c ****     }
  99:.\Generated_Source\PSoC5/WaveDAC8_1_BuffAmp.c **** 
 100:.\Generated_Source\PSoC5/WaveDAC8_1_BuffAmp.c ****     WaveDAC8_1_BuffAmp_Enable();
 144              		.loc 1 100 0
 145 0024 FFF7FEFF 		bl	WaveDAC8_1_BuffAmp_Enable
 101:.\Generated_Source\PSoC5/WaveDAC8_1_BuffAmp.c **** }
 146              		.loc 1 101 0
 147 0028 80BD     		pop	{r7, pc}
 148              		.cfi_endproc
 149              	.LFE2:
 150              		.size	WaveDAC8_1_BuffAmp_Start, .-WaveDAC8_1_BuffAmp_Start
 151 002a 00BF     		.section	.text.WaveDAC8_1_BuffAmp_Stop,"ax",%progbits
 152              		.align	2
 153              		.global	WaveDAC8_1_BuffAmp_Stop
 154              		.thumb
 155              		.thumb_func
 156              		.type	WaveDAC8_1_BuffAmp_Stop, %function
 157              	WaveDAC8_1_BuffAmp_Stop:
 158              	.LFB3:
 102:.\Generated_Source\PSoC5/WaveDAC8_1_BuffAmp.c **** 
 103:.\Generated_Source\PSoC5/WaveDAC8_1_BuffAmp.c **** 
 104:.\Generated_Source\PSoC5/WaveDAC8_1_BuffAmp.c **** /*******************************************************************************
 105:.\Generated_Source\PSoC5/WaveDAC8_1_BuffAmp.c **** * Function Name: WaveDAC8_1_BuffAmp_Stop
 106:.\Generated_Source\PSoC5/WaveDAC8_1_BuffAmp.c **** ********************************************************************************
 107:.\Generated_Source\PSoC5/WaveDAC8_1_BuffAmp.c **** *
 108:.\Generated_Source\PSoC5/WaveDAC8_1_BuffAmp.c **** * Summary:
 109:.\Generated_Source\PSoC5/WaveDAC8_1_BuffAmp.c **** *  Powers down amplifier to lowest power state.
 110:.\Generated_Source\PSoC5/WaveDAC8_1_BuffAmp.c **** *
 111:.\Generated_Source\PSoC5/WaveDAC8_1_BuffAmp.c **** * Parameters:
 112:.\Generated_Source\PSoC5/WaveDAC8_1_BuffAmp.c **** *  void
 113:.\Generated_Source\PSoC5/WaveDAC8_1_BuffAmp.c **** *
 114:.\Generated_Source\PSoC5/WaveDAC8_1_BuffAmp.c **** * Return:
 115:.\Generated_Source\PSoC5/WaveDAC8_1_BuffAmp.c **** *  void
 116:.\Generated_Source\PSoC5/WaveDAC8_1_BuffAmp.c **** *
 117:.\Generated_Source\PSoC5/WaveDAC8_1_BuffAmp.c **** *******************************************************************************/
 118:.\Generated_Source\PSoC5/WaveDAC8_1_BuffAmp.c **** void WaveDAC8_1_BuffAmp_Stop(void) 
 119:.\Generated_Source\PSoC5/WaveDAC8_1_BuffAmp.c **** {
 159              		.loc 1 119 0
 160              		.cfi_startproc
 161              		@ args = 0, pretend = 0, frame = 0
 162              		@ frame_needed = 1, uses_anonymous_args = 0
 163              		@ link register save eliminated.
 164 0000 80B4     		push	{r7}
 165              	.LCFI6:
 166              		.cfi_def_cfa_offset 4
ARM GAS  C:\Users\Robert\AppData\Local\Temp\ccKtbM0t.s 			page 6


 167              		.cfi_offset 7, -4
 168 0002 00AF     		add	r7, sp, #0
 169              	.LCFI7:
 170              		.cfi_def_cfa_register 7
 120:.\Generated_Source\PSoC5/WaveDAC8_1_BuffAmp.c ****     /* Disable power to buffer in active mode template */
 121:.\Generated_Source\PSoC5/WaveDAC8_1_BuffAmp.c ****     WaveDAC8_1_BuffAmp_PM_ACT_CFG_REG &= (uint8)(~WaveDAC8_1_BuffAmp_ACT_PWR_EN);
 171              		.loc 1 121 0
 172 0004 44F2A433 		movw	r3, #17316
 173 0008 C4F20003 		movt	r3, 16384
 174 000c 44F2A432 		movw	r2, #17316
 175 0010 C4F20002 		movt	r2, 16384
 176 0014 1278     		ldrb	r2, [r2, #0]
 177 0016 D2B2     		uxtb	r2, r2
 178 0018 22F00402 		bic	r2, r2, #4
 179 001c D2B2     		uxtb	r2, r2
 180 001e 1A70     		strb	r2, [r3, #0]
 122:.\Generated_Source\PSoC5/WaveDAC8_1_BuffAmp.c **** 
 123:.\Generated_Source\PSoC5/WaveDAC8_1_BuffAmp.c ****     /* Disable power to buffer in alternative active mode template */
 124:.\Generated_Source\PSoC5/WaveDAC8_1_BuffAmp.c ****     WaveDAC8_1_BuffAmp_PM_STBY_CFG_REG &= (uint8)(~WaveDAC8_1_BuffAmp_STBY_PWR_EN);
 181              		.loc 1 124 0
 182 0020 44F2B433 		movw	r3, #17332
 183 0024 C4F20003 		movt	r3, 16384
 184 0028 44F2B432 		movw	r2, #17332
 185 002c C4F20002 		movt	r2, 16384
 186 0030 1278     		ldrb	r2, [r2, #0]
 187 0032 D2B2     		uxtb	r2, r2
 188 0034 22F00402 		bic	r2, r2, #4
 189 0038 D2B2     		uxtb	r2, r2
 190 003a 1A70     		strb	r2, [r3, #0]
 125:.\Generated_Source\PSoC5/WaveDAC8_1_BuffAmp.c ****     
 126:.\Generated_Source\PSoC5/WaveDAC8_1_BuffAmp.c ****     /* Disable negative charge pumps for ANIF only if all ABuf is turned OFF */
 127:.\Generated_Source\PSoC5/WaveDAC8_1_BuffAmp.c ****     if(WaveDAC8_1_BuffAmp_PM_ACT_CFG_REG == 0u)
 191              		.loc 1 127 0
 192 003c 44F2A433 		movw	r3, #17316
 193 0040 C4F20003 		movt	r3, 16384
 194 0044 1B78     		ldrb	r3, [r3, #0]
 195 0046 DBB2     		uxtb	r3, r3
 196 0048 002B     		cmp	r3, #0
 197 004a 0DD1     		bne	.L5
 128:.\Generated_Source\PSoC5/WaveDAC8_1_BuffAmp.c ****     {
 129:.\Generated_Source\PSoC5/WaveDAC8_1_BuffAmp.c ****         WaveDAC8_1_BuffAmp_PUMP_CR1_REG &= (uint8)(~(WaveDAC8_1_BuffAmp_PUMP_CR1_CLKSEL | WaveDAC8_
 198              		.loc 1 129 0
 199 004c 45F67703 		movw	r3, #22647
 200 0050 C4F20003 		movt	r3, 16384
 201 0054 45F67702 		movw	r2, #22647
 202 0058 C4F20002 		movt	r2, 16384
 203 005c 1278     		ldrb	r2, [r2, #0]
 204 005e D2B2     		uxtb	r2, r2
 205 0060 22F06002 		bic	r2, r2, #96
 206 0064 D2B2     		uxtb	r2, r2
 207 0066 1A70     		strb	r2, [r3, #0]
 208              	.L5:
 130:.\Generated_Source\PSoC5/WaveDAC8_1_BuffAmp.c ****     }
 131:.\Generated_Source\PSoC5/WaveDAC8_1_BuffAmp.c **** }
 209              		.loc 1 131 0
 210 0068 BD46     		mov	sp, r7
 211 006a 80BC     		pop	{r7}
ARM GAS  C:\Users\Robert\AppData\Local\Temp\ccKtbM0t.s 			page 7


 212 006c 7047     		bx	lr
 213              		.cfi_endproc
 214              	.LFE3:
 215              		.size	WaveDAC8_1_BuffAmp_Stop, .-WaveDAC8_1_BuffAmp_Stop
 216 006e 00BF     		.section	.text.WaveDAC8_1_BuffAmp_SetPower,"ax",%progbits
 217              		.align	2
 218              		.global	WaveDAC8_1_BuffAmp_SetPower
 219              		.thumb
 220              		.thumb_func
 221              		.type	WaveDAC8_1_BuffAmp_SetPower, %function
 222              	WaveDAC8_1_BuffAmp_SetPower:
 223              	.LFB4:
 132:.\Generated_Source\PSoC5/WaveDAC8_1_BuffAmp.c **** 
 133:.\Generated_Source\PSoC5/WaveDAC8_1_BuffAmp.c **** 
 134:.\Generated_Source\PSoC5/WaveDAC8_1_BuffAmp.c **** /*******************************************************************************
 135:.\Generated_Source\PSoC5/WaveDAC8_1_BuffAmp.c **** * Function Name: WaveDAC8_1_BuffAmp_SetPower
 136:.\Generated_Source\PSoC5/WaveDAC8_1_BuffAmp.c **** ********************************************************************************
 137:.\Generated_Source\PSoC5/WaveDAC8_1_BuffAmp.c **** *
 138:.\Generated_Source\PSoC5/WaveDAC8_1_BuffAmp.c **** * Summary:
 139:.\Generated_Source\PSoC5/WaveDAC8_1_BuffAmp.c **** *  Sets power level of Analog buffer.
 140:.\Generated_Source\PSoC5/WaveDAC8_1_BuffAmp.c **** *
 141:.\Generated_Source\PSoC5/WaveDAC8_1_BuffAmp.c **** * Parameters: 
 142:.\Generated_Source\PSoC5/WaveDAC8_1_BuffAmp.c **** *  power: PSoC3: Sets power level between low (1) and high power (3).
 143:.\Generated_Source\PSoC5/WaveDAC8_1_BuffAmp.c **** *         PSoC5: Sets power level High (0)
 144:.\Generated_Source\PSoC5/WaveDAC8_1_BuffAmp.c **** *
 145:.\Generated_Source\PSoC5/WaveDAC8_1_BuffAmp.c **** * Return:
 146:.\Generated_Source\PSoC5/WaveDAC8_1_BuffAmp.c **** *  void
 147:.\Generated_Source\PSoC5/WaveDAC8_1_BuffAmp.c **** *
 148:.\Generated_Source\PSoC5/WaveDAC8_1_BuffAmp.c **** **********************************************************************************/
 149:.\Generated_Source\PSoC5/WaveDAC8_1_BuffAmp.c **** void WaveDAC8_1_BuffAmp_SetPower(uint8 power) 
 150:.\Generated_Source\PSoC5/WaveDAC8_1_BuffAmp.c **** {
 224              		.loc 1 150 0
 225              		.cfi_startproc
 226              		@ args = 0, pretend = 0, frame = 8
 227              		@ frame_needed = 1, uses_anonymous_args = 0
 228              		@ link register save eliminated.
 229 0000 80B4     		push	{r7}
 230              	.LCFI8:
 231              		.cfi_def_cfa_offset 4
 232              		.cfi_offset 7, -4
 233 0002 83B0     		sub	sp, sp, #12
 234              	.LCFI9:
 235              		.cfi_def_cfa_offset 16
 236 0004 00AF     		add	r7, sp, #0
 237              	.LCFI10:
 238              		.cfi_def_cfa_register 7
 239 0006 0346     		mov	r3, r0
 240 0008 FB71     		strb	r3, [r7, #7]
 151:.\Generated_Source\PSoC5/WaveDAC8_1_BuffAmp.c ****     #if (CY_PSOC3 || CY_PSOC5LP)
 152:.\Generated_Source\PSoC5/WaveDAC8_1_BuffAmp.c ****         WaveDAC8_1_BuffAmp_CR_REG &= (uint8)(~WaveDAC8_1_BuffAmp_PWR_MASK);
 241              		.loc 1 152 0
 242 000a 45F65C03 		movw	r3, #22620
 243 000e C4F20003 		movt	r3, 16384
 244 0012 45F65C02 		movw	r2, #22620
 245 0016 C4F20002 		movt	r2, 16384
 246 001a 1278     		ldrb	r2, [r2, #0]
 247 001c D2B2     		uxtb	r2, r2
ARM GAS  C:\Users\Robert\AppData\Local\Temp\ccKtbM0t.s 			page 8


 248 001e 22F00302 		bic	r2, r2, #3
 249 0022 D2B2     		uxtb	r2, r2
 250 0024 1A70     		strb	r2, [r3, #0]
 153:.\Generated_Source\PSoC5/WaveDAC8_1_BuffAmp.c ****         WaveDAC8_1_BuffAmp_CR_REG |= power & WaveDAC8_1_BuffAmp_PWR_MASK;      /* Set device power 
 251              		.loc 1 153 0
 252 0026 45F65C03 		movw	r3, #22620
 253 002a C4F20003 		movt	r3, 16384
 254 002e 45F65C02 		movw	r2, #22620
 255 0032 C4F20002 		movt	r2, 16384
 256 0036 1278     		ldrb	r2, [r2, #0]
 257 0038 D1B2     		uxtb	r1, r2
 258 003a FA79     		ldrb	r2, [r7, #7]
 259 003c 02F00302 		and	r2, r2, #3
 260 0040 D2B2     		uxtb	r2, r2
 261 0042 0A43     		orrs	r2, r2, r1
 262 0044 D2B2     		uxtb	r2, r2
 263 0046 1A70     		strb	r2, [r3, #0]
 154:.\Generated_Source\PSoC5/WaveDAC8_1_BuffAmp.c ****     #else
 155:.\Generated_Source\PSoC5/WaveDAC8_1_BuffAmp.c ****         CYASSERT(WaveDAC8_1_BuffAmp_HIGHPOWER == power);
 156:.\Generated_Source\PSoC5/WaveDAC8_1_BuffAmp.c ****     #endif /* CY_PSOC3 || CY_PSOC5LP */
 157:.\Generated_Source\PSoC5/WaveDAC8_1_BuffAmp.c **** }
 264              		.loc 1 157 0
 265 0048 07F10C07 		add	r7, r7, #12
 266 004c BD46     		mov	sp, r7
 267 004e 80BC     		pop	{r7}
 268 0050 7047     		bx	lr
 269              		.cfi_endproc
 270              	.LFE4:
 271              		.size	WaveDAC8_1_BuffAmp_SetPower, .-WaveDAC8_1_BuffAmp_SetPower
 272 0052 00BF     		.text
 273              	.Letext0:
 274              		.file 2 ".\\Generated_Source\\PSoC5\\cytypes.h"