ARM GAS  C:\Users\Brian\AppData\Local\Temp\cc0Kmggc.s 			page 1


   1              		.syntax unified
   2              		.cpu cortex-m3
   3              		.fpu softvfp
   4              		.eabi_attribute 20, 1
   5              		.eabi_attribute 21, 1
   6              		.eabi_attribute 23, 3
   7              		.eabi_attribute 24, 1
   8              		.eabi_attribute 25, 1
   9              		.eabi_attribute 26, 1
  10              		.eabi_attribute 30, 6
  11              		.eabi_attribute 34, 1
  12              		.eabi_attribute 18, 4
  13              		.thumb
  14              		.file	"WaveDAC8_1_Wave2_DMA_dma.c"
  15              		.text
  16              	.Ltext0:
  17              		.cfi_sections	.debug_frame
  18              		.global	WaveDAC8_1_Wave2_DMA_DmaHandle
  19              		.data
  20              		.type	WaveDAC8_1_Wave2_DMA_DmaHandle, %object
  21              		.size	WaveDAC8_1_Wave2_DMA_DmaHandle, 1
  22              	WaveDAC8_1_Wave2_DMA_DmaHandle:
  23 0000 FF       		.byte	-1
  24              		.section	.text.WaveDAC8_1_Wave2_DMA_DmaInitialize,"ax",%progbits
  25              		.align	2
  26              		.global	WaveDAC8_1_Wave2_DMA_DmaInitialize
  27              		.thumb
  28              		.thumb_func
  29              		.type	WaveDAC8_1_Wave2_DMA_DmaInitialize, %function
  30              	WaveDAC8_1_Wave2_DMA_DmaInitialize:
  31              	.LFB0:
  32              		.file 1 ".\\Generated_Source\\PSoC5\\WaveDAC8_1_Wave2_DMA_dma.c"
   1:.\Generated_Source\PSoC5/WaveDAC8_1_Wave2_DMA_dma.c **** /***************************************************************************
   2:.\Generated_Source\PSoC5/WaveDAC8_1_Wave2_DMA_dma.c **** * File Name: WaveDAC8_1_Wave2_DMA_dma.c  
   3:.\Generated_Source\PSoC5/WaveDAC8_1_Wave2_DMA_dma.c **** * Version 1.70
   4:.\Generated_Source\PSoC5/WaveDAC8_1_Wave2_DMA_dma.c **** *
   5:.\Generated_Source\PSoC5/WaveDAC8_1_Wave2_DMA_dma.c **** *  Description:
   6:.\Generated_Source\PSoC5/WaveDAC8_1_Wave2_DMA_dma.c **** *   Provides an API for the DMAC component. The API includes functions
   7:.\Generated_Source\PSoC5/WaveDAC8_1_Wave2_DMA_dma.c **** *   for the DMA controller, DMA channels and Transfer Descriptors.
   8:.\Generated_Source\PSoC5/WaveDAC8_1_Wave2_DMA_dma.c **** *
   9:.\Generated_Source\PSoC5/WaveDAC8_1_Wave2_DMA_dma.c **** *
  10:.\Generated_Source\PSoC5/WaveDAC8_1_Wave2_DMA_dma.c **** *   Note:
  11:.\Generated_Source\PSoC5/WaveDAC8_1_Wave2_DMA_dma.c **** *     This module requires the developer to finish or fill in the auto
  12:.\Generated_Source\PSoC5/WaveDAC8_1_Wave2_DMA_dma.c **** *     generated funcions and setup the dma channel and TD's.
  13:.\Generated_Source\PSoC5/WaveDAC8_1_Wave2_DMA_dma.c **** *
  14:.\Generated_Source\PSoC5/WaveDAC8_1_Wave2_DMA_dma.c **** ********************************************************************************
  15:.\Generated_Source\PSoC5/WaveDAC8_1_Wave2_DMA_dma.c **** * Copyright 2008-2010, Cypress Semiconductor Corporation.  All rights reserved.
  16:.\Generated_Source\PSoC5/WaveDAC8_1_Wave2_DMA_dma.c **** * You may use this file only in accordance with the license, terms, conditions, 
  17:.\Generated_Source\PSoC5/WaveDAC8_1_Wave2_DMA_dma.c **** * disclaimers, and limitations in the end user license agreement accompanying 
  18:.\Generated_Source\PSoC5/WaveDAC8_1_Wave2_DMA_dma.c **** * the software package with which this file was provided.
  19:.\Generated_Source\PSoC5/WaveDAC8_1_Wave2_DMA_dma.c **** ********************************************************************************/
  20:.\Generated_Source\PSoC5/WaveDAC8_1_Wave2_DMA_dma.c **** #include <CYLIB.H>
  21:.\Generated_Source\PSoC5/WaveDAC8_1_Wave2_DMA_dma.c **** #include <CYDMAC.H>
  22:.\Generated_Source\PSoC5/WaveDAC8_1_Wave2_DMA_dma.c **** #include <WaveDAC8_1_Wave2_DMA_dma.H>
  23:.\Generated_Source\PSoC5/WaveDAC8_1_Wave2_DMA_dma.c **** 
  24:.\Generated_Source\PSoC5/WaveDAC8_1_Wave2_DMA_dma.c **** 
  25:.\Generated_Source\PSoC5/WaveDAC8_1_Wave2_DMA_dma.c **** 
ARM GAS  C:\Users\Brian\AppData\Local\Temp\cc0Kmggc.s 			page 2


  26:.\Generated_Source\PSoC5/WaveDAC8_1_Wave2_DMA_dma.c **** /****************************************************************************
  27:.\Generated_Source\PSoC5/WaveDAC8_1_Wave2_DMA_dma.c **** * 
  28:.\Generated_Source\PSoC5/WaveDAC8_1_Wave2_DMA_dma.c **** * The following defines are available in Cyfitter.h
  29:.\Generated_Source\PSoC5/WaveDAC8_1_Wave2_DMA_dma.c **** * 
  30:.\Generated_Source\PSoC5/WaveDAC8_1_Wave2_DMA_dma.c **** * 
  31:.\Generated_Source\PSoC5/WaveDAC8_1_Wave2_DMA_dma.c **** * 
  32:.\Generated_Source\PSoC5/WaveDAC8_1_Wave2_DMA_dma.c **** * WaveDAC8_1_Wave2_DMA__DRQ_CTL_REG
  33:.\Generated_Source\PSoC5/WaveDAC8_1_Wave2_DMA_dma.c **** * 
  34:.\Generated_Source\PSoC5/WaveDAC8_1_Wave2_DMA_dma.c **** * 
  35:.\Generated_Source\PSoC5/WaveDAC8_1_Wave2_DMA_dma.c **** * WaveDAC8_1_Wave2_DMA__DRQ_NUMBER
  36:.\Generated_Source\PSoC5/WaveDAC8_1_Wave2_DMA_dma.c **** * 
  37:.\Generated_Source\PSoC5/WaveDAC8_1_Wave2_DMA_dma.c **** * Number of TD's used by this channel.
  38:.\Generated_Source\PSoC5/WaveDAC8_1_Wave2_DMA_dma.c **** * WaveDAC8_1_Wave2_DMA__NUMBEROF_TDS
  39:.\Generated_Source\PSoC5/WaveDAC8_1_Wave2_DMA_dma.c **** * 
  40:.\Generated_Source\PSoC5/WaveDAC8_1_Wave2_DMA_dma.c **** * Priority of this channel.
  41:.\Generated_Source\PSoC5/WaveDAC8_1_Wave2_DMA_dma.c **** * WaveDAC8_1_Wave2_DMA__PRIORITY
  42:.\Generated_Source\PSoC5/WaveDAC8_1_Wave2_DMA_dma.c **** * 
  43:.\Generated_Source\PSoC5/WaveDAC8_1_Wave2_DMA_dma.c **** * True if WaveDAC8_1_Wave2_DMA_TERMIN_SEL is used.
  44:.\Generated_Source\PSoC5/WaveDAC8_1_Wave2_DMA_dma.c **** * WaveDAC8_1_Wave2_DMA__TERMIN_EN
  45:.\Generated_Source\PSoC5/WaveDAC8_1_Wave2_DMA_dma.c **** * 
  46:.\Generated_Source\PSoC5/WaveDAC8_1_Wave2_DMA_dma.c **** * TERMIN interrupt line to signal terminate.
  47:.\Generated_Source\PSoC5/WaveDAC8_1_Wave2_DMA_dma.c **** * WaveDAC8_1_Wave2_DMA__TERMIN_SEL
  48:.\Generated_Source\PSoC5/WaveDAC8_1_Wave2_DMA_dma.c **** * 
  49:.\Generated_Source\PSoC5/WaveDAC8_1_Wave2_DMA_dma.c **** * 
  50:.\Generated_Source\PSoC5/WaveDAC8_1_Wave2_DMA_dma.c **** * True if WaveDAC8_1_Wave2_DMA_TERMOUT0_SEL is used.
  51:.\Generated_Source\PSoC5/WaveDAC8_1_Wave2_DMA_dma.c **** * WaveDAC8_1_Wave2_DMA__TERMOUT0_EN
  52:.\Generated_Source\PSoC5/WaveDAC8_1_Wave2_DMA_dma.c **** * 
  53:.\Generated_Source\PSoC5/WaveDAC8_1_Wave2_DMA_dma.c **** * 
  54:.\Generated_Source\PSoC5/WaveDAC8_1_Wave2_DMA_dma.c **** * TERMOUT0 interrupt line to signal completion.
  55:.\Generated_Source\PSoC5/WaveDAC8_1_Wave2_DMA_dma.c **** * WaveDAC8_1_Wave2_DMA__TERMOUT0_SEL
  56:.\Generated_Source\PSoC5/WaveDAC8_1_Wave2_DMA_dma.c **** * 
  57:.\Generated_Source\PSoC5/WaveDAC8_1_Wave2_DMA_dma.c **** * 
  58:.\Generated_Source\PSoC5/WaveDAC8_1_Wave2_DMA_dma.c **** * True if WaveDAC8_1_Wave2_DMA_TERMOUT1_SEL is used.
  59:.\Generated_Source\PSoC5/WaveDAC8_1_Wave2_DMA_dma.c **** * WaveDAC8_1_Wave2_DMA__TERMOUT1_EN
  60:.\Generated_Source\PSoC5/WaveDAC8_1_Wave2_DMA_dma.c **** * 
  61:.\Generated_Source\PSoC5/WaveDAC8_1_Wave2_DMA_dma.c **** * 
  62:.\Generated_Source\PSoC5/WaveDAC8_1_Wave2_DMA_dma.c **** * TERMOUT1 interrupt line to signal completion.
  63:.\Generated_Source\PSoC5/WaveDAC8_1_Wave2_DMA_dma.c **** * WaveDAC8_1_Wave2_DMA__TERMOUT1_SEL
  64:.\Generated_Source\PSoC5/WaveDAC8_1_Wave2_DMA_dma.c **** * 
  65:.\Generated_Source\PSoC5/WaveDAC8_1_Wave2_DMA_dma.c **** ****************************************************************************/
  66:.\Generated_Source\PSoC5/WaveDAC8_1_Wave2_DMA_dma.c **** 
  67:.\Generated_Source\PSoC5/WaveDAC8_1_Wave2_DMA_dma.c **** 
  68:.\Generated_Source\PSoC5/WaveDAC8_1_Wave2_DMA_dma.c **** /* Zero based index of WaveDAC8_1_Wave2_DMA dma channel */
  69:.\Generated_Source\PSoC5/WaveDAC8_1_Wave2_DMA_dma.c **** uint8 WaveDAC8_1_Wave2_DMA_DmaHandle = DMA_INVALID_CHANNEL;
  70:.\Generated_Source\PSoC5/WaveDAC8_1_Wave2_DMA_dma.c **** 
  71:.\Generated_Source\PSoC5/WaveDAC8_1_Wave2_DMA_dma.c **** /*********************************************************************
  72:.\Generated_Source\PSoC5/WaveDAC8_1_Wave2_DMA_dma.c **** * Function Name: uint8 WaveDAC8_1_Wave2_DMA_DmaInitalize
  73:.\Generated_Source\PSoC5/WaveDAC8_1_Wave2_DMA_dma.c **** **********************************************************************
  74:.\Generated_Source\PSoC5/WaveDAC8_1_Wave2_DMA_dma.c **** * Summary:
  75:.\Generated_Source\PSoC5/WaveDAC8_1_Wave2_DMA_dma.c **** *   Allocates and initialises a channel of the DMAC to be used by the
  76:.\Generated_Source\PSoC5/WaveDAC8_1_Wave2_DMA_dma.c **** *   caller.
  77:.\Generated_Source\PSoC5/WaveDAC8_1_Wave2_DMA_dma.c **** *
  78:.\Generated_Source\PSoC5/WaveDAC8_1_Wave2_DMA_dma.c **** * Parameters:
  79:.\Generated_Source\PSoC5/WaveDAC8_1_Wave2_DMA_dma.c **** *   BurstCount.
  80:.\Generated_Source\PSoC5/WaveDAC8_1_Wave2_DMA_dma.c **** *       
  81:.\Generated_Source\PSoC5/WaveDAC8_1_Wave2_DMA_dma.c **** *       
  82:.\Generated_Source\PSoC5/WaveDAC8_1_Wave2_DMA_dma.c **** *   ReqestPerBurst.
ARM GAS  C:\Users\Brian\AppData\Local\Temp\cc0Kmggc.s 			page 3


  83:.\Generated_Source\PSoC5/WaveDAC8_1_Wave2_DMA_dma.c **** *       
  84:.\Generated_Source\PSoC5/WaveDAC8_1_Wave2_DMA_dma.c **** *       
  85:.\Generated_Source\PSoC5/WaveDAC8_1_Wave2_DMA_dma.c **** *   UpperSrcAddress.
  86:.\Generated_Source\PSoC5/WaveDAC8_1_Wave2_DMA_dma.c **** *       
  87:.\Generated_Source\PSoC5/WaveDAC8_1_Wave2_DMA_dma.c **** *       
  88:.\Generated_Source\PSoC5/WaveDAC8_1_Wave2_DMA_dma.c **** *   UpperDestAddress.
  89:.\Generated_Source\PSoC5/WaveDAC8_1_Wave2_DMA_dma.c **** *       
  90:.\Generated_Source\PSoC5/WaveDAC8_1_Wave2_DMA_dma.c **** *
  91:.\Generated_Source\PSoC5/WaveDAC8_1_Wave2_DMA_dma.c **** * Return:
  92:.\Generated_Source\PSoC5/WaveDAC8_1_Wave2_DMA_dma.c **** *   The channel that can be used by the caller for DMA activity.
  93:.\Generated_Source\PSoC5/WaveDAC8_1_Wave2_DMA_dma.c **** *   DMA_INVALID_CHANNEL (0xFF) if there are no channels left. 
  94:.\Generated_Source\PSoC5/WaveDAC8_1_Wave2_DMA_dma.c **** *
  95:.\Generated_Source\PSoC5/WaveDAC8_1_Wave2_DMA_dma.c **** *
  96:.\Generated_Source\PSoC5/WaveDAC8_1_Wave2_DMA_dma.c **** *******************************************************************/
  97:.\Generated_Source\PSoC5/WaveDAC8_1_Wave2_DMA_dma.c **** uint8 WaveDAC8_1_Wave2_DMA_DmaInitialize(uint8 BurstCount, uint8 ReqestPerBurst, uint16 UpperSrcAdd
  98:.\Generated_Source\PSoC5/WaveDAC8_1_Wave2_DMA_dma.c **** {
  33              		.loc 1 98 0
  34              		.cfi_startproc
  35              		@ args = 0, pretend = 0, frame = 8
  36              		@ frame_needed = 1, uses_anonymous_args = 0
  37 0000 80B5     		push	{r7, lr}
  38              	.LCFI0:
  39              		.cfi_def_cfa_offset 8
  40              		.cfi_offset 7, -8
  41              		.cfi_offset 14, -4
  42 0002 84B0     		sub	sp, sp, #16
  43              	.LCFI1:
  44              		.cfi_def_cfa_offset 24
  45 0004 02AF     		add	r7, sp, #8
  46              	.LCFI2:
  47              		.cfi_def_cfa 7, 16
  48 0006 F871     		strb	r0, [r7, #7]
  49 0008 B971     		strb	r1, [r7, #6]
  50 000a BA80     		strh	r2, [r7, #4]	@ movhi
  51 000c 7B80     		strh	r3, [r7, #2]	@ movhi
  99:.\Generated_Source\PSoC5/WaveDAC8_1_Wave2_DMA_dma.c **** 
 100:.\Generated_Source\PSoC5/WaveDAC8_1_Wave2_DMA_dma.c ****     /* Allocate a DMA channel. */
 101:.\Generated_Source\PSoC5/WaveDAC8_1_Wave2_DMA_dma.c ****     WaveDAC8_1_Wave2_DMA_DmaHandle = (uint8)WaveDAC8_1_Wave2_DMA__DRQ_NUMBER;
  52              		.loc 1 101 0
  53 000e 40F20003 		movw	r3, #:lower16:WaveDAC8_1_Wave2_DMA_DmaHandle
  54 0012 C0F20003 		movt	r3, #:upper16:WaveDAC8_1_Wave2_DMA_DmaHandle
  55 0016 4FF00302 		mov	r2, #3
  56 001a 1A70     		strb	r2, [r3, #0]
 102:.\Generated_Source\PSoC5/WaveDAC8_1_Wave2_DMA_dma.c **** 
 103:.\Generated_Source\PSoC5/WaveDAC8_1_Wave2_DMA_dma.c ****     /* Configure the channel. */
 104:.\Generated_Source\PSoC5/WaveDAC8_1_Wave2_DMA_dma.c ****     (void)CyDmaChSetConfiguration(WaveDAC8_1_Wave2_DMA_DmaHandle,
  57              		.loc 1 104 0
  58 001c 40F20003 		movw	r3, #:lower16:WaveDAC8_1_Wave2_DMA_DmaHandle
  59 0020 C0F20003 		movt	r3, #:upper16:WaveDAC8_1_Wave2_DMA_DmaHandle
  60 0024 1978     		ldrb	r1, [r3, #0]	@ zero_extendqisi2
  61 0026 FA79     		ldrb	r2, [r7, #7]	@ zero_extendqisi2
  62 0028 BB79     		ldrb	r3, [r7, #6]	@ zero_extendqisi2
  63 002a 4FF00000 		mov	r0, #0
  64 002e 0090     		str	r0, [sp, #0]
  65 0030 4FF00000 		mov	r0, #0
  66 0034 0190     		str	r0, [sp, #4]
  67 0036 0846     		mov	r0, r1
ARM GAS  C:\Users\Brian\AppData\Local\Temp\cc0Kmggc.s 			page 4


  68 0038 1146     		mov	r1, r2
  69 003a 1A46     		mov	r2, r3
  70 003c 4FF00003 		mov	r3, #0
  71 0040 FFF7FEFF 		bl	CyDmaChSetConfiguration
 105:.\Generated_Source\PSoC5/WaveDAC8_1_Wave2_DMA_dma.c ****                                   BurstCount,
 106:.\Generated_Source\PSoC5/WaveDAC8_1_Wave2_DMA_dma.c ****                                   ReqestPerBurst,
 107:.\Generated_Source\PSoC5/WaveDAC8_1_Wave2_DMA_dma.c ****                                   (uint8)WaveDAC8_1_Wave2_DMA__TERMOUT0_SEL,
 108:.\Generated_Source\PSoC5/WaveDAC8_1_Wave2_DMA_dma.c ****                                   (uint8)WaveDAC8_1_Wave2_DMA__TERMOUT1_SEL,
 109:.\Generated_Source\PSoC5/WaveDAC8_1_Wave2_DMA_dma.c ****                                   (uint8)WaveDAC8_1_Wave2_DMA__TERMIN_SEL);
 110:.\Generated_Source\PSoC5/WaveDAC8_1_Wave2_DMA_dma.c **** 
 111:.\Generated_Source\PSoC5/WaveDAC8_1_Wave2_DMA_dma.c ****     /* Set the extended address for the transfers */
 112:.\Generated_Source\PSoC5/WaveDAC8_1_Wave2_DMA_dma.c ****     (void)CyDmaChSetExtendedAddress(WaveDAC8_1_Wave2_DMA_DmaHandle, UpperSrcAddress, UpperDestAddre
  72              		.loc 1 112 0
  73 0044 40F20003 		movw	r3, #:lower16:WaveDAC8_1_Wave2_DMA_DmaHandle
  74 0048 C0F20003 		movt	r3, #:upper16:WaveDAC8_1_Wave2_DMA_DmaHandle
  75 004c 1978     		ldrb	r1, [r3, #0]	@ zero_extendqisi2
  76 004e BA88     		ldrh	r2, [r7, #4]
  77 0050 7B88     		ldrh	r3, [r7, #2]
  78 0052 0846     		mov	r0, r1
  79 0054 1146     		mov	r1, r2
  80 0056 1A46     		mov	r2, r3
  81 0058 FFF7FEFF 		bl	CyDmaChSetExtendedAddress
 113:.\Generated_Source\PSoC5/WaveDAC8_1_Wave2_DMA_dma.c **** 
 114:.\Generated_Source\PSoC5/WaveDAC8_1_Wave2_DMA_dma.c ****     /* Set the priority for this channel */
 115:.\Generated_Source\PSoC5/WaveDAC8_1_Wave2_DMA_dma.c ****     (void)CyDmaChPriority(WaveDAC8_1_Wave2_DMA_DmaHandle, (uint8)WaveDAC8_1_Wave2_DMA__PRIORITY);
  82              		.loc 1 115 0
  83 005c 40F20003 		movw	r3, #:lower16:WaveDAC8_1_Wave2_DMA_DmaHandle
  84 0060 C0F20003 		movt	r3, #:upper16:WaveDAC8_1_Wave2_DMA_DmaHandle
  85 0064 1B78     		ldrb	r3, [r3, #0]	@ zero_extendqisi2
  86 0066 1846     		mov	r0, r3
  87 0068 4FF00201 		mov	r1, #2
  88 006c FFF7FEFF 		bl	CyDmaChPriority
 116:.\Generated_Source\PSoC5/WaveDAC8_1_Wave2_DMA_dma.c ****     
 117:.\Generated_Source\PSoC5/WaveDAC8_1_Wave2_DMA_dma.c ****     return WaveDAC8_1_Wave2_DMA_DmaHandle;
  89              		.loc 1 117 0
  90 0070 40F20003 		movw	r3, #:lower16:WaveDAC8_1_Wave2_DMA_DmaHandle
  91 0074 C0F20003 		movt	r3, #:upper16:WaveDAC8_1_Wave2_DMA_DmaHandle
  92 0078 1B78     		ldrb	r3, [r3, #0]	@ zero_extendqisi2
 118:.\Generated_Source\PSoC5/WaveDAC8_1_Wave2_DMA_dma.c **** }
  93              		.loc 1 118 0
  94 007a 1846     		mov	r0, r3
  95 007c 07F10807 		add	r7, r7, #8
  96 0080 BD46     		mov	sp, r7
  97 0082 80BD     		pop	{r7, pc}
  98              		.cfi_endproc
  99              	.LFE0:
 100              		.size	WaveDAC8_1_Wave2_DMA_DmaInitialize, .-WaveDAC8_1_Wave2_DMA_DmaInitialize
 101              		.section	.text.WaveDAC8_1_Wave2_DMA_DmaRelease,"ax",%progbits
 102              		.align	2
 103              		.global	WaveDAC8_1_Wave2_DMA_DmaRelease
 104              		.thumb
 105              		.thumb_func
 106              		.type	WaveDAC8_1_Wave2_DMA_DmaRelease, %function
 107              	WaveDAC8_1_Wave2_DMA_DmaRelease:
 108              	.LFB1:
 119:.\Generated_Source\PSoC5/WaveDAC8_1_Wave2_DMA_dma.c **** 
 120:.\Generated_Source\PSoC5/WaveDAC8_1_Wave2_DMA_dma.c **** /*********************************************************************
ARM GAS  C:\Users\Brian\AppData\Local\Temp\cc0Kmggc.s 			page 5


 121:.\Generated_Source\PSoC5/WaveDAC8_1_Wave2_DMA_dma.c **** * Function Name: void WaveDAC8_1_Wave2_DMA_DmaRelease
 122:.\Generated_Source\PSoC5/WaveDAC8_1_Wave2_DMA_dma.c **** **********************************************************************
 123:.\Generated_Source\PSoC5/WaveDAC8_1_Wave2_DMA_dma.c **** * Summary:
 124:.\Generated_Source\PSoC5/WaveDAC8_1_Wave2_DMA_dma.c **** *   Frees the channel associated with WaveDAC8_1_Wave2_DMA.
 125:.\Generated_Source\PSoC5/WaveDAC8_1_Wave2_DMA_dma.c **** *
 126:.\Generated_Source\PSoC5/WaveDAC8_1_Wave2_DMA_dma.c **** *
 127:.\Generated_Source\PSoC5/WaveDAC8_1_Wave2_DMA_dma.c **** * Parameters:
 128:.\Generated_Source\PSoC5/WaveDAC8_1_Wave2_DMA_dma.c **** *   void.
 129:.\Generated_Source\PSoC5/WaveDAC8_1_Wave2_DMA_dma.c **** *
 130:.\Generated_Source\PSoC5/WaveDAC8_1_Wave2_DMA_dma.c **** *
 131:.\Generated_Source\PSoC5/WaveDAC8_1_Wave2_DMA_dma.c **** *
 132:.\Generated_Source\PSoC5/WaveDAC8_1_Wave2_DMA_dma.c **** * Return:
 133:.\Generated_Source\PSoC5/WaveDAC8_1_Wave2_DMA_dma.c **** *   void.
 134:.\Generated_Source\PSoC5/WaveDAC8_1_Wave2_DMA_dma.c **** *
 135:.\Generated_Source\PSoC5/WaveDAC8_1_Wave2_DMA_dma.c **** *******************************************************************/
 136:.\Generated_Source\PSoC5/WaveDAC8_1_Wave2_DMA_dma.c **** void WaveDAC8_1_Wave2_DMA_DmaRelease(void) 
 137:.\Generated_Source\PSoC5/WaveDAC8_1_Wave2_DMA_dma.c **** {
 109              		.loc 1 137 0
 110              		.cfi_startproc
 111              		@ args = 0, pretend = 0, frame = 0
 112              		@ frame_needed = 1, uses_anonymous_args = 0
 113 0000 80B5     		push	{r7, lr}
 114              	.LCFI3:
 115              		.cfi_def_cfa_offset 8
 116              		.cfi_offset 7, -8
 117              		.cfi_offset 14, -4
 118 0002 00AF     		add	r7, sp, #0
 119              	.LCFI4:
 120              		.cfi_def_cfa_register 7
 138:.\Generated_Source\PSoC5/WaveDAC8_1_Wave2_DMA_dma.c ****     /* Disable the channel */
 139:.\Generated_Source\PSoC5/WaveDAC8_1_Wave2_DMA_dma.c ****     (void)CyDmaChDisable(WaveDAC8_1_Wave2_DMA_DmaHandle);
 121              		.loc 1 139 0
 122 0004 40F20003 		movw	r3, #:lower16:WaveDAC8_1_Wave2_DMA_DmaHandle
 123 0008 C0F20003 		movt	r3, #:upper16:WaveDAC8_1_Wave2_DMA_DmaHandle
 124 000c 1B78     		ldrb	r3, [r3, #0]	@ zero_extendqisi2
 125 000e 1846     		mov	r0, r3
 126 0010 FFF7FEFF 		bl	CyDmaChDisable
 140:.\Generated_Source\PSoC5/WaveDAC8_1_Wave2_DMA_dma.c **** }
 127              		.loc 1 140 0
 128 0014 80BD     		pop	{r7, pc}
 129              		.cfi_endproc
 130              	.LFE1:
 131              		.size	WaveDAC8_1_Wave2_DMA_DmaRelease, .-WaveDAC8_1_Wave2_DMA_DmaRelease
 132 0016 00BF     		.text
 133              	.Letext0:
 134              		.file 2 "./Generated_Source/PSoC5/cytypes.h"