ARM GAS  C:\Users\Robert\AppData\Local\Temp\ccOhwY1E.s 			page 1


   1              		.syntax unified
   2              		.cpu cortex-m3
   3              		.fpu softvfp
   4              		.eabi_attribute 20, 1
   5              		.eabi_attribute 21, 1
   6              		.eabi_attribute 23, 3
   7              		.eabi_attribute 24, 1
   8              		.eabi_attribute 25, 1
   9              		.eabi_attribute 26, 1
  10              		.eabi_attribute 30, 6
  11              		.eabi_attribute 34, 1
  12              		.eabi_attribute 18, 4
  13              		.thumb
  14              		.file	"ADC_DelSig_1_PM.c"
  15              		.text
  16              	.Ltext0:
  17              		.cfi_sections	.debug_frame
  18              		.data
  19              		.align	2
  20              		.type	ADC_DelSig_1_backup, %object
  21              		.size	ADC_DelSig_1_backup, 2
  22              	ADC_DelSig_1_backup:
  23 0000 00       		.byte	0
  24 0001 38       		.byte	56
  25 0002 0000     		.section	.text.ADC_DelSig_1_SaveConfig,"ax",%progbits
  26              		.align	2
  27              		.global	ADC_DelSig_1_SaveConfig
  28              		.thumb
  29              		.thumb_func
  30              		.type	ADC_DelSig_1_SaveConfig, %function
  31              	ADC_DelSig_1_SaveConfig:
  32              	.LFB0:
  33              		.file 1 ".\\Generated_Source\\PSoC5\\ADC_DelSig_1_PM.c"
   1:.\Generated_Source\PSoC5/ADC_DelSig_1_PM.c **** /*******************************************************************************
   2:.\Generated_Source\PSoC5/ADC_DelSig_1_PM.c **** * File Name: ADC_DelSig_1_PM.c
   3:.\Generated_Source\PSoC5/ADC_DelSig_1_PM.c **** * Version 3.0
   4:.\Generated_Source\PSoC5/ADC_DelSig_1_PM.c **** *
   5:.\Generated_Source\PSoC5/ADC_DelSig_1_PM.c **** * Description:
   6:.\Generated_Source\PSoC5/ADC_DelSig_1_PM.c **** *  This file provides the power manager source code to the API for the
   7:.\Generated_Source\PSoC5/ADC_DelSig_1_PM.c **** *  Delta-Sigma ADC Component.
   8:.\Generated_Source\PSoC5/ADC_DelSig_1_PM.c **** *
   9:.\Generated_Source\PSoC5/ADC_DelSig_1_PM.c **** * Note:
  10:.\Generated_Source\PSoC5/ADC_DelSig_1_PM.c **** *
  11:.\Generated_Source\PSoC5/ADC_DelSig_1_PM.c **** ********************************************************************************
  12:.\Generated_Source\PSoC5/ADC_DelSig_1_PM.c **** * Copyright 2008-2013, Cypress Semiconductor Corporation.  All rights reserved.
  13:.\Generated_Source\PSoC5/ADC_DelSig_1_PM.c **** * You may use this file only in accordance with the license, terms, conditions,
  14:.\Generated_Source\PSoC5/ADC_DelSig_1_PM.c **** * disclaimers, and limitations in the end user license agreement accompanying
  15:.\Generated_Source\PSoC5/ADC_DelSig_1_PM.c **** * the software package with which this file was provided.
  16:.\Generated_Source\PSoC5/ADC_DelSig_1_PM.c **** *******************************************************************************/
  17:.\Generated_Source\PSoC5/ADC_DelSig_1_PM.c **** 
  18:.\Generated_Source\PSoC5/ADC_DelSig_1_PM.c **** #include "ADC_DelSig_1.h"
  19:.\Generated_Source\PSoC5/ADC_DelSig_1_PM.c **** 
  20:.\Generated_Source\PSoC5/ADC_DelSig_1_PM.c **** static ADC_DelSig_1_BACKUP_STRUCT ADC_DelSig_1_backup =
  21:.\Generated_Source\PSoC5/ADC_DelSig_1_PM.c **** {
  22:.\Generated_Source\PSoC5/ADC_DelSig_1_PM.c ****     ADC_DelSig_1_DISABLED,
  23:.\Generated_Source\PSoC5/ADC_DelSig_1_PM.c ****     ADC_DelSig_1_CFG1_DEC_CR
  24:.\Generated_Source\PSoC5/ADC_DelSig_1_PM.c **** };
ARM GAS  C:\Users\Robert\AppData\Local\Temp\ccOhwY1E.s 			page 2


  25:.\Generated_Source\PSoC5/ADC_DelSig_1_PM.c **** 
  26:.\Generated_Source\PSoC5/ADC_DelSig_1_PM.c **** 
  27:.\Generated_Source\PSoC5/ADC_DelSig_1_PM.c **** /*******************************************************************************
  28:.\Generated_Source\PSoC5/ADC_DelSig_1_PM.c **** * Function Name: ADC_DelSig_1_SaveConfig
  29:.\Generated_Source\PSoC5/ADC_DelSig_1_PM.c **** ********************************************************************************
  30:.\Generated_Source\PSoC5/ADC_DelSig_1_PM.c **** *
  31:.\Generated_Source\PSoC5/ADC_DelSig_1_PM.c **** * Summary:
  32:.\Generated_Source\PSoC5/ADC_DelSig_1_PM.c **** *  Save the register configuration which are not retention.
  33:.\Generated_Source\PSoC5/ADC_DelSig_1_PM.c **** *
  34:.\Generated_Source\PSoC5/ADC_DelSig_1_PM.c **** * Parameters:
  35:.\Generated_Source\PSoC5/ADC_DelSig_1_PM.c **** *  None
  36:.\Generated_Source\PSoC5/ADC_DelSig_1_PM.c **** *
  37:.\Generated_Source\PSoC5/ADC_DelSig_1_PM.c **** * Return:
  38:.\Generated_Source\PSoC5/ADC_DelSig_1_PM.c **** *  None
  39:.\Generated_Source\PSoC5/ADC_DelSig_1_PM.c **** *
  40:.\Generated_Source\PSoC5/ADC_DelSig_1_PM.c **** * Global variables:
  41:.\Generated_Source\PSoC5/ADC_DelSig_1_PM.c **** *  ADC_DelSig_1_backup:  This global structure variable is used to store
  42:.\Generated_Source\PSoC5/ADC_DelSig_1_PM.c **** *  configuration registers which are non retention whenever user wants to go
  43:.\Generated_Source\PSoC5/ADC_DelSig_1_PM.c **** *  sleep mode by calling Sleep() API.
  44:.\Generated_Source\PSoC5/ADC_DelSig_1_PM.c **** *
  45:.\Generated_Source\PSoC5/ADC_DelSig_1_PM.c **** *******************************************************************************/
  46:.\Generated_Source\PSoC5/ADC_DelSig_1_PM.c **** void ADC_DelSig_1_SaveConfig(void) 
  47:.\Generated_Source\PSoC5/ADC_DelSig_1_PM.c **** {
  34              		.loc 1 47 0
  35              		.cfi_startproc
  36              		@ args = 0, pretend = 0, frame = 0
  37              		@ frame_needed = 1, uses_anonymous_args = 0
  38              		@ link register save eliminated.
  39 0000 80B4     		push	{r7}
  40              	.LCFI0:
  41              		.cfi_def_cfa_offset 4
  42              		.cfi_offset 7, -4
  43 0002 00AF     		add	r7, sp, #0
  44              	.LCFI1:
  45              		.cfi_def_cfa_register 7
  48:.\Generated_Source\PSoC5/ADC_DelSig_1_PM.c ****     ADC_DelSig_1_backup.deccr = ADC_DelSig_1_DEC_CR_REG;
  46              		.loc 1 48 0
  47 0004 4FF49C43 		mov	r3, #19968
  48 0008 C4F20003 		movt	r3, 16384
  49 000c 1B78     		ldrb	r3, [r3, #0]
  50 000e DAB2     		uxtb	r2, r3
  51 0010 40F20003 		movw	r3, #:lower16:ADC_DelSig_1_backup
  52 0014 C0F20003 		movt	r3, #:upper16:ADC_DelSig_1_backup
  53 0018 5A70     		strb	r2, [r3, #1]
  49:.\Generated_Source\PSoC5/ADC_DelSig_1_PM.c **** }
  54              		.loc 1 49 0
  55 001a BD46     		mov	sp, r7
  56 001c 80BC     		pop	{r7}
  57 001e 7047     		bx	lr
  58              		.cfi_endproc
  59              	.LFE0:
  60              		.size	ADC_DelSig_1_SaveConfig, .-ADC_DelSig_1_SaveConfig
  61              		.section	.text.ADC_DelSig_1_RestoreConfig,"ax",%progbits
  62              		.align	2
  63              		.global	ADC_DelSig_1_RestoreConfig
  64              		.thumb
  65              		.thumb_func
ARM GAS  C:\Users\Robert\AppData\Local\Temp\ccOhwY1E.s 			page 3


  66              		.type	ADC_DelSig_1_RestoreConfig, %function
  67              	ADC_DelSig_1_RestoreConfig:
  68              	.LFB1:
  50:.\Generated_Source\PSoC5/ADC_DelSig_1_PM.c **** 
  51:.\Generated_Source\PSoC5/ADC_DelSig_1_PM.c **** 
  52:.\Generated_Source\PSoC5/ADC_DelSig_1_PM.c **** /*******************************************************************************
  53:.\Generated_Source\PSoC5/ADC_DelSig_1_PM.c **** * Function Name: ADC_DelSig_1_RestoreConfig
  54:.\Generated_Source\PSoC5/ADC_DelSig_1_PM.c **** ********************************************************************************
  55:.\Generated_Source\PSoC5/ADC_DelSig_1_PM.c **** *
  56:.\Generated_Source\PSoC5/ADC_DelSig_1_PM.c **** * Summary:
  57:.\Generated_Source\PSoC5/ADC_DelSig_1_PM.c **** *  Restore the register configurations which are not retention.
  58:.\Generated_Source\PSoC5/ADC_DelSig_1_PM.c **** *
  59:.\Generated_Source\PSoC5/ADC_DelSig_1_PM.c **** * Parameters:
  60:.\Generated_Source\PSoC5/ADC_DelSig_1_PM.c **** *  None
  61:.\Generated_Source\PSoC5/ADC_DelSig_1_PM.c **** *
  62:.\Generated_Source\PSoC5/ADC_DelSig_1_PM.c **** * Return:
  63:.\Generated_Source\PSoC5/ADC_DelSig_1_PM.c **** *  None
  64:.\Generated_Source\PSoC5/ADC_DelSig_1_PM.c **** *
  65:.\Generated_Source\PSoC5/ADC_DelSig_1_PM.c **** * Global variables:
  66:.\Generated_Source\PSoC5/ADC_DelSig_1_PM.c **** *  ADC_DelSig_1_backup:  This global structure variable is used to restore
  67:.\Generated_Source\PSoC5/ADC_DelSig_1_PM.c **** *  configuration registers which are non retention whenever user wants to switch
  68:.\Generated_Source\PSoC5/ADC_DelSig_1_PM.c **** *  to active power mode by calling Wakeup() API.
  69:.\Generated_Source\PSoC5/ADC_DelSig_1_PM.c **** *
  70:.\Generated_Source\PSoC5/ADC_DelSig_1_PM.c **** *******************************************************************************/
  71:.\Generated_Source\PSoC5/ADC_DelSig_1_PM.c **** void ADC_DelSig_1_RestoreConfig(void) 
  72:.\Generated_Source\PSoC5/ADC_DelSig_1_PM.c **** {
  69              		.loc 1 72 0
  70              		.cfi_startproc
  71              		@ args = 0, pretend = 0, frame = 0
  72              		@ frame_needed = 1, uses_anonymous_args = 0
  73              		@ link register save eliminated.
  74 0000 80B4     		push	{r7}
  75              	.LCFI2:
  76              		.cfi_def_cfa_offset 4
  77              		.cfi_offset 7, -4
  78 0002 00AF     		add	r7, sp, #0
  79              	.LCFI3:
  80              		.cfi_def_cfa_register 7
  73:.\Generated_Source\PSoC5/ADC_DelSig_1_PM.c ****     ADC_DelSig_1_DEC_CR_REG = ADC_DelSig_1_backup.deccr;
  81              		.loc 1 73 0
  82 0004 4FF49C43 		mov	r3, #19968
  83 0008 C4F20003 		movt	r3, 16384
  84 000c 40F20002 		movw	r2, #:lower16:ADC_DelSig_1_backup
  85 0010 C0F20002 		movt	r2, #:upper16:ADC_DelSig_1_backup
  86 0014 5278     		ldrb	r2, [r2, #1]	@ zero_extendqisi2
  87 0016 1A70     		strb	r2, [r3, #0]
  74:.\Generated_Source\PSoC5/ADC_DelSig_1_PM.c **** }
  88              		.loc 1 74 0
  89 0018 BD46     		mov	sp, r7
  90 001a 80BC     		pop	{r7}
  91 001c 7047     		bx	lr
  92              		.cfi_endproc
  93              	.LFE1:
  94              		.size	ADC_DelSig_1_RestoreConfig, .-ADC_DelSig_1_RestoreConfig
  95 001e 00BF     		.section	.text.ADC_DelSig_1_Sleep,"ax",%progbits
  96              		.align	2
  97              		.global	ADC_DelSig_1_Sleep
ARM GAS  C:\Users\Robert\AppData\Local\Temp\ccOhwY1E.s 			page 4


  98              		.thumb
  99              		.thumb_func
 100              		.type	ADC_DelSig_1_Sleep, %function
 101              	ADC_DelSig_1_Sleep:
 102              	.LFB2:
  75:.\Generated_Source\PSoC5/ADC_DelSig_1_PM.c **** 
  76:.\Generated_Source\PSoC5/ADC_DelSig_1_PM.c **** 
  77:.\Generated_Source\PSoC5/ADC_DelSig_1_PM.c **** /*******************************************************************************
  78:.\Generated_Source\PSoC5/ADC_DelSig_1_PM.c **** * Function Name: ADC_DelSig_1_Sleep
  79:.\Generated_Source\PSoC5/ADC_DelSig_1_PM.c **** ********************************************************************************
  80:.\Generated_Source\PSoC5/ADC_DelSig_1_PM.c **** *
  81:.\Generated_Source\PSoC5/ADC_DelSig_1_PM.c **** * Summary:
  82:.\Generated_Source\PSoC5/ADC_DelSig_1_PM.c **** *  Stops the operation of the block and saves the user configuration.
  83:.\Generated_Source\PSoC5/ADC_DelSig_1_PM.c **** *
  84:.\Generated_Source\PSoC5/ADC_DelSig_1_PM.c **** * Parameters:
  85:.\Generated_Source\PSoC5/ADC_DelSig_1_PM.c **** *  None
  86:.\Generated_Source\PSoC5/ADC_DelSig_1_PM.c **** *
  87:.\Generated_Source\PSoC5/ADC_DelSig_1_PM.c **** * Return:
  88:.\Generated_Source\PSoC5/ADC_DelSig_1_PM.c **** *  None
  89:.\Generated_Source\PSoC5/ADC_DelSig_1_PM.c **** *
  90:.\Generated_Source\PSoC5/ADC_DelSig_1_PM.c **** * Global variables:
  91:.\Generated_Source\PSoC5/ADC_DelSig_1_PM.c **** *  ADC_DelSig_1_backup:  The structure field 'enableState' is modified
  92:.\Generated_Source\PSoC5/ADC_DelSig_1_PM.c **** *  depending on the enable state of the block before entering to sleep mode.
  93:.\Generated_Source\PSoC5/ADC_DelSig_1_PM.c **** *
  94:.\Generated_Source\PSoC5/ADC_DelSig_1_PM.c **** *******************************************************************************/
  95:.\Generated_Source\PSoC5/ADC_DelSig_1_PM.c **** void ADC_DelSig_1_Sleep(void) 
  96:.\Generated_Source\PSoC5/ADC_DelSig_1_PM.c **** {
 103              		.loc 1 96 0
 104              		.cfi_startproc
 105              		@ args = 0, pretend = 0, frame = 0
 106              		@ frame_needed = 1, uses_anonymous_args = 0
 107 0000 80B5     		push	{r7, lr}
 108              	.LCFI4:
 109              		.cfi_def_cfa_offset 8
 110              		.cfi_offset 7, -8
 111              		.cfi_offset 14, -4
 112 0002 00AF     		add	r7, sp, #0
 113              	.LCFI5:
 114              		.cfi_def_cfa_register 7
  97:.\Generated_Source\PSoC5/ADC_DelSig_1_PM.c ****     /* Save ADC enable state */
  98:.\Generated_Source\PSoC5/ADC_DelSig_1_PM.c ****     if((ADC_DelSig_1_ACT_PWR_DEC_EN == (ADC_DelSig_1_PWRMGR_DEC_REG & ADC_DelSig_1_ACT_PWR_DEC_EN))
 115              		.loc 1 98 0
 116 0004 44F2AA33 		movw	r3, #17322
 117 0008 C4F20003 		movt	r3, 16384
 118 000c 1B78     		ldrb	r3, [r3, #0]
 119 000e DBB2     		uxtb	r3, r3
 120 0010 03F00103 		and	r3, r3, #1
 121 0014 002B     		cmp	r3, #0
 122 0016 2AD0     		beq	.L4
  99:.\Generated_Source\PSoC5/ADC_DelSig_1_PM.c ****        (ADC_DelSig_1_ACT_PWR_DSM_EN == (ADC_DelSig_1_PWRMGR_DSM_REG & ADC_DelSig_1_ACT_PWR_DSM_EN))
 123              		.loc 1 99 0 discriminator 1
 124 0018 44F2AA33 		movw	r3, #17322
 125 001c C4F20003 		movt	r3, 16384
 126 0020 1B78     		ldrb	r3, [r3, #0]
 127 0022 DBB2     		uxtb	r3, r3
 128 0024 03F01003 		and	r3, r3, #16
  98:.\Generated_Source\PSoC5/ADC_DelSig_1_PM.c ****     if((ADC_DelSig_1_ACT_PWR_DEC_EN == (ADC_DelSig_1_PWRMGR_DEC_REG & ADC_DelSig_1_ACT_PWR_DEC_EN))
ARM GAS  C:\Users\Robert\AppData\Local\Temp\ccOhwY1E.s 			page 5


 129              		.loc 1 98 0 discriminator 1
 130 0028 002B     		cmp	r3, #0
 131 002a 20D0     		beq	.L4
 100:.\Generated_Source\PSoC5/ADC_DelSig_1_PM.c ****     {
 101:.\Generated_Source\PSoC5/ADC_DelSig_1_PM.c ****         /* Component is enabled */
 102:.\Generated_Source\PSoC5/ADC_DelSig_1_PM.c ****         ADC_DelSig_1_backup.enableState = ADC_DelSig_1_ENABLED;
 132              		.loc 1 102 0
 133 002c 40F20003 		movw	r3, #:lower16:ADC_DelSig_1_backup
 134 0030 C0F20003 		movt	r3, #:upper16:ADC_DelSig_1_backup
 135 0034 4FF00102 		mov	r2, #1
 136 0038 1A70     		strb	r2, [r3, #0]
 103:.\Generated_Source\PSoC5/ADC_DelSig_1_PM.c ****         if((ADC_DelSig_1_DEC_CR_REG & ADC_DelSig_1_DEC_START_CONV) != 0u)
 137              		.loc 1 103 0
 138 003a 4FF49C43 		mov	r3, #19968
 139 003e C4F20003 		movt	r3, 16384
 140 0042 1B78     		ldrb	r3, [r3, #0]
 141 0044 DBB2     		uxtb	r3, r3
 142 0046 03F00103 		and	r3, r3, #1
 143 004a 002B     		cmp	r3, #0
 144 004c 0CD0     		beq	.L5
 104:.\Generated_Source\PSoC5/ADC_DelSig_1_PM.c ****         {   
 105:.\Generated_Source\PSoC5/ADC_DelSig_1_PM.c ****             /* Conversion is started */
 106:.\Generated_Source\PSoC5/ADC_DelSig_1_PM.c ****             ADC_DelSig_1_backup.enableState |= ADC_DelSig_1_STARTED;
 145              		.loc 1 106 0
 146 004e 40F20003 		movw	r3, #:lower16:ADC_DelSig_1_backup
 147 0052 C0F20003 		movt	r3, #:upper16:ADC_DelSig_1_backup
 148 0056 1B78     		ldrb	r3, [r3, #0]	@ zero_extendqisi2
 149 0058 43F00203 		orr	r3, r3, #2
 150 005c DAB2     		uxtb	r2, r3
 151 005e 40F20003 		movw	r3, #:lower16:ADC_DelSig_1_backup
 152 0062 C0F20003 		movt	r3, #:upper16:ADC_DelSig_1_backup
 153 0066 1A70     		strb	r2, [r3, #0]
 154              	.L5:
 107:.\Generated_Source\PSoC5/ADC_DelSig_1_PM.c ****         }
 108:.\Generated_Source\PSoC5/ADC_DelSig_1_PM.c **** 		
 109:.\Generated_Source\PSoC5/ADC_DelSig_1_PM.c ****         /* Stop the configuration */
 110:.\Generated_Source\PSoC5/ADC_DelSig_1_PM.c ****         ADC_DelSig_1_Stop();
 155              		.loc 1 110 0
 156 0068 FFF7FEFF 		bl	ADC_DelSig_1_Stop
 157 006c 06E0     		b	.L6
 158              	.L4:
 111:.\Generated_Source\PSoC5/ADC_DelSig_1_PM.c ****     }
 112:.\Generated_Source\PSoC5/ADC_DelSig_1_PM.c ****     else
 113:.\Generated_Source\PSoC5/ADC_DelSig_1_PM.c ****     {
 114:.\Generated_Source\PSoC5/ADC_DelSig_1_PM.c ****         /* Component is disabled */
 115:.\Generated_Source\PSoC5/ADC_DelSig_1_PM.c ****         ADC_DelSig_1_backup.enableState = ADC_DelSig_1_DISABLED;
 159              		.loc 1 115 0
 160 006e 40F20003 		movw	r3, #:lower16:ADC_DelSig_1_backup
 161 0072 C0F20003 		movt	r3, #:upper16:ADC_DelSig_1_backup
 162 0076 4FF00002 		mov	r2, #0
 163 007a 1A70     		strb	r2, [r3, #0]
 164              	.L6:
 116:.\Generated_Source\PSoC5/ADC_DelSig_1_PM.c ****     }
 117:.\Generated_Source\PSoC5/ADC_DelSig_1_PM.c **** 
 118:.\Generated_Source\PSoC5/ADC_DelSig_1_PM.c ****     /* Save the user configuration */
 119:.\Generated_Source\PSoC5/ADC_DelSig_1_PM.c ****     ADC_DelSig_1_SaveConfig();
 165              		.loc 1 119 0
ARM GAS  C:\Users\Robert\AppData\Local\Temp\ccOhwY1E.s 			page 6


 166 007c FFF7FEFF 		bl	ADC_DelSig_1_SaveConfig
 120:.\Generated_Source\PSoC5/ADC_DelSig_1_PM.c **** }
 167              		.loc 1 120 0
 168 0080 80BD     		pop	{r7, pc}
 169              		.cfi_endproc
 170              	.LFE2:
 171              		.size	ADC_DelSig_1_Sleep, .-ADC_DelSig_1_Sleep
 172 0082 00BF     		.section	.text.ADC_DelSig_1_Wakeup,"ax",%progbits
 173              		.align	2
 174              		.global	ADC_DelSig_1_Wakeup
 175              		.thumb
 176              		.thumb_func
 177              		.type	ADC_DelSig_1_Wakeup, %function
 178              	ADC_DelSig_1_Wakeup:
 179              	.LFB3:
 121:.\Generated_Source\PSoC5/ADC_DelSig_1_PM.c **** 
 122:.\Generated_Source\PSoC5/ADC_DelSig_1_PM.c **** 
 123:.\Generated_Source\PSoC5/ADC_DelSig_1_PM.c **** /*******************************************************************************
 124:.\Generated_Source\PSoC5/ADC_DelSig_1_PM.c **** * Function Name: ADC_DelSig_1_Wakeup
 125:.\Generated_Source\PSoC5/ADC_DelSig_1_PM.c **** ********************************************************************************
 126:.\Generated_Source\PSoC5/ADC_DelSig_1_PM.c **** *
 127:.\Generated_Source\PSoC5/ADC_DelSig_1_PM.c **** * Summary:
 128:.\Generated_Source\PSoC5/ADC_DelSig_1_PM.c **** *  Restores the user configuration and enables the power to the block.
 129:.\Generated_Source\PSoC5/ADC_DelSig_1_PM.c **** *
 130:.\Generated_Source\PSoC5/ADC_DelSig_1_PM.c **** * Parameters:
 131:.\Generated_Source\PSoC5/ADC_DelSig_1_PM.c **** *  None
 132:.\Generated_Source\PSoC5/ADC_DelSig_1_PM.c **** *
 133:.\Generated_Source\PSoC5/ADC_DelSig_1_PM.c **** * Return:
 134:.\Generated_Source\PSoC5/ADC_DelSig_1_PM.c **** *  None
 135:.\Generated_Source\PSoC5/ADC_DelSig_1_PM.c **** *
 136:.\Generated_Source\PSoC5/ADC_DelSig_1_PM.c **** * Global variables:
 137:.\Generated_Source\PSoC5/ADC_DelSig_1_PM.c **** *  ADC_DelSig_1_backup:  The structure field 'enableState' is used to
 138:.\Generated_Source\PSoC5/ADC_DelSig_1_PM.c **** *  restore the enable state of block after wakeup from sleep mode.
 139:.\Generated_Source\PSoC5/ADC_DelSig_1_PM.c **** *
 140:.\Generated_Source\PSoC5/ADC_DelSig_1_PM.c **** *******************************************************************************/
 141:.\Generated_Source\PSoC5/ADC_DelSig_1_PM.c **** void ADC_DelSig_1_Wakeup(void) 
 142:.\Generated_Source\PSoC5/ADC_DelSig_1_PM.c **** {
 180              		.loc 1 142 0
 181              		.cfi_startproc
 182              		@ args = 0, pretend = 0, frame = 0
 183              		@ frame_needed = 1, uses_anonymous_args = 0
 184 0000 80B5     		push	{r7, lr}
 185              	.LCFI6:
 186              		.cfi_def_cfa_offset 8
 187              		.cfi_offset 7, -8
 188              		.cfi_offset 14, -4
 189 0002 00AF     		add	r7, sp, #0
 190              	.LCFI7:
 191              		.cfi_def_cfa_register 7
 143:.\Generated_Source\PSoC5/ADC_DelSig_1_PM.c ****     /* Restore the configuration */
 144:.\Generated_Source\PSoC5/ADC_DelSig_1_PM.c ****     ADC_DelSig_1_RestoreConfig();
 192              		.loc 1 144 0
 193 0004 FFF7FEFF 		bl	ADC_DelSig_1_RestoreConfig
 145:.\Generated_Source\PSoC5/ADC_DelSig_1_PM.c **** 
 146:.\Generated_Source\PSoC5/ADC_DelSig_1_PM.c ****     /* Enables the component operation */
 147:.\Generated_Source\PSoC5/ADC_DelSig_1_PM.c ****     if(ADC_DelSig_1_backup.enableState != ADC_DelSig_1_DISABLED)
 194              		.loc 1 147 0
ARM GAS  C:\Users\Robert\AppData\Local\Temp\ccOhwY1E.s 			page 7


 195 0008 40F20003 		movw	r3, #:lower16:ADC_DelSig_1_backup
 196 000c C0F20003 		movt	r3, #:upper16:ADC_DelSig_1_backup
 197 0010 1B78     		ldrb	r3, [r3, #0]	@ zero_extendqisi2
 198 0012 002B     		cmp	r3, #0
 199 0014 0CD0     		beq	.L7
 148:.\Generated_Source\PSoC5/ADC_DelSig_1_PM.c ****     {
 149:.\Generated_Source\PSoC5/ADC_DelSig_1_PM.c ****         ADC_DelSig_1_Enable();
 200              		.loc 1 149 0
 201 0016 FFF7FEFF 		bl	ADC_DelSig_1_Enable
 150:.\Generated_Source\PSoC5/ADC_DelSig_1_PM.c ****         if((ADC_DelSig_1_backup.enableState & ADC_DelSig_1_STARTED) != 0u)
 202              		.loc 1 150 0
 203 001a 40F20003 		movw	r3, #:lower16:ADC_DelSig_1_backup
 204 001e C0F20003 		movt	r3, #:upper16:ADC_DelSig_1_backup
 205 0022 1B78     		ldrb	r3, [r3, #0]	@ zero_extendqisi2
 206 0024 03F00203 		and	r3, r3, #2
 207 0028 002B     		cmp	r3, #0
 208 002a 01D0     		beq	.L7
 151:.\Generated_Source\PSoC5/ADC_DelSig_1_PM.c ****         {
 152:.\Generated_Source\PSoC5/ADC_DelSig_1_PM.c ****             ADC_DelSig_1_StartConvert();
 209              		.loc 1 152 0
 210 002c FFF7FEFF 		bl	ADC_DelSig_1_StartConvert
 211              	.L7:
 153:.\Generated_Source\PSoC5/ADC_DelSig_1_PM.c ****         }
 154:.\Generated_Source\PSoC5/ADC_DelSig_1_PM.c ****     } /* Do nothing if component was disable before */
 155:.\Generated_Source\PSoC5/ADC_DelSig_1_PM.c **** }
 212              		.loc 1 155 0
 213 0030 80BD     		pop	{r7, pc}
 214              		.cfi_endproc
 215              	.LFE3:
 216              		.size	ADC_DelSig_1_Wakeup, .-ADC_DelSig_1_Wakeup
 217 0032 00BF     		.text
 218              	.Letext0:
 219              		.file 2 ".\\Generated_Source\\PSoC5\\cytypes.h"
 220              		.file 3 ".\\Generated_Source\\PSoC5\\ADC_DelSig_1.h"