ARM GAS  C:\Users\Robert\AppData\Local\Temp\ccvq07RG.s 			page 1


   1              		.syntax unified
   2              		.cpu cortex-m3
   3              		.fpu softvfp
   4              		.eabi_attribute 20, 1
   5              		.eabi_attribute 21, 1
   6              		.eabi_attribute 23, 3
   7              		.eabi_attribute 24, 1
   8              		.eabi_attribute 25, 1
   9              		.eabi_attribute 26, 1
  10              		.eabi_attribute 30, 6
  11              		.eabi_attribute 34, 1
  12              		.eabi_attribute 18, 4
  13              		.thumb
  14              		.file	"CyDmac.c"
  15              		.text
  16              	.Ltext0:
  17              		.cfi_sections	.debug_frame
  18              		.data
  19              		.type	CyDmaTdCurrentNumber, %object
  20              		.size	CyDmaTdCurrentNumber, 1
  21              	CyDmaTdCurrentNumber:
  22 0000 80       		.byte	-128
  23              		.type	CyDmaTdFreeIndex, %object
  24              		.size	CyDmaTdFreeIndex, 1
  25              	CyDmaTdFreeIndex:
  26 0001 7F       		.byte	127
  27 0002 0000     		.align	2
  28              		.type	CyDmaChannels, %object
  29              		.size	CyDmaChannels, 4
  30              	CyDmaChannels:
  31 0004 03000000 		.word	3
  32              		.section	.text.CyDmacConfigure,"ax",%progbits
  33              		.align	2
  34              		.global	CyDmacConfigure
  35              		.thumb
  36              		.thumb_func
  37              		.type	CyDmacConfigure, %function
  38              	CyDmacConfigure:
  39              	.LFB0:
  40              		.file 1 ".\\Generated_Source\\PSoC5\\CyDmac.c"
   1:.\Generated_Source\PSoC5/CyDmac.c **** /*******************************************************************************
   2:.\Generated_Source\PSoC5/CyDmac.c **** * File Name: CyDmac.c
   3:.\Generated_Source\PSoC5/CyDmac.c **** * Version 4.10
   4:.\Generated_Source\PSoC5/CyDmac.c **** *
   5:.\Generated_Source\PSoC5/CyDmac.c **** * Description:
   6:.\Generated_Source\PSoC5/CyDmac.c **** *  Provides an API for the DMAC component. The API includes functions for the
   7:.\Generated_Source\PSoC5/CyDmac.c **** *  DMA controller, DMA channels and Transfer Descriptors.
   8:.\Generated_Source\PSoC5/CyDmac.c **** *
   9:.\Generated_Source\PSoC5/CyDmac.c **** *  This API is the library version not the auto generated code that gets
  10:.\Generated_Source\PSoC5/CyDmac.c **** *  generated when the user places a DMA component on the schematic.
  11:.\Generated_Source\PSoC5/CyDmac.c **** *
  12:.\Generated_Source\PSoC5/CyDmac.c **** *  The auto generated code would use the APi's in this module.
  13:.\Generated_Source\PSoC5/CyDmac.c **** *
  14:.\Generated_Source\PSoC5/CyDmac.c **** * Note:
  15:.\Generated_Source\PSoC5/CyDmac.c **** *  This code is endian agnostic.
  16:.\Generated_Source\PSoC5/CyDmac.c **** *
  17:.\Generated_Source\PSoC5/CyDmac.c **** *  The Transfer Descriptor memory can be used as regular memory if the TD's are
ARM GAS  C:\Users\Robert\AppData\Local\Temp\ccvq07RG.s 			page 2


  18:.\Generated_Source\PSoC5/CyDmac.c **** *  not being used.
  19:.\Generated_Source\PSoC5/CyDmac.c **** *
  20:.\Generated_Source\PSoC5/CyDmac.c **** *  This code uses the first byte of each TD to manage the free list of TD's.
  21:.\Generated_Source\PSoC5/CyDmac.c **** *  The user can overwrite this once the TD is allocated.
  22:.\Generated_Source\PSoC5/CyDmac.c **** *
  23:.\Generated_Source\PSoC5/CyDmac.c **** ********************************************************************************
  24:.\Generated_Source\PSoC5/CyDmac.c **** * Copyright 2008-2014, Cypress Semiconductor Corporation.  All rights reserved.
  25:.\Generated_Source\PSoC5/CyDmac.c **** * You may use this file only in accordance with the license, terms, conditions,
  26:.\Generated_Source\PSoC5/CyDmac.c **** * disclaimers, and limitations in the end user license agreement accompanying
  27:.\Generated_Source\PSoC5/CyDmac.c **** * the software package with which this file was provided.
  28:.\Generated_Source\PSoC5/CyDmac.c **** *******************************************************************************/
  29:.\Generated_Source\PSoC5/CyDmac.c **** 
  30:.\Generated_Source\PSoC5/CyDmac.c **** #include "CyDmac.h"
  31:.\Generated_Source\PSoC5/CyDmac.c **** 
  32:.\Generated_Source\PSoC5/CyDmac.c **** 
  33:.\Generated_Source\PSoC5/CyDmac.c **** /*******************************************************************************
  34:.\Generated_Source\PSoC5/CyDmac.c **** * The following variables are initialized from CyDmacConfigure() function that
  35:.\Generated_Source\PSoC5/CyDmac.c **** * is executed from initialize_psoc() at the early initialization stage.
  36:.\Generated_Source\PSoC5/CyDmac.c **** * In case of IAR EW IDE, initialize_psoc() is executed before the data sections
  37:.\Generated_Source\PSoC5/CyDmac.c **** * are initialized. To avoid zeroing, these variables should be initialized
  38:.\Generated_Source\PSoC5/CyDmac.c **** * properly during segments initialization as well.
  39:.\Generated_Source\PSoC5/CyDmac.c **** *******************************************************************************/
  40:.\Generated_Source\PSoC5/CyDmac.c **** static uint8  CyDmaTdCurrentNumber = CY_DMA_NUMBEROF_TDS;           /* Current Number of free eleme
  41:.\Generated_Source\PSoC5/CyDmac.c **** static uint8  CyDmaTdFreeIndex = (uint8)(CY_DMA_NUMBEROF_TDS - 1u); /* Index of first available TD 
  42:.\Generated_Source\PSoC5/CyDmac.c **** static uint32 CyDmaChannels = DMA_CHANNELS_USED__MASK0;              /* Bit map of DMA channel owne
  43:.\Generated_Source\PSoC5/CyDmac.c **** 
  44:.\Generated_Source\PSoC5/CyDmac.c **** 
  45:.\Generated_Source\PSoC5/CyDmac.c **** /*******************************************************************************
  46:.\Generated_Source\PSoC5/CyDmac.c **** * Function Name: CyDmacConfigure
  47:.\Generated_Source\PSoC5/CyDmac.c **** ********************************************************************************
  48:.\Generated_Source\PSoC5/CyDmac.c **** *
  49:.\Generated_Source\PSoC5/CyDmac.c **** * Summary:
  50:.\Generated_Source\PSoC5/CyDmac.c **** *  Creates a linked list of all the TDs to be allocated. This function is called
  51:.\Generated_Source\PSoC5/CyDmac.c **** *  by the startup code; you do not normally need to call it. You can call this
  52:.\Generated_Source\PSoC5/CyDmac.c **** *  function if all of the DMA channels are inactive.
  53:.\Generated_Source\PSoC5/CyDmac.c **** *
  54:.\Generated_Source\PSoC5/CyDmac.c **** * Parameters:
  55:.\Generated_Source\PSoC5/CyDmac.c **** *  None
  56:.\Generated_Source\PSoC5/CyDmac.c **** *
  57:.\Generated_Source\PSoC5/CyDmac.c **** * Return:
  58:.\Generated_Source\PSoC5/CyDmac.c **** *  None
  59:.\Generated_Source\PSoC5/CyDmac.c **** *
  60:.\Generated_Source\PSoC5/CyDmac.c **** *******************************************************************************/
  61:.\Generated_Source\PSoC5/CyDmac.c **** void CyDmacConfigure(void) 
  62:.\Generated_Source\PSoC5/CyDmac.c **** {
  41              		.loc 1 62 0
  42              		.cfi_startproc
  43              		@ args = 0, pretend = 0, frame = 8
  44              		@ frame_needed = 1, uses_anonymous_args = 0
  45              		@ link register save eliminated.
  46 0000 80B4     		push	{r7}
  47              	.LCFI0:
  48              		.cfi_def_cfa_offset 4
  49              		.cfi_offset 7, -4
  50 0002 83B0     		sub	sp, sp, #12
  51              	.LCFI1:
  52              		.cfi_def_cfa_offset 16
ARM GAS  C:\Users\Robert\AppData\Local\Temp\ccvq07RG.s 			page 3


  53 0004 00AF     		add	r7, sp, #0
  54              	.LCFI2:
  55              		.cfi_def_cfa_register 7
  63:.\Generated_Source\PSoC5/CyDmac.c ****     uint8 dmaIndex;
  64:.\Generated_Source\PSoC5/CyDmac.c **** 
  65:.\Generated_Source\PSoC5/CyDmac.c ****     /* Set TD list variables. */
  66:.\Generated_Source\PSoC5/CyDmac.c ****     CyDmaTdFreeIndex     = (uint8)(CY_DMA_NUMBEROF_TDS - 1u);
  56              		.loc 1 66 0
  57 0006 40F20003 		movw	r3, #:lower16:CyDmaTdFreeIndex
  58 000a C0F20003 		movt	r3, #:upper16:CyDmaTdFreeIndex
  59 000e 4FF07F02 		mov	r2, #127
  60 0012 1A70     		strb	r2, [r3, #0]
  67:.\Generated_Source\PSoC5/CyDmac.c ****     CyDmaTdCurrentNumber = CY_DMA_NUMBEROF_TDS;
  61              		.loc 1 67 0
  62 0014 40F20003 		movw	r3, #:lower16:CyDmaTdCurrentNumber
  63 0018 C0F20003 		movt	r3, #:upper16:CyDmaTdCurrentNumber
  64 001c 4FF08002 		mov	r2, #128
  65 0020 1A70     		strb	r2, [r3, #0]
  68:.\Generated_Source\PSoC5/CyDmac.c **** 
  69:.\Generated_Source\PSoC5/CyDmac.c ****     /* Make TD free list. */
  70:.\Generated_Source\PSoC5/CyDmac.c ****     for(dmaIndex = (uint8)(CY_DMA_NUMBEROF_TDS - 1u); dmaIndex != 0u; dmaIndex--)
  66              		.loc 1 70 0
  67 0022 4FF07F03 		mov	r3, #127
  68 0026 FB71     		strb	r3, [r7, #7]
  69 0028 0FE0     		b	.L2
  70              	.L3:
  71:.\Generated_Source\PSoC5/CyDmac.c ****     {
  72:.\Generated_Source\PSoC5/CyDmac.c ****         CY_DMA_TDMEM_STRUCT_PTR[dmaIndex].TD0[0u] = (uint8)(dmaIndex - 1u);
  71              		.loc 1 72 0 discriminator 2
  72 002a FB79     		ldrb	r3, [r7, #7]	@ zero_extendqisi2
  73 002c 4FEAC303 		lsl	r3, r3, #3
  74 0030 03F18043 		add	r3, r3, #1073741824
  75 0034 03F5F043 		add	r3, r3, #30720
  76 0038 FA79     		ldrb	r2, [r7, #7]
  77 003a 02F1FF32 		add	r2, r2, #-1
  78 003e D2B2     		uxtb	r2, r2
  79 0040 1A70     		strb	r2, [r3, #0]
  70:.\Generated_Source\PSoC5/CyDmac.c ****     for(dmaIndex = (uint8)(CY_DMA_NUMBEROF_TDS - 1u); dmaIndex != 0u; dmaIndex--)
  80              		.loc 1 70 0 discriminator 2
  81 0042 FB79     		ldrb	r3, [r7, #7]
  82 0044 03F1FF33 		add	r3, r3, #-1
  83 0048 FB71     		strb	r3, [r7, #7]
  84              	.L2:
  70:.\Generated_Source\PSoC5/CyDmac.c ****     for(dmaIndex = (uint8)(CY_DMA_NUMBEROF_TDS - 1u); dmaIndex != 0u; dmaIndex--)
  85              		.loc 1 70 0 is_stmt 0 discriminator 1
  86 004a FB79     		ldrb	r3, [r7, #7]	@ zero_extendqisi2
  87 004c 002B     		cmp	r3, #0
  88 004e ECD1     		bne	.L3
  73:.\Generated_Source\PSoC5/CyDmac.c ****     }
  74:.\Generated_Source\PSoC5/CyDmac.c **** 
  75:.\Generated_Source\PSoC5/CyDmac.c ****     /* Make last one point to zero. */
  76:.\Generated_Source\PSoC5/CyDmac.c ****     CY_DMA_TDMEM_STRUCT_PTR[dmaIndex].TD0[0u] = 0u;
  89              		.loc 1 76 0 is_stmt 1
  90 0050 FB79     		ldrb	r3, [r7, #7]	@ zero_extendqisi2
  91 0052 4FEAC303 		lsl	r3, r3, #3
  92 0056 03F18043 		add	r3, r3, #1073741824
  93 005a 03F5F043 		add	r3, r3, #30720
ARM GAS  C:\Users\Robert\AppData\Local\Temp\ccvq07RG.s 			page 4


  94 005e 4FF00002 		mov	r2, #0
  95 0062 1A70     		strb	r2, [r3, #0]
  77:.\Generated_Source\PSoC5/CyDmac.c **** }
  96              		.loc 1 77 0
  97 0064 07F10C07 		add	r7, r7, #12
  98 0068 BD46     		mov	sp, r7
  99 006a 80BC     		pop	{r7}
 100 006c 7047     		bx	lr
 101              		.cfi_endproc
 102              	.LFE0:
 103              		.size	CyDmacConfigure, .-CyDmacConfigure
 104 006e 00BF     		.section	.text.CyDmacError,"ax",%progbits
 105              		.align	2
 106              		.global	CyDmacError
 107              		.thumb
 108              		.thumb_func
 109              		.type	CyDmacError, %function
 110              	CyDmacError:
 111              	.LFB1:
  78:.\Generated_Source\PSoC5/CyDmac.c **** 
  79:.\Generated_Source\PSoC5/CyDmac.c **** 
  80:.\Generated_Source\PSoC5/CyDmac.c **** /*******************************************************************************
  81:.\Generated_Source\PSoC5/CyDmac.c **** * Function Name: CyDmacError
  82:.\Generated_Source\PSoC5/CyDmac.c **** ********************************************************************************
  83:.\Generated_Source\PSoC5/CyDmac.c **** *
  84:.\Generated_Source\PSoC5/CyDmac.c **** * Summary:
  85:.\Generated_Source\PSoC5/CyDmac.c **** *  Returns errors of the last failed DMA transaction.
  86:.\Generated_Source\PSoC5/CyDmac.c **** *
  87:.\Generated_Source\PSoC5/CyDmac.c **** * Parameters:
  88:.\Generated_Source\PSoC5/CyDmac.c **** *  None
  89:.\Generated_Source\PSoC5/CyDmac.c **** *
  90:.\Generated_Source\PSoC5/CyDmac.c **** * Return:
  91:.\Generated_Source\PSoC5/CyDmac.c **** *  Errors of the last failed DMA transaction.
  92:.\Generated_Source\PSoC5/CyDmac.c **** *
  93:.\Generated_Source\PSoC5/CyDmac.c **** *  DMAC_PERIPH_ERR:
  94:.\Generated_Source\PSoC5/CyDmac.c **** *   Set to 1 when a peripheral responds to a bus transaction with an error
  95:.\Generated_Source\PSoC5/CyDmac.c **** *   response.
  96:.\Generated_Source\PSoC5/CyDmac.c **** *
  97:.\Generated_Source\PSoC5/CyDmac.c **** *  DMAC_UNPOP_ACC:
  98:.\Generated_Source\PSoC5/CyDmac.c **** *   Set to 1 when an access is attempted to an invalid address.
  99:.\Generated_Source\PSoC5/CyDmac.c **** *
 100:.\Generated_Source\PSoC5/CyDmac.c **** *  DMAC_BUS_TIMEOUT:
 101:.\Generated_Source\PSoC5/CyDmac.c **** *   Set to 1 when a bus timeout occurs. Cleared by writing a 1. Timeout values
 102:.\Generated_Source\PSoC5/CyDmac.c **** *   are determined by the BUS_TIMEOUT field in the PHUBCFG register.
 103:.\Generated_Source\PSoC5/CyDmac.c **** *
 104:.\Generated_Source\PSoC5/CyDmac.c **** * Theory:
 105:.\Generated_Source\PSoC5/CyDmac.c **** *  Once an error occurs the error bits are sticky and are only cleared by 
 106:.\Generated_Source\PSoC5/CyDmac.c **** *  writing 1 to the error register.
 107:.\Generated_Source\PSoC5/CyDmac.c **** *
 108:.\Generated_Source\PSoC5/CyDmac.c **** *******************************************************************************/
 109:.\Generated_Source\PSoC5/CyDmac.c **** uint8 CyDmacError(void) 
 110:.\Generated_Source\PSoC5/CyDmac.c **** {
 112              		.loc 1 110 0
 113              		.cfi_startproc
 114              		@ args = 0, pretend = 0, frame = 0
 115              		@ frame_needed = 1, uses_anonymous_args = 0
 116              		@ link register save eliminated.
ARM GAS  C:\Users\Robert\AppData\Local\Temp\ccvq07RG.s 			page 5


 117 0000 80B4     		push	{r7}
 118              	.LCFI3:
 119              		.cfi_def_cfa_offset 4
 120              		.cfi_offset 7, -4
 121 0002 00AF     		add	r7, sp, #0
 122              	.LCFI4:
 123              		.cfi_def_cfa_register 7
 111:.\Generated_Source\PSoC5/CyDmac.c ****     return((uint8)(((uint32) 0x0Fu) & *CY_DMA_ERR_PTR));
 124              		.loc 1 111 0
 125 0004 47F20403 		movw	r3, #28676
 126 0008 C4F20003 		movt	r3, 16384
 127 000c 1B68     		ldr	r3, [r3, #0]
 128 000e DBB2     		uxtb	r3, r3
 129 0010 03F00F03 		and	r3, r3, #15
 130 0014 DBB2     		uxtb	r3, r3
 112:.\Generated_Source\PSoC5/CyDmac.c **** }
 131              		.loc 1 112 0
 132 0016 1846     		mov	r0, r3
 133 0018 BD46     		mov	sp, r7
 134 001a 80BC     		pop	{r7}
 135 001c 7047     		bx	lr
 136              		.cfi_endproc
 137              	.LFE1:
 138              		.size	CyDmacError, .-CyDmacError
 139 001e 00BF     		.section	.text.CyDmacClearError,"ax",%progbits
 140              		.align	2
 141              		.global	CyDmacClearError
 142              		.thumb
 143              		.thumb_func
 144              		.type	CyDmacClearError, %function
 145              	CyDmacClearError:
 146              	.LFB2:
 113:.\Generated_Source\PSoC5/CyDmac.c **** 
 114:.\Generated_Source\PSoC5/CyDmac.c **** 
 115:.\Generated_Source\PSoC5/CyDmac.c **** /*******************************************************************************
 116:.\Generated_Source\PSoC5/CyDmac.c **** * Function Name: CyDmacClearError
 117:.\Generated_Source\PSoC5/CyDmac.c **** ********************************************************************************
 118:.\Generated_Source\PSoC5/CyDmac.c **** *
 119:.\Generated_Source\PSoC5/CyDmac.c **** * Summary:
 120:.\Generated_Source\PSoC5/CyDmac.c **** *  Clears the error bits in the error register of the DMAC.
 121:.\Generated_Source\PSoC5/CyDmac.c **** *
 122:.\Generated_Source\PSoC5/CyDmac.c **** * Parameters:
 123:.\Generated_Source\PSoC5/CyDmac.c **** * error:
 124:.\Generated_Source\PSoC5/CyDmac.c **** *   Clears the error bits in the DMAC error register.
 125:.\Generated_Source\PSoC5/CyDmac.c **** *
 126:.\Generated_Source\PSoC5/CyDmac.c **** *  DMAC_PERIPH_ERR:
 127:.\Generated_Source\PSoC5/CyDmac.c **** *   Set to 1 when a peripheral responds to a bus transaction with an error
 128:.\Generated_Source\PSoC5/CyDmac.c **** *   response.
 129:.\Generated_Source\PSoC5/CyDmac.c **** *
 130:.\Generated_Source\PSoC5/CyDmac.c **** *  DMAC_UNPOP_ACC:
 131:.\Generated_Source\PSoC5/CyDmac.c **** *   Set to 1 when an access is attempted to an invalid address.
 132:.\Generated_Source\PSoC5/CyDmac.c **** *
 133:.\Generated_Source\PSoC5/CyDmac.c **** *  DMAC_BUS_TIMEOUT:
 134:.\Generated_Source\PSoC5/CyDmac.c **** *   Set to 1 when a bus timeout occurs. Cleared by writing 1. Timeout values
 135:.\Generated_Source\PSoC5/CyDmac.c **** *   are determined by the BUS_TIMEOUT field in the PHUBCFG register.
 136:.\Generated_Source\PSoC5/CyDmac.c **** *
 137:.\Generated_Source\PSoC5/CyDmac.c **** * Return:
ARM GAS  C:\Users\Robert\AppData\Local\Temp\ccvq07RG.s 			page 6


 138:.\Generated_Source\PSoC5/CyDmac.c **** *  None
 139:.\Generated_Source\PSoC5/CyDmac.c **** *
 140:.\Generated_Source\PSoC5/CyDmac.c **** * Theory:
 141:.\Generated_Source\PSoC5/CyDmac.c **** *  Once an error occurs the error bits are sticky and are only cleared by 
 142:.\Generated_Source\PSoC5/CyDmac.c **** *  writing 1 to the error register.
 143:.\Generated_Source\PSoC5/CyDmac.c **** *
 144:.\Generated_Source\PSoC5/CyDmac.c **** *******************************************************************************/
 145:.\Generated_Source\PSoC5/CyDmac.c **** void CyDmacClearError(uint8 error) 
 146:.\Generated_Source\PSoC5/CyDmac.c **** {
 147              		.loc 1 146 0
 148              		.cfi_startproc
 149              		@ args = 0, pretend = 0, frame = 8
 150              		@ frame_needed = 1, uses_anonymous_args = 0
 151              		@ link register save eliminated.
 152 0000 80B4     		push	{r7}
 153              	.LCFI5:
 154              		.cfi_def_cfa_offset 4
 155              		.cfi_offset 7, -4
 156 0002 83B0     		sub	sp, sp, #12
 157              	.LCFI6:
 158              		.cfi_def_cfa_offset 16
 159 0004 00AF     		add	r7, sp, #0
 160              	.LCFI7:
 161              		.cfi_def_cfa_register 7
 162 0006 0346     		mov	r3, r0
 163 0008 FB71     		strb	r3, [r7, #7]
 147:.\Generated_Source\PSoC5/CyDmac.c ****     *CY_DMA_ERR_PTR = (((uint32)0x0Fu) & ((uint32)error));
 164              		.loc 1 147 0
 165 000a 47F20403 		movw	r3, #28676
 166 000e C4F20003 		movt	r3, 16384
 167 0012 FA79     		ldrb	r2, [r7, #7]	@ zero_extendqisi2
 168 0014 02F00F02 		and	r2, r2, #15
 169 0018 1A60     		str	r2, [r3, #0]
 148:.\Generated_Source\PSoC5/CyDmac.c **** }
 170              		.loc 1 148 0
 171 001a 07F10C07 		add	r7, r7, #12
 172 001e BD46     		mov	sp, r7
 173 0020 80BC     		pop	{r7}
 174 0022 7047     		bx	lr
 175              		.cfi_endproc
 176              	.LFE2:
 177              		.size	CyDmacClearError, .-CyDmacClearError
 178              		.section	.text.CyDmacErrorAddress,"ax",%progbits
 179              		.align	2
 180              		.global	CyDmacErrorAddress
 181              		.thumb
 182              		.thumb_func
 183              		.type	CyDmacErrorAddress, %function
 184              	CyDmacErrorAddress:
 185              	.LFB3:
 149:.\Generated_Source\PSoC5/CyDmac.c **** 
 150:.\Generated_Source\PSoC5/CyDmac.c **** 
 151:.\Generated_Source\PSoC5/CyDmac.c **** /*******************************************************************************
 152:.\Generated_Source\PSoC5/CyDmac.c **** * Function Name: CyDmacErrorAddress
 153:.\Generated_Source\PSoC5/CyDmac.c **** ********************************************************************************
 154:.\Generated_Source\PSoC5/CyDmac.c **** *
 155:.\Generated_Source\PSoC5/CyDmac.c **** * Summary:
ARM GAS  C:\Users\Robert\AppData\Local\Temp\ccvq07RG.s 			page 7


 156:.\Generated_Source\PSoC5/CyDmac.c **** *  When DMAC_BUS_TIMEOUT, DMAC_UNPOP_ACC, and DMAC_PERIPH_ERR occur the
 157:.\Generated_Source\PSoC5/CyDmac.c **** *  address of the error is written to the error address register and can be read
 158:.\Generated_Source\PSoC5/CyDmac.c **** *  with this function.
 159:.\Generated_Source\PSoC5/CyDmac.c **** *
 160:.\Generated_Source\PSoC5/CyDmac.c **** *  If there are multiple errors, only the address of the first is saved.
 161:.\Generated_Source\PSoC5/CyDmac.c **** *
 162:.\Generated_Source\PSoC5/CyDmac.c **** * Parameters:
 163:.\Generated_Source\PSoC5/CyDmac.c **** *  None
 164:.\Generated_Source\PSoC5/CyDmac.c **** *
 165:.\Generated_Source\PSoC5/CyDmac.c **** * Return:
 166:.\Generated_Source\PSoC5/CyDmac.c **** *  The address that caused the error.
 167:.\Generated_Source\PSoC5/CyDmac.c **** *
 168:.\Generated_Source\PSoC5/CyDmac.c **** *******************************************************************************/
 169:.\Generated_Source\PSoC5/CyDmac.c **** uint32 CyDmacErrorAddress(void) 
 170:.\Generated_Source\PSoC5/CyDmac.c **** {
 186              		.loc 1 170 0
 187              		.cfi_startproc
 188              		@ args = 0, pretend = 0, frame = 0
 189              		@ frame_needed = 1, uses_anonymous_args = 0
 190              		@ link register save eliminated.
 191 0000 80B4     		push	{r7}
 192              	.LCFI8:
 193              		.cfi_def_cfa_offset 4
 194              		.cfi_offset 7, -4
 195 0002 00AF     		add	r7, sp, #0
 196              	.LCFI9:
 197              		.cfi_def_cfa_register 7
 171:.\Generated_Source\PSoC5/CyDmac.c ****     return(CY_GET_REG32(CY_DMA_ERR_ADR_PTR));
 198              		.loc 1 171 0
 199 0004 47F20803 		movw	r3, #28680
 200 0008 C4F20003 		movt	r3, 16384
 201 000c 1B68     		ldr	r3, [r3, #0]
 172:.\Generated_Source\PSoC5/CyDmac.c **** }
 202              		.loc 1 172 0
 203 000e 1846     		mov	r0, r3
 204 0010 BD46     		mov	sp, r7
 205 0012 80BC     		pop	{r7}
 206 0014 7047     		bx	lr
 207              		.cfi_endproc
 208              	.LFE3:
 209              		.size	CyDmacErrorAddress, .-CyDmacErrorAddress
 210 0016 00BF     		.section	.text.CyDmaChAlloc,"ax",%progbits
 211              		.align	2
 212              		.global	CyDmaChAlloc
 213              		.thumb
 214              		.thumb_func
 215              		.type	CyDmaChAlloc, %function
 216              	CyDmaChAlloc:
 217              	.LFB4:
 173:.\Generated_Source\PSoC5/CyDmac.c **** 
 174:.\Generated_Source\PSoC5/CyDmac.c **** 
 175:.\Generated_Source\PSoC5/CyDmac.c **** /*******************************************************************************
 176:.\Generated_Source\PSoC5/CyDmac.c **** * Function Name: CyDmaChAlloc
 177:.\Generated_Source\PSoC5/CyDmac.c **** ********************************************************************************
 178:.\Generated_Source\PSoC5/CyDmac.c **** *
 179:.\Generated_Source\PSoC5/CyDmac.c **** * Summary:
 180:.\Generated_Source\PSoC5/CyDmac.c **** *  Allocates a channel from the DMAC to be used in all functions that require a
ARM GAS  C:\Users\Robert\AppData\Local\Temp\ccvq07RG.s 			page 8


 181:.\Generated_Source\PSoC5/CyDmac.c **** *  channel handle.
 182:.\Generated_Source\PSoC5/CyDmac.c **** *
 183:.\Generated_Source\PSoC5/CyDmac.c **** * Parameters:
 184:.\Generated_Source\PSoC5/CyDmac.c **** *  None
 185:.\Generated_Source\PSoC5/CyDmac.c **** *
 186:.\Generated_Source\PSoC5/CyDmac.c **** * Return:
 187:.\Generated_Source\PSoC5/CyDmac.c **** *  The allocated channel number. Zero is a valid channel number.
 188:.\Generated_Source\PSoC5/CyDmac.c **** *  DMA_INVALID_CHANNEL is returned if there are no channels available.
 189:.\Generated_Source\PSoC5/CyDmac.c **** *
 190:.\Generated_Source\PSoC5/CyDmac.c **** *******************************************************************************/
 191:.\Generated_Source\PSoC5/CyDmac.c **** uint8 CyDmaChAlloc(void) 
 192:.\Generated_Source\PSoC5/CyDmac.c **** {
 218              		.loc 1 192 0
 219              		.cfi_startproc
 220              		@ args = 0, pretend = 0, frame = 16
 221              		@ frame_needed = 1, uses_anonymous_args = 0
 222 0000 80B5     		push	{r7, lr}
 223              	.LCFI10:
 224              		.cfi_def_cfa_offset 8
 225              		.cfi_offset 7, -8
 226              		.cfi_offset 14, -4
 227 0002 84B0     		sub	sp, sp, #16
 228              	.LCFI11:
 229              		.cfi_def_cfa_offset 24
 230 0004 00AF     		add	r7, sp, #0
 231              	.LCFI12:
 232              		.cfi_def_cfa_register 7
 193:.\Generated_Source\PSoC5/CyDmac.c ****     uint8 interruptState;
 194:.\Generated_Source\PSoC5/CyDmac.c ****     uint8 dmaIndex;
 195:.\Generated_Source\PSoC5/CyDmac.c ****     uint32 channel = 1u;
 233              		.loc 1 195 0
 234 0006 4FF00103 		mov	r3, #1
 235 000a BB60     		str	r3, [r7, #8]
 196:.\Generated_Source\PSoC5/CyDmac.c **** 
 197:.\Generated_Source\PSoC5/CyDmac.c **** 
 198:.\Generated_Source\PSoC5/CyDmac.c ****     /* Enter critical section! */
 199:.\Generated_Source\PSoC5/CyDmac.c ****     interruptState = CyEnterCriticalSection();
 236              		.loc 1 199 0
 237 000c FFF7FEFF 		bl	CyEnterCriticalSection
 238 0010 0346     		mov	r3, r0
 239 0012 FB71     		strb	r3, [r7, #7]
 200:.\Generated_Source\PSoC5/CyDmac.c **** 
 201:.\Generated_Source\PSoC5/CyDmac.c ****     /* Look for free channel. */
 202:.\Generated_Source\PSoC5/CyDmac.c ****     for(dmaIndex = 0u; dmaIndex < CY_DMA_NUMBEROF_CHANNELS; dmaIndex++)
 240              		.loc 1 202 0
 241 0014 4FF00003 		mov	r3, #0
 242 0018 FB73     		strb	r3, [r7, #15]
 243 001a 1DE0     		b	.L10
 244              	.L13:
 203:.\Generated_Source\PSoC5/CyDmac.c ****     {
 204:.\Generated_Source\PSoC5/CyDmac.c ****         if(0uL == (CyDmaChannels & channel))
 245              		.loc 1 204 0
 246 001c 40F20003 		movw	r3, #:lower16:CyDmaChannels
 247 0020 C0F20003 		movt	r3, #:upper16:CyDmaChannels
 248 0024 1A68     		ldr	r2, [r3, #0]
 249 0026 BB68     		ldr	r3, [r7, #8]
 250 0028 1340     		ands	r3, r3, r2
ARM GAS  C:\Users\Robert\AppData\Local\Temp\ccvq07RG.s 			page 9


 251 002a 002B     		cmp	r3, #0
 252 002c 0CD1     		bne	.L11
 205:.\Generated_Source\PSoC5/CyDmac.c ****         {
 206:.\Generated_Source\PSoC5/CyDmac.c ****             /* Mark channel as used. */
 207:.\Generated_Source\PSoC5/CyDmac.c ****             CyDmaChannels |= channel;
 253              		.loc 1 207 0
 254 002e 40F20003 		movw	r3, #:lower16:CyDmaChannels
 255 0032 C0F20003 		movt	r3, #:upper16:CyDmaChannels
 256 0036 1A68     		ldr	r2, [r3, #0]
 257 0038 BB68     		ldr	r3, [r7, #8]
 258 003a 1A43     		orrs	r2, r2, r3
 259 003c 40F20003 		movw	r3, #:lower16:CyDmaChannels
 260 0040 C0F20003 		movt	r3, #:upper16:CyDmaChannels
 261 0044 1A60     		str	r2, [r3, #0]
 208:.\Generated_Source\PSoC5/CyDmac.c ****             break;
 262              		.loc 1 208 0
 263 0046 0AE0     		b	.L12
 264              	.L11:
 209:.\Generated_Source\PSoC5/CyDmac.c ****         }
 210:.\Generated_Source\PSoC5/CyDmac.c **** 
 211:.\Generated_Source\PSoC5/CyDmac.c ****         channel <<= 1u;
 265              		.loc 1 211 0
 266 0048 BB68     		ldr	r3, [r7, #8]
 267 004a 4FEA4303 		lsl	r3, r3, #1
 268 004e BB60     		str	r3, [r7, #8]
 202:.\Generated_Source\PSoC5/CyDmac.c ****     for(dmaIndex = 0u; dmaIndex < CY_DMA_NUMBEROF_CHANNELS; dmaIndex++)
 269              		.loc 1 202 0
 270 0050 FB7B     		ldrb	r3, [r7, #15]
 271 0052 03F10103 		add	r3, r3, #1
 272 0056 FB73     		strb	r3, [r7, #15]
 273              	.L10:
 202:.\Generated_Source\PSoC5/CyDmac.c ****     for(dmaIndex = 0u; dmaIndex < CY_DMA_NUMBEROF_CHANNELS; dmaIndex++)
 274              		.loc 1 202 0 is_stmt 0 discriminator 1
 275 0058 FB7B     		ldrb	r3, [r7, #15]	@ zero_extendqisi2
 276 005a 172B     		cmp	r3, #23
 277 005c DED9     		bls	.L13
 278              	.L12:
 212:.\Generated_Source\PSoC5/CyDmac.c ****     }
 213:.\Generated_Source\PSoC5/CyDmac.c **** 
 214:.\Generated_Source\PSoC5/CyDmac.c ****     if(dmaIndex >= CY_DMA_NUMBEROF_CHANNELS)
 279              		.loc 1 214 0 is_stmt 1
 280 005e FB7B     		ldrb	r3, [r7, #15]	@ zero_extendqisi2
 281 0060 172B     		cmp	r3, #23
 282 0062 02D9     		bls	.L14
 215:.\Generated_Source\PSoC5/CyDmac.c ****     {
 216:.\Generated_Source\PSoC5/CyDmac.c ****         dmaIndex = CY_DMA_INVALID_CHANNEL;
 283              		.loc 1 216 0
 284 0064 4FF0FF03 		mov	r3, #255
 285 0068 FB73     		strb	r3, [r7, #15]
 286              	.L14:
 217:.\Generated_Source\PSoC5/CyDmac.c ****     }
 218:.\Generated_Source\PSoC5/CyDmac.c **** 
 219:.\Generated_Source\PSoC5/CyDmac.c ****     /* Exit critical section! */
 220:.\Generated_Source\PSoC5/CyDmac.c ****     CyExitCriticalSection(interruptState);
 287              		.loc 1 220 0
 288 006a FB79     		ldrb	r3, [r7, #7]	@ zero_extendqisi2
 289 006c 1846     		mov	r0, r3
ARM GAS  C:\Users\Robert\AppData\Local\Temp\ccvq07RG.s 			page 10


 290 006e FFF7FEFF 		bl	CyExitCriticalSection
 221:.\Generated_Source\PSoC5/CyDmac.c **** 
 222:.\Generated_Source\PSoC5/CyDmac.c ****     return(dmaIndex);
 291              		.loc 1 222 0
 292 0072 FB7B     		ldrb	r3, [r7, #15]	@ zero_extendqisi2
 223:.\Generated_Source\PSoC5/CyDmac.c **** }
 293              		.loc 1 223 0
 294 0074 1846     		mov	r0, r3
 295 0076 07F11007 		add	r7, r7, #16
 296 007a BD46     		mov	sp, r7
 297 007c 80BD     		pop	{r7, pc}
 298              		.cfi_endproc
 299              	.LFE4:
 300              		.size	CyDmaChAlloc, .-CyDmaChAlloc
 301 007e 00BF     		.section	.text.CyDmaChFree,"ax",%progbits
 302              		.align	2
 303              		.global	CyDmaChFree
 304              		.thumb
 305              		.thumb_func
 306              		.type	CyDmaChFree, %function
 307              	CyDmaChFree:
 308              	.LFB5:
 224:.\Generated_Source\PSoC5/CyDmac.c **** 
 225:.\Generated_Source\PSoC5/CyDmac.c **** 
 226:.\Generated_Source\PSoC5/CyDmac.c **** /*******************************************************************************
 227:.\Generated_Source\PSoC5/CyDmac.c **** * Function Name: CyDmaChFree
 228:.\Generated_Source\PSoC5/CyDmac.c **** ********************************************************************************
 229:.\Generated_Source\PSoC5/CyDmac.c **** *
 230:.\Generated_Source\PSoC5/CyDmac.c **** * Summary:
 231:.\Generated_Source\PSoC5/CyDmac.c **** *  Frees a channel allocated by DmaChAlloc().
 232:.\Generated_Source\PSoC5/CyDmac.c **** *
 233:.\Generated_Source\PSoC5/CyDmac.c **** * Parameters:
 234:.\Generated_Source\PSoC5/CyDmac.c **** *  uint8 chHandle:
 235:.\Generated_Source\PSoC5/CyDmac.c **** *   The handle previously returned by CyDmaChAlloc() or DMA_DmaInitalize().
 236:.\Generated_Source\PSoC5/CyDmac.c **** *
 237:.\Generated_Source\PSoC5/CyDmac.c **** * Return:
 238:.\Generated_Source\PSoC5/CyDmac.c **** *  CYRET_SUCCESS if successful.
 239:.\Generated_Source\PSoC5/CyDmac.c **** *  CYRET_BAD_PARAM if chHandle is invalid.
 240:.\Generated_Source\PSoC5/CyDmac.c **** *
 241:.\Generated_Source\PSoC5/CyDmac.c **** *******************************************************************************/
 242:.\Generated_Source\PSoC5/CyDmac.c **** cystatus CyDmaChFree(uint8 chHandle) 
 243:.\Generated_Source\PSoC5/CyDmac.c **** {
 309              		.loc 1 243 0
 310              		.cfi_startproc
 311              		@ args = 0, pretend = 0, frame = 16
 312              		@ frame_needed = 1, uses_anonymous_args = 0
 313 0000 80B5     		push	{r7, lr}
 314              	.LCFI13:
 315              		.cfi_def_cfa_offset 8
 316              		.cfi_offset 7, -8
 317              		.cfi_offset 14, -4
 318 0002 84B0     		sub	sp, sp, #16
 319              	.LCFI14:
 320              		.cfi_def_cfa_offset 24
 321 0004 00AF     		add	r7, sp, #0
 322              	.LCFI15:
 323              		.cfi_def_cfa_register 7
ARM GAS  C:\Users\Robert\AppData\Local\Temp\ccvq07RG.s 			page 11


 324 0006 0346     		mov	r3, r0
 325 0008 FB71     		strb	r3, [r7, #7]
 244:.\Generated_Source\PSoC5/CyDmac.c ****     cystatus status = CYRET_BAD_PARAM;
 326              		.loc 1 244 0
 327 000a 4FF00103 		mov	r3, #1
 328 000e FB60     		str	r3, [r7, #12]
 245:.\Generated_Source\PSoC5/CyDmac.c ****     uint8 interruptState;
 246:.\Generated_Source\PSoC5/CyDmac.c **** 
 247:.\Generated_Source\PSoC5/CyDmac.c ****     if(chHandle < CY_DMA_NUMBEROF_CHANNELS)
 329              		.loc 1 247 0
 330 0010 FB79     		ldrb	r3, [r7, #7]	@ zero_extendqisi2
 331 0012 172B     		cmp	r3, #23
 332 0014 1CD8     		bhi	.L17
 248:.\Generated_Source\PSoC5/CyDmac.c ****     {
 249:.\Generated_Source\PSoC5/CyDmac.c ****         /* Enter critical section */
 250:.\Generated_Source\PSoC5/CyDmac.c ****         interruptState = CyEnterCriticalSection();
 333              		.loc 1 250 0
 334 0016 FFF7FEFF 		bl	CyEnterCriticalSection
 335 001a 0346     		mov	r3, r0
 336 001c FB72     		strb	r3, [r7, #11]
 251:.\Generated_Source\PSoC5/CyDmac.c **** 
 252:.\Generated_Source\PSoC5/CyDmac.c ****         /* Clear bit mask that keeps track of ownership. */
 253:.\Generated_Source\PSoC5/CyDmac.c ****         CyDmaChannels &= ~(((uint32) 1u) << chHandle);
 337              		.loc 1 253 0
 338 001e FB79     		ldrb	r3, [r7, #7]	@ zero_extendqisi2
 339 0020 4FF00102 		mov	r2, #1
 340 0024 02FA03F3 		lsl	r3, r2, r3
 341 0028 6FEA0302 		mvn	r2, r3
 342 002c 40F20003 		movw	r3, #:lower16:CyDmaChannels
 343 0030 C0F20003 		movt	r3, #:upper16:CyDmaChannels
 344 0034 1B68     		ldr	r3, [r3, #0]
 345 0036 1A40     		ands	r2, r2, r3
 346 0038 40F20003 		movw	r3, #:lower16:CyDmaChannels
 347 003c C0F20003 		movt	r3, #:upper16:CyDmaChannels
 348 0040 1A60     		str	r2, [r3, #0]
 254:.\Generated_Source\PSoC5/CyDmac.c **** 
 255:.\Generated_Source\PSoC5/CyDmac.c ****         /* Exit critical section */
 256:.\Generated_Source\PSoC5/CyDmac.c ****         CyExitCriticalSection(interruptState);
 349              		.loc 1 256 0
 350 0042 FB7A     		ldrb	r3, [r7, #11]	@ zero_extendqisi2
 351 0044 1846     		mov	r0, r3
 352 0046 FFF7FEFF 		bl	CyExitCriticalSection
 257:.\Generated_Source\PSoC5/CyDmac.c ****         status = CYRET_SUCCESS;
 353              		.loc 1 257 0
 354 004a 4FF00003 		mov	r3, #0
 355 004e FB60     		str	r3, [r7, #12]
 356              	.L17:
 258:.\Generated_Source\PSoC5/CyDmac.c ****     }
 259:.\Generated_Source\PSoC5/CyDmac.c **** 
 260:.\Generated_Source\PSoC5/CyDmac.c ****     return(status);
 357              		.loc 1 260 0
 358 0050 FB68     		ldr	r3, [r7, #12]
 261:.\Generated_Source\PSoC5/CyDmac.c **** }
 359              		.loc 1 261 0
 360 0052 1846     		mov	r0, r3
 361 0054 07F11007 		add	r7, r7, #16
 362 0058 BD46     		mov	sp, r7
ARM GAS  C:\Users\Robert\AppData\Local\Temp\ccvq07RG.s 			page 12


 363 005a 80BD     		pop	{r7, pc}
 364              		.cfi_endproc
 365              	.LFE5:
 366              		.size	CyDmaChFree, .-CyDmaChFree
 367              		.section	.text.CyDmaChEnable,"ax",%progbits
 368              		.align	2
 369              		.global	CyDmaChEnable
 370              		.thumb
 371              		.thumb_func
 372              		.type	CyDmaChEnable, %function
 373              	CyDmaChEnable:
 374              	.LFB6:
 262:.\Generated_Source\PSoC5/CyDmac.c **** 
 263:.\Generated_Source\PSoC5/CyDmac.c **** 
 264:.\Generated_Source\PSoC5/CyDmac.c **** /*******************************************************************************
 265:.\Generated_Source\PSoC5/CyDmac.c **** * Function Name: CyDmaChEnable
 266:.\Generated_Source\PSoC5/CyDmac.c **** ********************************************************************************
 267:.\Generated_Source\PSoC5/CyDmac.c **** *
 268:.\Generated_Source\PSoC5/CyDmac.c **** * Summary:
 269:.\Generated_Source\PSoC5/CyDmac.c **** *  Enables the DMA channel. A software or hardware request still must happen
 270:.\Generated_Source\PSoC5/CyDmac.c **** *  before the channel is executed.
 271:.\Generated_Source\PSoC5/CyDmac.c **** *
 272:.\Generated_Source\PSoC5/CyDmac.c **** * Parameters:
 273:.\Generated_Source\PSoC5/CyDmac.c **** *  uint8 chHandle:
 274:.\Generated_Source\PSoC5/CyDmac.c **** *   A handle previously returned by CyDmaChAlloc() or DMA_DmaInitalize().
 275:.\Generated_Source\PSoC5/CyDmac.c **** *
 276:.\Generated_Source\PSoC5/CyDmac.c **** *  uint8 preserveTds:
 277:.\Generated_Source\PSoC5/CyDmac.c **** *   Preserves the original TD state when the TD has completed. This parameter
 278:.\Generated_Source\PSoC5/CyDmac.c **** *   applies to all TDs in the channel.
 279:.\Generated_Source\PSoC5/CyDmac.c **** *
 280:.\Generated_Source\PSoC5/CyDmac.c **** *   0 - When TD is completed, the DMAC leaves the TD configuration values in
 281:.\Generated_Source\PSoC5/CyDmac.c **** *   their current state, and does not restore them to their original state.
 282:.\Generated_Source\PSoC5/CyDmac.c **** *
 283:.\Generated_Source\PSoC5/CyDmac.c **** *   1 - When TD is completed, the DMAC restores the original configuration
 284:.\Generated_Source\PSoC5/CyDmac.c **** *   values of the TD.
 285:.\Generated_Source\PSoC5/CyDmac.c **** *
 286:.\Generated_Source\PSoC5/CyDmac.c **** *  When preserveTds is set, the TD slot that equals the channel number becomes
 287:.\Generated_Source\PSoC5/CyDmac.c **** *  RESERVED and that becomes where the working registers exist. So, for example,
 288:.\Generated_Source\PSoC5/CyDmac.c **** *  if you are using CH06 and preserveTds is set, you are not allowed to use TD
 289:.\Generated_Source\PSoC5/CyDmac.c **** *  slot 6. That is reclaimed by the DMA engine for its private use.
 290:.\Generated_Source\PSoC5/CyDmac.c **** *
 291:.\Generated_Source\PSoC5/CyDmac.c **** *  Note Do not chain back to a completed TD if the preserveTds for the channel
 292:.\Generated_Source\PSoC5/CyDmac.c **** *  is set to 0. When a TD has completed preserveTds for the channel set to 0,
 293:.\Generated_Source\PSoC5/CyDmac.c **** *  the transfer count will be at 0. If a TD with a transfer count of 0 is
 294:.\Generated_Source\PSoC5/CyDmac.c **** *  started, the TD will transfer an indefinite amount of data.
 295:.\Generated_Source\PSoC5/CyDmac.c **** *
 296:.\Generated_Source\PSoC5/CyDmac.c **** *  Take extra precautions when using the hardware request (DRQ) option when the
 297:.\Generated_Source\PSoC5/CyDmac.c **** *  preserveTds is set to 0, as you might be requesting the wrong data.
 298:.\Generated_Source\PSoC5/CyDmac.c **** *
 299:.\Generated_Source\PSoC5/CyDmac.c **** * Return:
 300:.\Generated_Source\PSoC5/CyDmac.c **** *  CYRET_SUCCESS if successful.
 301:.\Generated_Source\PSoC5/CyDmac.c **** *  CYRET_BAD_PARAM if chHandle is invalid.
 302:.\Generated_Source\PSoC5/CyDmac.c **** *
 303:.\Generated_Source\PSoC5/CyDmac.c **** *******************************************************************************/
 304:.\Generated_Source\PSoC5/CyDmac.c **** cystatus CyDmaChEnable(uint8 chHandle, uint8 preserveTds) 
 305:.\Generated_Source\PSoC5/CyDmac.c **** {
 375              		.loc 1 305 0
ARM GAS  C:\Users\Robert\AppData\Local\Temp\ccvq07RG.s 			page 13


 376              		.cfi_startproc
 377              		@ args = 0, pretend = 0, frame = 16
 378              		@ frame_needed = 1, uses_anonymous_args = 0
 379              		@ link register save eliminated.
 380 0000 80B4     		push	{r7}
 381              	.LCFI16:
 382              		.cfi_def_cfa_offset 4
 383              		.cfi_offset 7, -4
 384 0002 85B0     		sub	sp, sp, #20
 385              	.LCFI17:
 386              		.cfi_def_cfa_offset 24
 387 0004 00AF     		add	r7, sp, #0
 388              	.LCFI18:
 389              		.cfi_def_cfa_register 7
 390 0006 0246     		mov	r2, r0
 391 0008 0B46     		mov	r3, r1
 392 000a FA71     		strb	r2, [r7, #7]
 393 000c BB71     		strb	r3, [r7, #6]
 306:.\Generated_Source\PSoC5/CyDmac.c ****     cystatus status = CYRET_BAD_PARAM;
 394              		.loc 1 306 0
 395 000e 4FF00103 		mov	r3, #1
 396 0012 FB60     		str	r3, [r7, #12]
 307:.\Generated_Source\PSoC5/CyDmac.c **** 
 308:.\Generated_Source\PSoC5/CyDmac.c ****     if(chHandle < CY_DMA_NUMBEROF_CHANNELS)
 397              		.loc 1 308 0
 398 0014 FB79     		ldrb	r3, [r7, #7]	@ zero_extendqisi2
 399 0016 172B     		cmp	r3, #23
 400 0018 48D8     		bhi	.L20
 309:.\Generated_Source\PSoC5/CyDmac.c ****     {
 310:.\Generated_Source\PSoC5/CyDmac.c ****         if (0u != preserveTds)
 401              		.loc 1 310 0
 402 001a BB79     		ldrb	r3, [r7, #6]	@ zero_extendqisi2
 403 001c 002B     		cmp	r3, #0
 404 001e 16D0     		beq	.L21
 311:.\Generated_Source\PSoC5/CyDmac.c ****         {
 312:.\Generated_Source\PSoC5/CyDmac.c ****             /* Store intermediate TD states separately in CHn_SEP_TD0/1 to
 313:.\Generated_Source\PSoC5/CyDmac.c ****             *  preserve original TD chain
 314:.\Generated_Source\PSoC5/CyDmac.c ****             */
 315:.\Generated_Source\PSoC5/CyDmac.c ****             CY_DMA_CH_STRUCT_PTR[chHandle].basic_cfg[0u] |= CY_DMA_CH_BASIC_CFG_WORK_SEP;
 405              		.loc 1 315 0
 406 0020 FB79     		ldrb	r3, [r7, #7]	@ zero_extendqisi2
 407 0022 4FEA0312 		lsl	r2, r3, #4
 408 0026 47F21003 		movw	r3, #28688
 409 002a C4F20003 		movt	r3, 16384
 410 002e D318     		adds	r3, r2, r3
 411 0030 FA79     		ldrb	r2, [r7, #7]	@ zero_extendqisi2
 412 0032 4FEA0211 		lsl	r1, r2, #4
 413 0036 47F21002 		movw	r2, #28688
 414 003a C4F20002 		movt	r2, 16384
 415 003e 8A18     		adds	r2, r1, r2
 416 0040 1278     		ldrb	r2, [r2, #0]
 417 0042 D2B2     		uxtb	r2, r2
 418 0044 42F02002 		orr	r2, r2, #32
 419 0048 D2B2     		uxtb	r2, r2
 420 004a 1A70     		strb	r2, [r3, #0]
 421 004c 15E0     		b	.L22
 422              	.L21:
ARM GAS  C:\Users\Robert\AppData\Local\Temp\ccvq07RG.s 			page 14


 316:.\Generated_Source\PSoC5/CyDmac.c ****         }
 317:.\Generated_Source\PSoC5/CyDmac.c ****         else
 318:.\Generated_Source\PSoC5/CyDmac.c ****         {
 319:.\Generated_Source\PSoC5/CyDmac.c ****             /* Store intermediate and final TD states on top of original TD chain */
 320:.\Generated_Source\PSoC5/CyDmac.c ****             CY_DMA_CH_STRUCT_PTR[chHandle].basic_cfg[0u] &= (uint8)(~CY_DMA_CH_BASIC_CFG_WORK_SEP);
 423              		.loc 1 320 0
 424 004e FB79     		ldrb	r3, [r7, #7]	@ zero_extendqisi2
 425 0050 4FEA0312 		lsl	r2, r3, #4
 426 0054 47F21003 		movw	r3, #28688
 427 0058 C4F20003 		movt	r3, 16384
 428 005c D318     		adds	r3, r2, r3
 429 005e FA79     		ldrb	r2, [r7, #7]	@ zero_extendqisi2
 430 0060 4FEA0211 		lsl	r1, r2, #4
 431 0064 47F21002 		movw	r2, #28688
 432 0068 C4F20002 		movt	r2, 16384
 433 006c 8A18     		adds	r2, r1, r2
 434 006e 1278     		ldrb	r2, [r2, #0]
 435 0070 D2B2     		uxtb	r2, r2
 436 0072 22F02002 		bic	r2, r2, #32
 437 0076 D2B2     		uxtb	r2, r2
 438 0078 1A70     		strb	r2, [r3, #0]
 439              	.L22:
 321:.\Generated_Source\PSoC5/CyDmac.c ****         }
 322:.\Generated_Source\PSoC5/CyDmac.c **** 
 323:.\Generated_Source\PSoC5/CyDmac.c ****         /* Enable channel */
 324:.\Generated_Source\PSoC5/CyDmac.c ****         CY_DMA_CH_STRUCT_PTR[chHandle].basic_cfg[0u] |= CY_DMA_CH_BASIC_CFG_EN;
 440              		.loc 1 324 0
 441 007a FB79     		ldrb	r3, [r7, #7]	@ zero_extendqisi2
 442 007c 4FEA0312 		lsl	r2, r3, #4
 443 0080 47F21003 		movw	r3, #28688
 444 0084 C4F20003 		movt	r3, 16384
 445 0088 D318     		adds	r3, r2, r3
 446 008a FA79     		ldrb	r2, [r7, #7]	@ zero_extendqisi2
 447 008c 4FEA0211 		lsl	r1, r2, #4
 448 0090 47F21002 		movw	r2, #28688
 449 0094 C4F20002 		movt	r2, 16384
 450 0098 8A18     		adds	r2, r1, r2
 451 009a 1278     		ldrb	r2, [r2, #0]
 452 009c D2B2     		uxtb	r2, r2
 453 009e 42F00102 		orr	r2, r2, #1
 454 00a2 D2B2     		uxtb	r2, r2
 455 00a4 1A70     		strb	r2, [r3, #0]
 325:.\Generated_Source\PSoC5/CyDmac.c **** 
 326:.\Generated_Source\PSoC5/CyDmac.c ****         status = CYRET_SUCCESS;
 456              		.loc 1 326 0
 457 00a6 4FF00003 		mov	r3, #0
 458 00aa FB60     		str	r3, [r7, #12]
 459              	.L20:
 327:.\Generated_Source\PSoC5/CyDmac.c ****     }
 328:.\Generated_Source\PSoC5/CyDmac.c **** 
 329:.\Generated_Source\PSoC5/CyDmac.c ****     return(status);
 460              		.loc 1 329 0
 461 00ac FB68     		ldr	r3, [r7, #12]
 330:.\Generated_Source\PSoC5/CyDmac.c **** }
 462              		.loc 1 330 0
 463 00ae 1846     		mov	r0, r3
 464 00b0 07F11407 		add	r7, r7, #20
ARM GAS  C:\Users\Robert\AppData\Local\Temp\ccvq07RG.s 			page 15


 465 00b4 BD46     		mov	sp, r7
 466 00b6 80BC     		pop	{r7}
 467 00b8 7047     		bx	lr
 468              		.cfi_endproc
 469              	.LFE6:
 470              		.size	CyDmaChEnable, .-CyDmaChEnable
 471 00ba 00BF     		.section	.text.CyDmaChDisable,"ax",%progbits
 472              		.align	2
 473              		.global	CyDmaChDisable
 474              		.thumb
 475              		.thumb_func
 476              		.type	CyDmaChDisable, %function
 477              	CyDmaChDisable:
 478              	.LFB7:
 331:.\Generated_Source\PSoC5/CyDmac.c **** 
 332:.\Generated_Source\PSoC5/CyDmac.c **** 
 333:.\Generated_Source\PSoC5/CyDmac.c **** /*******************************************************************************
 334:.\Generated_Source\PSoC5/CyDmac.c **** * Function Name: CyDmaChDisable
 335:.\Generated_Source\PSoC5/CyDmac.c **** ********************************************************************************
 336:.\Generated_Source\PSoC5/CyDmac.c **** *
 337:.\Generated_Source\PSoC5/CyDmac.c **** * Summary:
 338:.\Generated_Source\PSoC5/CyDmac.c **** *  Disables the DMA channel. Once this function is called, CyDmaChStatus() may
 339:.\Generated_Source\PSoC5/CyDmac.c **** *  be called to determine when the channel is disabled and which TDs were being
 340:.\Generated_Source\PSoC5/CyDmac.c **** *  executed.
 341:.\Generated_Source\PSoC5/CyDmac.c **** *
 342:.\Generated_Source\PSoC5/CyDmac.c **** *  If it is currently executing it will allow the current burst to finish
 343:.\Generated_Source\PSoC5/CyDmac.c **** *  naturally.
 344:.\Generated_Source\PSoC5/CyDmac.c **** *
 345:.\Generated_Source\PSoC5/CyDmac.c **** * Parameters:
 346:.\Generated_Source\PSoC5/CyDmac.c **** *  uint8 chHandle:
 347:.\Generated_Source\PSoC5/CyDmac.c **** *   A handle previously returned by CyDmaChAlloc() or DMA_DmaInitalize().
 348:.\Generated_Source\PSoC5/CyDmac.c **** *
 349:.\Generated_Source\PSoC5/CyDmac.c **** * Return:
 350:.\Generated_Source\PSoC5/CyDmac.c **** *  CYRET_SUCCESS if successful.
 351:.\Generated_Source\PSoC5/CyDmac.c **** *  CYRET_BAD_PARAM if chHandle is invalid.
 352:.\Generated_Source\PSoC5/CyDmac.c **** *
 353:.\Generated_Source\PSoC5/CyDmac.c **** *******************************************************************************/
 354:.\Generated_Source\PSoC5/CyDmac.c **** cystatus CyDmaChDisable(uint8 chHandle) 
 355:.\Generated_Source\PSoC5/CyDmac.c **** {
 479              		.loc 1 355 0
 480              		.cfi_startproc
 481              		@ args = 0, pretend = 0, frame = 16
 482              		@ frame_needed = 1, uses_anonymous_args = 0
 483              		@ link register save eliminated.
 484 0000 80B4     		push	{r7}
 485              	.LCFI19:
 486              		.cfi_def_cfa_offset 4
 487              		.cfi_offset 7, -4
 488 0002 85B0     		sub	sp, sp, #20
 489              	.LCFI20:
 490              		.cfi_def_cfa_offset 24
 491 0004 00AF     		add	r7, sp, #0
 492              	.LCFI21:
 493              		.cfi_def_cfa_register 7
 494 0006 0346     		mov	r3, r0
 495 0008 FB71     		strb	r3, [r7, #7]
 356:.\Generated_Source\PSoC5/CyDmac.c ****     cystatus status = CYRET_BAD_PARAM;
ARM GAS  C:\Users\Robert\AppData\Local\Temp\ccvq07RG.s 			page 16


 496              		.loc 1 356 0
 497 000a 4FF00103 		mov	r3, #1
 498 000e FB60     		str	r3, [r7, #12]
 357:.\Generated_Source\PSoC5/CyDmac.c **** 
 358:.\Generated_Source\PSoC5/CyDmac.c ****     if(chHandle < CY_DMA_NUMBEROF_CHANNELS)
 499              		.loc 1 358 0
 500 0010 FB79     		ldrb	r3, [r7, #7]	@ zero_extendqisi2
 501 0012 172B     		cmp	r3, #23
 502 0014 2ED8     		bhi	.L25
 359:.\Generated_Source\PSoC5/CyDmac.c ****     {
 360:.\Generated_Source\PSoC5/CyDmac.c ****         /***********************************************************************
 361:.\Generated_Source\PSoC5/CyDmac.c ****         * Should not change configuration information of a DMA channel when it
 362:.\Generated_Source\PSoC5/CyDmac.c ****         * is active (or vulnerable to becoming active).
 363:.\Generated_Source\PSoC5/CyDmac.c ****         ***********************************************************************/
 364:.\Generated_Source\PSoC5/CyDmac.c **** 
 365:.\Generated_Source\PSoC5/CyDmac.c ****         /* Disable channel */
 366:.\Generated_Source\PSoC5/CyDmac.c ****         CY_DMA_CH_STRUCT_PTR[chHandle].basic_cfg[0] &= ((uint8) (~CY_DMA_CH_BASIC_CFG_EN));
 503              		.loc 1 366 0
 504 0016 FB79     		ldrb	r3, [r7, #7]	@ zero_extendqisi2
 505 0018 4FEA0312 		lsl	r2, r3, #4
 506 001c 47F21003 		movw	r3, #28688
 507 0020 C4F20003 		movt	r3, 16384
 508 0024 D318     		adds	r3, r2, r3
 509 0026 FA79     		ldrb	r2, [r7, #7]	@ zero_extendqisi2
 510 0028 4FEA0211 		lsl	r1, r2, #4
 511 002c 47F21002 		movw	r2, #28688
 512 0030 C4F20002 		movt	r2, 16384
 513 0034 8A18     		adds	r2, r1, r2
 514 0036 1278     		ldrb	r2, [r2, #0]
 515 0038 D2B2     		uxtb	r2, r2
 516 003a 22F00102 		bic	r2, r2, #1
 517 003e D2B2     		uxtb	r2, r2
 518 0040 1A70     		strb	r2, [r3, #0]
 367:.\Generated_Source\PSoC5/CyDmac.c **** 
 368:.\Generated_Source\PSoC5/CyDmac.c ****         /* Store intermediate and final TD states on top of original TD chain */
 369:.\Generated_Source\PSoC5/CyDmac.c ****         CY_DMA_CH_STRUCT_PTR[chHandle].basic_cfg[0] &= ((uint8) (~CY_DMA_CH_BASIC_CFG_WORK_SEP));
 519              		.loc 1 369 0
 520 0042 FB79     		ldrb	r3, [r7, #7]	@ zero_extendqisi2
 521 0044 4FEA0312 		lsl	r2, r3, #4
 522 0048 47F21003 		movw	r3, #28688
 523 004c C4F20003 		movt	r3, 16384
 524 0050 D318     		adds	r3, r2, r3
 525 0052 FA79     		ldrb	r2, [r7, #7]	@ zero_extendqisi2
 526 0054 4FEA0211 		lsl	r1, r2, #4
 527 0058 47F21002 		movw	r2, #28688
 528 005c C4F20002 		movt	r2, 16384
 529 0060 8A18     		adds	r2, r1, r2
 530 0062 1278     		ldrb	r2, [r2, #0]
 531 0064 D2B2     		uxtb	r2, r2
 532 0066 22F02002 		bic	r2, r2, #32
 533 006a D2B2     		uxtb	r2, r2
 534 006c 1A70     		strb	r2, [r3, #0]
 370:.\Generated_Source\PSoC5/CyDmac.c ****         status = CYRET_SUCCESS;
 535              		.loc 1 370 0
 536 006e 4FF00003 		mov	r3, #0
 537 0072 FB60     		str	r3, [r7, #12]
 538              	.L25:
ARM GAS  C:\Users\Robert\AppData\Local\Temp\ccvq07RG.s 			page 17


 371:.\Generated_Source\PSoC5/CyDmac.c ****     }
 372:.\Generated_Source\PSoC5/CyDmac.c **** 
 373:.\Generated_Source\PSoC5/CyDmac.c ****     return(status);
 539              		.loc 1 373 0
 540 0074 FB68     		ldr	r3, [r7, #12]
 374:.\Generated_Source\PSoC5/CyDmac.c **** }
 541              		.loc 1 374 0
 542 0076 1846     		mov	r0, r3
 543 0078 07F11407 		add	r7, r7, #20
 544 007c BD46     		mov	sp, r7
 545 007e 80BC     		pop	{r7}
 546 0080 7047     		bx	lr
 547              		.cfi_endproc
 548              	.LFE7:
 549              		.size	CyDmaChDisable, .-CyDmaChDisable
 550 0082 00BF     		.section	.text.CyDmaClearPendingDrq,"ax",%progbits
 551              		.align	2
 552              		.global	CyDmaClearPendingDrq
 553              		.thumb
 554              		.thumb_func
 555              		.type	CyDmaClearPendingDrq, %function
 556              	CyDmaClearPendingDrq:
 557              	.LFB8:
 375:.\Generated_Source\PSoC5/CyDmac.c **** 
 376:.\Generated_Source\PSoC5/CyDmac.c **** 
 377:.\Generated_Source\PSoC5/CyDmac.c **** /*******************************************************************************
 378:.\Generated_Source\PSoC5/CyDmac.c **** * Function Name: CyDmaClearPendingDrq
 379:.\Generated_Source\PSoC5/CyDmac.c **** ********************************************************************************
 380:.\Generated_Source\PSoC5/CyDmac.c **** *
 381:.\Generated_Source\PSoC5/CyDmac.c **** * Summary:
 382:.\Generated_Source\PSoC5/CyDmac.c **** *  Clears pending the DMA data request.
 383:.\Generated_Source\PSoC5/CyDmac.c **** *
 384:.\Generated_Source\PSoC5/CyDmac.c **** * Parameters:
 385:.\Generated_Source\PSoC5/CyDmac.c **** *  uint8 chHandle:
 386:.\Generated_Source\PSoC5/CyDmac.c **** *   Handle to the dma channel.
 387:.\Generated_Source\PSoC5/CyDmac.c **** *
 388:.\Generated_Source\PSoC5/CyDmac.c **** * Return:
 389:.\Generated_Source\PSoC5/CyDmac.c **** *  CYRET_SUCCESS if successful.
 390:.\Generated_Source\PSoC5/CyDmac.c **** *  CYRET_BAD_PARAM if chHandle is invalid.
 391:.\Generated_Source\PSoC5/CyDmac.c **** *
 392:.\Generated_Source\PSoC5/CyDmac.c **** *******************************************************************************/
 393:.\Generated_Source\PSoC5/CyDmac.c **** cystatus CyDmaClearPendingDrq(uint8 chHandle) 
 394:.\Generated_Source\PSoC5/CyDmac.c **** {
 558              		.loc 1 394 0
 559              		.cfi_startproc
 560              		@ args = 0, pretend = 0, frame = 16
 561              		@ frame_needed = 1, uses_anonymous_args = 0
 562              		@ link register save eliminated.
 563 0000 80B4     		push	{r7}
 564              	.LCFI22:
 565              		.cfi_def_cfa_offset 4
 566              		.cfi_offset 7, -4
 567 0002 85B0     		sub	sp, sp, #20
 568              	.LCFI23:
 569              		.cfi_def_cfa_offset 24
 570 0004 00AF     		add	r7, sp, #0
 571              	.LCFI24:
ARM GAS  C:\Users\Robert\AppData\Local\Temp\ccvq07RG.s 			page 18


 572              		.cfi_def_cfa_register 7
 573 0006 0346     		mov	r3, r0
 574 0008 FB71     		strb	r3, [r7, #7]
 395:.\Generated_Source\PSoC5/CyDmac.c ****     cystatus status = CYRET_BAD_PARAM;
 575              		.loc 1 395 0
 576 000a 4FF00103 		mov	r3, #1
 577 000e FB60     		str	r3, [r7, #12]
 396:.\Generated_Source\PSoC5/CyDmac.c **** 
 397:.\Generated_Source\PSoC5/CyDmac.c ****     if(chHandle < CY_DMA_NUMBEROF_CHANNELS)
 578              		.loc 1 397 0
 579 0010 FB79     		ldrb	r3, [r7, #7]	@ zero_extendqisi2
 580 0012 172B     		cmp	r3, #23
 581 0014 2ED8     		bhi	.L28
 398:.\Generated_Source\PSoC5/CyDmac.c ****     {
 399:.\Generated_Source\PSoC5/CyDmac.c ****         CY_DMA_CH_STRUCT_PTR[chHandle].action[0] |= CY_DMA_CPU_TERM_CHAIN;
 582              		.loc 1 399 0
 583 0016 FB79     		ldrb	r3, [r7, #7]	@ zero_extendqisi2
 584 0018 4FEA0312 		lsl	r2, r3, #4
 585 001c 47F21003 		movw	r3, #28688
 586 0020 C4F20003 		movt	r3, 16384
 587 0024 D318     		adds	r3, r2, r3
 588 0026 FA79     		ldrb	r2, [r7, #7]	@ zero_extendqisi2
 589 0028 4FEA0211 		lsl	r1, r2, #4
 590 002c 47F21002 		movw	r2, #28688
 591 0030 C4F20002 		movt	r2, 16384
 592 0034 8A18     		adds	r2, r1, r2
 593 0036 1279     		ldrb	r2, [r2, #4]
 594 0038 D2B2     		uxtb	r2, r2
 595 003a 42F00402 		orr	r2, r2, #4
 596 003e D2B2     		uxtb	r2, r2
 597 0040 1A71     		strb	r2, [r3, #4]
 400:.\Generated_Source\PSoC5/CyDmac.c ****         CY_DMA_CH_STRUCT_PTR[chHandle].basic_cfg[0] |= 0x01u;
 598              		.loc 1 400 0
 599 0042 FB79     		ldrb	r3, [r7, #7]	@ zero_extendqisi2
 600 0044 4FEA0312 		lsl	r2, r3, #4
 601 0048 47F21003 		movw	r3, #28688
 602 004c C4F20003 		movt	r3, 16384
 603 0050 D318     		adds	r3, r2, r3
 604 0052 FA79     		ldrb	r2, [r7, #7]	@ zero_extendqisi2
 605 0054 4FEA0211 		lsl	r1, r2, #4
 606 0058 47F21002 		movw	r2, #28688
 607 005c C4F20002 		movt	r2, 16384
 608 0060 8A18     		adds	r2, r1, r2
 609 0062 1278     		ldrb	r2, [r2, #0]
 610 0064 D2B2     		uxtb	r2, r2
 611 0066 42F00102 		orr	r2, r2, #1
 612 006a D2B2     		uxtb	r2, r2
 613 006c 1A70     		strb	r2, [r3, #0]
 401:.\Generated_Source\PSoC5/CyDmac.c ****         status = CYRET_SUCCESS;
 614              		.loc 1 401 0
 615 006e 4FF00003 		mov	r3, #0
 616 0072 FB60     		str	r3, [r7, #12]
 617              	.L28:
 402:.\Generated_Source\PSoC5/CyDmac.c ****     }
 403:.\Generated_Source\PSoC5/CyDmac.c **** 
 404:.\Generated_Source\PSoC5/CyDmac.c ****     return(status);
 618              		.loc 1 404 0
ARM GAS  C:\Users\Robert\AppData\Local\Temp\ccvq07RG.s 			page 19


 619 0074 FB68     		ldr	r3, [r7, #12]
 405:.\Generated_Source\PSoC5/CyDmac.c **** }
 620              		.loc 1 405 0
 621 0076 1846     		mov	r0, r3
 622 0078 07F11407 		add	r7, r7, #20
 623 007c BD46     		mov	sp, r7
 624 007e 80BC     		pop	{r7}
 625 0080 7047     		bx	lr
 626              		.cfi_endproc
 627              	.LFE8:
 628              		.size	CyDmaClearPendingDrq, .-CyDmaClearPendingDrq
 629 0082 00BF     		.section	.text.CyDmaChPriority,"ax",%progbits
 630              		.align	2
 631              		.global	CyDmaChPriority
 632              		.thumb
 633              		.thumb_func
 634              		.type	CyDmaChPriority, %function
 635              	CyDmaChPriority:
 636              	.LFB9:
 406:.\Generated_Source\PSoC5/CyDmac.c **** 
 407:.\Generated_Source\PSoC5/CyDmac.c **** 
 408:.\Generated_Source\PSoC5/CyDmac.c **** /*******************************************************************************
 409:.\Generated_Source\PSoC5/CyDmac.c **** * Function Name: CyDmaChPriority
 410:.\Generated_Source\PSoC5/CyDmac.c **** ********************************************************************************
 411:.\Generated_Source\PSoC5/CyDmac.c **** *
 412:.\Generated_Source\PSoC5/CyDmac.c **** * Summary:
 413:.\Generated_Source\PSoC5/CyDmac.c **** *  Sets the priority of a DMA channel. You can use this function when you want
 414:.\Generated_Source\PSoC5/CyDmac.c **** *  to change the priority at run time. If the priority remains the same for a
 415:.\Generated_Source\PSoC5/CyDmac.c **** *  DMA channel, then you can configure the priority in the .cydwr file.
 416:.\Generated_Source\PSoC5/CyDmac.c **** *
 417:.\Generated_Source\PSoC5/CyDmac.c **** * Parameters:
 418:.\Generated_Source\PSoC5/CyDmac.c **** *  uint8 chHandle:
 419:.\Generated_Source\PSoC5/CyDmac.c **** *   A handle previously returned by CyDmaChAlloc() or DMA_DmaInitalize().
 420:.\Generated_Source\PSoC5/CyDmac.c **** *
 421:.\Generated_Source\PSoC5/CyDmac.c **** *  uint8 priority:
 422:.\Generated_Source\PSoC5/CyDmac.c **** *   Priority to set the channel to, 0 - 7.
 423:.\Generated_Source\PSoC5/CyDmac.c **** *
 424:.\Generated_Source\PSoC5/CyDmac.c **** * Return:
 425:.\Generated_Source\PSoC5/CyDmac.c **** *  CYRET_SUCCESS if successful.
 426:.\Generated_Source\PSoC5/CyDmac.c **** *  CYRET_BAD_PARAM if chHandle is invalid.
 427:.\Generated_Source\PSoC5/CyDmac.c **** *
 428:.\Generated_Source\PSoC5/CyDmac.c **** *******************************************************************************/
 429:.\Generated_Source\PSoC5/CyDmac.c **** cystatus CyDmaChPriority(uint8 chHandle, uint8 priority) 
 430:.\Generated_Source\PSoC5/CyDmac.c **** {
 637              		.loc 1 430 0
 638              		.cfi_startproc
 639              		@ args = 0, pretend = 0, frame = 16
 640              		@ frame_needed = 1, uses_anonymous_args = 0
 641              		@ link register save eliminated.
 642 0000 80B4     		push	{r7}
 643              	.LCFI25:
 644              		.cfi_def_cfa_offset 4
 645              		.cfi_offset 7, -4
 646 0002 85B0     		sub	sp, sp, #20
 647              	.LCFI26:
 648              		.cfi_def_cfa_offset 24
 649 0004 00AF     		add	r7, sp, #0
ARM GAS  C:\Users\Robert\AppData\Local\Temp\ccvq07RG.s 			page 20


 650              	.LCFI27:
 651              		.cfi_def_cfa_register 7
 652 0006 0246     		mov	r2, r0
 653 0008 0B46     		mov	r3, r1
 654 000a FA71     		strb	r2, [r7, #7]
 655 000c BB71     		strb	r3, [r7, #6]
 431:.\Generated_Source\PSoC5/CyDmac.c ****     uint8 value;
 432:.\Generated_Source\PSoC5/CyDmac.c ****     cystatus status = CYRET_BAD_PARAM;
 656              		.loc 1 432 0
 657 000e 4FF00103 		mov	r3, #1
 658 0012 FB60     		str	r3, [r7, #12]
 433:.\Generated_Source\PSoC5/CyDmac.c **** 
 434:.\Generated_Source\PSoC5/CyDmac.c ****     if(chHandle < CY_DMA_NUMBEROF_CHANNELS)
 659              		.loc 1 434 0
 660 0014 FB79     		ldrb	r3, [r7, #7]	@ zero_extendqisi2
 661 0016 172B     		cmp	r3, #23
 662 0018 22D8     		bhi	.L31
 435:.\Generated_Source\PSoC5/CyDmac.c ****     {
 436:.\Generated_Source\PSoC5/CyDmac.c ****         value = CY_DMA_CH_STRUCT_PTR[chHandle].basic_cfg[0u] & ((uint8)(~(0x0Eu)));
 663              		.loc 1 436 0
 664 001a FB79     		ldrb	r3, [r7, #7]	@ zero_extendqisi2
 665 001c 4FEA0312 		lsl	r2, r3, #4
 666 0020 47F21003 		movw	r3, #28688
 667 0024 C4F20003 		movt	r3, 16384
 668 0028 D318     		adds	r3, r2, r3
 669 002a 1B78     		ldrb	r3, [r3, #0]
 670 002c DBB2     		uxtb	r3, r3
 671 002e 23F00E03 		bic	r3, r3, #14
 672 0032 FB72     		strb	r3, [r7, #11]
 437:.\Generated_Source\PSoC5/CyDmac.c **** 
 438:.\Generated_Source\PSoC5/CyDmac.c ****         CY_DMA_CH_STRUCT_PTR[chHandle].basic_cfg[0u] = value | ((uint8) ((priority & 0x7u) << 0x01u
 673              		.loc 1 438 0
 674 0034 FB79     		ldrb	r3, [r7, #7]	@ zero_extendqisi2
 675 0036 4FEA0312 		lsl	r2, r3, #4
 676 003a 47F21003 		movw	r3, #28688
 677 003e C4F20003 		movt	r3, 16384
 678 0042 D318     		adds	r3, r2, r3
 679 0044 BA79     		ldrb	r2, [r7, #6]
 680 0046 02F00702 		and	r2, r2, #7
 681 004a D2B2     		uxtb	r2, r2
 682 004c 4FEA4202 		lsl	r2, r2, #1
 683 0050 D1B2     		uxtb	r1, r2
 684 0052 FA7A     		ldrb	r2, [r7, #11]
 685 0054 0A43     		orrs	r2, r2, r1
 686 0056 D2B2     		uxtb	r2, r2
 687 0058 1A70     		strb	r2, [r3, #0]
 439:.\Generated_Source\PSoC5/CyDmac.c **** 
 440:.\Generated_Source\PSoC5/CyDmac.c ****         status = CYRET_SUCCESS;
 688              		.loc 1 440 0
 689 005a 4FF00003 		mov	r3, #0
 690 005e FB60     		str	r3, [r7, #12]
 691              	.L31:
 441:.\Generated_Source\PSoC5/CyDmac.c ****     }
 442:.\Generated_Source\PSoC5/CyDmac.c **** 
 443:.\Generated_Source\PSoC5/CyDmac.c ****     return(status);
 692              		.loc 1 443 0
 693 0060 FB68     		ldr	r3, [r7, #12]
ARM GAS  C:\Users\Robert\AppData\Local\Temp\ccvq07RG.s 			page 21


 444:.\Generated_Source\PSoC5/CyDmac.c **** }
 694              		.loc 1 444 0
 695 0062 1846     		mov	r0, r3
 696 0064 07F11407 		add	r7, r7, #20
 697 0068 BD46     		mov	sp, r7
 698 006a 80BC     		pop	{r7}
 699 006c 7047     		bx	lr
 700              		.cfi_endproc
 701              	.LFE9:
 702              		.size	CyDmaChPriority, .-CyDmaChPriority
 703 006e 00BF     		.section	.text.CyDmaChSetExtendedAddress,"ax",%progbits
 704              		.align	2
 705              		.global	CyDmaChSetExtendedAddress
 706              		.thumb
 707              		.thumb_func
 708              		.type	CyDmaChSetExtendedAddress, %function
 709              	CyDmaChSetExtendedAddress:
 710              	.LFB10:
 445:.\Generated_Source\PSoC5/CyDmac.c **** 
 446:.\Generated_Source\PSoC5/CyDmac.c **** 
 447:.\Generated_Source\PSoC5/CyDmac.c **** /*******************************************************************************
 448:.\Generated_Source\PSoC5/CyDmac.c **** * Function Name: CyDmaChSetExtendedAddress
 449:.\Generated_Source\PSoC5/CyDmac.c **** ********************************************************************************
 450:.\Generated_Source\PSoC5/CyDmac.c **** *
 451:.\Generated_Source\PSoC5/CyDmac.c **** * Summary:
 452:.\Generated_Source\PSoC5/CyDmac.c **** *  Sets the high 16 bits of the source and destination addresses for the DMA
 453:.\Generated_Source\PSoC5/CyDmac.c **** *  channel (valid for all TDs in the chain).
 454:.\Generated_Source\PSoC5/CyDmac.c **** *
 455:.\Generated_Source\PSoC5/CyDmac.c **** * Parameters:
 456:.\Generated_Source\PSoC5/CyDmac.c **** *  uint8 chHandle:
 457:.\Generated_Source\PSoC5/CyDmac.c **** *   A handle previously returned by CyDmaChAlloc() or DMA_DmaInitalize().
 458:.\Generated_Source\PSoC5/CyDmac.c **** *
 459:.\Generated_Source\PSoC5/CyDmac.c **** *  uint16 source:
 460:.\Generated_Source\PSoC5/CyDmac.c **** *   Upper 16 bit address of the DMA transfer source.
 461:.\Generated_Source\PSoC5/CyDmac.c **** *
 462:.\Generated_Source\PSoC5/CyDmac.c **** *  uint16 destination:
 463:.\Generated_Source\PSoC5/CyDmac.c **** *   Upper 16 bit address of the DMA transfer destination.
 464:.\Generated_Source\PSoC5/CyDmac.c **** *
 465:.\Generated_Source\PSoC5/CyDmac.c **** * Return:
 466:.\Generated_Source\PSoC5/CyDmac.c **** *  CYRET_SUCCESS if successful.
 467:.\Generated_Source\PSoC5/CyDmac.c **** *  CYRET_BAD_PARAM if chHandle is invalid.
 468:.\Generated_Source\PSoC5/CyDmac.c **** *
 469:.\Generated_Source\PSoC5/CyDmac.c **** *******************************************************************************/
 470:.\Generated_Source\PSoC5/CyDmac.c **** cystatus CyDmaChSetExtendedAddress(uint8 chHandle, uint16 source, uint16 destination) \
 471:.\Generated_Source\PSoC5/CyDmac.c ****     
 472:.\Generated_Source\PSoC5/CyDmac.c **** {
 711              		.loc 1 472 0
 712              		.cfi_startproc
 713              		@ args = 0, pretend = 0, frame = 16
 714              		@ frame_needed = 1, uses_anonymous_args = 0
 715              		@ link register save eliminated.
 716 0000 80B4     		push	{r7}
 717              	.LCFI28:
 718              		.cfi_def_cfa_offset 4
 719              		.cfi_offset 7, -4
 720 0002 85B0     		sub	sp, sp, #20
 721              	.LCFI29:
ARM GAS  C:\Users\Robert\AppData\Local\Temp\ccvq07RG.s 			page 22


 722              		.cfi_def_cfa_offset 24
 723 0004 00AF     		add	r7, sp, #0
 724              	.LCFI30:
 725              		.cfi_def_cfa_register 7
 726 0006 1346     		mov	r3, r2
 727 0008 0246     		mov	r2, r0
 728 000a FA71     		strb	r2, [r7, #7]
 729 000c 0A46     		mov	r2, r1	@ movhi
 730 000e BA80     		strh	r2, [r7, #4]	@ movhi
 731 0010 7B80     		strh	r3, [r7, #2]	@ movhi
 473:.\Generated_Source\PSoC5/CyDmac.c ****     cystatus status = CYRET_BAD_PARAM;
 732              		.loc 1 473 0
 733 0012 4FF00103 		mov	r3, #1
 734 0016 FB60     		str	r3, [r7, #12]
 474:.\Generated_Source\PSoC5/CyDmac.c ****     reg16 *convert;
 475:.\Generated_Source\PSoC5/CyDmac.c **** 
 476:.\Generated_Source\PSoC5/CyDmac.c ****     #if(CY_PSOC5)
 477:.\Generated_Source\PSoC5/CyDmac.c **** 
 478:.\Generated_Source\PSoC5/CyDmac.c ****         /* 0x1FFF8000-0x1FFFFFFF needs to use alias at 0x20008000-0x2000FFFF */
 479:.\Generated_Source\PSoC5/CyDmac.c ****         if(source == 0x1FFFu)
 735              		.loc 1 479 0
 736 0018 BA88     		ldrh	r2, [r7, #4]
 737 001a 41F6FF73 		movw	r3, #8191
 738 001e 9A42     		cmp	r2, r3
 739 0020 02D1     		bne	.L34
 480:.\Generated_Source\PSoC5/CyDmac.c ****         {
 481:.\Generated_Source\PSoC5/CyDmac.c ****             source = 0x2000u;
 740              		.loc 1 481 0
 741 0022 4FF40053 		mov	r3, #8192
 742 0026 BB80     		strh	r3, [r7, #4]	@ movhi
 743              	.L34:
 482:.\Generated_Source\PSoC5/CyDmac.c ****         }
 483:.\Generated_Source\PSoC5/CyDmac.c **** 
 484:.\Generated_Source\PSoC5/CyDmac.c ****         if(destination == 0x1FFFu)
 744              		.loc 1 484 0
 745 0028 7A88     		ldrh	r2, [r7, #2]
 746 002a 41F6FF73 		movw	r3, #8191
 747 002e 9A42     		cmp	r2, r3
 748 0030 02D1     		bne	.L35
 485:.\Generated_Source\PSoC5/CyDmac.c ****         {
 486:.\Generated_Source\PSoC5/CyDmac.c ****             destination = 0x2000u;
 749              		.loc 1 486 0
 750 0032 4FF40053 		mov	r3, #8192
 751 0036 7B80     		strh	r3, [r7, #2]	@ movhi
 752              	.L35:
 487:.\Generated_Source\PSoC5/CyDmac.c ****         }
 488:.\Generated_Source\PSoC5/CyDmac.c **** 
 489:.\Generated_Source\PSoC5/CyDmac.c ****     #endif  /* (CY_PSOC5) */
 490:.\Generated_Source\PSoC5/CyDmac.c **** 
 491:.\Generated_Source\PSoC5/CyDmac.c **** 
 492:.\Generated_Source\PSoC5/CyDmac.c ****     if(chHandle < CY_DMA_NUMBEROF_CHANNELS)
 753              		.loc 1 492 0
 754 0038 FB79     		ldrb	r3, [r7, #7]	@ zero_extendqisi2
 755 003a 172B     		cmp	r3, #23
 756 003c 1CD8     		bhi	.L36
 493:.\Generated_Source\PSoC5/CyDmac.c ****     {
 494:.\Generated_Source\PSoC5/CyDmac.c ****         /* Set source address */
ARM GAS  C:\Users\Robert\AppData\Local\Temp\ccvq07RG.s 			page 23


 495:.\Generated_Source\PSoC5/CyDmac.c ****         convert = (reg16 *) &CY_DMA_CFGMEM_STRUCT_PTR[chHandle].CFG1[0];
 757              		.loc 1 495 0
 758 003e FB79     		ldrb	r3, [r7, #7]	@ zero_extendqisi2
 759 0040 4FEAC303 		lsl	r3, r3, #3
 760 0044 03F18043 		add	r3, r3, #1073741824
 761 0048 03F5EC43 		add	r3, r3, #30208
 762 004c 03F10403 		add	r3, r3, #4
 763 0050 BB60     		str	r3, [r7, #8]
 496:.\Generated_Source\PSoC5/CyDmac.c ****         CY_SET_REG16(convert, source);
 764              		.loc 1 496 0
 765 0052 BB68     		ldr	r3, [r7, #8]
 766 0054 BA88     		ldrh	r2, [r7, #4]	@ movhi
 767 0056 1A80     		strh	r2, [r3, #0]	@ movhi
 497:.\Generated_Source\PSoC5/CyDmac.c **** 
 498:.\Generated_Source\PSoC5/CyDmac.c ****         /* Set destination address */
 499:.\Generated_Source\PSoC5/CyDmac.c ****         convert = (reg16 *) &CY_DMA_CFGMEM_STRUCT_PTR[chHandle].CFG1[2u];
 768              		.loc 1 499 0
 769 0058 FB79     		ldrb	r3, [r7, #7]	@ zero_extendqisi2
 770 005a 4FEAC303 		lsl	r3, r3, #3
 771 005e 03F18043 		add	r3, r3, #1073741824
 772 0062 03F5EC43 		add	r3, r3, #30208
 773 0066 03F10603 		add	r3, r3, #6
 774 006a BB60     		str	r3, [r7, #8]
 500:.\Generated_Source\PSoC5/CyDmac.c ****         CY_SET_REG16(convert, destination);
 775              		.loc 1 500 0
 776 006c BB68     		ldr	r3, [r7, #8]
 777 006e 7A88     		ldrh	r2, [r7, #2]	@ movhi
 778 0070 1A80     		strh	r2, [r3, #0]	@ movhi
 501:.\Generated_Source\PSoC5/CyDmac.c ****         status = CYRET_SUCCESS;
 779              		.loc 1 501 0
 780 0072 4FF00003 		mov	r3, #0
 781 0076 FB60     		str	r3, [r7, #12]
 782              	.L36:
 502:.\Generated_Source\PSoC5/CyDmac.c ****     }
 503:.\Generated_Source\PSoC5/CyDmac.c **** 
 504:.\Generated_Source\PSoC5/CyDmac.c ****     return(status);
 783              		.loc 1 504 0
 784 0078 FB68     		ldr	r3, [r7, #12]
 505:.\Generated_Source\PSoC5/CyDmac.c **** }
 785              		.loc 1 505 0
 786 007a 1846     		mov	r0, r3
 787 007c 07F11407 		add	r7, r7, #20
 788 0080 BD46     		mov	sp, r7
 789 0082 80BC     		pop	{r7}
 790 0084 7047     		bx	lr
 791              		.cfi_endproc
 792              	.LFE10:
 793              		.size	CyDmaChSetExtendedAddress, .-CyDmaChSetExtendedAddress
 794 0086 00BF     		.section	.text.CyDmaChSetInitialTd,"ax",%progbits
 795              		.align	2
 796              		.global	CyDmaChSetInitialTd
 797              		.thumb
 798              		.thumb_func
 799              		.type	CyDmaChSetInitialTd, %function
 800              	CyDmaChSetInitialTd:
 801              	.LFB11:
 506:.\Generated_Source\PSoC5/CyDmac.c **** 
ARM GAS  C:\Users\Robert\AppData\Local\Temp\ccvq07RG.s 			page 24


 507:.\Generated_Source\PSoC5/CyDmac.c **** 
 508:.\Generated_Source\PSoC5/CyDmac.c **** /*******************************************************************************
 509:.\Generated_Source\PSoC5/CyDmac.c **** * Function Name: CyDmaChSetInitialTd
 510:.\Generated_Source\PSoC5/CyDmac.c **** ********************************************************************************
 511:.\Generated_Source\PSoC5/CyDmac.c **** *
 512:.\Generated_Source\PSoC5/CyDmac.c **** * Summary:
 513:.\Generated_Source\PSoC5/CyDmac.c **** *  Sets the initial TD to be executed for the channel when the CyDmaChEnable()
 514:.\Generated_Source\PSoC5/CyDmac.c **** *  function is called.
 515:.\Generated_Source\PSoC5/CyDmac.c **** *
 516:.\Generated_Source\PSoC5/CyDmac.c **** * Parameters:
 517:.\Generated_Source\PSoC5/CyDmac.c **** *  uint8 chHandle:
 518:.\Generated_Source\PSoC5/CyDmac.c **** *   A handle previously returned by CyDmaChAlloc() or DMA_DmaInitialize().
 519:.\Generated_Source\PSoC5/CyDmac.c **** *
 520:.\Generated_Source\PSoC5/CyDmac.c **** *  uint8 startTd:
 521:.\Generated_Source\PSoC5/CyDmac.c **** *   Set the TD index as the first TD associated with the channel. Zero is
 522:.\Generated_Source\PSoC5/CyDmac.c **** *   a valid TD index.
 523:.\Generated_Source\PSoC5/CyDmac.c **** *
 524:.\Generated_Source\PSoC5/CyDmac.c **** * Return:
 525:.\Generated_Source\PSoC5/CyDmac.c **** *  CYRET_SUCCESS if successful.
 526:.\Generated_Source\PSoC5/CyDmac.c **** *  CYRET_BAD_PARAM if chHandle is invalid.
 527:.\Generated_Source\PSoC5/CyDmac.c **** *
 528:.\Generated_Source\PSoC5/CyDmac.c **** *******************************************************************************/
 529:.\Generated_Source\PSoC5/CyDmac.c **** cystatus CyDmaChSetInitialTd(uint8 chHandle, uint8 startTd) 
 530:.\Generated_Source\PSoC5/CyDmac.c **** {
 802              		.loc 1 530 0
 803              		.cfi_startproc
 804              		@ args = 0, pretend = 0, frame = 16
 805              		@ frame_needed = 1, uses_anonymous_args = 0
 806              		@ link register save eliminated.
 807 0000 80B4     		push	{r7}
 808              	.LCFI31:
 809              		.cfi_def_cfa_offset 4
 810              		.cfi_offset 7, -4
 811 0002 85B0     		sub	sp, sp, #20
 812              	.LCFI32:
 813              		.cfi_def_cfa_offset 24
 814 0004 00AF     		add	r7, sp, #0
 815              	.LCFI33:
 816              		.cfi_def_cfa_register 7
 817 0006 0246     		mov	r2, r0
 818 0008 0B46     		mov	r3, r1
 819 000a FA71     		strb	r2, [r7, #7]
 820 000c BB71     		strb	r3, [r7, #6]
 531:.\Generated_Source\PSoC5/CyDmac.c ****     cystatus status = CYRET_BAD_PARAM;
 821              		.loc 1 531 0
 822 000e 4FF00103 		mov	r3, #1
 823 0012 FB60     		str	r3, [r7, #12]
 532:.\Generated_Source\PSoC5/CyDmac.c **** 
 533:.\Generated_Source\PSoC5/CyDmac.c ****     if(chHandle < CY_DMA_NUMBEROF_CHANNELS)
 824              		.loc 1 533 0
 825 0014 FB79     		ldrb	r3, [r7, #7]	@ zero_extendqisi2
 826 0016 172B     		cmp	r3, #23
 827 0018 0CD8     		bhi	.L39
 534:.\Generated_Source\PSoC5/CyDmac.c ****     {
 535:.\Generated_Source\PSoC5/CyDmac.c ****         CY_DMA_CH_STRUCT_PTR[chHandle].basic_status[1u] = startTd;
 828              		.loc 1 535 0
 829 001a FB79     		ldrb	r3, [r7, #7]	@ zero_extendqisi2
ARM GAS  C:\Users\Robert\AppData\Local\Temp\ccvq07RG.s 			page 25


 830 001c 4FEA0312 		lsl	r2, r3, #4
 831 0020 47F21003 		movw	r3, #28688
 832 0024 C4F20003 		movt	r3, 16384
 833 0028 D318     		adds	r3, r2, r3
 834 002a BA79     		ldrb	r2, [r7, #6]
 835 002c 5A72     		strb	r2, [r3, #9]
 536:.\Generated_Source\PSoC5/CyDmac.c ****         status = CYRET_SUCCESS;
 836              		.loc 1 536 0
 837 002e 4FF00003 		mov	r3, #0
 838 0032 FB60     		str	r3, [r7, #12]
 839              	.L39:
 537:.\Generated_Source\PSoC5/CyDmac.c ****     }
 538:.\Generated_Source\PSoC5/CyDmac.c **** 
 539:.\Generated_Source\PSoC5/CyDmac.c ****     return(status);
 840              		.loc 1 539 0
 841 0034 FB68     		ldr	r3, [r7, #12]
 540:.\Generated_Source\PSoC5/CyDmac.c **** }
 842              		.loc 1 540 0
 843 0036 1846     		mov	r0, r3
 844 0038 07F11407 		add	r7, r7, #20
 845 003c BD46     		mov	sp, r7
 846 003e 80BC     		pop	{r7}
 847 0040 7047     		bx	lr
 848              		.cfi_endproc
 849              	.LFE11:
 850              		.size	CyDmaChSetInitialTd, .-CyDmaChSetInitialTd
 851 0042 00BF     		.section	.text.CyDmaChSetRequest,"ax",%progbits
 852              		.align	2
 853              		.global	CyDmaChSetRequest
 854              		.thumb
 855              		.thumb_func
 856              		.type	CyDmaChSetRequest, %function
 857              	CyDmaChSetRequest:
 858              	.LFB12:
 541:.\Generated_Source\PSoC5/CyDmac.c **** 
 542:.\Generated_Source\PSoC5/CyDmac.c **** 
 543:.\Generated_Source\PSoC5/CyDmac.c **** /*******************************************************************************
 544:.\Generated_Source\PSoC5/CyDmac.c **** * Function Name: CyDmaChSetRequest
 545:.\Generated_Source\PSoC5/CyDmac.c **** ********************************************************************************
 546:.\Generated_Source\PSoC5/CyDmac.c **** *
 547:.\Generated_Source\PSoC5/CyDmac.c **** * Summary:
 548:.\Generated_Source\PSoC5/CyDmac.c **** *  Allows the caller to terminate a chain of TDs, terminate one TD, or create a
 549:.\Generated_Source\PSoC5/CyDmac.c **** *  direct request to start the DMA channel.
 550:.\Generated_Source\PSoC5/CyDmac.c **** *
 551:.\Generated_Source\PSoC5/CyDmac.c **** * Parameters:
 552:.\Generated_Source\PSoC5/CyDmac.c **** *  uint8 chHandle:
 553:.\Generated_Source\PSoC5/CyDmac.c **** *   A handle previously returned by CyDmaChAlloc() or DMA_DmaInitalize().
 554:.\Generated_Source\PSoC5/CyDmac.c **** *
 555:.\Generated_Source\PSoC5/CyDmac.c **** *  uint8 request:
 556:.\Generated_Source\PSoC5/CyDmac.c **** *   One of the following constants. Each of the constants is a three-bit value.
 557:.\Generated_Source\PSoC5/CyDmac.c **** *
 558:.\Generated_Source\PSoC5/CyDmac.c **** *   CPU_REQ         - Create a direct request to start the DMA channel
 559:.\Generated_Source\PSoC5/CyDmac.c **** *   CPU_TERM_TD     - Terminate one TD
 560:.\Generated_Source\PSoC5/CyDmac.c **** *   CPU_TERM_CHAIN  - Terminate a chain of TDs
 561:.\Generated_Source\PSoC5/CyDmac.c **** *
 562:.\Generated_Source\PSoC5/CyDmac.c **** * Return:
 563:.\Generated_Source\PSoC5/CyDmac.c **** *  CYRET_SUCCESS if successful.
ARM GAS  C:\Users\Robert\AppData\Local\Temp\ccvq07RG.s 			page 26


 564:.\Generated_Source\PSoC5/CyDmac.c **** *  CYRET_BAD_PARAM if chHandle is invalid.
 565:.\Generated_Source\PSoC5/CyDmac.c **** *
 566:.\Generated_Source\PSoC5/CyDmac.c **** *******************************************************************************/
 567:.\Generated_Source\PSoC5/CyDmac.c **** cystatus CyDmaChSetRequest(uint8 chHandle, uint8 request) 
 568:.\Generated_Source\PSoC5/CyDmac.c **** {
 859              		.loc 1 568 0
 860              		.cfi_startproc
 861              		@ args = 0, pretend = 0, frame = 16
 862              		@ frame_needed = 1, uses_anonymous_args = 0
 863              		@ link register save eliminated.
 864 0000 80B4     		push	{r7}
 865              	.LCFI34:
 866              		.cfi_def_cfa_offset 4
 867              		.cfi_offset 7, -4
 868 0002 85B0     		sub	sp, sp, #20
 869              	.LCFI35:
 870              		.cfi_def_cfa_offset 24
 871 0004 00AF     		add	r7, sp, #0
 872              	.LCFI36:
 873              		.cfi_def_cfa_register 7
 874 0006 0246     		mov	r2, r0
 875 0008 0B46     		mov	r3, r1
 876 000a FA71     		strb	r2, [r7, #7]
 877 000c BB71     		strb	r3, [r7, #6]
 569:.\Generated_Source\PSoC5/CyDmac.c ****     cystatus status = CYRET_BAD_PARAM;
 878              		.loc 1 569 0
 879 000e 4FF00103 		mov	r3, #1
 880 0012 FB60     		str	r3, [r7, #12]
 570:.\Generated_Source\PSoC5/CyDmac.c **** 
 571:.\Generated_Source\PSoC5/CyDmac.c ****     if(chHandle < CY_DMA_NUMBEROF_CHANNELS)
 881              		.loc 1 571 0
 882 0014 FB79     		ldrb	r3, [r7, #7]	@ zero_extendqisi2
 883 0016 172B     		cmp	r3, #23
 884 0018 1DD8     		bhi	.L42
 572:.\Generated_Source\PSoC5/CyDmac.c ****     {
 573:.\Generated_Source\PSoC5/CyDmac.c ****         CY_DMA_CH_STRUCT_PTR[chHandle].action[0u] |= (request & (CPU_REQ | CPU_TERM_TD | CPU_TERM_C
 885              		.loc 1 573 0
 886 001a FB79     		ldrb	r3, [r7, #7]	@ zero_extendqisi2
 887 001c 4FEA0312 		lsl	r2, r3, #4
 888 0020 47F21003 		movw	r3, #28688
 889 0024 C4F20003 		movt	r3, 16384
 890 0028 D318     		adds	r3, r2, r3
 891 002a FA79     		ldrb	r2, [r7, #7]	@ zero_extendqisi2
 892 002c 4FEA0211 		lsl	r1, r2, #4
 893 0030 47F21002 		movw	r2, #28688
 894 0034 C4F20002 		movt	r2, 16384
 895 0038 8A18     		adds	r2, r1, r2
 896 003a 1279     		ldrb	r2, [r2, #4]
 897 003c D2B2     		uxtb	r2, r2
 898 003e D1B2     		uxtb	r1, r2
 899 0040 BA79     		ldrb	r2, [r7, #6]	@ zero_extendqisi2
 900 0042 02F00702 		and	r2, r2, #7
 901 0046 D2B2     		uxtb	r2, r2
 902 0048 0A43     		orrs	r2, r2, r1
 903 004a D2B2     		uxtb	r2, r2
 904 004c D2B2     		uxtb	r2, r2
 905 004e 1A71     		strb	r2, [r3, #4]
ARM GAS  C:\Users\Robert\AppData\Local\Temp\ccvq07RG.s 			page 27


 574:.\Generated_Source\PSoC5/CyDmac.c ****         status = CYRET_SUCCESS;
 906              		.loc 1 574 0
 907 0050 4FF00003 		mov	r3, #0
 908 0054 FB60     		str	r3, [r7, #12]
 909              	.L42:
 575:.\Generated_Source\PSoC5/CyDmac.c ****     }
 576:.\Generated_Source\PSoC5/CyDmac.c **** 
 577:.\Generated_Source\PSoC5/CyDmac.c ****     return(status);
 910              		.loc 1 577 0
 911 0056 FB68     		ldr	r3, [r7, #12]
 578:.\Generated_Source\PSoC5/CyDmac.c **** }
 912              		.loc 1 578 0
 913 0058 1846     		mov	r0, r3
 914 005a 07F11407 		add	r7, r7, #20
 915 005e BD46     		mov	sp, r7
 916 0060 80BC     		pop	{r7}
 917 0062 7047     		bx	lr
 918              		.cfi_endproc
 919              	.LFE12:
 920              		.size	CyDmaChSetRequest, .-CyDmaChSetRequest
 921              		.section	.text.CyDmaChGetRequest,"ax",%progbits
 922              		.align	2
 923              		.global	CyDmaChGetRequest
 924              		.thumb
 925              		.thumb_func
 926              		.type	CyDmaChGetRequest, %function
 927              	CyDmaChGetRequest:
 928              	.LFB13:
 579:.\Generated_Source\PSoC5/CyDmac.c **** 
 580:.\Generated_Source\PSoC5/CyDmac.c **** 
 581:.\Generated_Source\PSoC5/CyDmac.c **** /*******************************************************************************
 582:.\Generated_Source\PSoC5/CyDmac.c **** * Function Name: CyDmaChGetRequest
 583:.\Generated_Source\PSoC5/CyDmac.c **** ********************************************************************************
 584:.\Generated_Source\PSoC5/CyDmac.c **** *
 585:.\Generated_Source\PSoC5/CyDmac.c **** * Summary:
 586:.\Generated_Source\PSoC5/CyDmac.c **** *  This function allows the caller of CyDmaChSetRequest() to determine if the
 587:.\Generated_Source\PSoC5/CyDmac.c **** *  request was completed.
 588:.\Generated_Source\PSoC5/CyDmac.c **** *
 589:.\Generated_Source\PSoC5/CyDmac.c **** * Parameters:
 590:.\Generated_Source\PSoC5/CyDmac.c **** *  uint8 chHandle:
 591:.\Generated_Source\PSoC5/CyDmac.c **** *   A handle previously returned by CyDmaChAlloc() or DMA_DmaInitalize().
 592:.\Generated_Source\PSoC5/CyDmac.c **** *
 593:.\Generated_Source\PSoC5/CyDmac.c **** * Return:
 594:.\Generated_Source\PSoC5/CyDmac.c **** *  Returns a three-bit field, corresponding to the three bits of the request,
 595:.\Generated_Source\PSoC5/CyDmac.c **** *  which describes the state of the previously posted request. If the value is
 596:.\Generated_Source\PSoC5/CyDmac.c **** *  zero, the request was completed. CY_DMA_INVALID_CHANNEL if the handle is
 597:.\Generated_Source\PSoC5/CyDmac.c **** *  invalid.
 598:.\Generated_Source\PSoC5/CyDmac.c **** *
 599:.\Generated_Source\PSoC5/CyDmac.c **** *******************************************************************************/
 600:.\Generated_Source\PSoC5/CyDmac.c **** cystatus CyDmaChGetRequest(uint8 chHandle) 
 601:.\Generated_Source\PSoC5/CyDmac.c **** {
 929              		.loc 1 601 0
 930              		.cfi_startproc
 931              		@ args = 0, pretend = 0, frame = 16
 932              		@ frame_needed = 1, uses_anonymous_args = 0
 933              		@ link register save eliminated.
 934 0000 80B4     		push	{r7}
ARM GAS  C:\Users\Robert\AppData\Local\Temp\ccvq07RG.s 			page 28


 935              	.LCFI37:
 936              		.cfi_def_cfa_offset 4
 937              		.cfi_offset 7, -4
 938 0002 85B0     		sub	sp, sp, #20
 939              	.LCFI38:
 940              		.cfi_def_cfa_offset 24
 941 0004 00AF     		add	r7, sp, #0
 942              	.LCFI39:
 943              		.cfi_def_cfa_register 7
 944 0006 0346     		mov	r3, r0
 945 0008 FB71     		strb	r3, [r7, #7]
 602:.\Generated_Source\PSoC5/CyDmac.c ****     cystatus status = CY_DMA_INVALID_CHANNEL;
 946              		.loc 1 602 0
 947 000a 4FF0FF03 		mov	r3, #255
 948 000e FB60     		str	r3, [r7, #12]
 603:.\Generated_Source\PSoC5/CyDmac.c **** 
 604:.\Generated_Source\PSoC5/CyDmac.c ****     if(chHandle < CY_DMA_NUMBEROF_CHANNELS)
 949              		.loc 1 604 0
 950 0010 FB79     		ldrb	r3, [r7, #7]	@ zero_extendqisi2
 951 0012 172B     		cmp	r3, #23
 952 0014 0CD8     		bhi	.L45
 605:.\Generated_Source\PSoC5/CyDmac.c ****     {
 606:.\Generated_Source\PSoC5/CyDmac.c ****         status = (cystatus) ((uint32)CY_DMA_CH_STRUCT_PTR[chHandle].action[0u] &
 953              		.loc 1 606 0
 954 0016 FB79     		ldrb	r3, [r7, #7]	@ zero_extendqisi2
 955 0018 4FEA0312 		lsl	r2, r3, #4
 956 001c 47F21003 		movw	r3, #28688
 957 0020 C4F20003 		movt	r3, 16384
 958 0024 D318     		adds	r3, r2, r3
 959 0026 1B79     		ldrb	r3, [r3, #4]
 960 0028 DBB2     		uxtb	r3, r3
 961 002a 03F00703 		and	r3, r3, #7
 962 002e FB60     		str	r3, [r7, #12]
 963              	.L45:
 607:.\Generated_Source\PSoC5/CyDmac.c ****                             (uint32)(CY_DMA_CPU_REQ | CY_DMA_CPU_TERM_TD | CY_DMA_CPU_TERM_CHAIN));
 608:.\Generated_Source\PSoC5/CyDmac.c ****     }
 609:.\Generated_Source\PSoC5/CyDmac.c **** 
 610:.\Generated_Source\PSoC5/CyDmac.c ****     return(status);
 964              		.loc 1 610 0
 965 0030 FB68     		ldr	r3, [r7, #12]
 611:.\Generated_Source\PSoC5/CyDmac.c **** }
 966              		.loc 1 611 0
 967 0032 1846     		mov	r0, r3
 968 0034 07F11407 		add	r7, r7, #20
 969 0038 BD46     		mov	sp, r7
 970 003a 80BC     		pop	{r7}
 971 003c 7047     		bx	lr
 972              		.cfi_endproc
 973              	.LFE13:
 974              		.size	CyDmaChGetRequest, .-CyDmaChGetRequest
 975 003e 00BF     		.section	.text.CyDmaChStatus,"ax",%progbits
 976              		.align	2
 977              		.global	CyDmaChStatus
 978              		.thumb
 979              		.thumb_func
 980              		.type	CyDmaChStatus, %function
 981              	CyDmaChStatus:
ARM GAS  C:\Users\Robert\AppData\Local\Temp\ccvq07RG.s 			page 29


 982              	.LFB14:
 612:.\Generated_Source\PSoC5/CyDmac.c **** 
 613:.\Generated_Source\PSoC5/CyDmac.c **** 
 614:.\Generated_Source\PSoC5/CyDmac.c **** /*******************************************************************************
 615:.\Generated_Source\PSoC5/CyDmac.c **** * Function Name: CyDmaChStatus
 616:.\Generated_Source\PSoC5/CyDmac.c **** ********************************************************************************
 617:.\Generated_Source\PSoC5/CyDmac.c **** *
 618:.\Generated_Source\PSoC5/CyDmac.c **** * Summary:
 619:.\Generated_Source\PSoC5/CyDmac.c **** *  Determines the status of the DMA channel.
 620:.\Generated_Source\PSoC5/CyDmac.c **** *
 621:.\Generated_Source\PSoC5/CyDmac.c **** * Parameters:
 622:.\Generated_Source\PSoC5/CyDmac.c **** *  uint8 chHandle:
 623:.\Generated_Source\PSoC5/CyDmac.c **** *   A handle previously returned by CyDmaChAlloc() or DMA_DmaInitalize().
 624:.\Generated_Source\PSoC5/CyDmac.c **** *
 625:.\Generated_Source\PSoC5/CyDmac.c **** *  uint8 * currentTd:
 626:.\Generated_Source\PSoC5/CyDmac.c **** *   The address to store the index of the current TD. Can be NULL if the value
 627:.\Generated_Source\PSoC5/CyDmac.c **** *   is not needed.
 628:.\Generated_Source\PSoC5/CyDmac.c **** *
 629:.\Generated_Source\PSoC5/CyDmac.c **** *  uint8 * state:
 630:.\Generated_Source\PSoC5/CyDmac.c **** *   The address to store the state of the channel. Can be NULL if the value is
 631:.\Generated_Source\PSoC5/CyDmac.c **** *   not needed.
 632:.\Generated_Source\PSoC5/CyDmac.c **** *
 633:.\Generated_Source\PSoC5/CyDmac.c **** *   STATUS_TD_ACTIVE
 634:.\Generated_Source\PSoC5/CyDmac.c **** *    0: Channel is not currently being serviced by DMAC
 635:.\Generated_Source\PSoC5/CyDmac.c **** *    1: Channel is currently being serviced by DMAC
 636:.\Generated_Source\PSoC5/CyDmac.c **** *
 637:.\Generated_Source\PSoC5/CyDmac.c **** *   STATUS_CHAIN_ACTIVE
 638:.\Generated_Source\PSoC5/CyDmac.c **** *    0: TD chain is inactive; either no DMA requests have triggered a new chain
 639:.\Generated_Source\PSoC5/CyDmac.c **** *       or the previous chain has completed.
 640:.\Generated_Source\PSoC5/CyDmac.c **** *    1: TD chain has been triggered by a DMA request
 641:.\Generated_Source\PSoC5/CyDmac.c **** *
 642:.\Generated_Source\PSoC5/CyDmac.c **** * Return:
 643:.\Generated_Source\PSoC5/CyDmac.c **** *  CYRET_SUCCESS if successful.
 644:.\Generated_Source\PSoC5/CyDmac.c **** *  CYRET_BAD_PARAM if chHandle is invalid.
 645:.\Generated_Source\PSoC5/CyDmac.c **** *
 646:.\Generated_Source\PSoC5/CyDmac.c **** * Theory:
 647:.\Generated_Source\PSoC5/CyDmac.c **** *   The caller can check on the activity of the Current TD and the Chain.
 648:.\Generated_Source\PSoC5/CyDmac.c **** *
 649:.\Generated_Source\PSoC5/CyDmac.c **** *******************************************************************************/
 650:.\Generated_Source\PSoC5/CyDmac.c **** cystatus CyDmaChStatus(uint8 chHandle, uint8 * currentTd, uint8 * state) 
 651:.\Generated_Source\PSoC5/CyDmac.c **** {
 983              		.loc 1 651 0
 984              		.cfi_startproc
 985              		@ args = 0, pretend = 0, frame = 24
 986              		@ frame_needed = 1, uses_anonymous_args = 0
 987              		@ link register save eliminated.
 988 0000 80B4     		push	{r7}
 989              	.LCFI40:
 990              		.cfi_def_cfa_offset 4
 991              		.cfi_offset 7, -4
 992 0002 87B0     		sub	sp, sp, #28
 993              	.LCFI41:
 994              		.cfi_def_cfa_offset 32
 995 0004 00AF     		add	r7, sp, #0
 996              	.LCFI42:
 997              		.cfi_def_cfa_register 7
 998 0006 0346     		mov	r3, r0
ARM GAS  C:\Users\Robert\AppData\Local\Temp\ccvq07RG.s 			page 30


 999 0008 B960     		str	r1, [r7, #8]
 1000 000a 7A60     		str	r2, [r7, #4]
 1001 000c FB73     		strb	r3, [r7, #15]
 652:.\Generated_Source\PSoC5/CyDmac.c ****     cystatus status = CYRET_BAD_PARAM;
 1002              		.loc 1 652 0
 1003 000e 4FF00103 		mov	r3, #1
 1004 0012 7B61     		str	r3, [r7, #20]
 653:.\Generated_Source\PSoC5/CyDmac.c **** 
 654:.\Generated_Source\PSoC5/CyDmac.c ****     if(chHandle < CY_DMA_NUMBEROF_CHANNELS)
 1005              		.loc 1 654 0
 1006 0014 FB7B     		ldrb	r3, [r7, #15]	@ zero_extendqisi2
 1007 0016 172B     		cmp	r3, #23
 1008 0018 23D8     		bhi	.L48
 655:.\Generated_Source\PSoC5/CyDmac.c ****     {
 656:.\Generated_Source\PSoC5/CyDmac.c ****         if(NULL != currentTd)
 1009              		.loc 1 656 0
 1010 001a BB68     		ldr	r3, [r7, #8]
 1011 001c 002B     		cmp	r3, #0
 1012 001e 0ED0     		beq	.L49
 657:.\Generated_Source\PSoC5/CyDmac.c ****         {
 658:.\Generated_Source\PSoC5/CyDmac.c ****             *currentTd = CY_DMA_CH_STRUCT_PTR[chHandle].basic_status[1] & 0x7Fu;
 1013              		.loc 1 658 0
 1014 0020 FB7B     		ldrb	r3, [r7, #15]	@ zero_extendqisi2
 1015 0022 4FEA0312 		lsl	r2, r3, #4
 1016 0026 47F21003 		movw	r3, #28688
 1017 002a C4F20003 		movt	r3, 16384
 1018 002e D318     		adds	r3, r2, r3
 1019 0030 5B7A     		ldrb	r3, [r3, #9]
 1020 0032 DBB2     		uxtb	r3, r3
 1021 0034 03F07F03 		and	r3, r3, #127
 1022 0038 DAB2     		uxtb	r2, r3
 1023 003a BB68     		ldr	r3, [r7, #8]
 1024 003c 1A70     		strb	r2, [r3, #0]
 1025              	.L49:
 659:.\Generated_Source\PSoC5/CyDmac.c ****         }
 660:.\Generated_Source\PSoC5/CyDmac.c **** 
 661:.\Generated_Source\PSoC5/CyDmac.c ****         if(NULL != state)
 1026              		.loc 1 661 0
 1027 003e 7B68     		ldr	r3, [r7, #4]
 1028 0040 002B     		cmp	r3, #0
 1029 0042 0BD0     		beq	.L50
 662:.\Generated_Source\PSoC5/CyDmac.c ****         {
 663:.\Generated_Source\PSoC5/CyDmac.c ****             *state= CY_DMA_CH_STRUCT_PTR[chHandle].basic_status[0];
 1030              		.loc 1 663 0
 1031 0044 FB7B     		ldrb	r3, [r7, #15]	@ zero_extendqisi2
 1032 0046 4FEA0312 		lsl	r2, r3, #4
 1033 004a 47F21003 		movw	r3, #28688
 1034 004e C4F20003 		movt	r3, 16384
 1035 0052 D318     		adds	r3, r2, r3
 1036 0054 1B7A     		ldrb	r3, [r3, #8]
 1037 0056 DAB2     		uxtb	r2, r3
 1038 0058 7B68     		ldr	r3, [r7, #4]
 1039 005a 1A70     		strb	r2, [r3, #0]
 1040              	.L50:
 664:.\Generated_Source\PSoC5/CyDmac.c ****         }
 665:.\Generated_Source\PSoC5/CyDmac.c **** 
 666:.\Generated_Source\PSoC5/CyDmac.c ****         status = CYRET_SUCCESS;
ARM GAS  C:\Users\Robert\AppData\Local\Temp\ccvq07RG.s 			page 31


 1041              		.loc 1 666 0
 1042 005c 4FF00003 		mov	r3, #0
 1043 0060 7B61     		str	r3, [r7, #20]
 1044              	.L48:
 667:.\Generated_Source\PSoC5/CyDmac.c ****     }
 668:.\Generated_Source\PSoC5/CyDmac.c **** 
 669:.\Generated_Source\PSoC5/CyDmac.c ****     return (status);
 1045              		.loc 1 669 0
 1046 0062 7B69     		ldr	r3, [r7, #20]
 670:.\Generated_Source\PSoC5/CyDmac.c **** }
 1047              		.loc 1 670 0
 1048 0064 1846     		mov	r0, r3
 1049 0066 07F11C07 		add	r7, r7, #28
 1050 006a BD46     		mov	sp, r7
 1051 006c 80BC     		pop	{r7}
 1052 006e 7047     		bx	lr
 1053              		.cfi_endproc
 1054              	.LFE14:
 1055              		.size	CyDmaChStatus, .-CyDmaChStatus
 1056              		.section	.text.CyDmaChSetConfiguration,"ax",%progbits
 1057              		.align	2
 1058              		.global	CyDmaChSetConfiguration
 1059              		.thumb
 1060              		.thumb_func
 1061              		.type	CyDmaChSetConfiguration, %function
 1062              	CyDmaChSetConfiguration:
 1063              	.LFB15:
 671:.\Generated_Source\PSoC5/CyDmac.c **** 
 672:.\Generated_Source\PSoC5/CyDmac.c **** 
 673:.\Generated_Source\PSoC5/CyDmac.c **** /*******************************************************************************
 674:.\Generated_Source\PSoC5/CyDmac.c **** * Function Name: CyDmaChSetConfiguration
 675:.\Generated_Source\PSoC5/CyDmac.c **** ********************************************************************************
 676:.\Generated_Source\PSoC5/CyDmac.c **** *
 677:.\Generated_Source\PSoC5/CyDmac.c **** * Summary:
 678:.\Generated_Source\PSoC5/CyDmac.c **** * Sets configuration information of the channel.
 679:.\Generated_Source\PSoC5/CyDmac.c **** *
 680:.\Generated_Source\PSoC5/CyDmac.c **** * Parameters:
 681:.\Generated_Source\PSoC5/CyDmac.c **** *  uint8 chHandle:
 682:.\Generated_Source\PSoC5/CyDmac.c **** *   A handle previously returned by CyDmaChAlloc() or DMA_DmaInitialize().
 683:.\Generated_Source\PSoC5/CyDmac.c **** *
 684:.\Generated_Source\PSoC5/CyDmac.c **** *  uint8 burstCount:
 685:.\Generated_Source\PSoC5/CyDmac.c **** *   Specifies the size of bursts (1 to 127) the data transfer should be divided
 686:.\Generated_Source\PSoC5/CyDmac.c **** *   into. If this value is zero then the whole transfer is done in one burst.
 687:.\Generated_Source\PSoC5/CyDmac.c **** *
 688:.\Generated_Source\PSoC5/CyDmac.c **** *  uint8 requestPerBurst:
 689:.\Generated_Source\PSoC5/CyDmac.c **** *   The whole of the data can be split into multiple bursts, if this is
 690:.\Generated_Source\PSoC5/CyDmac.c **** *   required to complete the transaction:
 691:.\Generated_Source\PSoC5/CyDmac.c **** *    0: All subsequent bursts after the first burst will be automatically
 692:.\Generated_Source\PSoC5/CyDmac.c **** *       requested and carried out
 693:.\Generated_Source\PSoC5/CyDmac.c **** *    1: All subsequent bursts after the first burst must also be individually
 694:.\Generated_Source\PSoC5/CyDmac.c **** *       requested.
 695:.\Generated_Source\PSoC5/CyDmac.c **** *
 696:.\Generated_Source\PSoC5/CyDmac.c **** *  uint8 tdDone0:
 697:.\Generated_Source\PSoC5/CyDmac.c **** *   Selects one of the TERMOUT0 interrupt lines to signal completion. The line
 698:.\Generated_Source\PSoC5/CyDmac.c **** *   connected to the nrq terminal will determine the TERMOUT0_SEL definition and
 699:.\Generated_Source\PSoC5/CyDmac.c **** *   should be used as supplied by cyfitter.h
 700:.\Generated_Source\PSoC5/CyDmac.c **** *
ARM GAS  C:\Users\Robert\AppData\Local\Temp\ccvq07RG.s 			page 32


 701:.\Generated_Source\PSoC5/CyDmac.c **** *  uint8 tdDone1:
 702:.\Generated_Source\PSoC5/CyDmac.c **** *   Selects one of the TERMOUT1 interrupt lines to signal completion. The line
 703:.\Generated_Source\PSoC5/CyDmac.c **** *   connected to the nrq terminal will determine the TERMOUT1_SEL definition and
 704:.\Generated_Source\PSoC5/CyDmac.c **** *   should be used as supplied by cyfitter.h
 705:.\Generated_Source\PSoC5/CyDmac.c **** *
 706:.\Generated_Source\PSoC5/CyDmac.c **** *  uint8 tdStop:
 707:.\Generated_Source\PSoC5/CyDmac.c **** *   Selects one of the TERMIN interrupt lines to signal to the DMAC that the TD
 708:.\Generated_Source\PSoC5/CyDmac.c **** *   should terminate. The signal connected to the trq terminal will determine
 709:.\Generated_Source\PSoC5/CyDmac.c **** *   which TERMIN (termination request) is used.
 710:.\Generated_Source\PSoC5/CyDmac.c **** *
 711:.\Generated_Source\PSoC5/CyDmac.c **** * Return:
 712:.\Generated_Source\PSoC5/CyDmac.c **** *  CYRET_SUCCESS if successful.
 713:.\Generated_Source\PSoC5/CyDmac.c **** *  CYRET_BAD_PARAM if chHandle is invalid.
 714:.\Generated_Source\PSoC5/CyDmac.c **** *
 715:.\Generated_Source\PSoC5/CyDmac.c **** *******************************************************************************/
 716:.\Generated_Source\PSoC5/CyDmac.c **** cystatus CyDmaChSetConfiguration(uint8 chHandle, uint8 burstCount, uint8 requestPerBurst,
 717:.\Generated_Source\PSoC5/CyDmac.c ****                                  uint8 tdDone0, uint8 tdDone1, uint8 tdStop) 
 718:.\Generated_Source\PSoC5/CyDmac.c **** {
 1064              		.loc 1 718 0
 1065              		.cfi_startproc
 1066              		@ args = 8, pretend = 0, frame = 16
 1067              		@ frame_needed = 1, uses_anonymous_args = 0
 1068              		@ link register save eliminated.
 1069 0000 80B4     		push	{r7}
 1070              	.LCFI43:
 1071              		.cfi_def_cfa_offset 4
 1072              		.cfi_offset 7, -4
 1073 0002 85B0     		sub	sp, sp, #20
 1074              	.LCFI44:
 1075              		.cfi_def_cfa_offset 24
 1076 0004 00AF     		add	r7, sp, #0
 1077              	.LCFI45:
 1078              		.cfi_def_cfa_register 7
 1079 0006 F871     		strb	r0, [r7, #7]
 1080 0008 B971     		strb	r1, [r7, #6]
 1081 000a 7A71     		strb	r2, [r7, #5]
 1082 000c 3B71     		strb	r3, [r7, #4]
 719:.\Generated_Source\PSoC5/CyDmac.c ****     cystatus status = CYRET_BAD_PARAM;
 1083              		.loc 1 719 0
 1084 000e 4FF00103 		mov	r3, #1
 1085 0012 FB60     		str	r3, [r7, #12]
 720:.\Generated_Source\PSoC5/CyDmac.c **** 
 721:.\Generated_Source\PSoC5/CyDmac.c ****     if(chHandle < CY_DMA_NUMBEROF_CHANNELS)
 1086              		.loc 1 721 0
 1087 0014 FB79     		ldrb	r3, [r7, #7]	@ zero_extendqisi2
 1088 0016 172B     		cmp	r3, #23
 1089 0018 3CD8     		bhi	.L53
 722:.\Generated_Source\PSoC5/CyDmac.c ****     {
 723:.\Generated_Source\PSoC5/CyDmac.c ****         CY_DMA_CFGMEM_STRUCT_PTR[chHandle].CFG0[0] = (burstCount & 0x7Fu) | ((uint8)((requestPerBur
 1090              		.loc 1 723 0
 1091 001a FB79     		ldrb	r3, [r7, #7]	@ zero_extendqisi2
 1092 001c 4FEAC303 		lsl	r3, r3, #3
 1093 0020 03F18043 		add	r3, r3, #1073741824
 1094 0024 03F5EC43 		add	r3, r3, #30208
 1095 0028 BA79     		ldrb	r2, [r7, #6]
 1096 002a 02F07F02 		and	r2, r2, #127
 1097 002e D1B2     		uxtb	r1, r2
ARM GAS  C:\Users\Robert\AppData\Local\Temp\ccvq07RG.s 			page 33


 1098 0030 7A79     		ldrb	r2, [r7, #5]
 1099 0032 4FEAC212 		lsl	r2, r2, #7
 1100 0036 D2B2     		uxtb	r2, r2
 1101 0038 0A43     		orrs	r2, r2, r1
 1102 003a D2B2     		uxtb	r2, r2
 1103 003c 1A70     		strb	r2, [r3, #0]
 724:.\Generated_Source\PSoC5/CyDmac.c ****         CY_DMA_CFGMEM_STRUCT_PTR[chHandle].CFG0[1] = ((uint8)((tdDone1 & 0xFu) << 4u)) | (tdDone0 &
 1104              		.loc 1 724 0
 1105 003e FB79     		ldrb	r3, [r7, #7]	@ zero_extendqisi2
 1106 0040 4FEAC303 		lsl	r3, r3, #3
 1107 0044 03F18043 		add	r3, r3, #1073741824
 1108 0048 03F5EC43 		add	r3, r3, #30208
 1109 004c 3A7E     		ldrb	r2, [r7, #24]
 1110 004e 4FEA0212 		lsl	r2, r2, #4
 1111 0052 D1B2     		uxtb	r1, r2
 1112 0054 3A79     		ldrb	r2, [r7, #4]
 1113 0056 02F00F02 		and	r2, r2, #15
 1114 005a D2B2     		uxtb	r2, r2
 1115 005c 0A43     		orrs	r2, r2, r1
 1116 005e D2B2     		uxtb	r2, r2
 1117 0060 5A70     		strb	r2, [r3, #1]
 725:.\Generated_Source\PSoC5/CyDmac.c ****         CY_DMA_CFGMEM_STRUCT_PTR[chHandle].CFG0[2] = 0x0Fu & tdStop;
 1118              		.loc 1 725 0
 1119 0062 FB79     		ldrb	r3, [r7, #7]	@ zero_extendqisi2
 1120 0064 4FEAC303 		lsl	r3, r3, #3
 1121 0068 03F18043 		add	r3, r3, #1073741824
 1122 006c 03F5EC43 		add	r3, r3, #30208
 1123 0070 3A7F     		ldrb	r2, [r7, #28]
 1124 0072 02F00F02 		and	r2, r2, #15
 1125 0076 D2B2     		uxtb	r2, r2
 1126 0078 9A70     		strb	r2, [r3, #2]
 726:.\Generated_Source\PSoC5/CyDmac.c ****         CY_DMA_CFGMEM_STRUCT_PTR[chHandle].CFG0[3] = 0u; /* burstcount_remain. */
 1127              		.loc 1 726 0
 1128 007a FB79     		ldrb	r3, [r7, #7]	@ zero_extendqisi2
 1129 007c 4FEAC303 		lsl	r3, r3, #3
 1130 0080 03F18043 		add	r3, r3, #1073741824
 1131 0084 03F5EC43 		add	r3, r3, #30208
 1132 0088 4FF00002 		mov	r2, #0
 1133 008c DA70     		strb	r2, [r3, #3]
 727:.\Generated_Source\PSoC5/CyDmac.c **** 
 728:.\Generated_Source\PSoC5/CyDmac.c ****         status = CYRET_SUCCESS;
 1134              		.loc 1 728 0
 1135 008e 4FF00003 		mov	r3, #0
 1136 0092 FB60     		str	r3, [r7, #12]
 1137              	.L53:
 729:.\Generated_Source\PSoC5/CyDmac.c ****     }
 730:.\Generated_Source\PSoC5/CyDmac.c **** 
 731:.\Generated_Source\PSoC5/CyDmac.c ****     return (status);
 1138              		.loc 1 731 0
 1139 0094 FB68     		ldr	r3, [r7, #12]
 732:.\Generated_Source\PSoC5/CyDmac.c **** }
 1140              		.loc 1 732 0
 1141 0096 1846     		mov	r0, r3
 1142 0098 07F11407 		add	r7, r7, #20
 1143 009c BD46     		mov	sp, r7
 1144 009e 80BC     		pop	{r7}
 1145 00a0 7047     		bx	lr
ARM GAS  C:\Users\Robert\AppData\Local\Temp\ccvq07RG.s 			page 34


 1146              		.cfi_endproc
 1147              	.LFE15:
 1148              		.size	CyDmaChSetConfiguration, .-CyDmaChSetConfiguration
 1149 00a2 00BF     		.section	.text.CyDmaTdAllocate,"ax",%progbits
 1150              		.align	2
 1151              		.global	CyDmaTdAllocate
 1152              		.thumb
 1153              		.thumb_func
 1154              		.type	CyDmaTdAllocate, %function
 1155              	CyDmaTdAllocate:
 1156              	.LFB16:
 733:.\Generated_Source\PSoC5/CyDmac.c **** 
 734:.\Generated_Source\PSoC5/CyDmac.c **** 
 735:.\Generated_Source\PSoC5/CyDmac.c **** /*******************************************************************************
 736:.\Generated_Source\PSoC5/CyDmac.c **** * Function Name: CyDmaTdAllocate
 737:.\Generated_Source\PSoC5/CyDmac.c **** ********************************************************************************
 738:.\Generated_Source\PSoC5/CyDmac.c **** *
 739:.\Generated_Source\PSoC5/CyDmac.c **** * Summary:
 740:.\Generated_Source\PSoC5/CyDmac.c **** *  Allocates a TD for use with an allocated DMA channel.
 741:.\Generated_Source\PSoC5/CyDmac.c **** *
 742:.\Generated_Source\PSoC5/CyDmac.c **** * Parameters:
 743:.\Generated_Source\PSoC5/CyDmac.c **** *  None
 744:.\Generated_Source\PSoC5/CyDmac.c **** *
 745:.\Generated_Source\PSoC5/CyDmac.c **** * Return:
 746:.\Generated_Source\PSoC5/CyDmac.c **** *  Zero-based index of the TD to be used by the caller. Since there are 128 TDs
 747:.\Generated_Source\PSoC5/CyDmac.c **** *  minus the reserved TDs (0 to 23), the value returned would range from 24 to
 748:.\Generated_Source\PSoC5/CyDmac.c **** *  127 not 24 to 128. DMA_INVALID_TD is returned if there are no free TDs
 749:.\Generated_Source\PSoC5/CyDmac.c **** *  available.
 750:.\Generated_Source\PSoC5/CyDmac.c **** *
 751:.\Generated_Source\PSoC5/CyDmac.c **** *******************************************************************************/
 752:.\Generated_Source\PSoC5/CyDmac.c **** uint8 CyDmaTdAllocate(void) 
 753:.\Generated_Source\PSoC5/CyDmac.c **** {
 1157              		.loc 1 753 0
 1158              		.cfi_startproc
 1159              		@ args = 0, pretend = 0, frame = 8
 1160              		@ frame_needed = 1, uses_anonymous_args = 0
 1161 0000 80B5     		push	{r7, lr}
 1162              	.LCFI46:
 1163              		.cfi_def_cfa_offset 8
 1164              		.cfi_offset 7, -8
 1165              		.cfi_offset 14, -4
 1166 0002 82B0     		sub	sp, sp, #8
 1167              	.LCFI47:
 1168              		.cfi_def_cfa_offset 16
 1169 0004 00AF     		add	r7, sp, #0
 1170              	.LCFI48:
 1171              		.cfi_def_cfa_register 7
 754:.\Generated_Source\PSoC5/CyDmac.c ****     uint8 interruptState;
 755:.\Generated_Source\PSoC5/CyDmac.c ****     uint8 element = CY_DMA_INVALID_TD;
 1172              		.loc 1 755 0
 1173 0006 4FF0FF03 		mov	r3, #255
 1174 000a FB71     		strb	r3, [r7, #7]
 756:.\Generated_Source\PSoC5/CyDmac.c **** 
 757:.\Generated_Source\PSoC5/CyDmac.c ****     /* Enter critical section! */
 758:.\Generated_Source\PSoC5/CyDmac.c ****     interruptState = CyEnterCriticalSection();
 1175              		.loc 1 758 0
 1176 000c FFF7FEFF 		bl	CyEnterCriticalSection
ARM GAS  C:\Users\Robert\AppData\Local\Temp\ccvq07RG.s 			page 35


 1177 0010 0346     		mov	r3, r0
 1178 0012 BB71     		strb	r3, [r7, #6]
 759:.\Generated_Source\PSoC5/CyDmac.c **** 
 760:.\Generated_Source\PSoC5/CyDmac.c ****     if(CyDmaTdCurrentNumber > NUMBEROF_CHANNELS)
 1179              		.loc 1 760 0
 1180 0014 40F20003 		movw	r3, #:lower16:CyDmaTdCurrentNumber
 1181 0018 C0F20003 		movt	r3, #:upper16:CyDmaTdCurrentNumber
 1182 001c 1B78     		ldrb	r3, [r3, #0]	@ zero_extendqisi2
 1183 001e 182B     		cmp	r3, #24
 1184 0020 20D9     		bls	.L56
 761:.\Generated_Source\PSoC5/CyDmac.c ****     {
 762:.\Generated_Source\PSoC5/CyDmac.c ****         /* Get pointer to Next available. */
 763:.\Generated_Source\PSoC5/CyDmac.c ****         element = CyDmaTdFreeIndex;
 1185              		.loc 1 763 0
 1186 0022 40F20003 		movw	r3, #:lower16:CyDmaTdFreeIndex
 1187 0026 C0F20003 		movt	r3, #:upper16:CyDmaTdFreeIndex
 1188 002a 1B78     		ldrb	r3, [r3, #0]
 1189 002c FB71     		strb	r3, [r7, #7]
 764:.\Generated_Source\PSoC5/CyDmac.c **** 
 765:.\Generated_Source\PSoC5/CyDmac.c ****         /* Decrement the count. */
 766:.\Generated_Source\PSoC5/CyDmac.c ****         CyDmaTdCurrentNumber--;
 1190              		.loc 1 766 0
 1191 002e 40F20003 		movw	r3, #:lower16:CyDmaTdCurrentNumber
 1192 0032 C0F20003 		movt	r3, #:upper16:CyDmaTdCurrentNumber
 1193 0036 1B78     		ldrb	r3, [r3, #0]	@ zero_extendqisi2
 1194 0038 03F1FF33 		add	r3, r3, #-1
 1195 003c DAB2     		uxtb	r2, r3
 1196 003e 40F20003 		movw	r3, #:lower16:CyDmaTdCurrentNumber
 1197 0042 C0F20003 		movt	r3, #:upper16:CyDmaTdCurrentNumber
 1198 0046 1A70     		strb	r2, [r3, #0]
 767:.\Generated_Source\PSoC5/CyDmac.c **** 
 768:.\Generated_Source\PSoC5/CyDmac.c ****         /* Update next available pointer. */
 769:.\Generated_Source\PSoC5/CyDmac.c ****         CyDmaTdFreeIndex = CY_DMA_TDMEM_STRUCT_PTR[element].TD0[0];
 1199              		.loc 1 769 0
 1200 0048 FB79     		ldrb	r3, [r7, #7]	@ zero_extendqisi2
 1201 004a 4FEAC303 		lsl	r3, r3, #3
 1202 004e 03F18043 		add	r3, r3, #1073741824
 1203 0052 03F5F043 		add	r3, r3, #30720
 1204 0056 1B78     		ldrb	r3, [r3, #0]
 1205 0058 DAB2     		uxtb	r2, r3
 1206 005a 40F20003 		movw	r3, #:lower16:CyDmaTdFreeIndex
 1207 005e C0F20003 		movt	r3, #:upper16:CyDmaTdFreeIndex
 1208 0062 1A70     		strb	r2, [r3, #0]
 1209              	.L56:
 770:.\Generated_Source\PSoC5/CyDmac.c ****     }
 771:.\Generated_Source\PSoC5/CyDmac.c **** 
 772:.\Generated_Source\PSoC5/CyDmac.c ****     /* Exit critical section! */
 773:.\Generated_Source\PSoC5/CyDmac.c ****     CyExitCriticalSection(interruptState);
 1210              		.loc 1 773 0
 1211 0064 BB79     		ldrb	r3, [r7, #6]	@ zero_extendqisi2
 1212 0066 1846     		mov	r0, r3
 1213 0068 FFF7FEFF 		bl	CyExitCriticalSection
 774:.\Generated_Source\PSoC5/CyDmac.c **** 
 775:.\Generated_Source\PSoC5/CyDmac.c ****     return(element);
 1214              		.loc 1 775 0
 1215 006c FB79     		ldrb	r3, [r7, #7]	@ zero_extendqisi2
 776:.\Generated_Source\PSoC5/CyDmac.c **** }
ARM GAS  C:\Users\Robert\AppData\Local\Temp\ccvq07RG.s 			page 36


 1216              		.loc 1 776 0
 1217 006e 1846     		mov	r0, r3
 1218 0070 07F10807 		add	r7, r7, #8
 1219 0074 BD46     		mov	sp, r7
 1220 0076 80BD     		pop	{r7, pc}
 1221              		.cfi_endproc
 1222              	.LFE16:
 1223              		.size	CyDmaTdAllocate, .-CyDmaTdAllocate
 1224              		.section	.text.CyDmaTdFree,"ax",%progbits
 1225              		.align	2
 1226              		.global	CyDmaTdFree
 1227              		.thumb
 1228              		.thumb_func
 1229              		.type	CyDmaTdFree, %function
 1230              	CyDmaTdFree:
 1231              	.LFB17:
 777:.\Generated_Source\PSoC5/CyDmac.c **** 
 778:.\Generated_Source\PSoC5/CyDmac.c **** 
 779:.\Generated_Source\PSoC5/CyDmac.c **** /*******************************************************************************
 780:.\Generated_Source\PSoC5/CyDmac.c **** * Function Name: CyDmaTdFree
 781:.\Generated_Source\PSoC5/CyDmac.c **** ********************************************************************************
 782:.\Generated_Source\PSoC5/CyDmac.c **** *
 783:.\Generated_Source\PSoC5/CyDmac.c **** * Summary:
 784:.\Generated_Source\PSoC5/CyDmac.c **** *  Returns a TD to the free list.
 785:.\Generated_Source\PSoC5/CyDmac.c **** *
 786:.\Generated_Source\PSoC5/CyDmac.c **** * Parameters:
 787:.\Generated_Source\PSoC5/CyDmac.c **** *  uint8 tdHandle:
 788:.\Generated_Source\PSoC5/CyDmac.c **** *   The TD handle returned by the CyDmaTdAllocate().
 789:.\Generated_Source\PSoC5/CyDmac.c **** *
 790:.\Generated_Source\PSoC5/CyDmac.c **** * Return:
 791:.\Generated_Source\PSoC5/CyDmac.c **** *  None
 792:.\Generated_Source\PSoC5/CyDmac.c **** *
 793:.\Generated_Source\PSoC5/CyDmac.c **** *******************************************************************************/
 794:.\Generated_Source\PSoC5/CyDmac.c **** void CyDmaTdFree(uint8 tdHandle) 
 795:.\Generated_Source\PSoC5/CyDmac.c **** {
 1232              		.loc 1 795 0
 1233              		.cfi_startproc
 1234              		@ args = 0, pretend = 0, frame = 16
 1235              		@ frame_needed = 1, uses_anonymous_args = 0
 1236 0000 80B5     		push	{r7, lr}
 1237              	.LCFI49:
 1238              		.cfi_def_cfa_offset 8
 1239              		.cfi_offset 7, -8
 1240              		.cfi_offset 14, -4
 1241 0002 84B0     		sub	sp, sp, #16
 1242              	.LCFI50:
 1243              		.cfi_def_cfa_offset 24
 1244 0004 00AF     		add	r7, sp, #0
 1245              	.LCFI51:
 1246              		.cfi_def_cfa_register 7
 1247 0006 0346     		mov	r3, r0
 1248 0008 FB71     		strb	r3, [r7, #7]
 796:.\Generated_Source\PSoC5/CyDmac.c ****     if(tdHandle < CY_DMA_NUMBEROF_TDS)
 1249              		.loc 1 796 0
 1250 000a FB79     		ldrb	r3, [r7, #7]	@ zero_extendqisi2
 1251 000c 5BB2     		sxtb	r3, r3
 1252 000e 002B     		cmp	r3, #0
ARM GAS  C:\Users\Robert\AppData\Local\Temp\ccvq07RG.s 			page 37


 1253 0010 27DB     		blt	.L58
 1254              	.LBB2:
 797:.\Generated_Source\PSoC5/CyDmac.c ****     {
 798:.\Generated_Source\PSoC5/CyDmac.c ****         /* Enter critical section! */
 799:.\Generated_Source\PSoC5/CyDmac.c ****         uint8 interruptState = CyEnterCriticalSection();
 1255              		.loc 1 799 0
 1256 0012 FFF7FEFF 		bl	CyEnterCriticalSection
 1257 0016 0346     		mov	r3, r0
 1258 0018 FB73     		strb	r3, [r7, #15]
 800:.\Generated_Source\PSoC5/CyDmac.c **** 
 801:.\Generated_Source\PSoC5/CyDmac.c ****         /* Get pointer to Next available. */
 802:.\Generated_Source\PSoC5/CyDmac.c ****         CY_DMA_TDMEM_STRUCT_PTR[tdHandle].TD0[0u] = CyDmaTdFreeIndex;
 1259              		.loc 1 802 0
 1260 001a FB79     		ldrb	r3, [r7, #7]	@ zero_extendqisi2
 1261 001c 4FEAC303 		lsl	r3, r3, #3
 1262 0020 03F18043 		add	r3, r3, #1073741824
 1263 0024 03F5F043 		add	r3, r3, #30720
 1264 0028 40F20002 		movw	r2, #:lower16:CyDmaTdFreeIndex
 1265 002c C0F20002 		movt	r2, #:upper16:CyDmaTdFreeIndex
 1266 0030 1278     		ldrb	r2, [r2, #0]	@ zero_extendqisi2
 1267 0032 1A70     		strb	r2, [r3, #0]
 803:.\Generated_Source\PSoC5/CyDmac.c **** 
 804:.\Generated_Source\PSoC5/CyDmac.c ****         /* Set new Next Available. */
 805:.\Generated_Source\PSoC5/CyDmac.c ****         CyDmaTdFreeIndex = tdHandle;
 1268              		.loc 1 805 0
 1269 0034 40F20003 		movw	r3, #:lower16:CyDmaTdFreeIndex
 1270 0038 C0F20003 		movt	r3, #:upper16:CyDmaTdFreeIndex
 1271 003c FA79     		ldrb	r2, [r7, #7]
 1272 003e 1A70     		strb	r2, [r3, #0]
 806:.\Generated_Source\PSoC5/CyDmac.c **** 
 807:.\Generated_Source\PSoC5/CyDmac.c ****         /* Keep track of how many left. */
 808:.\Generated_Source\PSoC5/CyDmac.c ****         CyDmaTdCurrentNumber++;
 1273              		.loc 1 808 0
 1274 0040 40F20003 		movw	r3, #:lower16:CyDmaTdCurrentNumber
 1275 0044 C0F20003 		movt	r3, #:upper16:CyDmaTdCurrentNumber
 1276 0048 1B78     		ldrb	r3, [r3, #0]	@ zero_extendqisi2
 1277 004a 03F10103 		add	r3, r3, #1
 1278 004e DAB2     		uxtb	r2, r3
 1279 0050 40F20003 		movw	r3, #:lower16:CyDmaTdCurrentNumber
 1280 0054 C0F20003 		movt	r3, #:upper16:CyDmaTdCurrentNumber
 1281 0058 1A70     		strb	r2, [r3, #0]
 809:.\Generated_Source\PSoC5/CyDmac.c **** 
 810:.\Generated_Source\PSoC5/CyDmac.c ****         /* Exit critical section! */
 811:.\Generated_Source\PSoC5/CyDmac.c ****         CyExitCriticalSection(interruptState);
 1282              		.loc 1 811 0
 1283 005a FB7B     		ldrb	r3, [r7, #15]	@ zero_extendqisi2
 1284 005c 1846     		mov	r0, r3
 1285 005e FFF7FEFF 		bl	CyExitCriticalSection
 1286              	.L58:
 1287              	.LBE2:
 812:.\Generated_Source\PSoC5/CyDmac.c ****     }
 813:.\Generated_Source\PSoC5/CyDmac.c **** }
 1288              		.loc 1 813 0
 1289 0062 07F11007 		add	r7, r7, #16
 1290 0066 BD46     		mov	sp, r7
 1291 0068 80BD     		pop	{r7, pc}
 1292              		.cfi_endproc
ARM GAS  C:\Users\Robert\AppData\Local\Temp\ccvq07RG.s 			page 38


 1293              	.LFE17:
 1294              		.size	CyDmaTdFree, .-CyDmaTdFree
 1295 006a 00BF     		.section	.text.CyDmaTdFreeCount,"ax",%progbits
 1296              		.align	2
 1297              		.global	CyDmaTdFreeCount
 1298              		.thumb
 1299              		.thumb_func
 1300              		.type	CyDmaTdFreeCount, %function
 1301              	CyDmaTdFreeCount:
 1302              	.LFB18:
 814:.\Generated_Source\PSoC5/CyDmac.c **** 
 815:.\Generated_Source\PSoC5/CyDmac.c **** 
 816:.\Generated_Source\PSoC5/CyDmac.c **** /*******************************************************************************
 817:.\Generated_Source\PSoC5/CyDmac.c **** * Function Name: CyDmaTdFreeCount
 818:.\Generated_Source\PSoC5/CyDmac.c **** ********************************************************************************
 819:.\Generated_Source\PSoC5/CyDmac.c **** *
 820:.\Generated_Source\PSoC5/CyDmac.c **** * Summary:
 821:.\Generated_Source\PSoC5/CyDmac.c **** *  Returns the number of free TDs available to be allocated.
 822:.\Generated_Source\PSoC5/CyDmac.c **** *
 823:.\Generated_Source\PSoC5/CyDmac.c **** * Parameters:
 824:.\Generated_Source\PSoC5/CyDmac.c **** *  None
 825:.\Generated_Source\PSoC5/CyDmac.c **** *
 826:.\Generated_Source\PSoC5/CyDmac.c **** * Return:
 827:.\Generated_Source\PSoC5/CyDmac.c **** *  The number of free TDs.
 828:.\Generated_Source\PSoC5/CyDmac.c **** *
 829:.\Generated_Source\PSoC5/CyDmac.c **** *******************************************************************************/
 830:.\Generated_Source\PSoC5/CyDmac.c **** uint8 CyDmaTdFreeCount(void) 
 831:.\Generated_Source\PSoC5/CyDmac.c **** {
 1303              		.loc 1 831 0
 1304              		.cfi_startproc
 1305              		@ args = 0, pretend = 0, frame = 0
 1306              		@ frame_needed = 1, uses_anonymous_args = 0
 1307              		@ link register save eliminated.
 1308 0000 80B4     		push	{r7}
 1309              	.LCFI52:
 1310              		.cfi_def_cfa_offset 4
 1311              		.cfi_offset 7, -4
 1312 0002 00AF     		add	r7, sp, #0
 1313              	.LCFI53:
 1314              		.cfi_def_cfa_register 7
 832:.\Generated_Source\PSoC5/CyDmac.c ****     return(CyDmaTdCurrentNumber - CY_DMA_NUMBEROF_CHANNELS);
 1315              		.loc 1 832 0
 1316 0004 40F20003 		movw	r3, #:lower16:CyDmaTdCurrentNumber
 1317 0008 C0F20003 		movt	r3, #:upper16:CyDmaTdCurrentNumber
 1318 000c 1B78     		ldrb	r3, [r3, #0]	@ zero_extendqisi2
 1319 000e A3F11803 		sub	r3, r3, #24
 1320 0012 DBB2     		uxtb	r3, r3
 833:.\Generated_Source\PSoC5/CyDmac.c **** }
 1321              		.loc 1 833 0
 1322 0014 1846     		mov	r0, r3
 1323 0016 BD46     		mov	sp, r7
 1324 0018 80BC     		pop	{r7}
 1325 001a 7047     		bx	lr
 1326              		.cfi_endproc
 1327              	.LFE18:
 1328              		.size	CyDmaTdFreeCount, .-CyDmaTdFreeCount
 1329              		.section	.text.CyDmaTdSetConfiguration,"ax",%progbits
ARM GAS  C:\Users\Robert\AppData\Local\Temp\ccvq07RG.s 			page 39


 1330              		.align	2
 1331              		.global	CyDmaTdSetConfiguration
 1332              		.thumb
 1333              		.thumb_func
 1334              		.type	CyDmaTdSetConfiguration, %function
 1335              	CyDmaTdSetConfiguration:
 1336              	.LFB19:
 834:.\Generated_Source\PSoC5/CyDmac.c **** 
 835:.\Generated_Source\PSoC5/CyDmac.c **** 
 836:.\Generated_Source\PSoC5/CyDmac.c **** /*******************************************************************************
 837:.\Generated_Source\PSoC5/CyDmac.c **** * Function Name: CyDmaTdSetConfiguration
 838:.\Generated_Source\PSoC5/CyDmac.c **** ********************************************************************************
 839:.\Generated_Source\PSoC5/CyDmac.c **** *
 840:.\Generated_Source\PSoC5/CyDmac.c **** * Summary:
 841:.\Generated_Source\PSoC5/CyDmac.c **** *  Configures the TD.
 842:.\Generated_Source\PSoC5/CyDmac.c **** *
 843:.\Generated_Source\PSoC5/CyDmac.c **** * Parameters:
 844:.\Generated_Source\PSoC5/CyDmac.c **** *  uint8 tdHandle:
 845:.\Generated_Source\PSoC5/CyDmac.c **** *   A handle previously returned by CyDmaTdAlloc().
 846:.\Generated_Source\PSoC5/CyDmac.c **** *
 847:.\Generated_Source\PSoC5/CyDmac.c **** *  uint16 transferCount:
 848:.\Generated_Source\PSoC5/CyDmac.c **** *   The size of the data transfer (in bytes) for this TD. A size of zero will
 849:.\Generated_Source\PSoC5/CyDmac.c **** *   cause the transfer to continue indefinitely. This parameter is limited to
 850:.\Generated_Source\PSoC5/CyDmac.c **** *   4095 bytes; the TD is not initialized at all when a higher value is passed.
 851:.\Generated_Source\PSoC5/CyDmac.c **** *
 852:.\Generated_Source\PSoC5/CyDmac.c **** *  uint8 nextTd:
 853:.\Generated_Source\PSoC5/CyDmac.c **** *   Zero based index of the next Transfer Descriptor in the TD chain. Zero is a
 854:.\Generated_Source\PSoC5/CyDmac.c **** *   valid pointer to the next TD; DMA_END_CHAIN_TD is the end of the chain.
 855:.\Generated_Source\PSoC5/CyDmac.c **** *   DMA_DISABLE_TD indicates an end to the chain and the DMA is disabled. No
 856:.\Generated_Source\PSoC5/CyDmac.c **** *   further TDs are fetched. DMA_DISABLE_TD is only supported on PSoC3 and
 857:.\Generated_Source\PSoC5/CyDmac.c **** *   PSoC 5LP silicons.
 858:.\Generated_Source\PSoC5/CyDmac.c **** *
 859:.\Generated_Source\PSoC5/CyDmac.c **** *  uint8 configuration:
 860:.\Generated_Source\PSoC5/CyDmac.c **** *   Stores the Bit field of configuration bits.
 861:.\Generated_Source\PSoC5/CyDmac.c **** *
 862:.\Generated_Source\PSoC5/CyDmac.c **** *   CY_DMA_TD_SWAP_EN        - Perform endian swap
 863:.\Generated_Source\PSoC5/CyDmac.c **** *
 864:.\Generated_Source\PSoC5/CyDmac.c **** *   CY_DMA_TD_SWAP_SIZE4     - Swap size = 4 bytes
 865:.\Generated_Source\PSoC5/CyDmac.c **** *
 866:.\Generated_Source\PSoC5/CyDmac.c **** *   CY_DMA_TD_AUTO_EXEC_NEXT - The next TD in the chain will trigger
 867:.\Generated_Source\PSoC5/CyDmac.c **** *                              automatically when the current TD completes.
 868:.\Generated_Source\PSoC5/CyDmac.c **** *
 869:.\Generated_Source\PSoC5/CyDmac.c **** *   CY_DMA_TD_TERMIN_EN      - Terminate this TD if a positive edge on the trq
 870:.\Generated_Source\PSoC5/CyDmac.c **** *                              input line occurs. The positive edge must occur
 871:.\Generated_Source\PSoC5/CyDmac.c **** *                              during a burst. That is the only time the DMAC
 872:.\Generated_Source\PSoC5/CyDmac.c **** *                              will listen for it.
 873:.\Generated_Source\PSoC5/CyDmac.c **** *
 874:.\Generated_Source\PSoC5/CyDmac.c **** *   DMA__TD_TERMOUT_EN       - When this TD completes, the TERMOUT signal will
 875:.\Generated_Source\PSoC5/CyDmac.c **** *                              generate a pulse. Note that this option is
 876:.\Generated_Source\PSoC5/CyDmac.c **** *                              instance specific with the instance name followed
 877:.\Generated_Source\PSoC5/CyDmac.c **** *                              by two underscores. In this example, the instance
 878:.\Generated_Source\PSoC5/CyDmac.c **** *                              name is DMA.
 879:.\Generated_Source\PSoC5/CyDmac.c **** *
 880:.\Generated_Source\PSoC5/CyDmac.c **** *   CY_DMA_TD_INC_DST_ADR    - Increment DST_ADR according to the size of each
 881:.\Generated_Source\PSoC5/CyDmac.c **** *                              data transaction in the burst.
 882:.\Generated_Source\PSoC5/CyDmac.c **** *
 883:.\Generated_Source\PSoC5/CyDmac.c **** *   CY_DMA_TD_INC_SRC_ADR    - Increment SRC_ADR according to the size of each
ARM GAS  C:\Users\Robert\AppData\Local\Temp\ccvq07RG.s 			page 40


 884:.\Generated_Source\PSoC5/CyDmac.c **** *                              data transaction in the burst.
 885:.\Generated_Source\PSoC5/CyDmac.c **** *
 886:.\Generated_Source\PSoC5/CyDmac.c **** * Return:
 887:.\Generated_Source\PSoC5/CyDmac.c **** *  CYRET_SUCCESS if successful.
 888:.\Generated_Source\PSoC5/CyDmac.c **** *  CYRET_BAD_PARAM if tdHandle or transferCount is invalid.
 889:.\Generated_Source\PSoC5/CyDmac.c **** *
 890:.\Generated_Source\PSoC5/CyDmac.c **** *******************************************************************************/
 891:.\Generated_Source\PSoC5/CyDmac.c **** cystatus CyDmaTdSetConfiguration(uint8 tdHandle, uint16 transferCount, uint8 nextTd, uint8 configur
 892:.\Generated_Source\PSoC5/CyDmac.c ****     
 893:.\Generated_Source\PSoC5/CyDmac.c **** {
 1337              		.loc 1 893 0
 1338              		.cfi_startproc
 1339              		@ args = 0, pretend = 0, frame = 16
 1340              		@ frame_needed = 1, uses_anonymous_args = 0
 1341              		@ link register save eliminated.
 1342 0000 80B4     		push	{r7}
 1343              	.LCFI54:
 1344              		.cfi_def_cfa_offset 4
 1345              		.cfi_offset 7, -4
 1346 0002 85B0     		sub	sp, sp, #20
 1347              	.LCFI55:
 1348              		.cfi_def_cfa_offset 24
 1349 0004 00AF     		add	r7, sp, #0
 1350              	.LCFI56:
 1351              		.cfi_def_cfa_register 7
 1352 0006 F871     		strb	r0, [r7, #7]
 1353 0008 B980     		strh	r1, [r7, #4]	@ movhi
 1354 000a BA71     		strb	r2, [r7, #6]
 1355 000c FB70     		strb	r3, [r7, #3]
 894:.\Generated_Source\PSoC5/CyDmac.c ****     cystatus status = CYRET_BAD_PARAM;
 1356              		.loc 1 894 0
 1357 000e 4FF00103 		mov	r3, #1
 1358 0012 FB60     		str	r3, [r7, #12]
 895:.\Generated_Source\PSoC5/CyDmac.c **** 
 896:.\Generated_Source\PSoC5/CyDmac.c ****     if((tdHandle < CY_DMA_NUMBEROF_TDS) && (0u == (0xF000u & transferCount)))
 1359              		.loc 1 896 0
 1360 0014 FB79     		ldrb	r3, [r7, #7]	@ zero_extendqisi2
 1361 0016 5BB2     		sxtb	r3, r3
 1362 0018 002B     		cmp	r3, #0
 1363 001a 27DB     		blt	.L63
 1364              		.loc 1 896 0 is_stmt 0 discriminator 1
 1365 001c BB88     		ldrh	r3, [r7, #4]	@ movhi
 1366 001e 23F47F63 		bic	r3, r3, #4080
 1367 0022 23F00F03 		bic	r3, r3, #15
 1368 0026 9BB2     		uxth	r3, r3
 1369 0028 002B     		cmp	r3, #0
 1370 002a 1FD1     		bne	.L63
 1371              	.LBB3:
 897:.\Generated_Source\PSoC5/CyDmac.c ****     {
 898:.\Generated_Source\PSoC5/CyDmac.c ****         /* Set 12 bits transfer count. */
 899:.\Generated_Source\PSoC5/CyDmac.c ****         reg16 *convert = (reg16 *) &CY_DMA_TDMEM_STRUCT_PTR[tdHandle].TD0[0u];
 1372              		.loc 1 899 0 is_stmt 1
 1373 002c FB79     		ldrb	r3, [r7, #7]	@ zero_extendqisi2
 1374 002e 4FEAC303 		lsl	r3, r3, #3
 1375 0032 03F18043 		add	r3, r3, #1073741824
 1376 0036 03F5F043 		add	r3, r3, #30720
 1377 003a BB60     		str	r3, [r7, #8]
ARM GAS  C:\Users\Robert\AppData\Local\Temp\ccvq07RG.s 			page 41


 900:.\Generated_Source\PSoC5/CyDmac.c ****         CY_SET_REG16(convert, transferCount);
 1378              		.loc 1 900 0
 1379 003c BB68     		ldr	r3, [r7, #8]
 1380 003e BA88     		ldrh	r2, [r7, #4]	@ movhi
 1381 0040 1A80     		strh	r2, [r3, #0]	@ movhi
 901:.\Generated_Source\PSoC5/CyDmac.c **** 
 902:.\Generated_Source\PSoC5/CyDmac.c ****         /* Set Next TD pointer. */
 903:.\Generated_Source\PSoC5/CyDmac.c ****         CY_DMA_TDMEM_STRUCT_PTR[tdHandle].TD0[2u] = nextTd;
 1382              		.loc 1 903 0
 1383 0042 FB79     		ldrb	r3, [r7, #7]	@ zero_extendqisi2
 1384 0044 4FEAC303 		lsl	r3, r3, #3
 1385 0048 03F18043 		add	r3, r3, #1073741824
 1386 004c 03F5F043 		add	r3, r3, #30720
 1387 0050 BA79     		ldrb	r2, [r7, #6]
 1388 0052 9A70     		strb	r2, [r3, #2]
 904:.\Generated_Source\PSoC5/CyDmac.c **** 
 905:.\Generated_Source\PSoC5/CyDmac.c ****         /* Configure the TD */
 906:.\Generated_Source\PSoC5/CyDmac.c ****         CY_DMA_TDMEM_STRUCT_PTR[tdHandle].TD0[3u] = configuration;
 1389              		.loc 1 906 0
 1390 0054 FB79     		ldrb	r3, [r7, #7]	@ zero_extendqisi2
 1391 0056 4FEAC303 		lsl	r3, r3, #3
 1392 005a 03F18043 		add	r3, r3, #1073741824
 1393 005e 03F5F043 		add	r3, r3, #30720
 1394 0062 FA78     		ldrb	r2, [r7, #3]
 1395 0064 DA70     		strb	r2, [r3, #3]
 907:.\Generated_Source\PSoC5/CyDmac.c **** 
 908:.\Generated_Source\PSoC5/CyDmac.c ****         status = CYRET_SUCCESS;
 1396              		.loc 1 908 0
 1397 0066 4FF00003 		mov	r3, #0
 1398 006a FB60     		str	r3, [r7, #12]
 1399              	.L63:
 1400              	.LBE3:
 909:.\Generated_Source\PSoC5/CyDmac.c ****     }
 910:.\Generated_Source\PSoC5/CyDmac.c **** 
 911:.\Generated_Source\PSoC5/CyDmac.c ****     return(status);
 1401              		.loc 1 911 0
 1402 006c FB68     		ldr	r3, [r7, #12]
 912:.\Generated_Source\PSoC5/CyDmac.c **** }
 1403              		.loc 1 912 0
 1404 006e 1846     		mov	r0, r3
 1405 0070 07F11407 		add	r7, r7, #20
 1406 0074 BD46     		mov	sp, r7
 1407 0076 80BC     		pop	{r7}
 1408 0078 7047     		bx	lr
 1409              		.cfi_endproc
 1410              	.LFE19:
 1411              		.size	CyDmaTdSetConfiguration, .-CyDmaTdSetConfiguration
 1412 007a 00BF     		.section	.text.CyDmaTdGetConfiguration,"ax",%progbits
 1413              		.align	2
 1414              		.global	CyDmaTdGetConfiguration
 1415              		.thumb
 1416              		.thumb_func
 1417              		.type	CyDmaTdGetConfiguration, %function
 1418              	CyDmaTdGetConfiguration:
 1419              	.LFB20:
 913:.\Generated_Source\PSoC5/CyDmac.c **** 
 914:.\Generated_Source\PSoC5/CyDmac.c **** 
ARM GAS  C:\Users\Robert\AppData\Local\Temp\ccvq07RG.s 			page 42


 915:.\Generated_Source\PSoC5/CyDmac.c **** /*******************************************************************************
 916:.\Generated_Source\PSoC5/CyDmac.c **** * Function Name: CyDmaTdGetConfiguration
 917:.\Generated_Source\PSoC5/CyDmac.c **** ********************************************************************************
 918:.\Generated_Source\PSoC5/CyDmac.c **** *
 919:.\Generated_Source\PSoC5/CyDmac.c **** * Summary:
 920:.\Generated_Source\PSoC5/CyDmac.c **** *  Retrieves the configuration of the TD. If a NULL pointer is passed as a
 921:.\Generated_Source\PSoC5/CyDmac.c **** *  parameter, that parameter is skipped. You may request only the values you are
 922:.\Generated_Source\PSoC5/CyDmac.c **** *  interested in.
 923:.\Generated_Source\PSoC5/CyDmac.c **** *
 924:.\Generated_Source\PSoC5/CyDmac.c **** * Parameters:
 925:.\Generated_Source\PSoC5/CyDmac.c **** *  uint8 tdHandle:
 926:.\Generated_Source\PSoC5/CyDmac.c **** *   A handle previously returned by CyDmaTdAlloc().
 927:.\Generated_Source\PSoC5/CyDmac.c **** *
 928:.\Generated_Source\PSoC5/CyDmac.c **** *  uint16 * transferCount:
 929:.\Generated_Source\PSoC5/CyDmac.c **** *   The address to store the size of the data transfer (in bytes) for this TD.
 930:.\Generated_Source\PSoC5/CyDmac.c **** *   A size of zero could indicate that the TD has completed its transfer, or
 931:.\Generated_Source\PSoC5/CyDmac.c **** *   that the TD is doing an indefinite transfer.
 932:.\Generated_Source\PSoC5/CyDmac.c **** *
 933:.\Generated_Source\PSoC5/CyDmac.c **** *  uint8 * nextTd:
 934:.\Generated_Source\PSoC5/CyDmac.c **** *   The address to store the index of the next TD in the TD chain.
 935:.\Generated_Source\PSoC5/CyDmac.c **** *
 936:.\Generated_Source\PSoC5/CyDmac.c **** *  uint8 * configuration:
 937:.\Generated_Source\PSoC5/CyDmac.c **** *   The address to store the Bit field of configuration bits.
 938:.\Generated_Source\PSoC5/CyDmac.c **** *   See CyDmaTdSetConfiguration() function description.
 939:.\Generated_Source\PSoC5/CyDmac.c **** *
 940:.\Generated_Source\PSoC5/CyDmac.c **** * Return:
 941:.\Generated_Source\PSoC5/CyDmac.c **** *  CYRET_SUCCESS if successful.
 942:.\Generated_Source\PSoC5/CyDmac.c **** *  CYRET_BAD_PARAM if tdHandle is invalid.
 943:.\Generated_Source\PSoC5/CyDmac.c **** *
 944:.\Generated_Source\PSoC5/CyDmac.c **** * Side Effects:
 945:.\Generated_Source\PSoC5/CyDmac.c **** *  If TD has a transfer count of N and is executed, the transfer count becomes
 946:.\Generated_Source\PSoC5/CyDmac.c **** *  0. If it is reexecuted, the Transfer count of zero will be interpreted as a
 947:.\Generated_Source\PSoC5/CyDmac.c **** *  request for indefinite transfer. Be careful when requesting TD with a
 948:.\Generated_Source\PSoC5/CyDmac.c **** *  transfer count of zero.
 949:.\Generated_Source\PSoC5/CyDmac.c **** *
 950:.\Generated_Source\PSoC5/CyDmac.c **** *******************************************************************************/
 951:.\Generated_Source\PSoC5/CyDmac.c **** cystatus CyDmaTdGetConfiguration(uint8 tdHandle, uint16 * transferCount, uint8 * nextTd, uint8 * co
 952:.\Generated_Source\PSoC5/CyDmac.c ****     
 953:.\Generated_Source\PSoC5/CyDmac.c **** {
 1420              		.loc 1 953 0
 1421              		.cfi_startproc
 1422              		@ args = 0, pretend = 0, frame = 24
 1423              		@ frame_needed = 1, uses_anonymous_args = 0
 1424              		@ link register save eliminated.
 1425 0000 80B4     		push	{r7}
 1426              	.LCFI57:
 1427              		.cfi_def_cfa_offset 4
 1428              		.cfi_offset 7, -4
 1429 0002 87B0     		sub	sp, sp, #28
 1430              	.LCFI58:
 1431              		.cfi_def_cfa_offset 32
 1432 0004 00AF     		add	r7, sp, #0
 1433              	.LCFI59:
 1434              		.cfi_def_cfa_register 7
 1435 0006 B960     		str	r1, [r7, #8]
 1436 0008 7A60     		str	r2, [r7, #4]
 1437 000a 3B60     		str	r3, [r7, #0]
ARM GAS  C:\Users\Robert\AppData\Local\Temp\ccvq07RG.s 			page 43


 1438 000c 0346     		mov	r3, r0
 1439 000e FB73     		strb	r3, [r7, #15]
 954:.\Generated_Source\PSoC5/CyDmac.c ****     cystatus status = CYRET_BAD_PARAM;
 1440              		.loc 1 954 0
 1441 0010 4FF00103 		mov	r3, #1
 1442 0014 7B61     		str	r3, [r7, #20]
 955:.\Generated_Source\PSoC5/CyDmac.c **** 
 956:.\Generated_Source\PSoC5/CyDmac.c ****     if(tdHandle < CY_DMA_NUMBEROF_TDS)
 1443              		.loc 1 956 0
 1444 0016 FB7B     		ldrb	r3, [r7, #15]	@ zero_extendqisi2
 1445 0018 5BB2     		sxtb	r3, r3
 1446 001a 002B     		cmp	r3, #0
 1447 001c 33DB     		blt	.L66
 957:.\Generated_Source\PSoC5/CyDmac.c ****     {
 958:.\Generated_Source\PSoC5/CyDmac.c ****         /* If we have pointer */
 959:.\Generated_Source\PSoC5/CyDmac.c ****         if(NULL != transferCount)
 1448              		.loc 1 959 0
 1449 001e BB68     		ldr	r3, [r7, #8]
 1450 0020 002B     		cmp	r3, #0
 1451 0022 11D0     		beq	.L67
 1452              	.LBB4:
 960:.\Generated_Source\PSoC5/CyDmac.c ****         {
 961:.\Generated_Source\PSoC5/CyDmac.c ****             /* Get 12 bits of transfer count */
 962:.\Generated_Source\PSoC5/CyDmac.c ****             reg16 *convert = (reg16 *) &CY_DMA_TDMEM_STRUCT_PTR[tdHandle].TD0[0];
 1453              		.loc 1 962 0
 1454 0024 FB7B     		ldrb	r3, [r7, #15]	@ zero_extendqisi2
 1455 0026 4FEAC303 		lsl	r3, r3, #3
 1456 002a 03F18043 		add	r3, r3, #1073741824
 1457 002e 03F5F043 		add	r3, r3, #30720
 1458 0032 3B61     		str	r3, [r7, #16]
 963:.\Generated_Source\PSoC5/CyDmac.c ****             *transferCount = 0x0FFFu & CY_GET_REG16(convert);
 1459              		.loc 1 963 0
 1460 0034 3B69     		ldr	r3, [r7, #16]
 1461 0036 1B88     		ldrh	r3, [r3, #0]	@ movhi
 1462 0038 9BB2     		uxth	r3, r3
 1463 003a 4FEA0353 		lsl	r3, r3, #20
 1464 003e 4FEA1353 		lsr	r3, r3, #20
 1465 0042 9AB2     		uxth	r2, r3
 1466 0044 BB68     		ldr	r3, [r7, #8]
 1467 0046 1A80     		strh	r2, [r3, #0]	@ movhi
 1468              	.L67:
 1469              	.LBE4:
 964:.\Generated_Source\PSoC5/CyDmac.c ****         }
 965:.\Generated_Source\PSoC5/CyDmac.c **** 
 966:.\Generated_Source\PSoC5/CyDmac.c ****         /* If we have pointer */
 967:.\Generated_Source\PSoC5/CyDmac.c ****         if(NULL != nextTd)
 1470              		.loc 1 967 0
 1471 0048 7B68     		ldr	r3, [r7, #4]
 1472 004a 002B     		cmp	r3, #0
 1473 004c 0AD0     		beq	.L68
 968:.\Generated_Source\PSoC5/CyDmac.c ****         {
 969:.\Generated_Source\PSoC5/CyDmac.c ****             /* Get Next TD pointer */
 970:.\Generated_Source\PSoC5/CyDmac.c ****             *nextTd = CY_DMA_TDMEM_STRUCT_PTR[tdHandle].TD0[2u];
 1474              		.loc 1 970 0
 1475 004e FB7B     		ldrb	r3, [r7, #15]	@ zero_extendqisi2
 1476 0050 4FEAC303 		lsl	r3, r3, #3
 1477 0054 03F18043 		add	r3, r3, #1073741824
ARM GAS  C:\Users\Robert\AppData\Local\Temp\ccvq07RG.s 			page 44


 1478 0058 03F5F043 		add	r3, r3, #30720
 1479 005c 9B78     		ldrb	r3, [r3, #2]
 1480 005e DAB2     		uxtb	r2, r3
 1481 0060 7B68     		ldr	r3, [r7, #4]
 1482 0062 1A70     		strb	r2, [r3, #0]
 1483              	.L68:
 971:.\Generated_Source\PSoC5/CyDmac.c ****         }
 972:.\Generated_Source\PSoC5/CyDmac.c **** 
 973:.\Generated_Source\PSoC5/CyDmac.c ****         /* If we have pointer */
 974:.\Generated_Source\PSoC5/CyDmac.c ****         if(NULL != configuration)
 1484              		.loc 1 974 0
 1485 0064 3B68     		ldr	r3, [r7, #0]
 1486 0066 002B     		cmp	r3, #0
 1487 0068 0AD0     		beq	.L69
 975:.\Generated_Source\PSoC5/CyDmac.c ****         {
 976:.\Generated_Source\PSoC5/CyDmac.c ****             /* Get configuration TD */
 977:.\Generated_Source\PSoC5/CyDmac.c ****             *configuration = CY_DMA_TDMEM_STRUCT_PTR[tdHandle].TD0[3u];
 1488              		.loc 1 977 0
 1489 006a FB7B     		ldrb	r3, [r7, #15]	@ zero_extendqisi2
 1490 006c 4FEAC303 		lsl	r3, r3, #3
 1491 0070 03F18043 		add	r3, r3, #1073741824
 1492 0074 03F5F043 		add	r3, r3, #30720
 1493 0078 DB78     		ldrb	r3, [r3, #3]
 1494 007a DAB2     		uxtb	r2, r3
 1495 007c 3B68     		ldr	r3, [r7, #0]
 1496 007e 1A70     		strb	r2, [r3, #0]
 1497              	.L69:
 978:.\Generated_Source\PSoC5/CyDmac.c ****         }
 979:.\Generated_Source\PSoC5/CyDmac.c **** 
 980:.\Generated_Source\PSoC5/CyDmac.c ****         status = CYRET_SUCCESS;
 1498              		.loc 1 980 0
 1499 0080 4FF00003 		mov	r3, #0
 1500 0084 7B61     		str	r3, [r7, #20]
 1501              	.L66:
 981:.\Generated_Source\PSoC5/CyDmac.c ****     }
 982:.\Generated_Source\PSoC5/CyDmac.c **** 
 983:.\Generated_Source\PSoC5/CyDmac.c ****     return(status);
 1502              		.loc 1 983 0
 1503 0086 7B69     		ldr	r3, [r7, #20]
 984:.\Generated_Source\PSoC5/CyDmac.c **** }
 1504              		.loc 1 984 0
 1505 0088 1846     		mov	r0, r3
 1506 008a 07F11C07 		add	r7, r7, #28
 1507 008e BD46     		mov	sp, r7
 1508 0090 80BC     		pop	{r7}
 1509 0092 7047     		bx	lr
 1510              		.cfi_endproc
 1511              	.LFE20:
 1512              		.size	CyDmaTdGetConfiguration, .-CyDmaTdGetConfiguration
 1513              		.section	.text.CyDmaTdSetAddress,"ax",%progbits
 1514              		.align	2
 1515              		.global	CyDmaTdSetAddress
 1516              		.thumb
 1517              		.thumb_func
 1518              		.type	CyDmaTdSetAddress, %function
 1519              	CyDmaTdSetAddress:
 1520              	.LFB21:
ARM GAS  C:\Users\Robert\AppData\Local\Temp\ccvq07RG.s 			page 45


 985:.\Generated_Source\PSoC5/CyDmac.c **** 
 986:.\Generated_Source\PSoC5/CyDmac.c **** 
 987:.\Generated_Source\PSoC5/CyDmac.c **** /*******************************************************************************
 988:.\Generated_Source\PSoC5/CyDmac.c **** * Function Name: CyDmaTdSetAddress
 989:.\Generated_Source\PSoC5/CyDmac.c **** ********************************************************************************
 990:.\Generated_Source\PSoC5/CyDmac.c **** *
 991:.\Generated_Source\PSoC5/CyDmac.c **** * Summary:
 992:.\Generated_Source\PSoC5/CyDmac.c **** *  Sets the lower 16 bits of the source and destination addresses for this TD
 993:.\Generated_Source\PSoC5/CyDmac.c **** *  only.
 994:.\Generated_Source\PSoC5/CyDmac.c **** *
 995:.\Generated_Source\PSoC5/CyDmac.c **** * Parameters:
 996:.\Generated_Source\PSoC5/CyDmac.c **** *  uint8 tdHandle:
 997:.\Generated_Source\PSoC5/CyDmac.c **** *   A handle previously returned by CyDmaTdAlloc().
 998:.\Generated_Source\PSoC5/CyDmac.c **** *
 999:.\Generated_Source\PSoC5/CyDmac.c **** *  uint16 source:
1000:.\Generated_Source\PSoC5/CyDmac.c **** *   The lower 16 address bits of the source of the data transfer.
1001:.\Generated_Source\PSoC5/CyDmac.c **** *
1002:.\Generated_Source\PSoC5/CyDmac.c **** *  uint16 destination:
1003:.\Generated_Source\PSoC5/CyDmac.c **** *   The lower 16 address bits of the destination of the data transfer.
1004:.\Generated_Source\PSoC5/CyDmac.c **** *
1005:.\Generated_Source\PSoC5/CyDmac.c **** * Return:
1006:.\Generated_Source\PSoC5/CyDmac.c **** *  CYRET_SUCCESS if successful.
1007:.\Generated_Source\PSoC5/CyDmac.c **** *  CYRET_BAD_PARAM if tdHandle is invalid.
1008:.\Generated_Source\PSoC5/CyDmac.c **** *
1009:.\Generated_Source\PSoC5/CyDmac.c **** *******************************************************************************/
1010:.\Generated_Source\PSoC5/CyDmac.c **** cystatus CyDmaTdSetAddress(uint8 tdHandle, uint16 source, uint16 destination) 
1011:.\Generated_Source\PSoC5/CyDmac.c **** {
 1521              		.loc 1 1011 0
 1522              		.cfi_startproc
 1523              		@ args = 0, pretend = 0, frame = 16
 1524              		@ frame_needed = 1, uses_anonymous_args = 0
 1525              		@ link register save eliminated.
 1526 0000 80B4     		push	{r7}
 1527              	.LCFI60:
 1528              		.cfi_def_cfa_offset 4
 1529              		.cfi_offset 7, -4
 1530 0002 85B0     		sub	sp, sp, #20
 1531              	.LCFI61:
 1532              		.cfi_def_cfa_offset 24
 1533 0004 00AF     		add	r7, sp, #0
 1534              	.LCFI62:
 1535              		.cfi_def_cfa_register 7
 1536 0006 1346     		mov	r3, r2
 1537 0008 0246     		mov	r2, r0
 1538 000a FA71     		strb	r2, [r7, #7]
 1539 000c 0A46     		mov	r2, r1	@ movhi
 1540 000e BA80     		strh	r2, [r7, #4]	@ movhi
 1541 0010 7B80     		strh	r3, [r7, #2]	@ movhi
1012:.\Generated_Source\PSoC5/CyDmac.c ****     cystatus status = CYRET_BAD_PARAM;
 1542              		.loc 1 1012 0
 1543 0012 4FF00103 		mov	r3, #1
 1544 0016 FB60     		str	r3, [r7, #12]
1013:.\Generated_Source\PSoC5/CyDmac.c ****     reg16 *convert;
1014:.\Generated_Source\PSoC5/CyDmac.c **** 
1015:.\Generated_Source\PSoC5/CyDmac.c ****     if(tdHandle < CY_DMA_NUMBEROF_TDS)
 1545              		.loc 1 1015 0
 1546 0018 FB79     		ldrb	r3, [r7, #7]	@ zero_extendqisi2
ARM GAS  C:\Users\Robert\AppData\Local\Temp\ccvq07RG.s 			page 46


 1547 001a 5BB2     		sxtb	r3, r3
 1548 001c 002B     		cmp	r3, #0
 1549 001e 1CDB     		blt	.L72
1016:.\Generated_Source\PSoC5/CyDmac.c ****     {
1017:.\Generated_Source\PSoC5/CyDmac.c ****         /* Set source address */
1018:.\Generated_Source\PSoC5/CyDmac.c ****         convert = (reg16 *) &CY_DMA_TDMEM_STRUCT_PTR[tdHandle].TD1[0u];
 1550              		.loc 1 1018 0
 1551 0020 FB79     		ldrb	r3, [r7, #7]	@ zero_extendqisi2
 1552 0022 4FEAC303 		lsl	r3, r3, #3
 1553 0026 03F18043 		add	r3, r3, #1073741824
 1554 002a 03F5F043 		add	r3, r3, #30720
 1555 002e 03F10403 		add	r3, r3, #4
 1556 0032 BB60     		str	r3, [r7, #8]
1019:.\Generated_Source\PSoC5/CyDmac.c ****         CY_SET_REG16(convert, source);
 1557              		.loc 1 1019 0
 1558 0034 BB68     		ldr	r3, [r7, #8]
 1559 0036 BA88     		ldrh	r2, [r7, #4]	@ movhi
 1560 0038 1A80     		strh	r2, [r3, #0]	@ movhi
1020:.\Generated_Source\PSoC5/CyDmac.c **** 
1021:.\Generated_Source\PSoC5/CyDmac.c ****         /* Set destination address */
1022:.\Generated_Source\PSoC5/CyDmac.c ****         convert = (reg16 *) &CY_DMA_TDMEM_STRUCT_PTR[tdHandle].TD1[2u];
 1561              		.loc 1 1022 0
 1562 003a FB79     		ldrb	r3, [r7, #7]	@ zero_extendqisi2
 1563 003c 4FEAC303 		lsl	r3, r3, #3
 1564 0040 03F18043 		add	r3, r3, #1073741824
 1565 0044 03F5F043 		add	r3, r3, #30720
 1566 0048 03F10603 		add	r3, r3, #6
 1567 004c BB60     		str	r3, [r7, #8]
1023:.\Generated_Source\PSoC5/CyDmac.c ****         CY_SET_REG16(convert, destination);
 1568              		.loc 1 1023 0
 1569 004e BB68     		ldr	r3, [r7, #8]
 1570 0050 7A88     		ldrh	r2, [r7, #2]	@ movhi
 1571 0052 1A80     		strh	r2, [r3, #0]	@ movhi
1024:.\Generated_Source\PSoC5/CyDmac.c **** 
1025:.\Generated_Source\PSoC5/CyDmac.c ****         status = CYRET_SUCCESS;
 1572              		.loc 1 1025 0
 1573 0054 4FF00003 		mov	r3, #0
 1574 0058 FB60     		str	r3, [r7, #12]
 1575              	.L72:
1026:.\Generated_Source\PSoC5/CyDmac.c ****     }
1027:.\Generated_Source\PSoC5/CyDmac.c **** 
1028:.\Generated_Source\PSoC5/CyDmac.c ****     return(status);
 1576              		.loc 1 1028 0
 1577 005a FB68     		ldr	r3, [r7, #12]
1029:.\Generated_Source\PSoC5/CyDmac.c **** }
 1578              		.loc 1 1029 0
 1579 005c 1846     		mov	r0, r3
 1580 005e 07F11407 		add	r7, r7, #20
 1581 0062 BD46     		mov	sp, r7
 1582 0064 80BC     		pop	{r7}
 1583 0066 7047     		bx	lr
 1584              		.cfi_endproc
 1585              	.LFE21:
 1586              		.size	CyDmaTdSetAddress, .-CyDmaTdSetAddress
 1587              		.section	.text.CyDmaTdGetAddress,"ax",%progbits
 1588              		.align	2
 1589              		.global	CyDmaTdGetAddress
ARM GAS  C:\Users\Robert\AppData\Local\Temp\ccvq07RG.s 			page 47


 1590              		.thumb
 1591              		.thumb_func
 1592              		.type	CyDmaTdGetAddress, %function
 1593              	CyDmaTdGetAddress:
 1594              	.LFB22:
1030:.\Generated_Source\PSoC5/CyDmac.c **** 
1031:.\Generated_Source\PSoC5/CyDmac.c **** 
1032:.\Generated_Source\PSoC5/CyDmac.c **** /*******************************************************************************
1033:.\Generated_Source\PSoC5/CyDmac.c **** * Function Name: CyDmaTdGetAddress
1034:.\Generated_Source\PSoC5/CyDmac.c **** ********************************************************************************
1035:.\Generated_Source\PSoC5/CyDmac.c **** *
1036:.\Generated_Source\PSoC5/CyDmac.c **** * Summary:
1037:.\Generated_Source\PSoC5/CyDmac.c **** *  Retrieves the lower 16 bits of the source and/or destination addresses for
1038:.\Generated_Source\PSoC5/CyDmac.c **** *  this TD only. If NULL is passed for a pointer parameter, that value is
1039:.\Generated_Source\PSoC5/CyDmac.c **** *  skipped. You may request only the values of interest.
1040:.\Generated_Source\PSoC5/CyDmac.c **** *
1041:.\Generated_Source\PSoC5/CyDmac.c **** * Parameters:
1042:.\Generated_Source\PSoC5/CyDmac.c **** *  uint8 tdHandle:
1043:.\Generated_Source\PSoC5/CyDmac.c **** *   A handle previously returned by CyDmaTdAlloc().
1044:.\Generated_Source\PSoC5/CyDmac.c **** *
1045:.\Generated_Source\PSoC5/CyDmac.c **** *  uint16 * source:
1046:.\Generated_Source\PSoC5/CyDmac.c **** *   The address to store the lower 16 address bits of the source of the data
1047:.\Generated_Source\PSoC5/CyDmac.c **** *   transfer.
1048:.\Generated_Source\PSoC5/CyDmac.c **** *
1049:.\Generated_Source\PSoC5/CyDmac.c **** *  uint16 * destination:
1050:.\Generated_Source\PSoC5/CyDmac.c **** *   The address to store the lower 16 address bits of the destination of the
1051:.\Generated_Source\PSoC5/CyDmac.c **** *   data transfer.
1052:.\Generated_Source\PSoC5/CyDmac.c **** *
1053:.\Generated_Source\PSoC5/CyDmac.c **** * Return:
1054:.\Generated_Source\PSoC5/CyDmac.c **** *  CYRET_SUCCESS if successful.
1055:.\Generated_Source\PSoC5/CyDmac.c **** *  CYRET_BAD_PARAM if tdHandle is invalid.
1056:.\Generated_Source\PSoC5/CyDmac.c **** *
1057:.\Generated_Source\PSoC5/CyDmac.c **** *******************************************************************************/
1058:.\Generated_Source\PSoC5/CyDmac.c **** cystatus CyDmaTdGetAddress(uint8 tdHandle, uint16 * source, uint16 * destination) 
1059:.\Generated_Source\PSoC5/CyDmac.c **** {
 1595              		.loc 1 1059 0
 1596              		.cfi_startproc
 1597              		@ args = 0, pretend = 0, frame = 24
 1598              		@ frame_needed = 1, uses_anonymous_args = 0
 1599              		@ link register save eliminated.
 1600 0000 80B4     		push	{r7}
 1601              	.LCFI63:
 1602              		.cfi_def_cfa_offset 4
 1603              		.cfi_offset 7, -4
 1604 0002 87B0     		sub	sp, sp, #28
 1605              	.LCFI64:
 1606              		.cfi_def_cfa_offset 32
 1607 0004 00AF     		add	r7, sp, #0
 1608              	.LCFI65:
 1609              		.cfi_def_cfa_register 7
 1610 0006 0346     		mov	r3, r0
 1611 0008 B960     		str	r1, [r7, #8]
 1612 000a 7A60     		str	r2, [r7, #4]
 1613 000c FB73     		strb	r3, [r7, #15]
1060:.\Generated_Source\PSoC5/CyDmac.c ****     cystatus status = CYRET_BAD_PARAM;
 1614              		.loc 1 1060 0
 1615 000e 4FF00103 		mov	r3, #1
ARM GAS  C:\Users\Robert\AppData\Local\Temp\ccvq07RG.s 			page 48


 1616 0012 7B61     		str	r3, [r7, #20]
1061:.\Generated_Source\PSoC5/CyDmac.c ****     reg16 *convert;
1062:.\Generated_Source\PSoC5/CyDmac.c **** 
1063:.\Generated_Source\PSoC5/CyDmac.c ****     if(tdHandle < CY_DMA_NUMBEROF_TDS)
 1617              		.loc 1 1063 0
 1618 0014 FB7B     		ldrb	r3, [r7, #15]	@ zero_extendqisi2
 1619 0016 5BB2     		sxtb	r3, r3
 1620 0018 002B     		cmp	r3, #0
 1621 001a 26DB     		blt	.L75
1064:.\Generated_Source\PSoC5/CyDmac.c ****     {
1065:.\Generated_Source\PSoC5/CyDmac.c ****         /* If we have a pointer. */
1066:.\Generated_Source\PSoC5/CyDmac.c ****         if(NULL != source)
 1622              		.loc 1 1066 0
 1623 001c BB68     		ldr	r3, [r7, #8]
 1624 001e 002B     		cmp	r3, #0
 1625 0020 0ED0     		beq	.L76
1067:.\Generated_Source\PSoC5/CyDmac.c ****         {
1068:.\Generated_Source\PSoC5/CyDmac.c ****             /* Get source address */
1069:.\Generated_Source\PSoC5/CyDmac.c ****             convert = (reg16 *) &CY_DMA_TDMEM_STRUCT_PTR[tdHandle].TD1[0u];
 1626              		.loc 1 1069 0
 1627 0022 FB7B     		ldrb	r3, [r7, #15]	@ zero_extendqisi2
 1628 0024 4FEAC303 		lsl	r3, r3, #3
 1629 0028 03F18043 		add	r3, r3, #1073741824
 1630 002c 03F5F043 		add	r3, r3, #30720
 1631 0030 03F10403 		add	r3, r3, #4
 1632 0034 3B61     		str	r3, [r7, #16]
1070:.\Generated_Source\PSoC5/CyDmac.c ****             *source = CY_GET_REG16(convert);
 1633              		.loc 1 1070 0
 1634 0036 3B69     		ldr	r3, [r7, #16]
 1635 0038 1B88     		ldrh	r3, [r3, #0]	@ movhi
 1636 003a 9AB2     		uxth	r2, r3
 1637 003c BB68     		ldr	r3, [r7, #8]
 1638 003e 1A80     		strh	r2, [r3, #0]	@ movhi
 1639              	.L76:
1071:.\Generated_Source\PSoC5/CyDmac.c ****         }
1072:.\Generated_Source\PSoC5/CyDmac.c **** 
1073:.\Generated_Source\PSoC5/CyDmac.c ****         /* If we have a pointer. */
1074:.\Generated_Source\PSoC5/CyDmac.c ****         if(NULL != destination)
 1640              		.loc 1 1074 0
 1641 0040 7B68     		ldr	r3, [r7, #4]
 1642 0042 002B     		cmp	r3, #0
 1643 0044 0ED0     		beq	.L77
1075:.\Generated_Source\PSoC5/CyDmac.c ****         {
1076:.\Generated_Source\PSoC5/CyDmac.c ****             /* Get Destination address. */
1077:.\Generated_Source\PSoC5/CyDmac.c ****             convert = (reg16 *) &CY_DMA_TDMEM_STRUCT_PTR[tdHandle].TD1[2u];
 1644              		.loc 1 1077 0
 1645 0046 FB7B     		ldrb	r3, [r7, #15]	@ zero_extendqisi2
 1646 0048 4FEAC303 		lsl	r3, r3, #3
 1647 004c 03F18043 		add	r3, r3, #1073741824
 1648 0050 03F5F043 		add	r3, r3, #30720
 1649 0054 03F10603 		add	r3, r3, #6
 1650 0058 3B61     		str	r3, [r7, #16]
1078:.\Generated_Source\PSoC5/CyDmac.c ****             *destination = CY_GET_REG16(convert);
 1651              		.loc 1 1078 0
 1652 005a 3B69     		ldr	r3, [r7, #16]
 1653 005c 1B88     		ldrh	r3, [r3, #0]	@ movhi
 1654 005e 9AB2     		uxth	r2, r3
ARM GAS  C:\Users\Robert\AppData\Local\Temp\ccvq07RG.s 			page 49


 1655 0060 7B68     		ldr	r3, [r7, #4]
 1656 0062 1A80     		strh	r2, [r3, #0]	@ movhi
 1657              	.L77:
1079:.\Generated_Source\PSoC5/CyDmac.c ****         }
1080:.\Generated_Source\PSoC5/CyDmac.c **** 
1081:.\Generated_Source\PSoC5/CyDmac.c ****         status = CYRET_SUCCESS;
 1658              		.loc 1 1081 0
 1659 0064 4FF00003 		mov	r3, #0
 1660 0068 7B61     		str	r3, [r7, #20]
 1661              	.L75:
1082:.\Generated_Source\PSoC5/CyDmac.c ****     }
1083:.\Generated_Source\PSoC5/CyDmac.c **** 
1084:.\Generated_Source\PSoC5/CyDmac.c ****     return(status);
 1662              		.loc 1 1084 0
 1663 006a 7B69     		ldr	r3, [r7, #20]
1085:.\Generated_Source\PSoC5/CyDmac.c **** }
 1664              		.loc 1 1085 0
 1665 006c 1846     		mov	r0, r3
 1666 006e 07F11C07 		add	r7, r7, #28
 1667 0072 BD46     		mov	sp, r7
 1668 0074 80BC     		pop	{r7}
 1669 0076 7047     		bx	lr
 1670              		.cfi_endproc
 1671              	.LFE22:
 1672              		.size	CyDmaTdGetAddress, .-CyDmaTdGetAddress
 1673              		.section	.text.CyDmaChRoundRobin,"ax",%progbits
 1674              		.align	2
 1675              		.global	CyDmaChRoundRobin
 1676              		.thumb
 1677              		.thumb_func
 1678              		.type	CyDmaChRoundRobin, %function
 1679              	CyDmaChRoundRobin:
 1680              	.LFB23:
1086:.\Generated_Source\PSoC5/CyDmac.c **** 
1087:.\Generated_Source\PSoC5/CyDmac.c **** 
1088:.\Generated_Source\PSoC5/CyDmac.c **** /*******************************************************************************
1089:.\Generated_Source\PSoC5/CyDmac.c **** * Function Name: CyDmaChRoundRobin
1090:.\Generated_Source\PSoC5/CyDmac.c **** ********************************************************************************
1091:.\Generated_Source\PSoC5/CyDmac.c **** *
1092:.\Generated_Source\PSoC5/CyDmac.c **** * Summary:
1093:.\Generated_Source\PSoC5/CyDmac.c **** *  Either enables or disables the Round-Robin scheduling enforcement algorithm.
1094:.\Generated_Source\PSoC5/CyDmac.c **** *  Within a priority level a Round-Robin fairness algorithm is enforced.
1095:.\Generated_Source\PSoC5/CyDmac.c **** *
1096:.\Generated_Source\PSoC5/CyDmac.c **** * Parameters:
1097:.\Generated_Source\PSoC5/CyDmac.c **** *  uint8 chHandle:
1098:.\Generated_Source\PSoC5/CyDmac.c **** *   A handle previously returned by CyDmaChAlloc() or Dma_DmaInitialize().
1099:.\Generated_Source\PSoC5/CyDmac.c **** *
1100:.\Generated_Source\PSoC5/CyDmac.c **** *  uint8 enableRR:
1101:.\Generated_Source\PSoC5/CyDmac.c **** *   0: Disable Round-Robin fairness algorithm
1102:.\Generated_Source\PSoC5/CyDmac.c **** *   1: Enable Round-Robin fairness algorithm
1103:.\Generated_Source\PSoC5/CyDmac.c **** *
1104:.\Generated_Source\PSoC5/CyDmac.c **** * Return:
1105:.\Generated_Source\PSoC5/CyDmac.c **** *  CYRET_SUCCESS if successful.
1106:.\Generated_Source\PSoC5/CyDmac.c **** *  CYRET_BAD_PARAM if chHandle is invalid.
1107:.\Generated_Source\PSoC5/CyDmac.c **** *
1108:.\Generated_Source\PSoC5/CyDmac.c **** *******************************************************************************/
1109:.\Generated_Source\PSoC5/CyDmac.c **** cystatus CyDmaChRoundRobin(uint8 chHandle, uint8 enableRR) 
ARM GAS  C:\Users\Robert\AppData\Local\Temp\ccvq07RG.s 			page 50


1110:.\Generated_Source\PSoC5/CyDmac.c **** {
 1681              		.loc 1 1110 0
 1682              		.cfi_startproc
 1683              		@ args = 0, pretend = 0, frame = 16
 1684              		@ frame_needed = 1, uses_anonymous_args = 0
 1685              		@ link register save eliminated.
 1686 0000 80B4     		push	{r7}
 1687              	.LCFI66:
 1688              		.cfi_def_cfa_offset 4
 1689              		.cfi_offset 7, -4
 1690 0002 85B0     		sub	sp, sp, #20
 1691              	.LCFI67:
 1692              		.cfi_def_cfa_offset 24
 1693 0004 00AF     		add	r7, sp, #0
 1694              	.LCFI68:
 1695              		.cfi_def_cfa_register 7
 1696 0006 0246     		mov	r2, r0
 1697 0008 0B46     		mov	r3, r1
 1698 000a FA71     		strb	r2, [r7, #7]
 1699 000c BB71     		strb	r3, [r7, #6]
1111:.\Generated_Source\PSoC5/CyDmac.c ****     cystatus status = CYRET_BAD_PARAM;
 1700              		.loc 1 1111 0
 1701 000e 4FF00103 		mov	r3, #1
 1702 0012 FB60     		str	r3, [r7, #12]
1112:.\Generated_Source\PSoC5/CyDmac.c **** 
1113:.\Generated_Source\PSoC5/CyDmac.c ****     if(chHandle < CY_DMA_NUMBEROF_CHANNELS)
 1703              		.loc 1 1113 0
 1704 0014 FB79     		ldrb	r3, [r7, #7]	@ zero_extendqisi2
 1705 0016 172B     		cmp	r3, #23
 1706 0018 32D8     		bhi	.L80
1114:.\Generated_Source\PSoC5/CyDmac.c ****     {
1115:.\Generated_Source\PSoC5/CyDmac.c ****         if (0u != enableRR)
 1707              		.loc 1 1115 0
 1708 001a BB79     		ldrb	r3, [r7, #6]	@ zero_extendqisi2
 1709 001c 002B     		cmp	r3, #0
 1710 001e 16D0     		beq	.L81
1116:.\Generated_Source\PSoC5/CyDmac.c ****         {
1117:.\Generated_Source\PSoC5/CyDmac.c ****             CY_DMA_CH_STRUCT_PTR[chHandle].basic_cfg[0u] |= (uint8)CY_DMA_ROUND_ROBIN_ENABLE;
 1711              		.loc 1 1117 0
 1712 0020 FB79     		ldrb	r3, [r7, #7]	@ zero_extendqisi2
 1713 0022 4FEA0312 		lsl	r2, r3, #4
 1714 0026 47F21003 		movw	r3, #28688
 1715 002a C4F20003 		movt	r3, 16384
 1716 002e D318     		adds	r3, r2, r3
 1717 0030 FA79     		ldrb	r2, [r7, #7]	@ zero_extendqisi2
 1718 0032 4FEA0211 		lsl	r1, r2, #4
 1719 0036 47F21002 		movw	r2, #28688
 1720 003a C4F20002 		movt	r2, 16384
 1721 003e 8A18     		adds	r2, r1, r2
 1722 0040 1278     		ldrb	r2, [r2, #0]
 1723 0042 D2B2     		uxtb	r2, r2
 1724 0044 42F01002 		orr	r2, r2, #16
 1725 0048 D2B2     		uxtb	r2, r2
 1726 004a 1A70     		strb	r2, [r3, #0]
 1727 004c 15E0     		b	.L82
 1728              	.L81:
1118:.\Generated_Source\PSoC5/CyDmac.c ****         }
ARM GAS  C:\Users\Robert\AppData\Local\Temp\ccvq07RG.s 			page 51


1119:.\Generated_Source\PSoC5/CyDmac.c ****         else
1120:.\Generated_Source\PSoC5/CyDmac.c ****         {
1121:.\Generated_Source\PSoC5/CyDmac.c ****             CY_DMA_CH_STRUCT_PTR[chHandle].basic_cfg[0u] &= (uint8)(~CY_DMA_ROUND_ROBIN_ENABLE);
 1729              		.loc 1 1121 0
 1730 004e FB79     		ldrb	r3, [r7, #7]	@ zero_extendqisi2
 1731 0050 4FEA0312 		lsl	r2, r3, #4
 1732 0054 47F21003 		movw	r3, #28688
 1733 0058 C4F20003 		movt	r3, 16384
 1734 005c D318     		adds	r3, r2, r3
 1735 005e FA79     		ldrb	r2, [r7, #7]	@ zero_extendqisi2
 1736 0060 4FEA0211 		lsl	r1, r2, #4
 1737 0064 47F21002 		movw	r2, #28688
 1738 0068 C4F20002 		movt	r2, 16384
 1739 006c 8A18     		adds	r2, r1, r2
 1740 006e 1278     		ldrb	r2, [r2, #0]
 1741 0070 D2B2     		uxtb	r2, r2
 1742 0072 22F01002 		bic	r2, r2, #16
 1743 0076 D2B2     		uxtb	r2, r2
 1744 0078 1A70     		strb	r2, [r3, #0]
 1745              	.L82:
1122:.\Generated_Source\PSoC5/CyDmac.c ****         }
1123:.\Generated_Source\PSoC5/CyDmac.c **** 
1124:.\Generated_Source\PSoC5/CyDmac.c ****         status = CYRET_SUCCESS;
 1746              		.loc 1 1124 0
 1747 007a 4FF00003 		mov	r3, #0
 1748 007e FB60     		str	r3, [r7, #12]
 1749              	.L80:
1125:.\Generated_Source\PSoC5/CyDmac.c ****     }
1126:.\Generated_Source\PSoC5/CyDmac.c **** 
1127:.\Generated_Source\PSoC5/CyDmac.c ****     return(status);
 1750              		.loc 1 1127 0
 1751 0080 FB68     		ldr	r3, [r7, #12]
1128:.\Generated_Source\PSoC5/CyDmac.c **** }
 1752              		.loc 1 1128 0
 1753 0082 1846     		mov	r0, r3
 1754 0084 07F11407 		add	r7, r7, #20
 1755 0088 BD46     		mov	sp, r7
 1756 008a 80BC     		pop	{r7}
 1757 008c 7047     		bx	lr
 1758              		.cfi_endproc
 1759              	.LFE23:
 1760              		.size	CyDmaChRoundRobin, .-CyDmaChRoundRobin
 1761 008e 00BF     		.text
 1762              	.Letext0:
 1763              		.file 2 ".\\Generated_Source\\PSoC5\\cytypes.h"
 1764              		.file 3 ".\\Generated_Source\\PSoC5\\CyDmac.h"