ARM GAS  C:\Users\Robert\AppData\Local\Temp\cc9sD88Q.s 			page 1


   1              		.syntax unified
   2              		.cpu cortex-m3
   3              		.fpu softvfp
   4              		.eabi_attribute 20, 1
   5              		.eabi_attribute 21, 1
   6              		.eabi_attribute 23, 3
   7              		.eabi_attribute 24, 1
   8              		.eabi_attribute 25, 1
   9              		.eabi_attribute 26, 1
  10              		.eabi_attribute 30, 6
  11              		.eabi_attribute 34, 1
  12              		.eabi_attribute 18, 4
  13              		.thumb
  14              		.file	"CyFlash.c"
  15              		.text
  16              	.Ltext0:
  17              		.cfi_sections	.debug_frame
  18              		.comm	dieTemperature,2,4
  19              		.bss
  20              		.align	2
  21              	rowBuffer:
  22 0000 00000000 		.space	4
  23              		.section	.text.CyFlash_Start,"ax",%progbits
  24              		.align	2
  25              		.global	CyFlash_Start
  26              		.thumb
  27              		.thumb_func
  28              		.type	CyFlash_Start, %function
  29              	CyFlash_Start:
  30              	.LFB0:
  31              		.file 1 ".\\Generated_Source\\PSoC5\\CyFlash.c"
   1:.\Generated_Source\PSoC5/CyFlash.c **** /*******************************************************************************
   2:.\Generated_Source\PSoC5/CyFlash.c **** * File Name: CyFlash.c
   3:.\Generated_Source\PSoC5/CyFlash.c **** * Version 4.10
   4:.\Generated_Source\PSoC5/CyFlash.c **** *
   5:.\Generated_Source\PSoC5/CyFlash.c **** *  Description:
   6:.\Generated_Source\PSoC5/CyFlash.c **** *   Provides an API for the FLASH/EEPROM.
   7:.\Generated_Source\PSoC5/CyFlash.c **** *
   8:.\Generated_Source\PSoC5/CyFlash.c **** *  Note:
   9:.\Generated_Source\PSoC5/CyFlash.c **** *   This code is endian agnostic.
  10:.\Generated_Source\PSoC5/CyFlash.c **** *
  11:.\Generated_Source\PSoC5/CyFlash.c **** *  Note:
  12:.\Generated_Source\PSoC5/CyFlash.c **** *   Documentation of the API's in this file is located in the
  13:.\Generated_Source\PSoC5/CyFlash.c **** *   System Reference Guide provided with PSoC Creator.
  14:.\Generated_Source\PSoC5/CyFlash.c **** *
  15:.\Generated_Source\PSoC5/CyFlash.c **** ********************************************************************************
  16:.\Generated_Source\PSoC5/CyFlash.c **** * Copyright 2008-2014, Cypress Semiconductor Corporation. All rights reserved.
  17:.\Generated_Source\PSoC5/CyFlash.c **** * You may use this file only in accordance with the license, terms, conditions,
  18:.\Generated_Source\PSoC5/CyFlash.c **** * disclaimers, and limitations in the end user license agreement accompanying
  19:.\Generated_Source\PSoC5/CyFlash.c **** * the software package with which this file was provided.
  20:.\Generated_Source\PSoC5/CyFlash.c **** *******************************************************************************/
  21:.\Generated_Source\PSoC5/CyFlash.c **** 
  22:.\Generated_Source\PSoC5/CyFlash.c **** #include "CyFlash.h"
  23:.\Generated_Source\PSoC5/CyFlash.c **** 
  24:.\Generated_Source\PSoC5/CyFlash.c **** 
  25:.\Generated_Source\PSoC5/CyFlash.c **** /*******************************************************************************
  26:.\Generated_Source\PSoC5/CyFlash.c **** * Holds the die temperature, updated by CySetTemp(). Used for flash writing.
ARM GAS  C:\Users\Robert\AppData\Local\Temp\cc9sD88Q.s 			page 2


  27:.\Generated_Source\PSoC5/CyFlash.c **** * The first byte is the sign of the temperature (0 = negative, 1 = positive).
  28:.\Generated_Source\PSoC5/CyFlash.c **** * The second byte is the magnitude.
  29:.\Generated_Source\PSoC5/CyFlash.c **** *******************************************************************************/
  30:.\Generated_Source\PSoC5/CyFlash.c **** uint8 dieTemperature[CY_FLASH_DIE_TEMP_DATA_SIZE];
  31:.\Generated_Source\PSoC5/CyFlash.c **** 
  32:.\Generated_Source\PSoC5/CyFlash.c **** #if(CYDEV_ECC_ENABLE == 0)
  33:.\Generated_Source\PSoC5/CyFlash.c ****     static uint8 * rowBuffer = 0;
  34:.\Generated_Source\PSoC5/CyFlash.c **** #endif  /* (CYDEV_ECC_ENABLE == 0) */
  35:.\Generated_Source\PSoC5/CyFlash.c **** 
  36:.\Generated_Source\PSoC5/CyFlash.c **** 
  37:.\Generated_Source\PSoC5/CyFlash.c **** static cystatus CySetTempInt(void);
  38:.\Generated_Source\PSoC5/CyFlash.c **** 
  39:.\Generated_Source\PSoC5/CyFlash.c **** 
  40:.\Generated_Source\PSoC5/CyFlash.c **** /*******************************************************************************
  41:.\Generated_Source\PSoC5/CyFlash.c **** * Function Name: CyFlash_Start
  42:.\Generated_Source\PSoC5/CyFlash.c **** ********************************************************************************
  43:.\Generated_Source\PSoC5/CyFlash.c **** *
  44:.\Generated_Source\PSoC5/CyFlash.c **** * Summary:
  45:.\Generated_Source\PSoC5/CyFlash.c **** *  Enable the Flash.
  46:.\Generated_Source\PSoC5/CyFlash.c **** *
  47:.\Generated_Source\PSoC5/CyFlash.c **** * Parameters:
  48:.\Generated_Source\PSoC5/CyFlash.c **** *  None
  49:.\Generated_Source\PSoC5/CyFlash.c **** *
  50:.\Generated_Source\PSoC5/CyFlash.c **** * Return:
  51:.\Generated_Source\PSoC5/CyFlash.c **** *  None
  52:.\Generated_Source\PSoC5/CyFlash.c **** *
  53:.\Generated_Source\PSoC5/CyFlash.c **** *******************************************************************************/
  54:.\Generated_Source\PSoC5/CyFlash.c **** void CyFlash_Start(void) 
  55:.\Generated_Source\PSoC5/CyFlash.c **** {
  32              		.loc 1 55 0
  33              		.cfi_startproc
  34              		@ args = 0, pretend = 0, frame = 0
  35              		@ frame_needed = 1, uses_anonymous_args = 0
  36 0000 80B5     		push	{r7, lr}
  37              	.LCFI0:
  38              		.cfi_def_cfa_offset 8
  39              		.cfi_offset 7, -8
  40              		.cfi_offset 14, -4
  41 0002 00AF     		add	r7, sp, #0
  42              	.LCFI1:
  43              		.cfi_def_cfa_register 7
  56:.\Generated_Source\PSoC5/CyFlash.c ****     /* Active Power Mode */
  57:.\Generated_Source\PSoC5/CyFlash.c ****     *CY_FLASH_PM_ACT_EEFLASH_PTR |= CY_FLASH_PM_FLASH_MASK;
  44              		.loc 1 57 0
  45 0004 44F2AC33 		movw	r3, #17324
  46 0008 C4F20003 		movt	r3, 16384
  47 000c 44F2AC32 		movw	r2, #17324
  48 0010 C4F20002 		movt	r2, 16384
  49 0014 1278     		ldrb	r2, [r2, #0]
  50 0016 D2B2     		uxtb	r2, r2
  51 0018 42F00102 		orr	r2, r2, #1
  52 001c D2B2     		uxtb	r2, r2
  53 001e 1A70     		strb	r2, [r3, #0]
  58:.\Generated_Source\PSoC5/CyFlash.c **** 
  59:.\Generated_Source\PSoC5/CyFlash.c ****     /* Standby Power Mode */
  60:.\Generated_Source\PSoC5/CyFlash.c ****     *CY_FLASH_PM_ALTACT_EEFLASH_PTR |= CY_FLASH_PM_FLASH_MASK;
  54              		.loc 1 60 0
ARM GAS  C:\Users\Robert\AppData\Local\Temp\cc9sD88Q.s 			page 3


  55 0020 44F2BC33 		movw	r3, #17340
  56 0024 C4F20003 		movt	r3, 16384
  57 0028 44F2BC32 		movw	r2, #17340
  58 002c C4F20002 		movt	r2, 16384
  59 0030 1278     		ldrb	r2, [r2, #0]
  60 0032 D2B2     		uxtb	r2, r2
  61 0034 42F00102 		orr	r2, r2, #1
  62 0038 D2B2     		uxtb	r2, r2
  63 003a 1A70     		strb	r2, [r3, #0]
  61:.\Generated_Source\PSoC5/CyFlash.c **** 
  62:.\Generated_Source\PSoC5/CyFlash.c ****     CyDelayUs(CY_FLASH_EE_STARTUP_DELAY);
  64              		.loc 1 62 0
  65 003c 4FF00500 		mov	r0, #5
  66 0040 FFF7FEFF 		bl	CyDelayUs
  63:.\Generated_Source\PSoC5/CyFlash.c **** }
  67              		.loc 1 63 0
  68 0044 80BD     		pop	{r7, pc}
  69              		.cfi_endproc
  70              	.LFE0:
  71              		.size	CyFlash_Start, .-CyFlash_Start
  72 0046 00BF     		.section	.text.CyFlash_Stop,"ax",%progbits
  73              		.align	2
  74              		.global	CyFlash_Stop
  75              		.thumb
  76              		.thumb_func
  77              		.type	CyFlash_Stop, %function
  78              	CyFlash_Stop:
  79              	.LFB1:
  64:.\Generated_Source\PSoC5/CyFlash.c **** 
  65:.\Generated_Source\PSoC5/CyFlash.c **** 
  66:.\Generated_Source\PSoC5/CyFlash.c **** /*******************************************************************************
  67:.\Generated_Source\PSoC5/CyFlash.c **** * Function Name: CyFlash_Stop
  68:.\Generated_Source\PSoC5/CyFlash.c **** ********************************************************************************
  69:.\Generated_Source\PSoC5/CyFlash.c **** *
  70:.\Generated_Source\PSoC5/CyFlash.c **** * Summary:
  71:.\Generated_Source\PSoC5/CyFlash.c **** *  Disable the Flash.
  72:.\Generated_Source\PSoC5/CyFlash.c **** *
  73:.\Generated_Source\PSoC5/CyFlash.c **** * Parameters:
  74:.\Generated_Source\PSoC5/CyFlash.c **** *  None
  75:.\Generated_Source\PSoC5/CyFlash.c **** *
  76:.\Generated_Source\PSoC5/CyFlash.c **** * Return:
  77:.\Generated_Source\PSoC5/CyFlash.c **** *  None
  78:.\Generated_Source\PSoC5/CyFlash.c **** *
  79:.\Generated_Source\PSoC5/CyFlash.c **** * Side Effects:
  80:.\Generated_Source\PSoC5/CyFlash.c **** *  This setting is ignored as long as the CPU is currently running.  This will
  81:.\Generated_Source\PSoC5/CyFlash.c **** *  only take effect when the CPU is later disabled.
  82:.\Generated_Source\PSoC5/CyFlash.c **** *
  83:.\Generated_Source\PSoC5/CyFlash.c **** *******************************************************************************/
  84:.\Generated_Source\PSoC5/CyFlash.c **** void CyFlash_Stop(void) 
  85:.\Generated_Source\PSoC5/CyFlash.c **** {
  80              		.loc 1 85 0
  81              		.cfi_startproc
  82              		@ args = 0, pretend = 0, frame = 0
  83              		@ frame_needed = 1, uses_anonymous_args = 0
  84              		@ link register save eliminated.
  85 0000 80B4     		push	{r7}
  86              	.LCFI2:
ARM GAS  C:\Users\Robert\AppData\Local\Temp\cc9sD88Q.s 			page 4


  87              		.cfi_def_cfa_offset 4
  88              		.cfi_offset 7, -4
  89 0002 00AF     		add	r7, sp, #0
  90              	.LCFI3:
  91              		.cfi_def_cfa_register 7
  86:.\Generated_Source\PSoC5/CyFlash.c ****     /* Active Power Mode */
  87:.\Generated_Source\PSoC5/CyFlash.c ****     *CY_FLASH_PM_ACT_EEFLASH_PTR &= ((uint8)(~CY_FLASH_PM_FLASH_MASK));
  92              		.loc 1 87 0
  93 0004 44F2AC33 		movw	r3, #17324
  94 0008 C4F20003 		movt	r3, 16384
  95 000c 44F2AC32 		movw	r2, #17324
  96 0010 C4F20002 		movt	r2, 16384
  97 0014 1278     		ldrb	r2, [r2, #0]
  98 0016 D2B2     		uxtb	r2, r2
  99 0018 22F00102 		bic	r2, r2, #1
 100 001c D2B2     		uxtb	r2, r2
 101 001e 1A70     		strb	r2, [r3, #0]
  88:.\Generated_Source\PSoC5/CyFlash.c **** 
  89:.\Generated_Source\PSoC5/CyFlash.c ****     /* Standby Power Mode */
  90:.\Generated_Source\PSoC5/CyFlash.c ****     *CY_FLASH_PM_ALTACT_EEFLASH_PTR &= ((uint8)(~CY_FLASH_PM_FLASH_MASK));
 102              		.loc 1 90 0
 103 0020 44F2BC33 		movw	r3, #17340
 104 0024 C4F20003 		movt	r3, 16384
 105 0028 44F2BC32 		movw	r2, #17340
 106 002c C4F20002 		movt	r2, 16384
 107 0030 1278     		ldrb	r2, [r2, #0]
 108 0032 D2B2     		uxtb	r2, r2
 109 0034 22F00102 		bic	r2, r2, #1
 110 0038 D2B2     		uxtb	r2, r2
 111 003a 1A70     		strb	r2, [r3, #0]
  91:.\Generated_Source\PSoC5/CyFlash.c **** }
 112              		.loc 1 91 0
 113 003c BD46     		mov	sp, r7
 114 003e 80BC     		pop	{r7}
 115 0040 7047     		bx	lr
 116              		.cfi_endproc
 117              	.LFE1:
 118              		.size	CyFlash_Stop, .-CyFlash_Stop
 119 0042 00BF     		.section	.text.CySetTempInt,"ax",%progbits
 120              		.align	2
 121              		.thumb
 122              		.thumb_func
 123              		.type	CySetTempInt, %function
 124              	CySetTempInt:
 125              	.LFB2:
  92:.\Generated_Source\PSoC5/CyFlash.c **** 
  93:.\Generated_Source\PSoC5/CyFlash.c **** 
  94:.\Generated_Source\PSoC5/CyFlash.c **** /*******************************************************************************
  95:.\Generated_Source\PSoC5/CyFlash.c **** * Function Name: CySetTempInt
  96:.\Generated_Source\PSoC5/CyFlash.c **** ********************************************************************************
  97:.\Generated_Source\PSoC5/CyFlash.c **** *
  98:.\Generated_Source\PSoC5/CyFlash.c **** * Summary:
  99:.\Generated_Source\PSoC5/CyFlash.c **** *  Sends a command to the SPC to read the die temperature. Sets a global value
 100:.\Generated_Source\PSoC5/CyFlash.c **** *  used by the Write function. This function must be called once before
 101:.\Generated_Source\PSoC5/CyFlash.c **** *  executing a series of Flash writing functions.
 102:.\Generated_Source\PSoC5/CyFlash.c **** *
 103:.\Generated_Source\PSoC5/CyFlash.c **** * Parameters:
ARM GAS  C:\Users\Robert\AppData\Local\Temp\cc9sD88Q.s 			page 5


 104:.\Generated_Source\PSoC5/CyFlash.c **** *  None
 105:.\Generated_Source\PSoC5/CyFlash.c **** *
 106:.\Generated_Source\PSoC5/CyFlash.c **** * Return:
 107:.\Generated_Source\PSoC5/CyFlash.c **** *  status:
 108:.\Generated_Source\PSoC5/CyFlash.c **** *   CYRET_SUCCESS - if successful
 109:.\Generated_Source\PSoC5/CyFlash.c **** *   CYRET_LOCKED  - if Flash writing already in use
 110:.\Generated_Source\PSoC5/CyFlash.c **** *   CYRET_UNKNOWN - if there was an SPC error
 111:.\Generated_Source\PSoC5/CyFlash.c **** *
 112:.\Generated_Source\PSoC5/CyFlash.c **** *******************************************************************************/
 113:.\Generated_Source\PSoC5/CyFlash.c **** static cystatus CySetTempInt(void) 
 114:.\Generated_Source\PSoC5/CyFlash.c **** {
 126              		.loc 1 114 0
 127              		.cfi_startproc
 128              		@ args = 0, pretend = 0, frame = 8
 129              		@ frame_needed = 1, uses_anonymous_args = 0
 130 0000 80B5     		push	{r7, lr}
 131              	.LCFI4:
 132              		.cfi_def_cfa_offset 8
 133              		.cfi_offset 7, -8
 134              		.cfi_offset 14, -4
 135 0002 82B0     		sub	sp, sp, #8
 136              	.LCFI5:
 137              		.cfi_def_cfa_offset 16
 138 0004 00AF     		add	r7, sp, #0
 139              	.LCFI6:
 140              		.cfi_def_cfa_register 7
 115:.\Generated_Source\PSoC5/CyFlash.c ****     cystatus status;
 116:.\Generated_Source\PSoC5/CyFlash.c **** 
 117:.\Generated_Source\PSoC5/CyFlash.c ****     /* Make sure SPC is powered */
 118:.\Generated_Source\PSoC5/CyFlash.c ****     CySpcStart();
 141              		.loc 1 118 0
 142 0006 FFF7FEFF 		bl	CySpcStart
 119:.\Generated_Source\PSoC5/CyFlash.c **** 
 120:.\Generated_Source\PSoC5/CyFlash.c ****     /* Plan for failure. */
 121:.\Generated_Source\PSoC5/CyFlash.c ****     status = CYRET_UNKNOWN;
 143              		.loc 1 121 0
 144 000a 4FF0FF33 		mov	r3, #-1
 145 000e 7B60     		str	r3, [r7, #4]
 122:.\Generated_Source\PSoC5/CyFlash.c **** 
 123:.\Generated_Source\PSoC5/CyFlash.c ****     if(CySpcLock() == CYRET_SUCCESS)
 146              		.loc 1 123 0
 147 0010 FFF7FEFF 		bl	CySpcLock
 148 0014 0346     		mov	r3, r0
 149 0016 002B     		cmp	r3, #0
 150 0018 31D1     		bne	.L4
 124:.\Generated_Source\PSoC5/CyFlash.c ****     {
 125:.\Generated_Source\PSoC5/CyFlash.c ****         /* Write the command. */
 126:.\Generated_Source\PSoC5/CyFlash.c ****         if(CYRET_STARTED == CySpcGetTemp(CY_TEMP_NUMBER_OF_SAMPLES))
 151              		.loc 1 126 0
 152 001a 4FF00100 		mov	r0, #1
 153 001e FFF7FEFF 		bl	CySpcGetTemp
 154 0022 0346     		mov	r3, r0
 155 0024 072B     		cmp	r3, #7
 156 0026 27D1     		bne	.L5
 157              	.L9:
 127:.\Generated_Source\PSoC5/CyFlash.c ****         {
 128:.\Generated_Source\PSoC5/CyFlash.c ****             do
ARM GAS  C:\Users\Robert\AppData\Local\Temp\cc9sD88Q.s 			page 6


 129:.\Generated_Source\PSoC5/CyFlash.c ****             {
 130:.\Generated_Source\PSoC5/CyFlash.c ****                 if(CySpcReadData(dieTemperature, CY_FLASH_DIE_TEMP_DATA_SIZE) == CY_FLASH_DIE_TEMP_
 158              		.loc 1 130 0
 159 0028 40F20000 		movw	r0, #:lower16:dieTemperature
 160 002c C0F20000 		movt	r0, #:upper16:dieTemperature
 161 0030 4FF00201 		mov	r1, #2
 162 0034 FFF7FEFF 		bl	CySpcReadData
 163 0038 0346     		mov	r3, r0
 164 003a 022B     		cmp	r3, #2
 165 003c 12D1     		bne	.L6
 131:.\Generated_Source\PSoC5/CyFlash.c ****                 {
 132:.\Generated_Source\PSoC5/CyFlash.c ****                     status = CYRET_SUCCESS;
 166              		.loc 1 132 0
 167 003e 4FF00003 		mov	r3, #0
 168 0042 7B60     		str	r3, [r7, #4]
 133:.\Generated_Source\PSoC5/CyFlash.c **** 
 134:.\Generated_Source\PSoC5/CyFlash.c ****                     while(CY_SPC_BUSY)
 169              		.loc 1 134 0
 170 0044 03E0     		b	.L7
 171              	.L8:
 135:.\Generated_Source\PSoC5/CyFlash.c ****                     {
 136:.\Generated_Source\PSoC5/CyFlash.c ****                         /* Spin until idle. */
 137:.\Generated_Source\PSoC5/CyFlash.c ****                         CyDelayUs(1u);
 172              		.loc 1 137 0
 173 0046 4FF00100 		mov	r0, #1
 174 004a FFF7FEFF 		bl	CyDelayUs
 175              	.L7:
 134:.\Generated_Source\PSoC5/CyFlash.c ****                     while(CY_SPC_BUSY)
 176              		.loc 1 134 0 discriminator 1
 177 004e 44F22273 		movw	r3, #18210
 178 0052 C4F20003 		movt	r3, 16384
 179 0056 1B78     		ldrb	r3, [r3, #0]
 180 0058 DBB2     		uxtb	r3, r3
 181 005a 03F00203 		and	r3, r3, #2
 182 005e 002B     		cmp	r3, #0
 183 0060 F1D0     		beq	.L8
 138:.\Generated_Source\PSoC5/CyFlash.c ****                     }
 139:.\Generated_Source\PSoC5/CyFlash.c ****                     break;
 184              		.loc 1 139 0
 185 0062 09E0     		b	.L5
 186              	.L6:
 140:.\Generated_Source\PSoC5/CyFlash.c ****                 }
 141:.\Generated_Source\PSoC5/CyFlash.c **** 
 142:.\Generated_Source\PSoC5/CyFlash.c ****             } while(CY_SPC_BUSY);
 187              		.loc 1 142 0
 188 0064 44F22273 		movw	r3, #18210
 189 0068 C4F20003 		movt	r3, 16384
 190 006c 1B78     		ldrb	r3, [r3, #0]
 191 006e DBB2     		uxtb	r3, r3
 192 0070 03F00203 		and	r3, r3, #2
 193 0074 002B     		cmp	r3, #0
 194 0076 D7D0     		beq	.L9
 195              	.L5:
 143:.\Generated_Source\PSoC5/CyFlash.c ****         }
 144:.\Generated_Source\PSoC5/CyFlash.c **** 
 145:.\Generated_Source\PSoC5/CyFlash.c ****         CySpcUnlock();
 196              		.loc 1 145 0
ARM GAS  C:\Users\Robert\AppData\Local\Temp\cc9sD88Q.s 			page 7


 197 0078 FFF7FEFF 		bl	CySpcUnlock
 198 007c 02E0     		b	.L10
 199              	.L4:
 146:.\Generated_Source\PSoC5/CyFlash.c ****     }
 147:.\Generated_Source\PSoC5/CyFlash.c ****     else
 148:.\Generated_Source\PSoC5/CyFlash.c ****     {
 149:.\Generated_Source\PSoC5/CyFlash.c ****         status = CYRET_LOCKED;
 200              		.loc 1 149 0
 201 007e 4FF00403 		mov	r3, #4
 202 0082 7B60     		str	r3, [r7, #4]
 203              	.L10:
 150:.\Generated_Source\PSoC5/CyFlash.c ****     }
 151:.\Generated_Source\PSoC5/CyFlash.c **** 
 152:.\Generated_Source\PSoC5/CyFlash.c ****     return (status);
 204              		.loc 1 152 0
 205 0084 7B68     		ldr	r3, [r7, #4]
 153:.\Generated_Source\PSoC5/CyFlash.c **** }
 206              		.loc 1 153 0
 207 0086 1846     		mov	r0, r3
 208 0088 07F10807 		add	r7, r7, #8
 209 008c BD46     		mov	sp, r7
 210 008e 80BD     		pop	{r7, pc}
 211              		.cfi_endproc
 212              	.LFE2:
 213              		.size	CySetTempInt, .-CySetTempInt
 214              		.section	.text.CySetTemp,"ax",%progbits
 215              		.align	2
 216              		.global	CySetTemp
 217              		.thumb
 218              		.thumb_func
 219              		.type	CySetTemp, %function
 220              	CySetTemp:
 221              	.LFB3:
 154:.\Generated_Source\PSoC5/CyFlash.c **** 
 155:.\Generated_Source\PSoC5/CyFlash.c **** 
 156:.\Generated_Source\PSoC5/CyFlash.c **** /*******************************************************************************
 157:.\Generated_Source\PSoC5/CyFlash.c **** * Function Name: CySetTemp
 158:.\Generated_Source\PSoC5/CyFlash.c **** ********************************************************************************
 159:.\Generated_Source\PSoC5/CyFlash.c **** *
 160:.\Generated_Source\PSoC5/CyFlash.c **** * Summary:
 161:.\Generated_Source\PSoC5/CyFlash.c **** *  This is a wraparound for CySetTempInt(). It is used to return the second
 162:.\Generated_Source\PSoC5/CyFlash.c **** *  successful read of the temperature value.
 163:.\Generated_Source\PSoC5/CyFlash.c **** *
 164:.\Generated_Source\PSoC5/CyFlash.c **** * Parameters:
 165:.\Generated_Source\PSoC5/CyFlash.c **** *  None
 166:.\Generated_Source\PSoC5/CyFlash.c **** *
 167:.\Generated_Source\PSoC5/CyFlash.c **** * Return:
 168:.\Generated_Source\PSoC5/CyFlash.c **** *  status:
 169:.\Generated_Source\PSoC5/CyFlash.c **** *   CYRET_SUCCESS if successful.
 170:.\Generated_Source\PSoC5/CyFlash.c **** *   CYRET_LOCKED  if Flash writing already in use
 171:.\Generated_Source\PSoC5/CyFlash.c **** *   CYRET_UNKNOWN if there was an SPC error.
 172:.\Generated_Source\PSoC5/CyFlash.c **** *
 173:.\Generated_Source\PSoC5/CyFlash.c **** *  uint8 dieTemperature[2]:
 174:.\Generated_Source\PSoC5/CyFlash.c **** *   Holds the die temperature for the flash writing algorithm. The first byte is
 175:.\Generated_Source\PSoC5/CyFlash.c **** *   the sign of the temperature (0 = negative, 1 = positive). The second byte is
 176:.\Generated_Source\PSoC5/CyFlash.c **** *   the magnitude.
 177:.\Generated_Source\PSoC5/CyFlash.c **** *
ARM GAS  C:\Users\Robert\AppData\Local\Temp\cc9sD88Q.s 			page 8


 178:.\Generated_Source\PSoC5/CyFlash.c **** *******************************************************************************/
 179:.\Generated_Source\PSoC5/CyFlash.c **** cystatus CySetTemp(void) 
 180:.\Generated_Source\PSoC5/CyFlash.c **** {
 222              		.loc 1 180 0
 223              		.cfi_startproc
 224              		@ args = 0, pretend = 0, frame = 8
 225              		@ frame_needed = 1, uses_anonymous_args = 0
 226 0000 80B5     		push	{r7, lr}
 227              	.LCFI7:
 228              		.cfi_def_cfa_offset 8
 229              		.cfi_offset 7, -8
 230              		.cfi_offset 14, -4
 231 0002 82B0     		sub	sp, sp, #8
 232              	.LCFI8:
 233              		.cfi_def_cfa_offset 16
 234 0004 00AF     		add	r7, sp, #0
 235              	.LCFI9:
 236              		.cfi_def_cfa_register 7
 181:.\Generated_Source\PSoC5/CyFlash.c ****     cystatus status = CySetTempInt();
 237              		.loc 1 181 0
 238 0006 FFF7FEFF 		bl	CySetTempInt
 239 000a 7860     		str	r0, [r7, #4]
 182:.\Generated_Source\PSoC5/CyFlash.c **** 
 183:.\Generated_Source\PSoC5/CyFlash.c ****     if(status == CYRET_SUCCESS)
 240              		.loc 1 183 0
 241 000c 7B68     		ldr	r3, [r7, #4]
 242 000e 002B     		cmp	r3, #0
 243 0010 02D1     		bne	.L13
 184:.\Generated_Source\PSoC5/CyFlash.c ****     {
 185:.\Generated_Source\PSoC5/CyFlash.c ****         status = CySetTempInt();
 244              		.loc 1 185 0
 245 0012 FFF7FEFF 		bl	CySetTempInt
 246 0016 7860     		str	r0, [r7, #4]
 247              	.L13:
 186:.\Generated_Source\PSoC5/CyFlash.c ****     }
 187:.\Generated_Source\PSoC5/CyFlash.c **** 
 188:.\Generated_Source\PSoC5/CyFlash.c ****     return (status);
 248              		.loc 1 188 0
 249 0018 7B68     		ldr	r3, [r7, #4]
 189:.\Generated_Source\PSoC5/CyFlash.c **** }
 250              		.loc 1 189 0
 251 001a 1846     		mov	r0, r3
 252 001c 07F10807 		add	r7, r7, #8
 253 0020 BD46     		mov	sp, r7
 254 0022 80BD     		pop	{r7, pc}
 255              		.cfi_endproc
 256              	.LFE3:
 257              		.size	CySetTemp, .-CySetTemp
 258              		.section	.text.CySetFlashEEBuffer,"ax",%progbits
 259              		.align	2
 260              		.global	CySetFlashEEBuffer
 261              		.thumb
 262              		.thumb_func
 263              		.type	CySetFlashEEBuffer, %function
 264              	CySetFlashEEBuffer:
 265              	.LFB4:
 190:.\Generated_Source\PSoC5/CyFlash.c **** 
ARM GAS  C:\Users\Robert\AppData\Local\Temp\cc9sD88Q.s 			page 9


 191:.\Generated_Source\PSoC5/CyFlash.c **** 
 192:.\Generated_Source\PSoC5/CyFlash.c **** /*******************************************************************************
 193:.\Generated_Source\PSoC5/CyFlash.c **** * Function Name: CySetFlashEEBuffer
 194:.\Generated_Source\PSoC5/CyFlash.c **** ********************************************************************************
 195:.\Generated_Source\PSoC5/CyFlash.c **** *
 196:.\Generated_Source\PSoC5/CyFlash.c **** * Summary:
 197:.\Generated_Source\PSoC5/CyFlash.c **** *  Sets the user supplied temporary buffer to store SPC data while performing
 198:.\Generated_Source\PSoC5/CyFlash.c **** *  Flash and EEPROM commands. This buffer is only necessary when the Flash ECC is
 199:.\Generated_Source\PSoC5/CyFlash.c **** *  disabled.
 200:.\Generated_Source\PSoC5/CyFlash.c **** *
 201:.\Generated_Source\PSoC5/CyFlash.c **** * Parameters:
 202:.\Generated_Source\PSoC5/CyFlash.c **** *  buffer:
 203:.\Generated_Source\PSoC5/CyFlash.c **** *   The address of a block of memory to store temporary memory. The size of the block
 204:.\Generated_Source\PSoC5/CyFlash.c **** *   of memory is CYDEV_FLS_ROW_SIZE + CYDEV_ECC_ROW_SIZE.
 205:.\Generated_Source\PSoC5/CyFlash.c **** *
 206:.\Generated_Source\PSoC5/CyFlash.c **** * Return:
 207:.\Generated_Source\PSoC5/CyFlash.c **** *  status:
 208:.\Generated_Source\PSoC5/CyFlash.c **** *   CYRET_SUCCESS if successful.
 209:.\Generated_Source\PSoC5/CyFlash.c **** *   CYRET_BAD_PARAM if the buffer is NULL
 210:.\Generated_Source\PSoC5/CyFlash.c **** *
 211:.\Generated_Source\PSoC5/CyFlash.c **** *******************************************************************************/
 212:.\Generated_Source\PSoC5/CyFlash.c **** cystatus CySetFlashEEBuffer(uint8 * buffer) 
 213:.\Generated_Source\PSoC5/CyFlash.c **** {
 266              		.loc 1 213 0
 267              		.cfi_startproc
 268              		@ args = 0, pretend = 0, frame = 16
 269              		@ frame_needed = 1, uses_anonymous_args = 0
 270 0000 80B5     		push	{r7, lr}
 271              	.LCFI10:
 272              		.cfi_def_cfa_offset 8
 273              		.cfi_offset 7, -8
 274              		.cfi_offset 14, -4
 275 0002 84B0     		sub	sp, sp, #16
 276              	.LCFI11:
 277              		.cfi_def_cfa_offset 24
 278 0004 00AF     		add	r7, sp, #0
 279              	.LCFI12:
 280              		.cfi_def_cfa_register 7
 281 0006 7860     		str	r0, [r7, #4]
 214:.\Generated_Source\PSoC5/CyFlash.c ****     cystatus status = CYRET_SUCCESS;
 282              		.loc 1 214 0
 283 0008 4FF00003 		mov	r3, #0
 284 000c FB60     		str	r3, [r7, #12]
 215:.\Generated_Source\PSoC5/CyFlash.c **** 
 216:.\Generated_Source\PSoC5/CyFlash.c ****     CySpcStart();
 285              		.loc 1 216 0
 286 000e FFF7FEFF 		bl	CySpcStart
 217:.\Generated_Source\PSoC5/CyFlash.c **** 
 218:.\Generated_Source\PSoC5/CyFlash.c ****     #if(CYDEV_ECC_ENABLE == 0)
 219:.\Generated_Source\PSoC5/CyFlash.c **** 
 220:.\Generated_Source\PSoC5/CyFlash.c ****         if(NULL == buffer)
 287              		.loc 1 220 0
 288 0012 7B68     		ldr	r3, [r7, #4]
 289 0014 002B     		cmp	r3, #0
 290 0016 0DD1     		bne	.L16
 221:.\Generated_Source\PSoC5/CyFlash.c ****         {
 222:.\Generated_Source\PSoC5/CyFlash.c ****             rowBuffer = rowBuffer;
ARM GAS  C:\Users\Robert\AppData\Local\Temp\cc9sD88Q.s 			page 10


 291              		.loc 1 222 0
 292 0018 40F20003 		movw	r3, #:lower16:rowBuffer
 293 001c C0F20003 		movt	r3, #:upper16:rowBuffer
 294 0020 1A68     		ldr	r2, [r3, #0]
 295 0022 40F20003 		movw	r3, #:lower16:rowBuffer
 296 0026 C0F20003 		movt	r3, #:upper16:rowBuffer
 297 002a 1A60     		str	r2, [r3, #0]
 223:.\Generated_Source\PSoC5/CyFlash.c ****             status = CYRET_BAD_PARAM;
 298              		.loc 1 223 0
 299 002c 4FF00103 		mov	r3, #1
 300 0030 FB60     		str	r3, [r7, #12]
 301 0032 1AE0     		b	.L17
 302              	.L16:
 224:.\Generated_Source\PSoC5/CyFlash.c ****         }
 225:.\Generated_Source\PSoC5/CyFlash.c ****         else if(CySpcLock() != CYRET_SUCCESS)
 303              		.loc 1 225 0
 304 0034 FFF7FEFF 		bl	CySpcLock
 305 0038 0346     		mov	r3, r0
 306 003a 002B     		cmp	r3, #0
 307 003c 0DD0     		beq	.L18
 226:.\Generated_Source\PSoC5/CyFlash.c ****         {
 227:.\Generated_Source\PSoC5/CyFlash.c ****             rowBuffer = rowBuffer;
 308              		.loc 1 227 0
 309 003e 40F20003 		movw	r3, #:lower16:rowBuffer
 310 0042 C0F20003 		movt	r3, #:upper16:rowBuffer
 311 0046 1A68     		ldr	r2, [r3, #0]
 312 0048 40F20003 		movw	r3, #:lower16:rowBuffer
 313 004c C0F20003 		movt	r3, #:upper16:rowBuffer
 314 0050 1A60     		str	r2, [r3, #0]
 228:.\Generated_Source\PSoC5/CyFlash.c ****             status = CYRET_LOCKED;
 315              		.loc 1 228 0
 316 0052 4FF00403 		mov	r3, #4
 317 0056 FB60     		str	r3, [r7, #12]
 318 0058 07E0     		b	.L17
 319              	.L18:
 229:.\Generated_Source\PSoC5/CyFlash.c ****         }
 230:.\Generated_Source\PSoC5/CyFlash.c ****         else
 231:.\Generated_Source\PSoC5/CyFlash.c ****         {
 232:.\Generated_Source\PSoC5/CyFlash.c ****             rowBuffer = buffer;
 320              		.loc 1 232 0
 321 005a 40F20003 		movw	r3, #:lower16:rowBuffer
 322 005e C0F20003 		movt	r3, #:upper16:rowBuffer
 323 0062 7A68     		ldr	r2, [r7, #4]
 324 0064 1A60     		str	r2, [r3, #0]
 233:.\Generated_Source\PSoC5/CyFlash.c ****             CySpcUnlock();
 325              		.loc 1 233 0
 326 0066 FFF7FEFF 		bl	CySpcUnlock
 327              	.L17:
 234:.\Generated_Source\PSoC5/CyFlash.c ****         }
 235:.\Generated_Source\PSoC5/CyFlash.c **** 
 236:.\Generated_Source\PSoC5/CyFlash.c ****     #else
 237:.\Generated_Source\PSoC5/CyFlash.c **** 
 238:.\Generated_Source\PSoC5/CyFlash.c ****         /* To suppress warning */
 239:.\Generated_Source\PSoC5/CyFlash.c ****         buffer = buffer;
 240:.\Generated_Source\PSoC5/CyFlash.c **** 
 241:.\Generated_Source\PSoC5/CyFlash.c ****     #endif  /* (CYDEV_ECC_ENABLE == 0u) */
 242:.\Generated_Source\PSoC5/CyFlash.c **** 
ARM GAS  C:\Users\Robert\AppData\Local\Temp\cc9sD88Q.s 			page 11


 243:.\Generated_Source\PSoC5/CyFlash.c ****     return(status);
 328              		.loc 1 243 0
 329 006a FB68     		ldr	r3, [r7, #12]
 244:.\Generated_Source\PSoC5/CyFlash.c **** }
 330              		.loc 1 244 0
 331 006c 1846     		mov	r0, r3
 332 006e 07F11007 		add	r7, r7, #16
 333 0072 BD46     		mov	sp, r7
 334 0074 80BD     		pop	{r7, pc}
 335              		.cfi_endproc
 336              	.LFE4:
 337              		.size	CySetFlashEEBuffer, .-CySetFlashEEBuffer
 338 0076 00BF     		.section	.text.CyWriteRowData,"ax",%progbits
 339              		.align	2
 340              		.global	CyWriteRowData
 341              		.thumb
 342              		.thumb_func
 343              		.type	CyWriteRowData, %function
 344              	CyWriteRowData:
 345              	.LFB5:
 245:.\Generated_Source\PSoC5/CyFlash.c **** 
 246:.\Generated_Source\PSoC5/CyFlash.c **** 
 247:.\Generated_Source\PSoC5/CyFlash.c **** #if(CYDEV_ECC_ENABLE == 1)
 248:.\Generated_Source\PSoC5/CyFlash.c **** 
 249:.\Generated_Source\PSoC5/CyFlash.c ****     /*******************************************************************************
 250:.\Generated_Source\PSoC5/CyFlash.c ****     * Function Name: CyWriteRowData
 251:.\Generated_Source\PSoC5/CyFlash.c ****     ********************************************************************************
 252:.\Generated_Source\PSoC5/CyFlash.c ****     *
 253:.\Generated_Source\PSoC5/CyFlash.c ****     * Summary:
 254:.\Generated_Source\PSoC5/CyFlash.c ****     *  Sends a command to the SPC to load and program a row of data in
 255:.\Generated_Source\PSoC5/CyFlash.c ****     *  Flash or EEPROM.
 256:.\Generated_Source\PSoC5/CyFlash.c ****     *
 257:.\Generated_Source\PSoC5/CyFlash.c ****     * Parameters:
 258:.\Generated_Source\PSoC5/CyFlash.c ****     *  arrayID:    ID of the array to write.
 259:.\Generated_Source\PSoC5/CyFlash.c ****     *   The type of write, Flash or EEPROM, is determined from the array ID.
 260:.\Generated_Source\PSoC5/CyFlash.c ****     *   The arrays in the part are sequential starting at the first ID for the
 261:.\Generated_Source\PSoC5/CyFlash.c ****     *   specific memory type. The array ID for the Flash memory lasts from 0x00 to
 262:.\Generated_Source\PSoC5/CyFlash.c ****     *   0x3F and for the EEPROM memory it lasts from 0x40 to 0x7F.
 263:.\Generated_Source\PSoC5/CyFlash.c ****     *  rowAddress: rowAddress of flash row to program.
 264:.\Generated_Source\PSoC5/CyFlash.c ****     *  rowData:    Array of bytes to write.
 265:.\Generated_Source\PSoC5/CyFlash.c ****     *
 266:.\Generated_Source\PSoC5/CyFlash.c ****     * Return:
 267:.\Generated_Source\PSoC5/CyFlash.c ****     *  status:
 268:.\Generated_Source\PSoC5/CyFlash.c ****     *   CYRET_SUCCESS if successful.
 269:.\Generated_Source\PSoC5/CyFlash.c ****     *   CYRET_LOCKED if the SPC is already in use.
 270:.\Generated_Source\PSoC5/CyFlash.c ****     *   CYRET_CANCELED if command not accepted
 271:.\Generated_Source\PSoC5/CyFlash.c ****     *   CYRET_UNKNOWN if there was an SPC error.
 272:.\Generated_Source\PSoC5/CyFlash.c ****     *
 273:.\Generated_Source\PSoC5/CyFlash.c ****     *******************************************************************************/
 274:.\Generated_Source\PSoC5/CyFlash.c ****     cystatus CyWriteRowData(uint8 arrayId, uint16 rowAddress, const uint8 * rowData) 
 275:.\Generated_Source\PSoC5/CyFlash.c ****     {
 276:.\Generated_Source\PSoC5/CyFlash.c ****         uint16 rowSize;
 277:.\Generated_Source\PSoC5/CyFlash.c ****         cystatus status;
 278:.\Generated_Source\PSoC5/CyFlash.c **** 
 279:.\Generated_Source\PSoC5/CyFlash.c ****         rowSize = (arrayId > CY_SPC_LAST_FLASH_ARRAYID) ? CYDEV_EEPROM_ROW_SIZE : CYDEV_FLS_ROW_SIZ
 280:.\Generated_Source\PSoC5/CyFlash.c ****         status = CyWriteRowFull(arrayId, rowAddress, rowData, rowSize);
 281:.\Generated_Source\PSoC5/CyFlash.c **** 
ARM GAS  C:\Users\Robert\AppData\Local\Temp\cc9sD88Q.s 			page 12


 282:.\Generated_Source\PSoC5/CyFlash.c ****         return(status);
 283:.\Generated_Source\PSoC5/CyFlash.c ****     }
 284:.\Generated_Source\PSoC5/CyFlash.c **** 
 285:.\Generated_Source\PSoC5/CyFlash.c **** #else
 286:.\Generated_Source\PSoC5/CyFlash.c **** 
 287:.\Generated_Source\PSoC5/CyFlash.c ****     /*******************************************************************************
 288:.\Generated_Source\PSoC5/CyFlash.c ****     * Function Name: CyWriteRowData
 289:.\Generated_Source\PSoC5/CyFlash.c ****     ********************************************************************************
 290:.\Generated_Source\PSoC5/CyFlash.c ****     *
 291:.\Generated_Source\PSoC5/CyFlash.c ****     * Summary:
 292:.\Generated_Source\PSoC5/CyFlash.c ****     *   Sends a command to the SPC to load and program a row of data in
 293:.\Generated_Source\PSoC5/CyFlash.c ****     *   Flash or EEPROM.
 294:.\Generated_Source\PSoC5/CyFlash.c ****     *
 295:.\Generated_Source\PSoC5/CyFlash.c ****     * Parameters:
 296:.\Generated_Source\PSoC5/CyFlash.c ****     *  arrayID      : ID of the array to write.
 297:.\Generated_Source\PSoC5/CyFlash.c ****     *   The type of write, Flash or EEPROM, is determined from the array ID.
 298:.\Generated_Source\PSoC5/CyFlash.c ****     *   The arrays in the part are sequential starting at the first ID for the
 299:.\Generated_Source\PSoC5/CyFlash.c ****     *   specific memory type. The array ID for the Flash memory lasts from 0x00 to
 300:.\Generated_Source\PSoC5/CyFlash.c ****     *   0x3F and for the EEPROM memory it lasts from 0x40 to 0x7F.
 301:.\Generated_Source\PSoC5/CyFlash.c ****     *  rowAddress   : rowAddress of flash row to program.
 302:.\Generated_Source\PSoC5/CyFlash.c ****     *  rowData      : Array of bytes to write.
 303:.\Generated_Source\PSoC5/CyFlash.c ****     *
 304:.\Generated_Source\PSoC5/CyFlash.c ****     * Return:
 305:.\Generated_Source\PSoC5/CyFlash.c ****     *  status:
 306:.\Generated_Source\PSoC5/CyFlash.c ****     *   CYRET_SUCCESS if successful.
 307:.\Generated_Source\PSoC5/CyFlash.c ****     *   CYRET_LOCKED if the SPC is already in use.
 308:.\Generated_Source\PSoC5/CyFlash.c ****     *   CYRET_CANCELED if command not accepted
 309:.\Generated_Source\PSoC5/CyFlash.c ****     *   CYRET_UNKNOWN if there was an SPC error.
 310:.\Generated_Source\PSoC5/CyFlash.c ****     *
 311:.\Generated_Source\PSoC5/CyFlash.c ****     *******************************************************************************/
 312:.\Generated_Source\PSoC5/CyFlash.c ****     cystatus CyWriteRowData(uint8 arrayId, uint16 rowAddress, const uint8 * rowData) 
 313:.\Generated_Source\PSoC5/CyFlash.c ****     {
 346              		.loc 1 313 0
 347              		.cfi_startproc
 348              		@ args = 0, pretend = 0, frame = 24
 349              		@ frame_needed = 1, uses_anonymous_args = 0
 350 0000 80B5     		push	{r7, lr}
 351              	.LCFI13:
 352              		.cfi_def_cfa_offset 8
 353              		.cfi_offset 7, -8
 354              		.cfi_offset 14, -4
 355 0002 86B0     		sub	sp, sp, #24
 356              	.LCFI14:
 357              		.cfi_def_cfa_offset 32
 358 0004 00AF     		add	r7, sp, #0
 359              	.LCFI15:
 360              		.cfi_def_cfa_register 7
 361 0006 0B46     		mov	r3, r1
 362 0008 3A60     		str	r2, [r7, #0]
 363 000a 0246     		mov	r2, r0
 364 000c FA71     		strb	r2, [r7, #7]
 365 000e BB80     		strh	r3, [r7, #4]	@ movhi
 314:.\Generated_Source\PSoC5/CyFlash.c ****         uint8 i;
 315:.\Generated_Source\PSoC5/CyFlash.c ****         uint32 offset;
 316:.\Generated_Source\PSoC5/CyFlash.c ****         uint16 rowSize;
 317:.\Generated_Source\PSoC5/CyFlash.c ****         cystatus status;
 318:.\Generated_Source\PSoC5/CyFlash.c **** 
ARM GAS  C:\Users\Robert\AppData\Local\Temp\cc9sD88Q.s 			page 13


 319:.\Generated_Source\PSoC5/CyFlash.c ****         /* Check whether rowBuffer pointer has been initialized by CySetFlashEEBuffer() */
 320:.\Generated_Source\PSoC5/CyFlash.c ****         if(NULL != rowBuffer)
 366              		.loc 1 320 0
 367 0010 40F20003 		movw	r3, #:lower16:rowBuffer
 368 0014 C0F20003 		movt	r3, #:upper16:rowBuffer
 369 0018 1B68     		ldr	r3, [r3, #0]
 370 001a 002B     		cmp	r3, #0
 371 001c 44D0     		beq	.L21
 321:.\Generated_Source\PSoC5/CyFlash.c ****         {
 322:.\Generated_Source\PSoC5/CyFlash.c ****             if(arrayId > CY_SPC_LAST_FLASH_ARRAYID)
 372              		.loc 1 322 0
 373 001e FB79     		ldrb	r3, [r7, #7]	@ zero_extendqisi2
 374 0020 3F2B     		cmp	r3, #63
 375 0022 03D9     		bls	.L22
 323:.\Generated_Source\PSoC5/CyFlash.c ****             {
 324:.\Generated_Source\PSoC5/CyFlash.c ****                 rowSize = CYDEV_EEPROM_ROW_SIZE;
 376              		.loc 1 324 0
 377 0024 4FF01003 		mov	r3, #16
 378 0028 BB82     		strh	r3, [r7, #20]	@ movhi
 379 002a 26E0     		b	.L23
 380              	.L22:
 325:.\Generated_Source\PSoC5/CyFlash.c ****             }
 326:.\Generated_Source\PSoC5/CyFlash.c ****             else
 327:.\Generated_Source\PSoC5/CyFlash.c ****             {
 328:.\Generated_Source\PSoC5/CyFlash.c ****                 rowSize = CYDEV_FLS_ROW_SIZE + CYDEV_ECC_ROW_SIZE;
 381              		.loc 1 328 0
 382 002c 4FF49073 		mov	r3, #288
 383 0030 BB82     		strh	r3, [r7, #20]	@ movhi
 329:.\Generated_Source\PSoC5/CyFlash.c **** 
 330:.\Generated_Source\PSoC5/CyFlash.c ****                 /* Save ECC area. */
 331:.\Generated_Source\PSoC5/CyFlash.c ****                 offset = CYDEV_ECC_BASE +
 332:.\Generated_Source\PSoC5/CyFlash.c ****                         ((uint32)arrayId * CYDEV_ECC_SECTOR_SIZE) +
 384              		.loc 1 332 0
 385 0032 FB79     		ldrb	r3, [r7, #7]	@ zero_extendqisi2
 386 0034 03F51033 		add	r3, r3, #147456
 387 0038 4FEA0322 		lsl	r2, r3, #8
 333:.\Generated_Source\PSoC5/CyFlash.c ****                         ((uint32)rowAddress * CYDEV_ECC_ROW_SIZE);
 388              		.loc 1 333 0
 389 003c BB88     		ldrh	r3, [r7, #4]
 332:.\Generated_Source\PSoC5/CyFlash.c ****                         ((uint32)arrayId * CYDEV_ECC_SECTOR_SIZE) +
 390              		.loc 1 332 0
 391 003e D318     		adds	r3, r2, r3
 331:.\Generated_Source\PSoC5/CyFlash.c ****                 offset = CYDEV_ECC_BASE +
 392              		.loc 1 331 0
 393 0040 4FEA4313 		lsl	r3, r3, #5
 394 0044 FB60     		str	r3, [r7, #12]
 334:.\Generated_Source\PSoC5/CyFlash.c **** 
 335:.\Generated_Source\PSoC5/CyFlash.c ****                 for(i = 0u; i < CYDEV_ECC_ROW_SIZE; i++)
 395              		.loc 1 335 0
 396 0046 4FF00003 		mov	r3, #0
 397 004a FB75     		strb	r3, [r7, #23]
 398 004c 12E0     		b	.L24
 399              	.L25:
 336:.\Generated_Source\PSoC5/CyFlash.c ****                 {
 337:.\Generated_Source\PSoC5/CyFlash.c ****                     *(rowBuffer + CYDEV_FLS_ROW_SIZE + i) = CY_GET_XTND_REG8((void CYFAR *)(offset 
 400              		.loc 1 337 0 discriminator 2
 401 004e 40F20003 		movw	r3, #:lower16:rowBuffer
ARM GAS  C:\Users\Robert\AppData\Local\Temp\cc9sD88Q.s 			page 14


 402 0052 C0F20003 		movt	r3, #:upper16:rowBuffer
 403 0056 1A68     		ldr	r2, [r3, #0]
 404 0058 FB7D     		ldrb	r3, [r7, #23]	@ zero_extendqisi2
 405 005a 03F58073 		add	r3, r3, #256
 406 005e D318     		adds	r3, r2, r3
 407 0060 F97D     		ldrb	r1, [r7, #23]	@ zero_extendqisi2
 408 0062 FA68     		ldr	r2, [r7, #12]
 409 0064 8A18     		adds	r2, r1, r2
 410 0066 1278     		ldrb	r2, [r2, #0]
 411 0068 D2B2     		uxtb	r2, r2
 412 006a 1A70     		strb	r2, [r3, #0]
 335:.\Generated_Source\PSoC5/CyFlash.c ****                 for(i = 0u; i < CYDEV_ECC_ROW_SIZE; i++)
 413              		.loc 1 335 0 discriminator 2
 414 006c FB7D     		ldrb	r3, [r7, #23]
 415 006e 03F10103 		add	r3, r3, #1
 416 0072 FB75     		strb	r3, [r7, #23]
 417              	.L24:
 335:.\Generated_Source\PSoC5/CyFlash.c ****                 for(i = 0u; i < CYDEV_ECC_ROW_SIZE; i++)
 418              		.loc 1 335 0 is_stmt 0 discriminator 1
 419 0074 FB7D     		ldrb	r3, [r7, #23]	@ zero_extendqisi2
 420 0076 1F2B     		cmp	r3, #31
 421 0078 E9D9     		bls	.L25
 422              	.L23:
 338:.\Generated_Source\PSoC5/CyFlash.c ****                 }
 339:.\Generated_Source\PSoC5/CyFlash.c ****             }
 340:.\Generated_Source\PSoC5/CyFlash.c **** 
 341:.\Generated_Source\PSoC5/CyFlash.c ****             /* Copy rowdata to temporary buffer. */
 342:.\Generated_Source\PSoC5/CyFlash.c ****         #if(CY_PSOC3)
 343:.\Generated_Source\PSoC5/CyFlash.c ****             (void) memcpy((void *) rowBuffer, (void *)((uint32) rowData), (int16) CYDEV_FLS_ROW_SIZ
 344:.\Generated_Source\PSoC5/CyFlash.c ****         #else
 345:.\Generated_Source\PSoC5/CyFlash.c ****             (void) memcpy((void *) rowBuffer, (const void *) rowData, CYDEV_FLS_ROW_SIZE);
 423              		.loc 1 345 0 is_stmt 1
 424 007a 40F20003 		movw	r3, #:lower16:rowBuffer
 425 007e C0F20003 		movt	r3, #:upper16:rowBuffer
 426 0082 1B68     		ldr	r3, [r3, #0]
 427 0084 1846     		mov	r0, r3
 428 0086 3968     		ldr	r1, [r7, #0]
 429 0088 4FF48072 		mov	r2, #256
 430 008c FFF7FEFF 		bl	memcpy
 346:.\Generated_Source\PSoC5/CyFlash.c ****         #endif  /* (CY_PSOC3) */
 347:.\Generated_Source\PSoC5/CyFlash.c **** 
 348:.\Generated_Source\PSoC5/CyFlash.c ****             status = CyWriteRowFull(arrayId, rowAddress, rowBuffer, rowSize);
 431              		.loc 1 348 0
 432 0090 40F20003 		movw	r3, #:lower16:rowBuffer
 433 0094 C0F20003 		movt	r3, #:upper16:rowBuffer
 434 0098 1A68     		ldr	r2, [r3, #0]
 435 009a F879     		ldrb	r0, [r7, #7]	@ zero_extendqisi2
 436 009c B988     		ldrh	r1, [r7, #4]
 437 009e BB8A     		ldrh	r3, [r7, #20]
 438 00a0 FFF7FEFF 		bl	CyWriteRowFull
 439 00a4 3861     		str	r0, [r7, #16]
 440 00a6 02E0     		b	.L26
 441              	.L21:
 349:.\Generated_Source\PSoC5/CyFlash.c ****         }
 350:.\Generated_Source\PSoC5/CyFlash.c ****         else
 351:.\Generated_Source\PSoC5/CyFlash.c ****         {
 352:.\Generated_Source\PSoC5/CyFlash.c ****             status = CYRET_UNKNOWN;
ARM GAS  C:\Users\Robert\AppData\Local\Temp\cc9sD88Q.s 			page 15


 442              		.loc 1 352 0
 443 00a8 4FF0FF33 		mov	r3, #-1
 444 00ac 3B61     		str	r3, [r7, #16]
 445              	.L26:
 353:.\Generated_Source\PSoC5/CyFlash.c ****         }
 354:.\Generated_Source\PSoC5/CyFlash.c **** 
 355:.\Generated_Source\PSoC5/CyFlash.c ****         return(status);
 446              		.loc 1 355 0
 447 00ae 3B69     		ldr	r3, [r7, #16]
 356:.\Generated_Source\PSoC5/CyFlash.c ****     }
 448              		.loc 1 356 0
 449 00b0 1846     		mov	r0, r3
 450 00b2 07F11807 		add	r7, r7, #24
 451 00b6 BD46     		mov	sp, r7
 452 00b8 80BD     		pop	{r7, pc}
 453              		.cfi_endproc
 454              	.LFE5:
 455              		.size	CyWriteRowData, .-CyWriteRowData
 456 00ba 00BF     		.section	.text.CyWriteRowFull,"ax",%progbits
 457              		.align	2
 458              		.global	CyWriteRowFull
 459              		.thumb
 460              		.thumb_func
 461              		.type	CyWriteRowFull, %function
 462              	CyWriteRowFull:
 463              	.LFB6:
 357:.\Generated_Source\PSoC5/CyFlash.c **** 
 358:.\Generated_Source\PSoC5/CyFlash.c **** #endif /* (CYDEV_ECC_ENABLE == 0u) */
 359:.\Generated_Source\PSoC5/CyFlash.c **** 
 360:.\Generated_Source\PSoC5/CyFlash.c **** 
 361:.\Generated_Source\PSoC5/CyFlash.c **** #if ((CYDEV_ECC_ENABLE == 0u) && (CYDEV_CONFIGURATION_ECC == 0u))
 362:.\Generated_Source\PSoC5/CyFlash.c **** 
 363:.\Generated_Source\PSoC5/CyFlash.c ****     /*******************************************************************************
 364:.\Generated_Source\PSoC5/CyFlash.c ****     * Function Name: CyWriteRowConfig
 365:.\Generated_Source\PSoC5/CyFlash.c ****     ********************************************************************************
 366:.\Generated_Source\PSoC5/CyFlash.c ****     *
 367:.\Generated_Source\PSoC5/CyFlash.c ****     * Summary:
 368:.\Generated_Source\PSoC5/CyFlash.c ****     *  Sends a command to the SPC to load and program a row of config data in the Flash.
 369:.\Generated_Source\PSoC5/CyFlash.c ****     *  This function is only valid for Flash array IDs (not for EEPROM).
 370:.\Generated_Source\PSoC5/CyFlash.c ****     *
 371:.\Generated_Source\PSoC5/CyFlash.c ****     * Parameters:
 372:.\Generated_Source\PSoC5/CyFlash.c ****     *  arrayId:      ID of the array to write
 373:.\Generated_Source\PSoC5/CyFlash.c ****     *   The arrays in the part are sequential starting at the first ID for the
 374:.\Generated_Source\PSoC5/CyFlash.c ****     *   specific memory type. The array ID for the Flash memory lasts
 375:.\Generated_Source\PSoC5/CyFlash.c ****     *   from 0x00 to 0x3F.
 376:.\Generated_Source\PSoC5/CyFlash.c ****     *  rowAddress:   The address of the sector to erase.
 377:.\Generated_Source\PSoC5/CyFlash.c ****     *  rowECC:       The array of bytes to write.
 378:.\Generated_Source\PSoC5/CyFlash.c ****     *
 379:.\Generated_Source\PSoC5/CyFlash.c ****     * Return:
 380:.\Generated_Source\PSoC5/CyFlash.c ****     *  status:
 381:.\Generated_Source\PSoC5/CyFlash.c ****     *   CYRET_SUCCESS if successful.
 382:.\Generated_Source\PSoC5/CyFlash.c ****     *   CYRET_LOCKED if the SPC is already in use.
 383:.\Generated_Source\PSoC5/CyFlash.c ****     *   CYRET_CANCELED if command not accepted
 384:.\Generated_Source\PSoC5/CyFlash.c ****     *   CYRET_UNKNOWN if there was an SPC error.
 385:.\Generated_Source\PSoC5/CyFlash.c ****     *
 386:.\Generated_Source\PSoC5/CyFlash.c ****     *******************************************************************************/
 387:.\Generated_Source\PSoC5/CyFlash.c ****     cystatus CyWriteRowConfig(uint8 arrayId, uint16 rowAddress, const uint8 * rowECC)\
ARM GAS  C:\Users\Robert\AppData\Local\Temp\cc9sD88Q.s 			page 16


 388:.\Generated_Source\PSoC5/CyFlash.c ****     
 389:.\Generated_Source\PSoC5/CyFlash.c ****     {
 390:.\Generated_Source\PSoC5/CyFlash.c ****         uint32 offset;
 391:.\Generated_Source\PSoC5/CyFlash.c ****         uint16 i;
 392:.\Generated_Source\PSoC5/CyFlash.c ****         cystatus status;
 393:.\Generated_Source\PSoC5/CyFlash.c **** 
 394:.\Generated_Source\PSoC5/CyFlash.c ****         /* Check whether rowBuffer pointer has been initialized by CySetFlashEEBuffer() */
 395:.\Generated_Source\PSoC5/CyFlash.c ****         if(NULL != rowBuffer)
 396:.\Generated_Source\PSoC5/CyFlash.c ****         {
 397:.\Generated_Source\PSoC5/CyFlash.c ****             /* Read existing flash data. */
 398:.\Generated_Source\PSoC5/CyFlash.c ****             offset = ((uint32)arrayId * CYDEV_FLS_SECTOR_SIZE) +
 399:.\Generated_Source\PSoC5/CyFlash.c ****                      ((uint32)rowAddress * CYDEV_FLS_ROW_SIZE);
 400:.\Generated_Source\PSoC5/CyFlash.c **** 
 401:.\Generated_Source\PSoC5/CyFlash.c ****             #if (CYDEV_FLS_BASE != 0u)
 402:.\Generated_Source\PSoC5/CyFlash.c ****                 offset += CYDEV_FLS_BASE;
 403:.\Generated_Source\PSoC5/CyFlash.c ****             #endif  /* (CYDEV_FLS_BASE != 0u) */
 404:.\Generated_Source\PSoC5/CyFlash.c **** 
 405:.\Generated_Source\PSoC5/CyFlash.c ****             for (i = 0u; i < CYDEV_FLS_ROW_SIZE; i++)
 406:.\Generated_Source\PSoC5/CyFlash.c ****             {
 407:.\Generated_Source\PSoC5/CyFlash.c ****                 rowBuffer[i] = CY_GET_XTND_REG8((void CYFAR *)(offset + i));
 408:.\Generated_Source\PSoC5/CyFlash.c ****             }
 409:.\Generated_Source\PSoC5/CyFlash.c **** 
 410:.\Generated_Source\PSoC5/CyFlash.c ****             #if(CY_PSOC3)
 411:.\Generated_Source\PSoC5/CyFlash.c ****                 (void) memcpy((void *)&rowBuffer[CYDEV_FLS_ROW_SIZE],
 412:.\Generated_Source\PSoC5/CyFlash.c ****                               (void *)(uint32)rowECC,
 413:.\Generated_Source\PSoC5/CyFlash.c ****                               (int16)CYDEV_ECC_ROW_SIZE);
 414:.\Generated_Source\PSoC5/CyFlash.c ****             #else
 415:.\Generated_Source\PSoC5/CyFlash.c ****                 (void) memcpy((void *)&rowBuffer[CYDEV_FLS_ROW_SIZE],
 416:.\Generated_Source\PSoC5/CyFlash.c ****                               (const void *)rowECC,
 417:.\Generated_Source\PSoC5/CyFlash.c ****                               CYDEV_ECC_ROW_SIZE);
 418:.\Generated_Source\PSoC5/CyFlash.c ****             #endif  /* (CY_PSOC3) */
 419:.\Generated_Source\PSoC5/CyFlash.c **** 
 420:.\Generated_Source\PSoC5/CyFlash.c ****             status = CyWriteRowFull(arrayId, rowAddress, rowBuffer, CYDEV_FLS_ROW_SIZE + CYDEV_ECC_
 421:.\Generated_Source\PSoC5/CyFlash.c ****         }
 422:.\Generated_Source\PSoC5/CyFlash.c ****         else
 423:.\Generated_Source\PSoC5/CyFlash.c ****         {
 424:.\Generated_Source\PSoC5/CyFlash.c ****             status = CYRET_UNKNOWN;
 425:.\Generated_Source\PSoC5/CyFlash.c ****         }
 426:.\Generated_Source\PSoC5/CyFlash.c **** 
 427:.\Generated_Source\PSoC5/CyFlash.c ****         return (status);
 428:.\Generated_Source\PSoC5/CyFlash.c ****     }
 429:.\Generated_Source\PSoC5/CyFlash.c **** 
 430:.\Generated_Source\PSoC5/CyFlash.c **** #endif  /* ((CYDEV_ECC_ENABLE == 0u) && (CYDEV_CONFIGURATION_ECC == 0u)) */
 431:.\Generated_Source\PSoC5/CyFlash.c **** 
 432:.\Generated_Source\PSoC5/CyFlash.c **** 
 433:.\Generated_Source\PSoC5/CyFlash.c **** 
 434:.\Generated_Source\PSoC5/CyFlash.c **** /*******************************************************************************
 435:.\Generated_Source\PSoC5/CyFlash.c **** * Function Name: CyWriteRowFull
 436:.\Generated_Source\PSoC5/CyFlash.c **** ********************************************************************************
 437:.\Generated_Source\PSoC5/CyFlash.c **** * Summary:
 438:.\Generated_Source\PSoC5/CyFlash.c **** *  Sends a command to the SPC to load and program a row of data in the Flash.
 439:.\Generated_Source\PSoC5/CyFlash.c **** *  rowData array is expected to contain Flash and ECC data if needed.
 440:.\Generated_Source\PSoC5/CyFlash.c **** *
 441:.\Generated_Source\PSoC5/CyFlash.c **** * Parameters:
 442:.\Generated_Source\PSoC5/CyFlash.c **** *  arrayId:    FLASH or EEPROM array id.
 443:.\Generated_Source\PSoC5/CyFlash.c **** *  rowData:    Pointer to a row of data to write.
 444:.\Generated_Source\PSoC5/CyFlash.c **** *  rowNumber:  Zero based number of the row.
ARM GAS  C:\Users\Robert\AppData\Local\Temp\cc9sD88Q.s 			page 17


 445:.\Generated_Source\PSoC5/CyFlash.c **** *  rowSize:    Size of the row.
 446:.\Generated_Source\PSoC5/CyFlash.c **** *
 447:.\Generated_Source\PSoC5/CyFlash.c **** * Return:
 448:.\Generated_Source\PSoC5/CyFlash.c **** *  CYRET_SUCCESS if successful.
 449:.\Generated_Source\PSoC5/CyFlash.c **** *  CYRET_LOCKED if the SPC is already in use.
 450:.\Generated_Source\PSoC5/CyFlash.c **** *  CYRET_CANCELED if command not accepted
 451:.\Generated_Source\PSoC5/CyFlash.c **** *  CYRET_UNKNOWN if there was an SPC error.
 452:.\Generated_Source\PSoC5/CyFlash.c **** *
 453:.\Generated_Source\PSoC5/CyFlash.c **** *******************************************************************************/
 454:.\Generated_Source\PSoC5/CyFlash.c **** cystatus CyWriteRowFull(uint8 arrayId, uint16 rowNumber, const uint8* rowData, uint16 rowSize) \
 455:.\Generated_Source\PSoC5/CyFlash.c ****         
 456:.\Generated_Source\PSoC5/CyFlash.c **** {
 464              		.loc 1 456 0
 465              		.cfi_startproc
 466              		@ args = 0, pretend = 0, frame = 24
 467              		@ frame_needed = 1, uses_anonymous_args = 0
 468 0000 80B5     		push	{r7, lr}
 469              	.LCFI16:
 470              		.cfi_def_cfa_offset 8
 471              		.cfi_offset 7, -8
 472              		.cfi_offset 14, -4
 473 0002 86B0     		sub	sp, sp, #24
 474              	.LCFI17:
 475              		.cfi_def_cfa_offset 32
 476 0004 00AF     		add	r7, sp, #0
 477              	.LCFI18:
 478              		.cfi_def_cfa_register 7
 479 0006 BA60     		str	r2, [r7, #8]
 480 0008 0246     		mov	r2, r0
 481 000a FA73     		strb	r2, [r7, #15]
 482 000c 0A46     		mov	r2, r1	@ movhi
 483 000e BA81     		strh	r2, [r7, #12]	@ movhi
 484 0010 FB80     		strh	r3, [r7, #6]	@ movhi
 457:.\Generated_Source\PSoC5/CyFlash.c ****     cystatus status;
 458:.\Generated_Source\PSoC5/CyFlash.c **** 
 459:.\Generated_Source\PSoC5/CyFlash.c ****     if(CySpcLock() == CYRET_SUCCESS)
 485              		.loc 1 459 0
 486 0012 FFF7FEFF 		bl	CySpcLock
 487 0016 0346     		mov	r3, r0
 488 0018 002B     		cmp	r3, #0
 489 001a 78D1     		bne	.L29
 460:.\Generated_Source\PSoC5/CyFlash.c ****     {
 461:.\Generated_Source\PSoC5/CyFlash.c ****         /* Load row data into SPC internal latch */
 462:.\Generated_Source\PSoC5/CyFlash.c ****         status = CySpcLoadRow(arrayId, rowData, rowSize);
 490              		.loc 1 462 0
 491 001c FA7B     		ldrb	r2, [r7, #15]	@ zero_extendqisi2
 492 001e FB88     		ldrh	r3, [r7, #6]
 493 0020 1046     		mov	r0, r2
 494 0022 B968     		ldr	r1, [r7, #8]
 495 0024 1A46     		mov	r2, r3
 496 0026 FFF7FEFF 		bl	CySpcLoadRow
 497 002a 7861     		str	r0, [r7, #20]
 463:.\Generated_Source\PSoC5/CyFlash.c **** 
 464:.\Generated_Source\PSoC5/CyFlash.c ****         if(CYRET_STARTED == status)
 498              		.loc 1 464 0
 499 002c 7B69     		ldr	r3, [r7, #20]
 500 002e 072B     		cmp	r3, #7
ARM GAS  C:\Users\Robert\AppData\Local\Temp\cc9sD88Q.s 			page 18


 501 0030 6AD1     		bne	.L30
 465:.\Generated_Source\PSoC5/CyFlash.c ****         {
 466:.\Generated_Source\PSoC5/CyFlash.c ****             while(CY_SPC_BUSY)
 502              		.loc 1 466 0
 503 0032 03E0     		b	.L31
 504              	.L32:
 467:.\Generated_Source\PSoC5/CyFlash.c ****             {
 468:.\Generated_Source\PSoC5/CyFlash.c ****                 /* Wait for SPC to finish and get SPC status */
 469:.\Generated_Source\PSoC5/CyFlash.c ****                 CyDelayUs(1u);
 505              		.loc 1 469 0
 506 0034 4FF00100 		mov	r0, #1
 507 0038 FFF7FEFF 		bl	CyDelayUs
 508              	.L31:
 466:.\Generated_Source\PSoC5/CyFlash.c ****             while(CY_SPC_BUSY)
 509              		.loc 1 466 0 discriminator 1
 510 003c 44F22273 		movw	r3, #18210
 511 0040 C4F20003 		movt	r3, 16384
 512 0044 1B78     		ldrb	r3, [r3, #0]
 513 0046 DBB2     		uxtb	r3, r3
 514 0048 03F00203 		and	r3, r3, #2
 515 004c 002B     		cmp	r3, #0
 516 004e F1D0     		beq	.L32
 470:.\Generated_Source\PSoC5/CyFlash.c ****             }
 471:.\Generated_Source\PSoC5/CyFlash.c **** 
 472:.\Generated_Source\PSoC5/CyFlash.c ****             /* Hide SPC status */
 473:.\Generated_Source\PSoC5/CyFlash.c ****             if(CY_SPC_STATUS_SUCCESS == CY_SPC_READ_STATUS)
 517              		.loc 1 473 0
 518 0050 44F22273 		movw	r3, #18210
 519 0054 C4F20003 		movt	r3, 16384
 520 0058 1B78     		ldrb	r3, [r3, #0]
 521 005a DBB2     		uxtb	r3, r3
 522 005c 03F00203 		and	r3, r3, #2
 523 0060 002B     		cmp	r3, #0
 524 0062 0ED0     		beq	.L33
 525              		.loc 1 473 0 is_stmt 0 discriminator 1
 526 0064 44F22273 		movw	r3, #18210
 527 0068 C4F20003 		movt	r3, 16384
 528 006c 1B78     		ldrb	r3, [r3, #0]
 529 006e DBB2     		uxtb	r3, r3
 530 0070 4FEA9303 		lsr	r3, r3, #2
 531 0074 DBB2     		uxtb	r3, r3
 532 0076 002B     		cmp	r3, #0
 533 0078 03D1     		bne	.L33
 474:.\Generated_Source\PSoC5/CyFlash.c ****             {
 475:.\Generated_Source\PSoC5/CyFlash.c ****                 status = CYRET_SUCCESS;
 534              		.loc 1 475 0 is_stmt 1
 535 007a 4FF00003 		mov	r3, #0
 536 007e 7B61     		str	r3, [r7, #20]
 537 0080 02E0     		b	.L34
 538              	.L33:
 476:.\Generated_Source\PSoC5/CyFlash.c ****             }
 477:.\Generated_Source\PSoC5/CyFlash.c ****             else
 478:.\Generated_Source\PSoC5/CyFlash.c ****             {
 479:.\Generated_Source\PSoC5/CyFlash.c ****                 status = CYRET_UNKNOWN;
 539              		.loc 1 479 0
 540 0082 4FF0FF33 		mov	r3, #-1
 541 0086 7B61     		str	r3, [r7, #20]
ARM GAS  C:\Users\Robert\AppData\Local\Temp\cc9sD88Q.s 			page 19


 542              	.L34:
 480:.\Generated_Source\PSoC5/CyFlash.c ****             }
 481:.\Generated_Source\PSoC5/CyFlash.c **** 
 482:.\Generated_Source\PSoC5/CyFlash.c ****             if(CYRET_SUCCESS == status)
 543              		.loc 1 482 0
 544 0088 7B69     		ldr	r3, [r7, #20]
 545 008a 002B     		cmp	r3, #0
 546 008c 3CD1     		bne	.L30
 483:.\Generated_Source\PSoC5/CyFlash.c ****             {
 484:.\Generated_Source\PSoC5/CyFlash.c ****                 /* Erase and program flash with data from SPC interval latch */
 485:.\Generated_Source\PSoC5/CyFlash.c ****                 status = CySpcWriteRow(arrayId, rowNumber, dieTemperature[0u], dieTemperature[1u]);
 547              		.loc 1 485 0
 548 008e 40F20003 		movw	r3, #:lower16:dieTemperature
 549 0092 C0F20003 		movt	r3, #:upper16:dieTemperature
 550 0096 1A78     		ldrb	r2, [r3, #0]	@ zero_extendqisi2
 551 0098 40F20003 		movw	r3, #:lower16:dieTemperature
 552 009c C0F20003 		movt	r3, #:upper16:dieTemperature
 553 00a0 5B78     		ldrb	r3, [r3, #1]	@ zero_extendqisi2
 554 00a2 F87B     		ldrb	r0, [r7, #15]	@ zero_extendqisi2
 555 00a4 B989     		ldrh	r1, [r7, #12]
 556 00a6 FFF7FEFF 		bl	CySpcWriteRow
 557 00aa 7861     		str	r0, [r7, #20]
 486:.\Generated_Source\PSoC5/CyFlash.c **** 
 487:.\Generated_Source\PSoC5/CyFlash.c ****                 if(CYRET_STARTED == status)
 558              		.loc 1 487 0
 559 00ac 7B69     		ldr	r3, [r7, #20]
 560 00ae 072B     		cmp	r3, #7
 561 00b0 2AD1     		bne	.L30
 488:.\Generated_Source\PSoC5/CyFlash.c ****                 {
 489:.\Generated_Source\PSoC5/CyFlash.c ****                     while(CY_SPC_BUSY)
 562              		.loc 1 489 0
 563 00b2 03E0     		b	.L35
 564              	.L36:
 490:.\Generated_Source\PSoC5/CyFlash.c ****                     {
 491:.\Generated_Source\PSoC5/CyFlash.c ****                         /* Wait for SPC to finish and get SPC status */
 492:.\Generated_Source\PSoC5/CyFlash.c ****                         CyDelayUs(1u);
 565              		.loc 1 492 0
 566 00b4 4FF00100 		mov	r0, #1
 567 00b8 FFF7FEFF 		bl	CyDelayUs
 568              	.L35:
 489:.\Generated_Source\PSoC5/CyFlash.c ****                     while(CY_SPC_BUSY)
 569              		.loc 1 489 0 discriminator 1
 570 00bc 44F22273 		movw	r3, #18210
 571 00c0 C4F20003 		movt	r3, 16384
 572 00c4 1B78     		ldrb	r3, [r3, #0]
 573 00c6 DBB2     		uxtb	r3, r3
 574 00c8 03F00203 		and	r3, r3, #2
 575 00cc 002B     		cmp	r3, #0
 576 00ce F1D0     		beq	.L36
 493:.\Generated_Source\PSoC5/CyFlash.c ****                     }
 494:.\Generated_Source\PSoC5/CyFlash.c **** 
 495:.\Generated_Source\PSoC5/CyFlash.c ****                     /* Hide SPC status */
 496:.\Generated_Source\PSoC5/CyFlash.c ****                     if(CY_SPC_STATUS_SUCCESS == CY_SPC_READ_STATUS)
 577              		.loc 1 496 0
 578 00d0 44F22273 		movw	r3, #18210
 579 00d4 C4F20003 		movt	r3, 16384
 580 00d8 1B78     		ldrb	r3, [r3, #0]
ARM GAS  C:\Users\Robert\AppData\Local\Temp\cc9sD88Q.s 			page 20


 581 00da DBB2     		uxtb	r3, r3
 582 00dc 03F00203 		and	r3, r3, #2
 583 00e0 002B     		cmp	r3, #0
 584 00e2 0ED0     		beq	.L37
 585              		.loc 1 496 0 is_stmt 0 discriminator 1
 586 00e4 44F22273 		movw	r3, #18210
 587 00e8 C4F20003 		movt	r3, 16384
 588 00ec 1B78     		ldrb	r3, [r3, #0]
 589 00ee DBB2     		uxtb	r3, r3
 590 00f0 4FEA9303 		lsr	r3, r3, #2
 591 00f4 DBB2     		uxtb	r3, r3
 592 00f6 002B     		cmp	r3, #0
 593 00f8 03D1     		bne	.L37
 497:.\Generated_Source\PSoC5/CyFlash.c ****                     {
 498:.\Generated_Source\PSoC5/CyFlash.c ****                         status = CYRET_SUCCESS;
 594              		.loc 1 498 0 is_stmt 1
 595 00fa 4FF00003 		mov	r3, #0
 596 00fe 7B61     		str	r3, [r7, #20]
 597 0100 02E0     		b	.L30
 598              	.L37:
 499:.\Generated_Source\PSoC5/CyFlash.c ****                     }
 500:.\Generated_Source\PSoC5/CyFlash.c ****                     else
 501:.\Generated_Source\PSoC5/CyFlash.c ****                     {
 502:.\Generated_Source\PSoC5/CyFlash.c ****                         status = CYRET_UNKNOWN;
 599              		.loc 1 502 0
 600 0102 4FF0FF33 		mov	r3, #-1
 601 0106 7B61     		str	r3, [r7, #20]
 602              	.L30:
 503:.\Generated_Source\PSoC5/CyFlash.c ****                     }
 504:.\Generated_Source\PSoC5/CyFlash.c ****                 }
 505:.\Generated_Source\PSoC5/CyFlash.c ****             }
 506:.\Generated_Source\PSoC5/CyFlash.c **** 
 507:.\Generated_Source\PSoC5/CyFlash.c ****         }
 508:.\Generated_Source\PSoC5/CyFlash.c **** 
 509:.\Generated_Source\PSoC5/CyFlash.c ****         CySpcUnlock();
 603              		.loc 1 509 0
 604 0108 FFF7FEFF 		bl	CySpcUnlock
 605 010c 02E0     		b	.L38
 606              	.L29:
 510:.\Generated_Source\PSoC5/CyFlash.c ****     }
 511:.\Generated_Source\PSoC5/CyFlash.c ****     else
 512:.\Generated_Source\PSoC5/CyFlash.c ****     {
 513:.\Generated_Source\PSoC5/CyFlash.c ****         status = CYRET_LOCKED;
 607              		.loc 1 513 0
 608 010e 4FF00403 		mov	r3, #4
 609 0112 7B61     		str	r3, [r7, #20]
 610              	.L38:
 514:.\Generated_Source\PSoC5/CyFlash.c ****     }
 515:.\Generated_Source\PSoC5/CyFlash.c **** 
 516:.\Generated_Source\PSoC5/CyFlash.c ****     return(status);
 611              		.loc 1 516 0
 612 0114 7B69     		ldr	r3, [r7, #20]
 517:.\Generated_Source\PSoC5/CyFlash.c **** }
 613              		.loc 1 517 0
 614 0116 1846     		mov	r0, r3
 615 0118 07F11807 		add	r7, r7, #24
 616 011c BD46     		mov	sp, r7
ARM GAS  C:\Users\Robert\AppData\Local\Temp\cc9sD88Q.s 			page 21


 617 011e 80BD     		pop	{r7, pc}
 618              		.cfi_endproc
 619              	.LFE6:
 620              		.size	CyWriteRowFull, .-CyWriteRowFull
 621              		.section	.text.CyFlash_SetWaitCycles,"ax",%progbits
 622              		.align	2
 623              		.global	CyFlash_SetWaitCycles
 624              		.thumb
 625              		.thumb_func
 626              		.type	CyFlash_SetWaitCycles, %function
 627              	CyFlash_SetWaitCycles:
 628              	.LFB7:
 518:.\Generated_Source\PSoC5/CyFlash.c **** 
 519:.\Generated_Source\PSoC5/CyFlash.c **** 
 520:.\Generated_Source\PSoC5/CyFlash.c **** /*******************************************************************************
 521:.\Generated_Source\PSoC5/CyFlash.c **** * Function Name: CyFlash_SetWaitCycles
 522:.\Generated_Source\PSoC5/CyFlash.c **** ********************************************************************************
 523:.\Generated_Source\PSoC5/CyFlash.c **** *
 524:.\Generated_Source\PSoC5/CyFlash.c **** * Summary:
 525:.\Generated_Source\PSoC5/CyFlash.c **** *  Sets the number of clock cycles the cache will wait before it samples data
 526:.\Generated_Source\PSoC5/CyFlash.c **** *  coming back from the Flash. This function must be called before increasing the CPU
 527:.\Generated_Source\PSoC5/CyFlash.c **** *  clock frequency. It can optionally be called after lowering the CPU clock
 528:.\Generated_Source\PSoC5/CyFlash.c **** *  frequency in order to improve the CPU performance.
 529:.\Generated_Source\PSoC5/CyFlash.c **** *
 530:.\Generated_Source\PSoC5/CyFlash.c **** * Parameters:
 531:.\Generated_Source\PSoC5/CyFlash.c **** *  uint8 freq:
 532:.\Generated_Source\PSoC5/CyFlash.c **** *   Frequency of operation in Megahertz.
 533:.\Generated_Source\PSoC5/CyFlash.c **** *
 534:.\Generated_Source\PSoC5/CyFlash.c **** * Return:
 535:.\Generated_Source\PSoC5/CyFlash.c **** *  None
 536:.\Generated_Source\PSoC5/CyFlash.c **** *
 537:.\Generated_Source\PSoC5/CyFlash.c **** *******************************************************************************/
 538:.\Generated_Source\PSoC5/CyFlash.c **** void CyFlash_SetWaitCycles(uint8 freq) 
 539:.\Generated_Source\PSoC5/CyFlash.c **** {
 629              		.loc 1 539 0
 630              		.cfi_startproc
 631              		@ args = 0, pretend = 0, frame = 16
 632              		@ frame_needed = 1, uses_anonymous_args = 0
 633 0000 80B5     		push	{r7, lr}
 634              	.LCFI19:
 635              		.cfi_def_cfa_offset 8
 636              		.cfi_offset 7, -8
 637              		.cfi_offset 14, -4
 638 0002 84B0     		sub	sp, sp, #16
 639              	.LCFI20:
 640              		.cfi_def_cfa_offset 24
 641 0004 00AF     		add	r7, sp, #0
 642              	.LCFI21:
 643              		.cfi_def_cfa_register 7
 644 0006 0346     		mov	r3, r0
 645 0008 FB71     		strb	r3, [r7, #7]
 540:.\Generated_Source\PSoC5/CyFlash.c ****     uint8 interruptState;
 541:.\Generated_Source\PSoC5/CyFlash.c **** 
 542:.\Generated_Source\PSoC5/CyFlash.c ****     /* Save current global interrupt enable and disable it */
 543:.\Generated_Source\PSoC5/CyFlash.c ****     interruptState = CyEnterCriticalSection();
 646              		.loc 1 543 0
 647 000a FFF7FEFF 		bl	CyEnterCriticalSection
ARM GAS  C:\Users\Robert\AppData\Local\Temp\cc9sD88Q.s 			page 22


 648 000e 0346     		mov	r3, r0
 649 0010 FB73     		strb	r3, [r7, #15]
 544:.\Generated_Source\PSoC5/CyFlash.c **** 
 545:.\Generated_Source\PSoC5/CyFlash.c ****     /***************************************************************************
 546:.\Generated_Source\PSoC5/CyFlash.c ****     * The number of clock cycles the cache will wait before it samples data
 547:.\Generated_Source\PSoC5/CyFlash.c ****     * coming back from the Flash must be equal or greater to to the CPU frequency
 548:.\Generated_Source\PSoC5/CyFlash.c ****     * outlined in clock cycles.
 549:.\Generated_Source\PSoC5/CyFlash.c ****     ***************************************************************************/
 550:.\Generated_Source\PSoC5/CyFlash.c **** 
 551:.\Generated_Source\PSoC5/CyFlash.c ****     #if (CY_PSOC3)
 552:.\Generated_Source\PSoC5/CyFlash.c **** 
 553:.\Generated_Source\PSoC5/CyFlash.c ****         if (freq <= 22u)
 554:.\Generated_Source\PSoC5/CyFlash.c ****         {
 555:.\Generated_Source\PSoC5/CyFlash.c ****             *CY_FLASH_CONTROL_PTR = ((*CY_FLASH_CONTROL_PTR & ((uint8)(~CY_FLASH_CYCLES_MASK))) |
 556:.\Generated_Source\PSoC5/CyFlash.c ****                 ((uint8)(CY_FLASH_LESSER_OR_EQUAL_22MHz << CY_FLASH_CYCLES_MASK_SHIFT)));
 557:.\Generated_Source\PSoC5/CyFlash.c ****         }
 558:.\Generated_Source\PSoC5/CyFlash.c ****         else if (freq <= 44u)
 559:.\Generated_Source\PSoC5/CyFlash.c ****         {
 560:.\Generated_Source\PSoC5/CyFlash.c ****             *CY_FLASH_CONTROL_PTR = ((*CY_FLASH_CONTROL_PTR & ((uint8)(~CY_FLASH_CYCLES_MASK))) |
 561:.\Generated_Source\PSoC5/CyFlash.c ****                 ((uint8)(CY_FLASH_LESSER_OR_EQUAL_44MHz << CY_FLASH_CYCLES_MASK_SHIFT)));
 562:.\Generated_Source\PSoC5/CyFlash.c ****         }
 563:.\Generated_Source\PSoC5/CyFlash.c ****         else
 564:.\Generated_Source\PSoC5/CyFlash.c ****         {
 565:.\Generated_Source\PSoC5/CyFlash.c ****             *CY_FLASH_CONTROL_PTR = ((*CY_FLASH_CONTROL_PTR & ((uint8)(~CY_FLASH_CYCLES_MASK))) |
 566:.\Generated_Source\PSoC5/CyFlash.c ****                 ((uint8)(CY_FLASH_GREATER_44MHz << CY_FLASH_CYCLES_MASK_SHIFT)));
 567:.\Generated_Source\PSoC5/CyFlash.c ****         }
 568:.\Generated_Source\PSoC5/CyFlash.c **** 
 569:.\Generated_Source\PSoC5/CyFlash.c ****     #endif  /* (CY_PSOC3) */
 570:.\Generated_Source\PSoC5/CyFlash.c **** 
 571:.\Generated_Source\PSoC5/CyFlash.c **** 
 572:.\Generated_Source\PSoC5/CyFlash.c ****     #if (CY_PSOC5)
 573:.\Generated_Source\PSoC5/CyFlash.c **** 
 574:.\Generated_Source\PSoC5/CyFlash.c ****         if (freq <= 16u)
 650              		.loc 1 574 0
 651 0012 FB79     		ldrb	r3, [r7, #7]	@ zero_extendqisi2
 652 0014 102B     		cmp	r3, #16
 653 0016 13D8     		bhi	.L41
 575:.\Generated_Source\PSoC5/CyFlash.c ****         {
 576:.\Generated_Source\PSoC5/CyFlash.c ****             *CY_FLASH_CONTROL_PTR = ((*CY_FLASH_CONTROL_PTR & ((uint8)(~CY_FLASH_CYCLES_MASK))) |
 654              		.loc 1 576 0
 655 0018 4FF49043 		mov	r3, #18432
 656 001c C4F20003 		movt	r3, 16384
 657 0020 4FF49042 		mov	r2, #18432
 658 0024 C4F20002 		movt	r2, 16384
 659 0028 1278     		ldrb	r2, [r2, #0]
 660 002a D2B2     		uxtb	r2, r2
 661 002c D2B2     		uxtb	r2, r2
 662 002e 02F03F02 		and	r2, r2, #63
 663 0032 D2B2     		uxtb	r2, r2
 664 0034 42F04002 		orr	r2, r2, #64
 665 0038 D2B2     		uxtb	r2, r2
 666 003a D2B2     		uxtb	r2, r2
 667 003c 1A70     		strb	r2, [r3, #0]
 668 003e 36E0     		b	.L42
 669              	.L41:
 577:.\Generated_Source\PSoC5/CyFlash.c ****                 ((uint8)(CY_FLASH_LESSER_OR_EQUAL_16MHz << CY_FLASH_CYCLES_MASK_SHIFT)));
 578:.\Generated_Source\PSoC5/CyFlash.c ****         }
ARM GAS  C:\Users\Robert\AppData\Local\Temp\cc9sD88Q.s 			page 23


 579:.\Generated_Source\PSoC5/CyFlash.c ****         else if (freq <= 33u)
 670              		.loc 1 579 0
 671 0040 FB79     		ldrb	r3, [r7, #7]	@ zero_extendqisi2
 672 0042 212B     		cmp	r3, #33
 673 0044 13D8     		bhi	.L43
 580:.\Generated_Source\PSoC5/CyFlash.c ****         {
 581:.\Generated_Source\PSoC5/CyFlash.c ****             *CY_FLASH_CONTROL_PTR = ((*CY_FLASH_CONTROL_PTR & ((uint8)(~CY_FLASH_CYCLES_MASK))) |
 674              		.loc 1 581 0
 675 0046 4FF49043 		mov	r3, #18432
 676 004a C4F20003 		movt	r3, 16384
 677 004e 4FF49042 		mov	r2, #18432
 678 0052 C4F20002 		movt	r2, 16384
 679 0056 1278     		ldrb	r2, [r2, #0]
 680 0058 D2B2     		uxtb	r2, r2
 681 005a D2B2     		uxtb	r2, r2
 682 005c 02F03F02 		and	r2, r2, #63
 683 0060 D2B2     		uxtb	r2, r2
 684 0062 62F07F02 		orn	r2, r2, #127
 685 0066 D2B2     		uxtb	r2, r2
 686 0068 D2B2     		uxtb	r2, r2
 687 006a 1A70     		strb	r2, [r3, #0]
 688 006c 1FE0     		b	.L42
 689              	.L43:
 582:.\Generated_Source\PSoC5/CyFlash.c ****                 ((uint8)(CY_FLASH_LESSER_OR_EQUAL_33MHz << CY_FLASH_CYCLES_MASK_SHIFT)));
 583:.\Generated_Source\PSoC5/CyFlash.c ****         }
 584:.\Generated_Source\PSoC5/CyFlash.c ****         else if (freq <= 50u)
 690              		.loc 1 584 0
 691 006e FB79     		ldrb	r3, [r7, #7]	@ zero_extendqisi2
 692 0070 322B     		cmp	r3, #50
 693 0072 0ED8     		bhi	.L44
 585:.\Generated_Source\PSoC5/CyFlash.c ****         {
 586:.\Generated_Source\PSoC5/CyFlash.c ****             *CY_FLASH_CONTROL_PTR = ((*CY_FLASH_CONTROL_PTR & ((uint8)(~CY_FLASH_CYCLES_MASK))) |
 694              		.loc 1 586 0
 695 0074 4FF49043 		mov	r3, #18432
 696 0078 C4F20003 		movt	r3, 16384
 697 007c 4FF49042 		mov	r2, #18432
 698 0080 C4F20002 		movt	r2, 16384
 699 0084 1278     		ldrb	r2, [r2, #0]
 700 0086 D2B2     		uxtb	r2, r2
 701 0088 62F03F02 		orn	r2, r2, #63
 702 008c D2B2     		uxtb	r2, r2
 703 008e 1A70     		strb	r2, [r3, #0]
 704 0090 0DE0     		b	.L42
 705              	.L44:
 587:.\Generated_Source\PSoC5/CyFlash.c ****                 ((uint8)(CY_FLASH_LESSER_OR_EQUAL_50MHz << CY_FLASH_CYCLES_MASK_SHIFT)));
 588:.\Generated_Source\PSoC5/CyFlash.c ****         }
 589:.\Generated_Source\PSoC5/CyFlash.c ****         else
 590:.\Generated_Source\PSoC5/CyFlash.c ****         {
 591:.\Generated_Source\PSoC5/CyFlash.c ****             *CY_FLASH_CONTROL_PTR = ((*CY_FLASH_CONTROL_PTR & ((uint8)(~CY_FLASH_CYCLES_MASK))) |
 706              		.loc 1 591 0
 707 0092 4FF49043 		mov	r3, #18432
 708 0096 C4F20003 		movt	r3, 16384
 709 009a 4FF49042 		mov	r2, #18432
 710 009e C4F20002 		movt	r2, 16384
 711 00a2 1278     		ldrb	r2, [r2, #0]
 712 00a4 D2B2     		uxtb	r2, r2
 713 00a6 02F03F02 		and	r2, r2, #63
ARM GAS  C:\Users\Robert\AppData\Local\Temp\cc9sD88Q.s 			page 24


 714 00aa D2B2     		uxtb	r2, r2
 715 00ac 1A70     		strb	r2, [r3, #0]
 716              	.L42:
 592:.\Generated_Source\PSoC5/CyFlash.c ****                 ((uint8)(CY_FLASH_GREATER_51MHz << CY_FLASH_CYCLES_MASK_SHIFT)));
 593:.\Generated_Source\PSoC5/CyFlash.c ****         }
 594:.\Generated_Source\PSoC5/CyFlash.c **** 
 595:.\Generated_Source\PSoC5/CyFlash.c ****     #endif  /* (CY_PSOC5) */
 596:.\Generated_Source\PSoC5/CyFlash.c **** 
 597:.\Generated_Source\PSoC5/CyFlash.c ****     /* Restore global interrupt enable state */
 598:.\Generated_Source\PSoC5/CyFlash.c ****     CyExitCriticalSection(interruptState);
 717              		.loc 1 598 0
 718 00ae FB7B     		ldrb	r3, [r7, #15]	@ zero_extendqisi2
 719 00b0 1846     		mov	r0, r3
 720 00b2 FFF7FEFF 		bl	CyExitCriticalSection
 599:.\Generated_Source\PSoC5/CyFlash.c **** }
 721              		.loc 1 599 0
 722 00b6 07F11007 		add	r7, r7, #16
 723 00ba BD46     		mov	sp, r7
 724 00bc 80BD     		pop	{r7, pc}
 725              		.cfi_endproc
 726              	.LFE7:
 727              		.size	CyFlash_SetWaitCycles, .-CyFlash_SetWaitCycles
 728 00be 00BF     		.section	.text.CyEEPROM_Start,"ax",%progbits
 729              		.align	2
 730              		.global	CyEEPROM_Start
 731              		.thumb
 732              		.thumb_func
 733              		.type	CyEEPROM_Start, %function
 734              	CyEEPROM_Start:
 735              	.LFB8:
 600:.\Generated_Source\PSoC5/CyFlash.c **** 
 601:.\Generated_Source\PSoC5/CyFlash.c **** 
 602:.\Generated_Source\PSoC5/CyFlash.c **** /*******************************************************************************
 603:.\Generated_Source\PSoC5/CyFlash.c **** * Function Name: CyEEPROM_Start
 604:.\Generated_Source\PSoC5/CyFlash.c **** ********************************************************************************
 605:.\Generated_Source\PSoC5/CyFlash.c **** *
 606:.\Generated_Source\PSoC5/CyFlash.c **** * Summary:
 607:.\Generated_Source\PSoC5/CyFlash.c **** *  Enable the EEPROM.
 608:.\Generated_Source\PSoC5/CyFlash.c **** *
 609:.\Generated_Source\PSoC5/CyFlash.c **** * Parameters:
 610:.\Generated_Source\PSoC5/CyFlash.c **** *  None
 611:.\Generated_Source\PSoC5/CyFlash.c **** *
 612:.\Generated_Source\PSoC5/CyFlash.c **** * Return:
 613:.\Generated_Source\PSoC5/CyFlash.c **** *  None
 614:.\Generated_Source\PSoC5/CyFlash.c **** *
 615:.\Generated_Source\PSoC5/CyFlash.c **** *******************************************************************************/
 616:.\Generated_Source\PSoC5/CyFlash.c **** void CyEEPROM_Start(void) 
 617:.\Generated_Source\PSoC5/CyFlash.c **** {
 736              		.loc 1 617 0
 737              		.cfi_startproc
 738              		@ args = 0, pretend = 0, frame = 0
 739              		@ frame_needed = 1, uses_anonymous_args = 0
 740              		@ link register save eliminated.
 741 0000 80B4     		push	{r7}
 742              	.LCFI22:
 743              		.cfi_def_cfa_offset 4
 744              		.cfi_offset 7, -4
ARM GAS  C:\Users\Robert\AppData\Local\Temp\cc9sD88Q.s 			page 25


 745 0002 00AF     		add	r7, sp, #0
 746              	.LCFI23:
 747              		.cfi_def_cfa_register 7
 618:.\Generated_Source\PSoC5/CyFlash.c ****     /* Active Power Mode */
 619:.\Generated_Source\PSoC5/CyFlash.c ****     *CY_FLASH_PM_ACT_EEFLASH_PTR |= CY_FLASH_PM_EE_MASK;
 748              		.loc 1 619 0
 749 0004 44F2AC33 		movw	r3, #17324
 750 0008 C4F20003 		movt	r3, 16384
 751 000c 44F2AC32 		movw	r2, #17324
 752 0010 C4F20002 		movt	r2, 16384
 753 0014 1278     		ldrb	r2, [r2, #0]
 754 0016 D2B2     		uxtb	r2, r2
 755 0018 42F01002 		orr	r2, r2, #16
 756 001c D2B2     		uxtb	r2, r2
 757 001e 1A70     		strb	r2, [r3, #0]
 620:.\Generated_Source\PSoC5/CyFlash.c **** 
 621:.\Generated_Source\PSoC5/CyFlash.c ****     /* Standby Power Mode */
 622:.\Generated_Source\PSoC5/CyFlash.c ****     *CY_FLASH_PM_ALTACT_EEFLASH_PTR |= CY_FLASH_PM_EE_MASK;
 758              		.loc 1 622 0
 759 0020 44F2BC33 		movw	r3, #17340
 760 0024 C4F20003 		movt	r3, 16384
 761 0028 44F2BC32 		movw	r2, #17340
 762 002c C4F20002 		movt	r2, 16384
 763 0030 1278     		ldrb	r2, [r2, #0]
 764 0032 D2B2     		uxtb	r2, r2
 765 0034 42F01002 		orr	r2, r2, #16
 766 0038 D2B2     		uxtb	r2, r2
 767 003a 1A70     		strb	r2, [r3, #0]
 623:.\Generated_Source\PSoC5/CyFlash.c **** }
 768              		.loc 1 623 0
 769 003c BD46     		mov	sp, r7
 770 003e 80BC     		pop	{r7}
 771 0040 7047     		bx	lr
 772              		.cfi_endproc
 773              	.LFE8:
 774              		.size	CyEEPROM_Start, .-CyEEPROM_Start
 775 0042 00BF     		.section	.text.CyEEPROM_Stop,"ax",%progbits
 776              		.align	2
 777              		.global	CyEEPROM_Stop
 778              		.thumb
 779              		.thumb_func
 780              		.type	CyEEPROM_Stop, %function
 781              	CyEEPROM_Stop:
 782              	.LFB9:
 624:.\Generated_Source\PSoC5/CyFlash.c **** 
 625:.\Generated_Source\PSoC5/CyFlash.c **** 
 626:.\Generated_Source\PSoC5/CyFlash.c **** /*******************************************************************************
 627:.\Generated_Source\PSoC5/CyFlash.c **** * Function Name: CyEEPROM_Stop
 628:.\Generated_Source\PSoC5/CyFlash.c **** ********************************************************************************
 629:.\Generated_Source\PSoC5/CyFlash.c **** *
 630:.\Generated_Source\PSoC5/CyFlash.c **** * Summary:
 631:.\Generated_Source\PSoC5/CyFlash.c **** *  Disable the EEPROM.
 632:.\Generated_Source\PSoC5/CyFlash.c **** *
 633:.\Generated_Source\PSoC5/CyFlash.c **** * Parameters:
 634:.\Generated_Source\PSoC5/CyFlash.c **** *  None
 635:.\Generated_Source\PSoC5/CyFlash.c **** *
 636:.\Generated_Source\PSoC5/CyFlash.c **** * Return:
ARM GAS  C:\Users\Robert\AppData\Local\Temp\cc9sD88Q.s 			page 26


 637:.\Generated_Source\PSoC5/CyFlash.c **** *  None
 638:.\Generated_Source\PSoC5/CyFlash.c **** *
 639:.\Generated_Source\PSoC5/CyFlash.c **** *******************************************************************************/
 640:.\Generated_Source\PSoC5/CyFlash.c **** void CyEEPROM_Stop (void) 
 641:.\Generated_Source\PSoC5/CyFlash.c **** {
 783              		.loc 1 641 0
 784              		.cfi_startproc
 785              		@ args = 0, pretend = 0, frame = 0
 786              		@ frame_needed = 1, uses_anonymous_args = 0
 787              		@ link register save eliminated.
 788 0000 80B4     		push	{r7}
 789              	.LCFI24:
 790              		.cfi_def_cfa_offset 4
 791              		.cfi_offset 7, -4
 792 0002 00AF     		add	r7, sp, #0
 793              	.LCFI25:
 794              		.cfi_def_cfa_register 7
 642:.\Generated_Source\PSoC5/CyFlash.c ****     /* Active Power Mode */
 643:.\Generated_Source\PSoC5/CyFlash.c ****     *CY_FLASH_PM_ACT_EEFLASH_PTR &= ((uint8)(~CY_FLASH_PM_EE_MASK));
 795              		.loc 1 643 0
 796 0004 44F2AC33 		movw	r3, #17324
 797 0008 C4F20003 		movt	r3, 16384
 798 000c 44F2AC32 		movw	r2, #17324
 799 0010 C4F20002 		movt	r2, 16384
 800 0014 1278     		ldrb	r2, [r2, #0]
 801 0016 D2B2     		uxtb	r2, r2
 802 0018 22F01002 		bic	r2, r2, #16
 803 001c D2B2     		uxtb	r2, r2
 804 001e 1A70     		strb	r2, [r3, #0]
 644:.\Generated_Source\PSoC5/CyFlash.c **** 
 645:.\Generated_Source\PSoC5/CyFlash.c ****     /* Standby Power Mode */
 646:.\Generated_Source\PSoC5/CyFlash.c ****     *CY_FLASH_PM_ALTACT_EEFLASH_PTR &= ((uint8)(~CY_FLASH_PM_EE_MASK));
 805              		.loc 1 646 0
 806 0020 44F2BC33 		movw	r3, #17340
 807 0024 C4F20003 		movt	r3, 16384
 808 0028 44F2BC32 		movw	r2, #17340
 809 002c C4F20002 		movt	r2, 16384
 810 0030 1278     		ldrb	r2, [r2, #0]
 811 0032 D2B2     		uxtb	r2, r2
 812 0034 22F01002 		bic	r2, r2, #16
 813 0038 D2B2     		uxtb	r2, r2
 814 003a 1A70     		strb	r2, [r3, #0]
 647:.\Generated_Source\PSoC5/CyFlash.c **** }
 815              		.loc 1 647 0
 816 003c BD46     		mov	sp, r7
 817 003e 80BC     		pop	{r7}
 818 0040 7047     		bx	lr
 819              		.cfi_endproc
 820              	.LFE9:
 821              		.size	CyEEPROM_Stop, .-CyEEPROM_Stop
 822 0042 00BF     		.section	.text.CyEEPROM_ReadReserve,"ax",%progbits
 823              		.align	2
 824              		.global	CyEEPROM_ReadReserve
 825              		.thumb
 826              		.thumb_func
 827              		.type	CyEEPROM_ReadReserve, %function
 828              	CyEEPROM_ReadReserve:
ARM GAS  C:\Users\Robert\AppData\Local\Temp\cc9sD88Q.s 			page 27


 829              	.LFB10:
 648:.\Generated_Source\PSoC5/CyFlash.c **** 
 649:.\Generated_Source\PSoC5/CyFlash.c **** 
 650:.\Generated_Source\PSoC5/CyFlash.c **** /*******************************************************************************
 651:.\Generated_Source\PSoC5/CyFlash.c **** * Function Name: CyEEPROM_ReadReserve
 652:.\Generated_Source\PSoC5/CyFlash.c **** ********************************************************************************
 653:.\Generated_Source\PSoC5/CyFlash.c **** *
 654:.\Generated_Source\PSoC5/CyFlash.c **** * Summary:
 655:.\Generated_Source\PSoC5/CyFlash.c **** *  Request access to the EEPROM for reading and wait until access is available.
 656:.\Generated_Source\PSoC5/CyFlash.c **** *
 657:.\Generated_Source\PSoC5/CyFlash.c **** * Parameters:
 658:.\Generated_Source\PSoC5/CyFlash.c **** *  None
 659:.\Generated_Source\PSoC5/CyFlash.c **** *
 660:.\Generated_Source\PSoC5/CyFlash.c **** * Return:
 661:.\Generated_Source\PSoC5/CyFlash.c **** *  None
 662:.\Generated_Source\PSoC5/CyFlash.c **** *
 663:.\Generated_Source\PSoC5/CyFlash.c **** *******************************************************************************/
 664:.\Generated_Source\PSoC5/CyFlash.c **** void CyEEPROM_ReadReserve(void) 
 665:.\Generated_Source\PSoC5/CyFlash.c **** {
 830              		.loc 1 665 0
 831              		.cfi_startproc
 832              		@ args = 0, pretend = 0, frame = 0
 833              		@ frame_needed = 1, uses_anonymous_args = 0
 834              		@ link register save eliminated.
 835 0000 80B4     		push	{r7}
 836              	.LCFI26:
 837              		.cfi_def_cfa_offset 4
 838              		.cfi_offset 7, -4
 839 0002 00AF     		add	r7, sp, #0
 840              	.LCFI27:
 841              		.cfi_def_cfa_register 7
 666:.\Generated_Source\PSoC5/CyFlash.c ****     /* Make request for PHUB to have access */
 667:.\Generated_Source\PSoC5/CyFlash.c ****     CY_FLASH_EE_SCR_REG |= CY_FLASH_EE_SCR_AHB_EE_REQ;
 842              		.loc 1 667 0
 843 0004 44F20273 		movw	r3, #18178
 844 0008 C4F20003 		movt	r3, 16384
 845 000c 44F20272 		movw	r2, #18178
 846 0010 C4F20002 		movt	r2, 16384
 847 0014 1278     		ldrb	r2, [r2, #0]
 848 0016 D2B2     		uxtb	r2, r2
 849 0018 42F00102 		orr	r2, r2, #1
 850 001c D2B2     		uxtb	r2, r2
 851 001e 1A70     		strb	r2, [r3, #0]
 668:.\Generated_Source\PSoC5/CyFlash.c **** 
 669:.\Generated_Source\PSoC5/CyFlash.c ****     while (0u == (CY_FLASH_EE_SCR_REG & CY_FLASH_EE_SCR_AHB_EE_ACK))
 852              		.loc 1 669 0
 853 0020 00BF     		nop
 854              	.L48:
 855              		.loc 1 669 0 is_stmt 0 discriminator 1
 856 0022 44F20273 		movw	r3, #18178
 857 0026 C4F20003 		movt	r3, 16384
 858 002a 1B78     		ldrb	r3, [r3, #0]
 859 002c DBB2     		uxtb	r3, r3
 860 002e 03F00203 		and	r3, r3, #2
 861 0032 002B     		cmp	r3, #0
 862 0034 F5D0     		beq	.L48
 670:.\Generated_Source\PSoC5/CyFlash.c ****     {
ARM GAS  C:\Users\Robert\AppData\Local\Temp\cc9sD88Q.s 			page 28


 671:.\Generated_Source\PSoC5/CyFlash.c ****         /* Wait for acknowledgement from PHUB */
 672:.\Generated_Source\PSoC5/CyFlash.c ****     }
 673:.\Generated_Source\PSoC5/CyFlash.c **** }
 863              		.loc 1 673 0 is_stmt 1
 864 0036 BD46     		mov	sp, r7
 865 0038 80BC     		pop	{r7}
 866 003a 7047     		bx	lr
 867              		.cfi_endproc
 868              	.LFE10:
 869              		.size	CyEEPROM_ReadReserve, .-CyEEPROM_ReadReserve
 870              		.section	.text.CyEEPROM_ReadRelease,"ax",%progbits
 871              		.align	2
 872              		.global	CyEEPROM_ReadRelease
 873              		.thumb
 874              		.thumb_func
 875              		.type	CyEEPROM_ReadRelease, %function
 876              	CyEEPROM_ReadRelease:
 877              	.LFB11:
 674:.\Generated_Source\PSoC5/CyFlash.c **** 
 675:.\Generated_Source\PSoC5/CyFlash.c **** 
 676:.\Generated_Source\PSoC5/CyFlash.c **** /*******************************************************************************
 677:.\Generated_Source\PSoC5/CyFlash.c **** * Function Name: CyEEPROM_ReadRelease
 678:.\Generated_Source\PSoC5/CyFlash.c **** ********************************************************************************
 679:.\Generated_Source\PSoC5/CyFlash.c **** *
 680:.\Generated_Source\PSoC5/CyFlash.c **** * Summary:
 681:.\Generated_Source\PSoC5/CyFlash.c **** *  Release the read reservation of the EEPROM.
 682:.\Generated_Source\PSoC5/CyFlash.c **** *
 683:.\Generated_Source\PSoC5/CyFlash.c **** * Parameters:
 684:.\Generated_Source\PSoC5/CyFlash.c **** *  None
 685:.\Generated_Source\PSoC5/CyFlash.c **** *
 686:.\Generated_Source\PSoC5/CyFlash.c **** * Return:
 687:.\Generated_Source\PSoC5/CyFlash.c **** *  None
 688:.\Generated_Source\PSoC5/CyFlash.c **** *
 689:.\Generated_Source\PSoC5/CyFlash.c **** *******************************************************************************/
 690:.\Generated_Source\PSoC5/CyFlash.c **** void CyEEPROM_ReadRelease(void) 
 691:.\Generated_Source\PSoC5/CyFlash.c **** {
 878              		.loc 1 691 0
 879              		.cfi_startproc
 880              		@ args = 0, pretend = 0, frame = 0
 881              		@ frame_needed = 1, uses_anonymous_args = 0
 882              		@ link register save eliminated.
 883 0000 80B4     		push	{r7}
 884              	.LCFI28:
 885              		.cfi_def_cfa_offset 4
 886              		.cfi_offset 7, -4
 887 0002 00AF     		add	r7, sp, #0
 888              	.LCFI29:
 889              		.cfi_def_cfa_register 7
 692:.\Generated_Source\PSoC5/CyFlash.c ****     CY_FLASH_EE_SCR_REG &= (uint8)(~CY_FLASH_EE_SCR_AHB_EE_REQ);
 890              		.loc 1 692 0
 891 0004 44F20273 		movw	r3, #18178
 892 0008 C4F20003 		movt	r3, 16384
 893 000c 44F20272 		movw	r2, #18178
 894 0010 C4F20002 		movt	r2, 16384
 895 0014 1278     		ldrb	r2, [r2, #0]
 896 0016 D2B2     		uxtb	r2, r2
 897 0018 22F00102 		bic	r2, r2, #1
ARM GAS  C:\Users\Robert\AppData\Local\Temp\cc9sD88Q.s 			page 29


 898 001c D2B2     		uxtb	r2, r2
 899 001e 1A70     		strb	r2, [r3, #0]
 693:.\Generated_Source\PSoC5/CyFlash.c **** }
 900              		.loc 1 693 0
 901 0020 BD46     		mov	sp, r7
 902 0022 80BC     		pop	{r7}
 903 0024 7047     		bx	lr
 904              		.cfi_endproc
 905              	.LFE11:
 906              		.size	CyEEPROM_ReadRelease, .-CyEEPROM_ReadRelease
 907 0026 00BF     		.text
 908              	.Letext0:
 909              		.file 2 ".\\Generated_Source\\PSoC5\\cytypes.h"
 910              		.section	.debug_info,"",%progbits
 911              	.Ldebug_info0:
 912 0000 50030000 		.4byte	0x350
 913 0004 0200     		.2byte	0x2
 914 0006 00000000 		.4byte	.Ldebug_abbrev0
 915 000a 04       		.byte	0x4
 916 000b 01       		.uleb128 0x1
 917 000c 02020000 		.4byte	.LASF39
 918 0010 01       		.byte	0x1
 919 0011 4B020000 		.4byte	.LASF40
 920 0015 0E000000 		.4byte	.LASF41
 921 0019 00000000 		.4byte	.Ldebug_ranges0+0
 922 001d 00000000 		.4byte	0
 923 0021 00000000 		.4byte	0
 924 0025 00000000 		.4byte	.Ldebug_line0
 925 0029 02       		.uleb128 0x2
 926 002a 01       		.byte	0x1
 927 002b 06       		.byte	0x6
 928 002c 8E020000 		.4byte	.LASF0
 929 0030 02       		.uleb128 0x2
 930 0031 01       		.byte	0x1
 931 0032 08       		.byte	0x8
 932 0033 CB000000 		.4byte	.LASF1
 933 0037 02       		.uleb128 0x2
 934 0038 02       		.byte	0x2
 935 0039 05       		.byte	0x5
 936 003a 3D010000 		.4byte	.LASF2
 937 003e 02       		.uleb128 0x2
 938 003f 02       		.byte	0x2
 939 0040 07       		.byte	0x7
 940 0041 73000000 		.4byte	.LASF3
 941 0045 02       		.uleb128 0x2
 942 0046 04       		.byte	0x4
 943 0047 05       		.byte	0x5
 944 0048 6E020000 		.4byte	.LASF4
 945 004c 02       		.uleb128 0x2
 946 004d 04       		.byte	0x4
 947 004e 07       		.byte	0x7
 948 004f FF000000 		.4byte	.LASF5
 949 0053 02       		.uleb128 0x2
 950 0054 08       		.byte	0x8
 951 0055 05       		.byte	0x5
 952 0056 C4010000 		.4byte	.LASF6
 953 005a 02       		.uleb128 0x2
ARM GAS  C:\Users\Robert\AppData\Local\Temp\cc9sD88Q.s 			page 30


 954 005b 08       		.byte	0x8
 955 005c 07       		.byte	0x7
 956 005d 85010000 		.4byte	.LASF7
 957 0061 03       		.uleb128 0x3
 958 0062 04       		.byte	0x4
 959 0063 05       		.byte	0x5
 960 0064 696E7400 		.ascii	"int\000"
 961 0068 02       		.uleb128 0x2
 962 0069 04       		.byte	0x4
 963 006a 07       		.byte	0x7
 964 006b 6A010000 		.4byte	.LASF8
 965 006f 04       		.uleb128 0x4
 966 0070 11010000 		.4byte	.LASF9
 967 0074 02       		.byte	0x2
 968 0075 5B       		.byte	0x5b
 969 0076 30000000 		.4byte	0x30
 970 007a 04       		.uleb128 0x4
 971 007b 5C010000 		.4byte	.LASF10
 972 007f 02       		.byte	0x2
 973 0080 5C       		.byte	0x5c
 974 0081 3E000000 		.4byte	0x3e
 975 0085 04       		.uleb128 0x4
 976 0086 63010000 		.4byte	.LASF11
 977 008a 02       		.byte	0x2
 978 008b 5D       		.byte	0x5d
 979 008c 4C000000 		.4byte	0x4c
 980 0090 02       		.uleb128 0x2
 981 0091 04       		.byte	0x4
 982 0092 04       		.byte	0x4
 983 0093 9C000000 		.4byte	.LASF12
 984 0097 02       		.uleb128 0x2
 985 0098 08       		.byte	0x8
 986 0099 04       		.byte	0x4
 987 009a 2E010000 		.4byte	.LASF13
 988 009e 02       		.uleb128 0x2
 989 009f 01       		.byte	0x1
 990 00a0 08       		.byte	0x8
 991 00a1 DD010000 		.4byte	.LASF14
 992 00a5 04       		.uleb128 0x4
 993 00a6 00000000 		.4byte	.LASF15
 994 00aa 02       		.byte	0x2
 995 00ab E8       		.byte	0xe8
 996 00ac 4C000000 		.4byte	0x4c
 997 00b0 04       		.uleb128 0x4
 998 00b1 09000000 		.4byte	.LASF16
 999 00b5 02       		.byte	0x2
 1000 00b6 F0       		.byte	0xf0
 1001 00b7 BB000000 		.4byte	0xbb
 1002 00bb 05       		.uleb128 0x5
 1003 00bc 6F000000 		.4byte	0x6f
 1004 00c0 02       		.uleb128 0x2
 1005 00c1 04       		.byte	0x4
 1006 00c2 07       		.byte	0x7
 1007 00c3 B1010000 		.4byte	.LASF17
 1008 00c7 06       		.uleb128 0x6
 1009 00c8 01       		.byte	0x1
 1010 00c9 77010000 		.4byte	.LASF18
ARM GAS  C:\Users\Robert\AppData\Local\Temp\cc9sD88Q.s 			page 31


 1011 00cd 01       		.byte	0x1
 1012 00ce 36       		.byte	0x36
 1013 00cf 01       		.byte	0x1
 1014 00d0 00000000 		.4byte	.LFB0
 1015 00d4 46000000 		.4byte	.LFE0
 1016 00d8 00000000 		.4byte	.LLST0
 1017 00dc 01       		.byte	0x1
 1018 00dd 07       		.uleb128 0x7
 1019 00de 01       		.byte	0x1
 1020 00df 77020000 		.4byte	.LASF19
 1021 00e3 01       		.byte	0x1
 1022 00e4 54       		.byte	0x54
 1023 00e5 01       		.byte	0x1
 1024 00e6 00000000 		.4byte	.LFB1
 1025 00ea 42000000 		.4byte	.LFE1
 1026 00ee 2C000000 		.4byte	.LLST1
 1027 00f2 01       		.byte	0x1
 1028 00f3 08       		.uleb128 0x8
 1029 00f4 E2010000 		.4byte	.LASF42
 1030 00f8 01       		.byte	0x1
 1031 00f9 71       		.byte	0x71
 1032 00fa 01       		.byte	0x1
 1033 00fb A5000000 		.4byte	0xa5
 1034 00ff 00000000 		.4byte	.LFB2
 1035 0103 90000000 		.4byte	.LFE2
 1036 0107 58000000 		.4byte	.LLST2
 1037 010b 01       		.byte	0x1
 1038 010c 1F010000 		.4byte	0x11f
 1039 0110 09       		.uleb128 0x9
 1040 0111 95000000 		.4byte	.LASF20
 1041 0115 01       		.byte	0x1
 1042 0116 73       		.byte	0x73
 1043 0117 A5000000 		.4byte	0xa5
 1044 011b 02       		.byte	0x2
 1045 011c 91       		.byte	0x91
 1046 011d 74       		.sleb128 -12
 1047 011e 00       		.byte	0
 1048 011f 0A       		.uleb128 0xa
 1049 0120 01       		.byte	0x1
 1050 0121 BA010000 		.4byte	.LASF21
 1051 0125 01       		.byte	0x1
 1052 0126 B3       		.byte	0xb3
 1053 0127 01       		.byte	0x1
 1054 0128 A5000000 		.4byte	0xa5
 1055 012c 00000000 		.4byte	.LFB3
 1056 0130 24000000 		.4byte	.LFE3
 1057 0134 90000000 		.4byte	.LLST3
 1058 0138 01       		.byte	0x1
 1059 0139 4C010000 		.4byte	0x14c
 1060 013d 09       		.uleb128 0x9
 1061 013e 95000000 		.4byte	.LASF20
 1062 0142 01       		.byte	0x1
 1063 0143 B5       		.byte	0xb5
 1064 0144 A5000000 		.4byte	0xa5
 1065 0148 02       		.byte	0x2
 1066 0149 91       		.byte	0x91
 1067 014a 74       		.sleb128 -12
ARM GAS  C:\Users\Robert\AppData\Local\Temp\cc9sD88Q.s 			page 32


 1068 014b 00       		.byte	0
 1069 014c 0A       		.uleb128 0xa
 1070 014d 01       		.byte	0x1
 1071 014e B8000000 		.4byte	.LASF22
 1072 0152 01       		.byte	0x1
 1073 0153 D4       		.byte	0xd4
 1074 0154 01       		.byte	0x1
 1075 0155 A5000000 		.4byte	0xa5
 1076 0159 00000000 		.4byte	.LFB4
 1077 015d 76000000 		.4byte	.LFE4
 1078 0161 C8000000 		.4byte	.LLST4
 1079 0165 01       		.byte	0x1
 1080 0166 87010000 		.4byte	0x187
 1081 016a 0B       		.uleb128 0xb
 1082 016b FB010000 		.4byte	.LASF24
 1083 016f 01       		.byte	0x1
 1084 0170 D4       		.byte	0xd4
 1085 0171 87010000 		.4byte	0x187
 1086 0175 02       		.byte	0x2
 1087 0176 91       		.byte	0x91
 1088 0177 6C       		.sleb128 -20
 1089 0178 09       		.uleb128 0x9
 1090 0179 95000000 		.4byte	.LASF20
 1091 017d 01       		.byte	0x1
 1092 017e D6       		.byte	0xd6
 1093 017f A5000000 		.4byte	0xa5
 1094 0183 02       		.byte	0x2
 1095 0184 91       		.byte	0x91
 1096 0185 74       		.sleb128 -12
 1097 0186 00       		.byte	0
 1098 0187 0C       		.uleb128 0xc
 1099 0188 04       		.byte	0x4
 1100 0189 6F000000 		.4byte	0x6f
 1101 018d 0D       		.uleb128 0xd
 1102 018e 01       		.byte	0x1
 1103 018f 9A020000 		.4byte	.LASF23
 1104 0193 01       		.byte	0x1
 1105 0194 3801     		.2byte	0x138
 1106 0196 01       		.byte	0x1
 1107 0197 A5000000 		.4byte	0xa5
 1108 019b 00000000 		.4byte	.LFB5
 1109 019f BA000000 		.4byte	.LFE5
 1110 01a3 00010000 		.4byte	.LLST5
 1111 01a7 01       		.byte	0x1
 1112 01a8 14020000 		.4byte	0x214
 1113 01ac 0E       		.uleb128 0xe
 1114 01ad 17010000 		.4byte	.LASF25
 1115 01b1 01       		.byte	0x1
 1116 01b2 3801     		.2byte	0x138
 1117 01b4 6F000000 		.4byte	0x6f
 1118 01b8 02       		.byte	0x2
 1119 01b9 91       		.byte	0x91
 1120 01ba 67       		.sleb128 -25
 1121 01bb 0E       		.uleb128 0xe
 1122 01bc D2010000 		.4byte	.LASF26
 1123 01c0 01       		.byte	0x1
 1124 01c1 3801     		.2byte	0x138
ARM GAS  C:\Users\Robert\AppData\Local\Temp\cc9sD88Q.s 			page 33


 1125 01c3 7A000000 		.4byte	0x7a
 1126 01c7 02       		.byte	0x2
 1127 01c8 91       		.byte	0x91
 1128 01c9 64       		.sleb128 -28
 1129 01ca 0E       		.uleb128 0xe
 1130 01cb D9000000 		.4byte	.LASF27
 1131 01cf 01       		.byte	0x1
 1132 01d0 3801     		.2byte	0x138
 1133 01d2 14020000 		.4byte	0x214
 1134 01d6 02       		.byte	0x2
 1135 01d7 91       		.byte	0x91
 1136 01d8 60       		.sleb128 -32
 1137 01d9 0F       		.uleb128 0xf
 1138 01da 6900     		.ascii	"i\000"
 1139 01dc 01       		.byte	0x1
 1140 01dd 3A01     		.2byte	0x13a
 1141 01df 6F000000 		.4byte	0x6f
 1142 01e3 02       		.byte	0x2
 1143 01e4 91       		.byte	0x91
 1144 01e5 77       		.sleb128 -9
 1145 01e6 10       		.uleb128 0x10
 1146 01e7 EF010000 		.4byte	.LASF28
 1147 01eb 01       		.byte	0x1
 1148 01ec 3B01     		.2byte	0x13b
 1149 01ee 85000000 		.4byte	0x85
 1150 01f2 02       		.byte	0x2
 1151 01f3 91       		.byte	0x91
 1152 01f4 6C       		.sleb128 -20
 1153 01f5 10       		.uleb128 0x10
 1154 01f6 35010000 		.4byte	.LASF29
 1155 01fa 01       		.byte	0x1
 1156 01fb 3C01     		.2byte	0x13c
 1157 01fd 7A000000 		.4byte	0x7a
 1158 0201 02       		.byte	0x2
 1159 0202 91       		.byte	0x91
 1160 0203 74       		.sleb128 -12
 1161 0204 10       		.uleb128 0x10
 1162 0205 95000000 		.4byte	.LASF20
 1163 0209 01       		.byte	0x1
 1164 020a 3D01     		.2byte	0x13d
 1165 020c A5000000 		.4byte	0xa5
 1166 0210 02       		.byte	0x2
 1167 0211 91       		.byte	0x91
 1168 0212 70       		.sleb128 -16
 1169 0213 00       		.byte	0
 1170 0214 0C       		.uleb128 0xc
 1171 0215 04       		.byte	0x4
 1172 0216 1A020000 		.4byte	0x21a
 1173 021a 11       		.uleb128 0x11
 1174 021b 6F000000 		.4byte	0x6f
 1175 021f 0D       		.uleb128 0xd
 1176 0220 01       		.byte	0x1
 1177 0221 86000000 		.4byte	.LASF30
 1178 0225 01       		.byte	0x1
 1179 0226 C601     		.2byte	0x1c6
 1180 0228 01       		.byte	0x1
 1181 0229 A5000000 		.4byte	0xa5
ARM GAS  C:\Users\Robert\AppData\Local\Temp\cc9sD88Q.s 			page 34


 1182 022d 00000000 		.4byte	.LFB6
 1183 0231 20010000 		.4byte	.LFE6
 1184 0235 38010000 		.4byte	.LLST6
 1185 0239 01       		.byte	0x1
 1186 023a 8A020000 		.4byte	0x28a
 1187 023e 0E       		.uleb128 0xe
 1188 023f 17010000 		.4byte	.LASF25
 1189 0243 01       		.byte	0x1
 1190 0244 C601     		.2byte	0x1c6
 1191 0246 6F000000 		.4byte	0x6f
 1192 024a 02       		.byte	0x2
 1193 024b 91       		.byte	0x91
 1194 024c 6F       		.sleb128 -17
 1195 024d 0E       		.uleb128 0xe
 1196 024e 84020000 		.4byte	.LASF31
 1197 0252 01       		.byte	0x1
 1198 0253 C601     		.2byte	0x1c6
 1199 0255 7A000000 		.4byte	0x7a
 1200 0259 02       		.byte	0x2
 1201 025a 91       		.byte	0x91
 1202 025b 6C       		.sleb128 -20
 1203 025c 0E       		.uleb128 0xe
 1204 025d D9000000 		.4byte	.LASF27
 1205 0261 01       		.byte	0x1
 1206 0262 C601     		.2byte	0x1c6
 1207 0264 14020000 		.4byte	0x214
 1208 0268 02       		.byte	0x2
 1209 0269 91       		.byte	0x91
 1210 026a 68       		.sleb128 -24
 1211 026b 0E       		.uleb128 0xe
 1212 026c 35010000 		.4byte	.LASF29
 1213 0270 01       		.byte	0x1
 1214 0271 C601     		.2byte	0x1c6
 1215 0273 7A000000 		.4byte	0x7a
 1216 0277 02       		.byte	0x2
 1217 0278 91       		.byte	0x91
 1218 0279 66       		.sleb128 -26
 1219 027a 10       		.uleb128 0x10
 1220 027b 95000000 		.4byte	.LASF20
 1221 027f 01       		.byte	0x1
 1222 0280 C901     		.2byte	0x1c9
 1223 0282 A5000000 		.4byte	0xa5
 1224 0286 02       		.byte	0x2
 1225 0287 91       		.byte	0x91
 1226 0288 74       		.sleb128 -12
 1227 0289 00       		.byte	0
 1228 028a 12       		.uleb128 0x12
 1229 028b 01       		.byte	0x1
 1230 028c A2000000 		.4byte	.LASF43
 1231 0290 01       		.byte	0x1
 1232 0291 1A02     		.2byte	0x21a
 1233 0293 01       		.byte	0x1
 1234 0294 00000000 		.4byte	.LFB7
 1235 0298 BE000000 		.4byte	.LFE7
 1236 029c 70010000 		.4byte	.LLST7
 1237 02a0 01       		.byte	0x1
 1238 02a1 C4020000 		.4byte	0x2c4
ARM GAS  C:\Users\Robert\AppData\Local\Temp\cc9sD88Q.s 			page 35


 1239 02a5 0E       		.uleb128 0xe
 1240 02a6 F6010000 		.4byte	.LASF32
 1241 02aa 01       		.byte	0x1
 1242 02ab 1A02     		.2byte	0x21a
 1243 02ad 6F000000 		.4byte	0x6f
 1244 02b1 02       		.byte	0x2
 1245 02b2 91       		.byte	0x91
 1246 02b3 6F       		.sleb128 -17
 1247 02b4 10       		.uleb128 0x10
 1248 02b5 F0000000 		.4byte	.LASF33
 1249 02b9 01       		.byte	0x1
 1250 02ba 1C02     		.2byte	0x21c
 1251 02bc 6F000000 		.4byte	0x6f
 1252 02c0 02       		.byte	0x2
 1253 02c1 91       		.byte	0x91
 1254 02c2 77       		.sleb128 -9
 1255 02c3 00       		.byte	0
 1256 02c4 13       		.uleb128 0x13
 1257 02c5 01       		.byte	0x1
 1258 02c6 E1000000 		.4byte	.LASF34
 1259 02ca 01       		.byte	0x1
 1260 02cb 6802     		.2byte	0x268
 1261 02cd 01       		.byte	0x1
 1262 02ce 00000000 		.4byte	.LFB8
 1263 02d2 42000000 		.4byte	.LFE8
 1264 02d6 A8010000 		.4byte	.LLST8
 1265 02da 01       		.byte	0x1
 1266 02db 13       		.uleb128 0x13
 1267 02dc 01       		.byte	0x1
 1268 02dd 65000000 		.4byte	.LASF35
 1269 02e1 01       		.byte	0x1
 1270 02e2 8002     		.2byte	0x280
 1271 02e4 01       		.byte	0x1
 1272 02e5 00000000 		.4byte	.LFB9
 1273 02e9 42000000 		.4byte	.LFE9
 1274 02ed D4010000 		.4byte	.LLST9
 1275 02f1 01       		.byte	0x1
 1276 02f2 13       		.uleb128 0x13
 1277 02f3 01       		.byte	0x1
 1278 02f4 9C010000 		.4byte	.LASF36
 1279 02f8 01       		.byte	0x1
 1280 02f9 9802     		.2byte	0x298
 1281 02fb 01       		.byte	0x1
 1282 02fc 00000000 		.4byte	.LFB10
 1283 0300 3C000000 		.4byte	.LFE10
 1284 0304 00020000 		.4byte	.LLST10
 1285 0308 01       		.byte	0x1
 1286 0309 13       		.uleb128 0x13
 1287 030a 01       		.byte	0x1
 1288 030b 47010000 		.4byte	.LASF37
 1289 030f 01       		.byte	0x1
 1290 0310 B202     		.2byte	0x2b2
 1291 0312 01       		.byte	0x1
 1292 0313 00000000 		.4byte	.LFB11
 1293 0317 26000000 		.4byte	.LFE11
 1294 031b 2C020000 		.4byte	.LLST11
 1295 031f 01       		.byte	0x1
ARM GAS  C:\Users\Robert\AppData\Local\Temp\cc9sD88Q.s 			page 36


 1296 0320 09       		.uleb128 0x9
 1297 0321 5B000000 		.4byte	.LASF38
 1298 0325 01       		.byte	0x1
 1299 0326 21       		.byte	0x21
 1300 0327 87010000 		.4byte	0x187
 1301 032b 05       		.byte	0x5
 1302 032c 03       		.byte	0x3
 1303 032d 00000000 		.4byte	rowBuffer
 1304 0331 14       		.uleb128 0x14
 1305 0332 6F000000 		.4byte	0x6f
 1306 0336 41030000 		.4byte	0x341
 1307 033a 15       		.uleb128 0x15
 1308 033b C0000000 		.4byte	0xc0
 1309 033f 01       		.byte	0x1
 1310 0340 00       		.byte	0
 1311 0341 16       		.uleb128 0x16
 1312 0342 1F010000 		.4byte	.LASF44
 1313 0346 01       		.byte	0x1
 1314 0347 1E       		.byte	0x1e
 1315 0348 31030000 		.4byte	0x331
 1316 034c 01       		.byte	0x1
 1317 034d 05       		.byte	0x5
 1318 034e 03       		.byte	0x3
 1319 034f 00000000 		.4byte	dieTemperature
 1320 0353 00       		.byte	0
 1321              		.section	.debug_abbrev,"",%progbits
 1322              	.Ldebug_abbrev0:
 1323 0000 01       		.uleb128 0x1
 1324 0001 11       		.uleb128 0x11
 1325 0002 01       		.byte	0x1
 1326 0003 25       		.uleb128 0x25
 1327 0004 0E       		.uleb128 0xe
 1328 0005 13       		.uleb128 0x13
 1329 0006 0B       		.uleb128 0xb
 1330 0007 03       		.uleb128 0x3
 1331 0008 0E       		.uleb128 0xe
 1332 0009 1B       		.uleb128 0x1b
 1333 000a 0E       		.uleb128 0xe
 1334 000b 55       		.uleb128 0x55
 1335 000c 06       		.uleb128 0x6
 1336 000d 11       		.uleb128 0x11
 1337 000e 01       		.uleb128 0x1
 1338 000f 52       		.uleb128 0x52
 1339 0010 01       		.uleb128 0x1
 1340 0011 10       		.uleb128 0x10
 1341 0012 06       		.uleb128 0x6
 1342 0013 00       		.byte	0
 1343 0014 00       		.byte	0
 1344 0015 02       		.uleb128 0x2
 1345 0016 24       		.uleb128 0x24
 1346 0017 00       		.byte	0
 1347 0018 0B       		.uleb128 0xb
 1348 0019 0B       		.uleb128 0xb
 1349 001a 3E       		.uleb128 0x3e
 1350 001b 0B       		.uleb128 0xb
 1351 001c 03       		.uleb128 0x3
 1352 001d 0E       		.uleb128 0xe
ARM GAS  C:\Users\Robert\AppData\Local\Temp\cc9sD88Q.s 			page 37


 1353 001e 00       		.byte	0
 1354 001f 00       		.byte	0
 1355 0020 03       		.uleb128 0x3
 1356 0021 24       		.uleb128 0x24
 1357 0022 00       		.byte	0
 1358 0023 0B       		.uleb128 0xb
 1359 0024 0B       		.uleb128 0xb
 1360 0025 3E       		.uleb128 0x3e
 1361 0026 0B       		.uleb128 0xb
 1362 0027 03       		.uleb128 0x3
 1363 0028 08       		.uleb128 0x8
 1364 0029 00       		.byte	0
 1365 002a 00       		.byte	0
 1366 002b 04       		.uleb128 0x4
 1367 002c 16       		.uleb128 0x16
 1368 002d 00       		.byte	0
 1369 002e 03       		.uleb128 0x3
 1370 002f 0E       		.uleb128 0xe
 1371 0030 3A       		.uleb128 0x3a
 1372 0031 0B       		.uleb128 0xb
 1373 0032 3B       		.uleb128 0x3b
 1374 0033 0B       		.uleb128 0xb
 1375 0034 49       		.uleb128 0x49
 1376 0035 13       		.uleb128 0x13
 1377 0036 00       		.byte	0
 1378 0037 00       		.byte	0
 1379 0038 05       		.uleb128 0x5
 1380 0039 35       		.uleb128 0x35
 1381 003a 00       		.byte	0
 1382 003b 49       		.uleb128 0x49
 1383 003c 13       		.uleb128 0x13
 1384 003d 00       		.byte	0
 1385 003e 00       		.byte	0
 1386 003f 06       		.uleb128 0x6
 1387 0040 2E       		.uleb128 0x2e
 1388 0041 00       		.byte	0
 1389 0042 3F       		.uleb128 0x3f
 1390 0043 0C       		.uleb128 0xc
 1391 0044 03       		.uleb128 0x3
 1392 0045 0E       		.uleb128 0xe
 1393 0046 3A       		.uleb128 0x3a
 1394 0047 0B       		.uleb128 0xb
 1395 0048 3B       		.uleb128 0x3b
 1396 0049 0B       		.uleb128 0xb
 1397 004a 27       		.uleb128 0x27
 1398 004b 0C       		.uleb128 0xc
 1399 004c 11       		.uleb128 0x11
 1400 004d 01       		.uleb128 0x1
 1401 004e 12       		.uleb128 0x12
 1402 004f 01       		.uleb128 0x1
 1403 0050 40       		.uleb128 0x40
 1404 0051 06       		.uleb128 0x6
 1405 0052 9642     		.uleb128 0x2116
 1406 0054 0C       		.uleb128 0xc
 1407 0055 00       		.byte	0
 1408 0056 00       		.byte	0
 1409 0057 07       		.uleb128 0x7
ARM GAS  C:\Users\Robert\AppData\Local\Temp\cc9sD88Q.s 			page 38


 1410 0058 2E       		.uleb128 0x2e
 1411 0059 00       		.byte	0
 1412 005a 3F       		.uleb128 0x3f
 1413 005b 0C       		.uleb128 0xc
 1414 005c 03       		.uleb128 0x3
 1415 005d 0E       		.uleb128 0xe
 1416 005e 3A       		.uleb128 0x3a
 1417 005f 0B       		.uleb128 0xb
 1418 0060 3B       		.uleb128 0x3b
 1419 0061 0B       		.uleb128 0xb
 1420 0062 27       		.uleb128 0x27
 1421 0063 0C       		.uleb128 0xc
 1422 0064 11       		.uleb128 0x11
 1423 0065 01       		.uleb128 0x1
 1424 0066 12       		.uleb128 0x12
 1425 0067 01       		.uleb128 0x1
 1426 0068 40       		.uleb128 0x40
 1427 0069 06       		.uleb128 0x6
 1428 006a 9742     		.uleb128 0x2117
 1429 006c 0C       		.uleb128 0xc
 1430 006d 00       		.byte	0
 1431 006e 00       		.byte	0
 1432 006f 08       		.uleb128 0x8
 1433 0070 2E       		.uleb128 0x2e
 1434 0071 01       		.byte	0x1
 1435 0072 03       		.uleb128 0x3
 1436 0073 0E       		.uleb128 0xe
 1437 0074 3A       		.uleb128 0x3a
 1438 0075 0B       		.uleb128 0xb
 1439 0076 3B       		.uleb128 0x3b
 1440 0077 0B       		.uleb128 0xb
 1441 0078 27       		.uleb128 0x27
 1442 0079 0C       		.uleb128 0xc
 1443 007a 49       		.uleb128 0x49
 1444 007b 13       		.uleb128 0x13
 1445 007c 11       		.uleb128 0x11
 1446 007d 01       		.uleb128 0x1
 1447 007e 12       		.uleb128 0x12
 1448 007f 01       		.uleb128 0x1
 1449 0080 40       		.uleb128 0x40
 1450 0081 06       		.uleb128 0x6
 1451 0082 9642     		.uleb128 0x2116
 1452 0084 0C       		.uleb128 0xc
 1453 0085 01       		.uleb128 0x1
 1454 0086 13       		.uleb128 0x13
 1455 0087 00       		.byte	0
 1456 0088 00       		.byte	0
 1457 0089 09       		.uleb128 0x9
 1458 008a 34       		.uleb128 0x34
 1459 008b 00       		.byte	0
 1460 008c 03       		.uleb128 0x3
 1461 008d 0E       		.uleb128 0xe
 1462 008e 3A       		.uleb128 0x3a
 1463 008f 0B       		.uleb128 0xb
 1464 0090 3B       		.uleb128 0x3b
 1465 0091 0B       		.uleb128 0xb
 1466 0092 49       		.uleb128 0x49
ARM GAS  C:\Users\Robert\AppData\Local\Temp\cc9sD88Q.s 			page 39


 1467 0093 13       		.uleb128 0x13
 1468 0094 02       		.uleb128 0x2
 1469 0095 0A       		.uleb128 0xa
 1470 0096 00       		.byte	0
 1471 0097 00       		.byte	0
 1472 0098 0A       		.uleb128 0xa
 1473 0099 2E       		.uleb128 0x2e
 1474 009a 01       		.byte	0x1
 1475 009b 3F       		.uleb128 0x3f
 1476 009c 0C       		.uleb128 0xc
 1477 009d 03       		.uleb128 0x3
 1478 009e 0E       		.uleb128 0xe
 1479 009f 3A       		.uleb128 0x3a
 1480 00a0 0B       		.uleb128 0xb
 1481 00a1 3B       		.uleb128 0x3b
 1482 00a2 0B       		.uleb128 0xb
 1483 00a3 27       		.uleb128 0x27
 1484 00a4 0C       		.uleb128 0xc
 1485 00a5 49       		.uleb128 0x49
 1486 00a6 13       		.uleb128 0x13
 1487 00a7 11       		.uleb128 0x11
 1488 00a8 01       		.uleb128 0x1
 1489 00a9 12       		.uleb128 0x12
 1490 00aa 01       		.uleb128 0x1
 1491 00ab 40       		.uleb128 0x40
 1492 00ac 06       		.uleb128 0x6
 1493 00ad 9642     		.uleb128 0x2116
 1494 00af 0C       		.uleb128 0xc
 1495 00b0 01       		.uleb128 0x1
 1496 00b1 13       		.uleb128 0x13
 1497 00b2 00       		.byte	0
 1498 00b3 00       		.byte	0
 1499 00b4 0B       		.uleb128 0xb
 1500 00b5 05       		.uleb128 0x5
 1501 00b6 00       		.byte	0
 1502 00b7 03       		.uleb128 0x3
 1503 00b8 0E       		.uleb128 0xe
 1504 00b9 3A       		.uleb128 0x3a
 1505 00ba 0B       		.uleb128 0xb
 1506 00bb 3B       		.uleb128 0x3b
 1507 00bc 0B       		.uleb128 0xb
 1508 00bd 49       		.uleb128 0x49
 1509 00be 13       		.uleb128 0x13
 1510 00bf 02       		.uleb128 0x2
 1511 00c0 0A       		.uleb128 0xa
 1512 00c1 00       		.byte	0
 1513 00c2 00       		.byte	0
 1514 00c3 0C       		.uleb128 0xc
 1515 00c4 0F       		.uleb128 0xf
 1516 00c5 00       		.byte	0
 1517 00c6 0B       		.uleb128 0xb
 1518 00c7 0B       		.uleb128 0xb
 1519 00c8 49       		.uleb128 0x49
 1520 00c9 13       		.uleb128 0x13
 1521 00ca 00       		.byte	0
 1522 00cb 00       		.byte	0
 1523 00cc 0D       		.uleb128 0xd
ARM GAS  C:\Users\Robert\AppData\Local\Temp\cc9sD88Q.s 			page 40


 1524 00cd 2E       		.uleb128 0x2e
 1525 00ce 01       		.byte	0x1
 1526 00cf 3F       		.uleb128 0x3f
 1527 00d0 0C       		.uleb128 0xc
 1528 00d1 03       		.uleb128 0x3
 1529 00d2 0E       		.uleb128 0xe
 1530 00d3 3A       		.uleb128 0x3a
 1531 00d4 0B       		.uleb128 0xb
 1532 00d5 3B       		.uleb128 0x3b
 1533 00d6 05       		.uleb128 0x5
 1534 00d7 27       		.uleb128 0x27
 1535 00d8 0C       		.uleb128 0xc
 1536 00d9 49       		.uleb128 0x49
 1537 00da 13       		.uleb128 0x13
 1538 00db 11       		.uleb128 0x11
 1539 00dc 01       		.uleb128 0x1
 1540 00dd 12       		.uleb128 0x12
 1541 00de 01       		.uleb128 0x1
 1542 00df 40       		.uleb128 0x40
 1543 00e0 06       		.uleb128 0x6
 1544 00e1 9642     		.uleb128 0x2116
 1545 00e3 0C       		.uleb128 0xc
 1546 00e4 01       		.uleb128 0x1
 1547 00e5 13       		.uleb128 0x13
 1548 00e6 00       		.byte	0
 1549 00e7 00       		.byte	0
 1550 00e8 0E       		.uleb128 0xe
 1551 00e9 05       		.uleb128 0x5
 1552 00ea 00       		.byte	0
 1553 00eb 03       		.uleb128 0x3
 1554 00ec 0E       		.uleb128 0xe
 1555 00ed 3A       		.uleb128 0x3a
 1556 00ee 0B       		.uleb128 0xb
 1557 00ef 3B       		.uleb128 0x3b
 1558 00f0 05       		.uleb128 0x5
 1559 00f1 49       		.uleb128 0x49
 1560 00f2 13       		.uleb128 0x13
 1561 00f3 02       		.uleb128 0x2
 1562 00f4 0A       		.uleb128 0xa
 1563 00f5 00       		.byte	0
 1564 00f6 00       		.byte	0
 1565 00f7 0F       		.uleb128 0xf
 1566 00f8 34       		.uleb128 0x34
 1567 00f9 00       		.byte	0
 1568 00fa 03       		.uleb128 0x3
 1569 00fb 08       		.uleb128 0x8
 1570 00fc 3A       		.uleb128 0x3a
 1571 00fd 0B       		.uleb128 0xb
 1572 00fe 3B       		.uleb128 0x3b
 1573 00ff 05       		.uleb128 0x5
 1574 0100 49       		.uleb128 0x49
 1575 0101 13       		.uleb128 0x13
 1576 0102 02       		.uleb128 0x2
 1577 0103 0A       		.uleb128 0xa
 1578 0104 00       		.byte	0
 1579 0105 00       		.byte	0
 1580 0106 10       		.uleb128 0x10
ARM GAS  C:\Users\Robert\AppData\Local\Temp\cc9sD88Q.s 			page 41


 1581 0107 34       		.uleb128 0x34
 1582 0108 00       		.byte	0
 1583 0109 03       		.uleb128 0x3
 1584 010a 0E       		.uleb128 0xe
 1585 010b 3A       		.uleb128 0x3a
 1586 010c 0B       		.uleb128 0xb
 1587 010d 3B       		.uleb128 0x3b
 1588 010e 05       		.uleb128 0x5
 1589 010f 49       		.uleb128 0x49
 1590 0110 13       		.uleb128 0x13
 1591 0111 02       		.uleb128 0x2
 1592 0112 0A       		.uleb128 0xa
 1593 0113 00       		.byte	0
 1594 0114 00       		.byte	0
 1595 0115 11       		.uleb128 0x11
 1596 0116 26       		.uleb128 0x26
 1597 0117 00       		.byte	0
 1598 0118 49       		.uleb128 0x49
 1599 0119 13       		.uleb128 0x13
 1600 011a 00       		.byte	0
 1601 011b 00       		.byte	0
 1602 011c 12       		.uleb128 0x12
 1603 011d 2E       		.uleb128 0x2e
 1604 011e 01       		.byte	0x1
 1605 011f 3F       		.uleb128 0x3f
 1606 0120 0C       		.uleb128 0xc
 1607 0121 03       		.uleb128 0x3
 1608 0122 0E       		.uleb128 0xe
 1609 0123 3A       		.uleb128 0x3a
 1610 0124 0B       		.uleb128 0xb
 1611 0125 3B       		.uleb128 0x3b
 1612 0126 05       		.uleb128 0x5
 1613 0127 27       		.uleb128 0x27
 1614 0128 0C       		.uleb128 0xc
 1615 0129 11       		.uleb128 0x11
 1616 012a 01       		.uleb128 0x1
 1617 012b 12       		.uleb128 0x12
 1618 012c 01       		.uleb128 0x1
 1619 012d 40       		.uleb128 0x40
 1620 012e 06       		.uleb128 0x6
 1621 012f 9642     		.uleb128 0x2116
 1622 0131 0C       		.uleb128 0xc
 1623 0132 01       		.uleb128 0x1
 1624 0133 13       		.uleb128 0x13
 1625 0134 00       		.byte	0
 1626 0135 00       		.byte	0
 1627 0136 13       		.uleb128 0x13
 1628 0137 2E       		.uleb128 0x2e
 1629 0138 00       		.byte	0
 1630 0139 3F       		.uleb128 0x3f
 1631 013a 0C       		.uleb128 0xc
 1632 013b 03       		.uleb128 0x3
 1633 013c 0E       		.uleb128 0xe
 1634 013d 3A       		.uleb128 0x3a
 1635 013e 0B       		.uleb128 0xb
 1636 013f 3B       		.uleb128 0x3b
 1637 0140 05       		.uleb128 0x5
ARM GAS  C:\Users\Robert\AppData\Local\Temp\cc9sD88Q.s 			page 42


 1638 0141 27       		.uleb128 0x27
 1639 0142 0C       		.uleb128 0xc
 1640 0143 11       		.uleb128 0x11
 1641 0144 01       		.uleb128 0x1
 1642 0145 12       		.uleb128 0x12
 1643 0146 01       		.uleb128 0x1
 1644 0147 40       		.uleb128 0x40
 1645 0148 06       		.uleb128 0x6
 1646 0149 9742     		.uleb128 0x2117
 1647 014b 0C       		.uleb128 0xc
 1648 014c 00       		.byte	0
 1649 014d 00       		.byte	0
 1650 014e 14       		.uleb128 0x14
 1651 014f 01       		.uleb128 0x1
 1652 0150 01       		.byte	0x1
 1653 0151 49       		.uleb128 0x49
 1654 0152 13       		.uleb128 0x13
 1655 0153 01       		.uleb128 0x1
 1656 0154 13       		.uleb128 0x13
 1657 0155 00       		.byte	0
 1658 0156 00       		.byte	0
 1659 0157 15       		.uleb128 0x15
 1660 0158 21       		.uleb128 0x21
 1661 0159 00       		.byte	0
 1662 015a 49       		.uleb128 0x49
 1663 015b 13       		.uleb128 0x13
 1664 015c 2F       		.uleb128 0x2f
 1665 015d 0B       		.uleb128 0xb
 1666 015e 00       		.byte	0
 1667 015f 00       		.byte	0
 1668 0160 16       		.uleb128 0x16
 1669 0161 34       		.uleb128 0x34
 1670 0162 00       		.byte	0
 1671 0163 03       		.uleb128 0x3
 1672 0164 0E       		.uleb128 0xe
 1673 0165 3A       		.uleb128 0x3a
 1674 0166 0B       		.uleb128 0xb
 1675 0167 3B       		.uleb128 0x3b
 1676 0168 0B       		.uleb128 0xb
 1677 0169 49       		.uleb128 0x49
 1678 016a 13       		.uleb128 0x13
 1679 016b 3F       		.uleb128 0x3f
 1680 016c 0C       		.uleb128 0xc
 1681 016d 02       		.uleb128 0x2
 1682 016e 0A       		.uleb128 0xa
 1683 016f 00       		.byte	0
 1684 0170 00       		.byte	0
 1685 0171 00       		.byte	0
 1686              		.section	.debug_loc,"",%progbits
 1687              	.Ldebug_loc0:
 1688              	.LLST0:
 1689 0000 00000000 		.4byte	.LFB0
 1690 0004 02000000 		.4byte	.LCFI0
 1691 0008 0200     		.2byte	0x2
 1692 000a 7D       		.byte	0x7d
 1693 000b 00       		.sleb128 0
 1694 000c 02000000 		.4byte	.LCFI0
ARM GAS  C:\Users\Robert\AppData\Local\Temp\cc9sD88Q.s 			page 43


 1695 0010 04000000 		.4byte	.LCFI1
 1696 0014 0200     		.2byte	0x2
 1697 0016 7D       		.byte	0x7d
 1698 0017 08       		.sleb128 8
 1699 0018 04000000 		.4byte	.LCFI1
 1700 001c 46000000 		.4byte	.LFE0
 1701 0020 0200     		.2byte	0x2
 1702 0022 77       		.byte	0x77
 1703 0023 08       		.sleb128 8
 1704 0024 00000000 		.4byte	0
 1705 0028 00000000 		.4byte	0
 1706              	.LLST1:
 1707 002c 00000000 		.4byte	.LFB1
 1708 0030 02000000 		.4byte	.LCFI2
 1709 0034 0200     		.2byte	0x2
 1710 0036 7D       		.byte	0x7d
 1711 0037 00       		.sleb128 0
 1712 0038 02000000 		.4byte	.LCFI2
 1713 003c 04000000 		.4byte	.LCFI3
 1714 0040 0200     		.2byte	0x2
 1715 0042 7D       		.byte	0x7d
 1716 0043 04       		.sleb128 4
 1717 0044 04000000 		.4byte	.LCFI3
 1718 0048 42000000 		.4byte	.LFE1
 1719 004c 0200     		.2byte	0x2
 1720 004e 77       		.byte	0x77
 1721 004f 04       		.sleb128 4
 1722 0050 00000000 		.4byte	0
 1723 0054 00000000 		.4byte	0
 1724              	.LLST2:
 1725 0058 00000000 		.4byte	.LFB2
 1726 005c 02000000 		.4byte	.LCFI4
 1727 0060 0200     		.2byte	0x2
 1728 0062 7D       		.byte	0x7d
 1729 0063 00       		.sleb128 0
 1730 0064 02000000 		.4byte	.LCFI4
 1731 0068 04000000 		.4byte	.LCFI5
 1732 006c 0200     		.2byte	0x2
 1733 006e 7D       		.byte	0x7d
 1734 006f 08       		.sleb128 8
 1735 0070 04000000 		.4byte	.LCFI5
 1736 0074 06000000 		.4byte	.LCFI6
 1737 0078 0200     		.2byte	0x2
 1738 007a 7D       		.byte	0x7d
 1739 007b 10       		.sleb128 16
 1740 007c 06000000 		.4byte	.LCFI6
 1741 0080 90000000 		.4byte	.LFE2
 1742 0084 0200     		.2byte	0x2
 1743 0086 77       		.byte	0x77
 1744 0087 10       		.sleb128 16
 1745 0088 00000000 		.4byte	0
 1746 008c 00000000 		.4byte	0
 1747              	.LLST3:
 1748 0090 00000000 		.4byte	.LFB3
 1749 0094 02000000 		.4byte	.LCFI7
 1750 0098 0200     		.2byte	0x2
 1751 009a 7D       		.byte	0x7d
ARM GAS  C:\Users\Robert\AppData\Local\Temp\cc9sD88Q.s 			page 44


 1752 009b 00       		.sleb128 0
 1753 009c 02000000 		.4byte	.LCFI7
 1754 00a0 04000000 		.4byte	.LCFI8
 1755 00a4 0200     		.2byte	0x2
 1756 00a6 7D       		.byte	0x7d
 1757 00a7 08       		.sleb128 8
 1758 00a8 04000000 		.4byte	.LCFI8
 1759 00ac 06000000 		.4byte	.LCFI9
 1760 00b0 0200     		.2byte	0x2
 1761 00b2 7D       		.byte	0x7d
 1762 00b3 10       		.sleb128 16
 1763 00b4 06000000 		.4byte	.LCFI9
 1764 00b8 24000000 		.4byte	.LFE3
 1765 00bc 0200     		.2byte	0x2
 1766 00be 77       		.byte	0x77
 1767 00bf 10       		.sleb128 16
 1768 00c0 00000000 		.4byte	0
 1769 00c4 00000000 		.4byte	0
 1770              	.LLST4:
 1771 00c8 00000000 		.4byte	.LFB4
 1772 00cc 02000000 		.4byte	.LCFI10
 1773 00d0 0200     		.2byte	0x2
 1774 00d2 7D       		.byte	0x7d
 1775 00d3 00       		.sleb128 0
 1776 00d4 02000000 		.4byte	.LCFI10
 1777 00d8 04000000 		.4byte	.LCFI11
 1778 00dc 0200     		.2byte	0x2
 1779 00de 7D       		.byte	0x7d
 1780 00df 08       		.sleb128 8
 1781 00e0 04000000 		.4byte	.LCFI11
 1782 00e4 06000000 		.4byte	.LCFI12
 1783 00e8 0200     		.2byte	0x2
 1784 00ea 7D       		.byte	0x7d
 1785 00eb 18       		.sleb128 24
 1786 00ec 06000000 		.4byte	.LCFI12
 1787 00f0 76000000 		.4byte	.LFE4
 1788 00f4 0200     		.2byte	0x2
 1789 00f6 77       		.byte	0x77
 1790 00f7 18       		.sleb128 24
 1791 00f8 00000000 		.4byte	0
 1792 00fc 00000000 		.4byte	0
 1793              	.LLST5:
 1794 0100 00000000 		.4byte	.LFB5
 1795 0104 02000000 		.4byte	.LCFI13
 1796 0108 0200     		.2byte	0x2
 1797 010a 7D       		.byte	0x7d
 1798 010b 00       		.sleb128 0
 1799 010c 02000000 		.4byte	.LCFI13
 1800 0110 04000000 		.4byte	.LCFI14
 1801 0114 0200     		.2byte	0x2
 1802 0116 7D       		.byte	0x7d
 1803 0117 08       		.sleb128 8
 1804 0118 04000000 		.4byte	.LCFI14
 1805 011c 06000000 		.4byte	.LCFI15
 1806 0120 0200     		.2byte	0x2
 1807 0122 7D       		.byte	0x7d
 1808 0123 20       		.sleb128 32
ARM GAS  C:\Users\Robert\AppData\Local\Temp\cc9sD88Q.s 			page 45


 1809 0124 06000000 		.4byte	.LCFI15
 1810 0128 BA000000 		.4byte	.LFE5
 1811 012c 0200     		.2byte	0x2
 1812 012e 77       		.byte	0x77
 1813 012f 20       		.sleb128 32
 1814 0130 00000000 		.4byte	0
 1815 0134 00000000 		.4byte	0
 1816              	.LLST6:
 1817 0138 00000000 		.4byte	.LFB6
 1818 013c 02000000 		.4byte	.LCFI16
 1819 0140 0200     		.2byte	0x2
 1820 0142 7D       		.byte	0x7d
 1821 0143 00       		.sleb128 0
 1822 0144 02000000 		.4byte	.LCFI16
 1823 0148 04000000 		.4byte	.LCFI17
 1824 014c 0200     		.2byte	0x2
 1825 014e 7D       		.byte	0x7d
 1826 014f 08       		.sleb128 8
 1827 0150 04000000 		.4byte	.LCFI17
 1828 0154 06000000 		.4byte	.LCFI18
 1829 0158 0200     		.2byte	0x2
 1830 015a 7D       		.byte	0x7d
 1831 015b 20       		.sleb128 32
 1832 015c 06000000 		.4byte	.LCFI18
 1833 0160 20010000 		.4byte	.LFE6
 1834 0164 0200     		.2byte	0x2
 1835 0166 77       		.byte	0x77
 1836 0167 20       		.sleb128 32
 1837 0168 00000000 		.4byte	0
 1838 016c 00000000 		.4byte	0
 1839              	.LLST7:
 1840 0170 00000000 		.4byte	.LFB7
 1841 0174 02000000 		.4byte	.LCFI19
 1842 0178 0200     		.2byte	0x2
 1843 017a 7D       		.byte	0x7d
 1844 017b 00       		.sleb128 0
 1845 017c 02000000 		.4byte	.LCFI19
 1846 0180 04000000 		.4byte	.LCFI20
 1847 0184 0200     		.2byte	0x2
 1848 0186 7D       		.byte	0x7d
 1849 0187 08       		.sleb128 8
 1850 0188 04000000 		.4byte	.LCFI20
 1851 018c 06000000 		.4byte	.LCFI21
 1852 0190 0200     		.2byte	0x2
 1853 0192 7D       		.byte	0x7d
 1854 0193 18       		.sleb128 24
 1855 0194 06000000 		.4byte	.LCFI21
 1856 0198 BE000000 		.4byte	.LFE7
 1857 019c 0200     		.2byte	0x2
 1858 019e 77       		.byte	0x77
 1859 019f 18       		.sleb128 24
 1860 01a0 00000000 		.4byte	0
 1861 01a4 00000000 		.4byte	0
 1862              	.LLST8:
 1863 01a8 00000000 		.4byte	.LFB8
 1864 01ac 02000000 		.4byte	.LCFI22
 1865 01b0 0200     		.2byte	0x2
ARM GAS  C:\Users\Robert\AppData\Local\Temp\cc9sD88Q.s 			page 46


 1866 01b2 7D       		.byte	0x7d
 1867 01b3 00       		.sleb128 0
 1868 01b4 02000000 		.4byte	.LCFI22
 1869 01b8 04000000 		.4byte	.LCFI23
 1870 01bc 0200     		.2byte	0x2
 1871 01be 7D       		.byte	0x7d
 1872 01bf 04       		.sleb128 4
 1873 01c0 04000000 		.4byte	.LCFI23
 1874 01c4 42000000 		.4byte	.LFE8
 1875 01c8 0200     		.2byte	0x2
 1876 01ca 77       		.byte	0x77
 1877 01cb 04       		.sleb128 4
 1878 01cc 00000000 		.4byte	0
 1879 01d0 00000000 		.4byte	0
 1880              	.LLST9:
 1881 01d4 00000000 		.4byte	.LFB9
 1882 01d8 02000000 		.4byte	.LCFI24
 1883 01dc 0200     		.2byte	0x2
 1884 01de 7D       		.byte	0x7d
 1885 01df 00       		.sleb128 0
 1886 01e0 02000000 		.4byte	.LCFI24
 1887 01e4 04000000 		.4byte	.LCFI25
 1888 01e8 0200     		.2byte	0x2
 1889 01ea 7D       		.byte	0x7d
 1890 01eb 04       		.sleb128 4
 1891 01ec 04000000 		.4byte	.LCFI25
 1892 01f0 42000000 		.4byte	.LFE9
 1893 01f4 0200     		.2byte	0x2
 1894 01f6 77       		.byte	0x77
 1895 01f7 04       		.sleb128 4
 1896 01f8 00000000 		.4byte	0
 1897 01fc 00000000 		.4byte	0
 1898              	.LLST10:
 1899 0200 00000000 		.4byte	.LFB10
 1900 0204 02000000 		.4byte	.LCFI26
 1901 0208 0200     		.2byte	0x2
 1902 020a 7D       		.byte	0x7d
 1903 020b 00       		.sleb128 0
 1904 020c 02000000 		.4byte	.LCFI26
 1905 0210 04000000 		.4byte	.LCFI27
 1906 0214 0200     		.2byte	0x2
 1907 0216 7D       		.byte	0x7d
 1908 0217 04       		.sleb128 4
 1909 0218 04000000 		.4byte	.LCFI27
 1910 021c 3C000000 		.4byte	.LFE10
 1911 0220 0200     		.2byte	0x2
 1912 0222 77       		.byte	0x77
 1913 0223 04       		.sleb128 4
 1914 0224 00000000 		.4byte	0
 1915 0228 00000000 		.4byte	0
 1916              	.LLST11:
 1917 022c 00000000 		.4byte	.LFB11
 1918 0230 02000000 		.4byte	.LCFI28
 1919 0234 0200     		.2byte	0x2
 1920 0236 7D       		.byte	0x7d
 1921 0237 00       		.sleb128 0
 1922 0238 02000000 		.4byte	.LCFI28
ARM GAS  C:\Users\Robert\AppData\Local\Temp\cc9sD88Q.s 			page 47


 1923 023c 04000000 		.4byte	.LCFI29
 1924 0240 0200     		.2byte	0x2
 1925 0242 7D       		.byte	0x7d
 1926 0243 04       		.sleb128 4
 1927 0244 04000000 		.4byte	.LCFI29
 1928 0248 26000000 		.4byte	.LFE11
 1929 024c 0200     		.2byte	0x2
 1930 024e 77       		.byte	0x77
 1931 024f 04       		.sleb128 4
 1932 0250 00000000 		.4byte	0
 1933 0254 00000000 		.4byte	0
 1934              		.section	.debug_aranges,"",%progbits
 1935 0000 74000000 		.4byte	0x74
 1936 0004 0200     		.2byte	0x2
 1937 0006 00000000 		.4byte	.Ldebug_info0
 1938 000a 04       		.byte	0x4
 1939 000b 00       		.byte	0
 1940 000c 0000     		.2byte	0
 1941 000e 0000     		.2byte	0
 1942 0010 00000000 		.4byte	.LFB0
 1943 0014 46000000 		.4byte	.LFE0-.LFB0
 1944 0018 00000000 		.4byte	.LFB1
 1945 001c 42000000 		.4byte	.LFE1-.LFB1
 1946 0020 00000000 		.4byte	.LFB2
 1947 0024 90000000 		.4byte	.LFE2-.LFB2
 1948 0028 00000000 		.4byte	.LFB3
 1949 002c 24000000 		.4byte	.LFE3-.LFB3
 1950 0030 00000000 		.4byte	.LFB4
 1951 0034 76000000 		.4byte	.LFE4-.LFB4
 1952 0038 00000000 		.4byte	.LFB5
 1953 003c BA000000 		.4byte	.LFE5-.LFB5
 1954 0040 00000000 		.4byte	.LFB6
 1955 0044 20010000 		.4byte	.LFE6-.LFB6
 1956 0048 00000000 		.4byte	.LFB7
 1957 004c BE000000 		.4byte	.LFE7-.LFB7
 1958 0050 00000000 		.4byte	.LFB8
 1959 0054 42000000 		.4byte	.LFE8-.LFB8
 1960 0058 00000000 		.4byte	.LFB9
 1961 005c 42000000 		.4byte	.LFE9-.LFB9
 1962 0060 00000000 		.4byte	.LFB10
 1963 0064 3C000000 		.4byte	.LFE10-.LFB10
 1964 0068 00000000 		.4byte	.LFB11
 1965 006c 26000000 		.4byte	.LFE11-.LFB11
 1966 0070 00000000 		.4byte	0
 1967 0074 00000000 		.4byte	0
 1968              		.section	.debug_ranges,"",%progbits
 1969              	.Ldebug_ranges0:
 1970 0000 00000000 		.4byte	.LFB0
 1971 0004 46000000 		.4byte	.LFE0
 1972 0008 00000000 		.4byte	.LFB1
 1973 000c 42000000 		.4byte	.LFE1
 1974 0010 00000000 		.4byte	.LFB2
 1975 0014 90000000 		.4byte	.LFE2
 1976 0018 00000000 		.4byte	.LFB3
 1977 001c 24000000 		.4byte	.LFE3
 1978 0020 00000000 		.4byte	.LFB4
 1979 0024 76000000 		.4byte	.LFE4
ARM GAS  C:\Users\Robert\AppData\Local\Temp\cc9sD88Q.s 			page 48


 1980 0028 00000000 		.4byte	.LFB5
 1981 002c BA000000 		.4byte	.LFE5
 1982 0030 00000000 		.4byte	.LFB6
 1983 0034 20010000 		.4byte	.LFE6
 1984 0038 00000000 		.4byte	.LFB7
 1985 003c BE000000 		.4byte	.LFE7
 1986 0040 00000000 		.4byte	.LFB8
 1987 0044 42000000 		.4byte	.LFE8
 1988 0048 00000000 		.4byte	.LFB9
 1989 004c 42000000 		.4byte	.LFE9
 1990 0050 00000000 		.4byte	.LFB10
 1991 0054 3C000000 		.4byte	.LFE10
 1992 0058 00000000 		.4byte	.LFB11
 1993 005c 26000000 		.4byte	.LFE11
 1994 0060 00000000 		.4byte	0
 1995 0064 00000000 		.4byte	0
 1996              		.section	.debug_line,"",%progbits
 1997              	.Ldebug_line0:
 1998 0000 A5010000 		.section	.debug_str,"MS",%progbits,1
 1998      02004600 
 1998      00000201 
 1998      FB0E0D00 
 1998      01010101 
 1999              	.LASF15:
 2000 0000 63797374 		.ascii	"cystatus\000"
 2000      61747573 
 2000      00
 2001              	.LASF16:
 2002 0009 72656738 		.ascii	"reg8\000"
 2002      00
 2003              	.LASF41:
 2004 000e 433A5C55 		.ascii	"C:\\Users\\Robert\\workspace\\embedit_git\\PSoC_2_P"
 2004      73657273 
 2004      5C526F62 
 2004      6572745C 
 2004      776F726B 
 2005 003c 695C5053 		.ascii	"i\\PSoC Creator\\PSoC_2_Pi.cydsn\000"
 2005      6F432043 
 2005      72656174 
 2005      6F725C50 
 2005      536F435F 
 2006              	.LASF38:
 2007 005b 726F7742 		.ascii	"rowBuffer\000"
 2007      75666665 
 2007      7200
 2008              	.LASF35:
 2009 0065 43794545 		.ascii	"CyEEPROM_Stop\000"
 2009      50524F4D 
 2009      5F53746F 
 2009      7000
 2010              	.LASF3:
 2011 0073 73686F72 		.ascii	"short unsigned int\000"
 2011      7420756E 
 2011      7369676E 
 2011      65642069 
 2011      6E7400
 2012              	.LASF30:
ARM GAS  C:\Users\Robert\AppData\Local\Temp\cc9sD88Q.s 			page 49


 2013 0086 43795772 		.ascii	"CyWriteRowFull\000"
 2013      69746552 
 2013      6F774675 
 2013      6C6C00
 2014              	.LASF20:
 2015 0095 73746174 		.ascii	"status\000"
 2015      757300
 2016              	.LASF12:
 2017 009c 666C6F61 		.ascii	"float\000"
 2017      7400
 2018              	.LASF43:
 2019 00a2 4379466C 		.ascii	"CyFlash_SetWaitCycles\000"
 2019      6173685F 
 2019      53657457 
 2019      61697443 
 2019      79636C65 
 2020              	.LASF22:
 2021 00b8 43795365 		.ascii	"CySetFlashEEBuffer\000"
 2021      74466C61 
 2021      73684545 
 2021      42756666 
 2021      657200
 2022              	.LASF1:
 2023 00cb 756E7369 		.ascii	"unsigned char\000"
 2023      676E6564 
 2023      20636861 
 2023      7200
 2024              	.LASF27:
 2025 00d9 726F7744 		.ascii	"rowData\000"
 2025      61746100 
 2026              	.LASF34:
 2027 00e1 43794545 		.ascii	"CyEEPROM_Start\000"
 2027      50524F4D 
 2027      5F537461 
 2027      727400
 2028              	.LASF33:
 2029 00f0 696E7465 		.ascii	"interruptState\000"
 2029      72727570 
 2029      74537461 
 2029      746500
 2030              	.LASF5:
 2031 00ff 6C6F6E67 		.ascii	"long unsigned int\000"
 2031      20756E73 
 2031      69676E65 
 2031      6420696E 
 2031      7400
 2032              	.LASF9:
 2033 0111 75696E74 		.ascii	"uint8\000"
 2033      3800
 2034              	.LASF25:
 2035 0117 61727261 		.ascii	"arrayId\000"
 2035      79496400 
 2036              	.LASF44:
 2037 011f 64696554 		.ascii	"dieTemperature\000"
 2037      656D7065 
 2037      72617475 
 2037      726500
ARM GAS  C:\Users\Robert\AppData\Local\Temp\cc9sD88Q.s 			page 50


 2038              	.LASF13:
 2039 012e 646F7562 		.ascii	"double\000"
 2039      6C6500
 2040              	.LASF29:
 2041 0135 726F7753 		.ascii	"rowSize\000"
 2041      697A6500 
 2042              	.LASF2:
 2043 013d 73686F72 		.ascii	"short int\000"
 2043      7420696E 
 2043      7400
 2044              	.LASF37:
 2045 0147 43794545 		.ascii	"CyEEPROM_ReadRelease\000"
 2045      50524F4D 
 2045      5F526561 
 2045      6452656C 
 2045      65617365 
 2046              	.LASF10:
 2047 015c 75696E74 		.ascii	"uint16\000"
 2047      313600
 2048              	.LASF11:
 2049 0163 75696E74 		.ascii	"uint32\000"
 2049      333200
 2050              	.LASF8:
 2051 016a 756E7369 		.ascii	"unsigned int\000"
 2051      676E6564 
 2051      20696E74 
 2051      00
 2052              	.LASF18:
 2053 0177 4379466C 		.ascii	"CyFlash_Start\000"
 2053      6173685F 
 2053      53746172 
 2053      7400
 2054              	.LASF7:
 2055 0185 6C6F6E67 		.ascii	"long long unsigned int\000"
 2055      206C6F6E 
 2055      6720756E 
 2055      7369676E 
 2055      65642069 
 2056              	.LASF36:
 2057 019c 43794545 		.ascii	"CyEEPROM_ReadReserve\000"
 2057      50524F4D 
 2057      5F526561 
 2057      64526573 
 2057      65727665 
 2058              	.LASF17:
 2059 01b1 73697A65 		.ascii	"sizetype\000"
 2059      74797065 
 2059      00
 2060              	.LASF21:
 2061 01ba 43795365 		.ascii	"CySetTemp\000"
 2061      7454656D 
 2061      7000
 2062              	.LASF6:
 2063 01c4 6C6F6E67 		.ascii	"long long int\000"
 2063      206C6F6E 
 2063      6720696E 
 2063      7400
ARM GAS  C:\Users\Robert\AppData\Local\Temp\cc9sD88Q.s 			page 51


 2064              	.LASF26:
 2065 01d2 726F7741 		.ascii	"rowAddress\000"
 2065      64647265 
 2065      737300
 2066              	.LASF14:
 2067 01dd 63686172 		.ascii	"char\000"
 2067      00
 2068              	.LASF42:
 2069 01e2 43795365 		.ascii	"CySetTempInt\000"
 2069      7454656D 
 2069      70496E74 
 2069      00
 2070              	.LASF28:
 2071 01ef 6F666673 		.ascii	"offset\000"
 2071      657400
 2072              	.LASF32:
 2073 01f6 66726571 		.ascii	"freq\000"
 2073      00
 2074              	.LASF24:
 2075 01fb 62756666 		.ascii	"buffer\000"
 2075      657200
 2076              	.LASF39:
 2077 0202 474E5520 		.ascii	"GNU C 4.7.3 20130312 (release) [ARM/embedded-4_7-br"
 2077      4320342E 
 2077      372E3320 
 2077      32303133 
 2077      30333132 
 2078 0235 616E6368 		.ascii	"anch revision 196615]\000"
 2078      20726576 
 2078      6973696F 
 2078      6E203139 
 2078      36363135 
 2079              	.LASF40:
 2080 024b 2E5C4765 		.ascii	".\\Generated_Source\\PSoC5\\CyFlash.c\000"
 2080      6E657261 
 2080      7465645F 
 2080      536F7572 
 2080      63655C50 
 2081              	.LASF4:
 2082 026e 6C6F6E67 		.ascii	"long int\000"
 2082      20696E74 
 2082      00
 2083              	.LASF19:
 2084 0277 4379466C 		.ascii	"CyFlash_Stop\000"
 2084      6173685F 
 2084      53746F70 
 2084      00
 2085              	.LASF31:
 2086 0284 726F774E 		.ascii	"rowNumber\000"
 2086      756D6265 
 2086      7200
 2087              	.LASF0:
 2088 028e 7369676E 		.ascii	"signed char\000"
 2088      65642063 
 2088      68617200 
 2089              	.LASF23:
 2090 029a 43795772 		.ascii	"CyWriteRowData\000"
ARM GAS  C:\Users\Robert\AppData\Local\Temp\cc9sD88Q.s 			page 52


 2090      69746552 
 2090      6F774461 
 2090      746100
 2091              		.ident	"GCC: (GNU Tools for ARM Embedded Processors) 4.7.3 20130312 (release) [ARM/embedded-4_7-br
