ARM GAS  C:\Users\Robert\AppData\Local\Temp\ccO8GixT.s 			page 1


   1              		.syntax unified
   2              		.cpu cortex-m3
   3              		.fpu softvfp
   4              		.eabi_attribute 20, 1
   5              		.eabi_attribute 21, 1
   6              		.eabi_attribute 23, 3
   7              		.eabi_attribute 24, 1
   8              		.eabi_attribute 25, 1
   9              		.eabi_attribute 26, 1
  10              		.eabi_attribute 30, 6
  11              		.eabi_attribute 34, 1
  12              		.eabi_attribute 18, 4
  13              		.thumb
  14              		.file	"IDAC8_1.c"
  15              		.text
  16              	.Ltext0:
  17              		.cfi_sections	.debug_frame
  18              		.global	IDAC8_1_initVar
  19              		.bss
  20              		.type	IDAC8_1_initVar, %object
  21              		.size	IDAC8_1_initVar, 1
  22              	IDAC8_1_initVar:
  23 0000 00       		.space	1
  24              		.section	.text.IDAC8_1_Init,"ax",%progbits
  25              		.align	2
  26              		.global	IDAC8_1_Init
  27              		.thumb
  28              		.thumb_func
  29              		.type	IDAC8_1_Init, %function
  30              	IDAC8_1_Init:
  31              	.LFB0:
  32              		.file 1 ".\\Generated_Source\\PSoC5\\IDAC8_1.c"
   1:.\Generated_Source\PSoC5/IDAC8_1.c **** /*******************************************************************************
   2:.\Generated_Source\PSoC5/IDAC8_1.c **** * File Name: IDAC8_1.c
   3:.\Generated_Source\PSoC5/IDAC8_1.c **** * Version 2.0
   4:.\Generated_Source\PSoC5/IDAC8_1.c **** *
   5:.\Generated_Source\PSoC5/IDAC8_1.c **** * Description:
   6:.\Generated_Source\PSoC5/IDAC8_1.c **** *  This file provides the source code to the API for the 8-bit Current 
   7:.\Generated_Source\PSoC5/IDAC8_1.c **** *  DAC (IDAC8) User Module.
   8:.\Generated_Source\PSoC5/IDAC8_1.c **** *
   9:.\Generated_Source\PSoC5/IDAC8_1.c **** * Note:
  10:.\Generated_Source\PSoC5/IDAC8_1.c **** *  None
  11:.\Generated_Source\PSoC5/IDAC8_1.c **** *
  12:.\Generated_Source\PSoC5/IDAC8_1.c **** ********************************************************************************
  13:.\Generated_Source\PSoC5/IDAC8_1.c **** * Copyright 2008-2012, Cypress Semiconductor Corporation.  All rights reserved.
  14:.\Generated_Source\PSoC5/IDAC8_1.c **** * You may use this file only in accordance with the license, terms, conditions, 
  15:.\Generated_Source\PSoC5/IDAC8_1.c **** * disclaimers, and limitations in the end user license agreement accompanying 
  16:.\Generated_Source\PSoC5/IDAC8_1.c **** * the software package with which this file was provided.
  17:.\Generated_Source\PSoC5/IDAC8_1.c **** *******************************************************************************/
  18:.\Generated_Source\PSoC5/IDAC8_1.c **** 
  19:.\Generated_Source\PSoC5/IDAC8_1.c **** #include "cytypes.h"
  20:.\Generated_Source\PSoC5/IDAC8_1.c **** #include "IDAC8_1.h"   
  21:.\Generated_Source\PSoC5/IDAC8_1.c **** 
  22:.\Generated_Source\PSoC5/IDAC8_1.c **** #if (CY_PSOC5A)
  23:.\Generated_Source\PSoC5/IDAC8_1.c ****     #include <CyLib.h>
  24:.\Generated_Source\PSoC5/IDAC8_1.c **** #endif /* CY_PSOC5A */
  25:.\Generated_Source\PSoC5/IDAC8_1.c **** 
ARM GAS  C:\Users\Robert\AppData\Local\Temp\ccO8GixT.s 			page 2


  26:.\Generated_Source\PSoC5/IDAC8_1.c **** 
  27:.\Generated_Source\PSoC5/IDAC8_1.c **** uint8 IDAC8_1_initVar = 0u;
  28:.\Generated_Source\PSoC5/IDAC8_1.c **** 
  29:.\Generated_Source\PSoC5/IDAC8_1.c **** 
  30:.\Generated_Source\PSoC5/IDAC8_1.c **** #if (CY_PSOC5A)
  31:.\Generated_Source\PSoC5/IDAC8_1.c ****     static IDAC8_1_LOWPOWER_BACKUP_STRUCT  IDAC8_1_lowPowerBackup;
  32:.\Generated_Source\PSoC5/IDAC8_1.c **** #endif /* CY_PSOC5A */
  33:.\Generated_Source\PSoC5/IDAC8_1.c **** 
  34:.\Generated_Source\PSoC5/IDAC8_1.c **** /* Variable to decide whether or not to restore control register in Enable()
  35:.\Generated_Source\PSoC5/IDAC8_1.c ****    API. This valid only for PSoC5A */
  36:.\Generated_Source\PSoC5/IDAC8_1.c **** #if (CY_PSOC5A)
  37:.\Generated_Source\PSoC5/IDAC8_1.c ****     static uint8 IDAC8_1_restoreReg = 0u;
  38:.\Generated_Source\PSoC5/IDAC8_1.c **** #endif /* CY_PSOC5A */
  39:.\Generated_Source\PSoC5/IDAC8_1.c **** 
  40:.\Generated_Source\PSoC5/IDAC8_1.c **** 
  41:.\Generated_Source\PSoC5/IDAC8_1.c **** /*******************************************************************************
  42:.\Generated_Source\PSoC5/IDAC8_1.c **** * Function Name: IDAC8_1_Init
  43:.\Generated_Source\PSoC5/IDAC8_1.c **** ********************************************************************************
  44:.\Generated_Source\PSoC5/IDAC8_1.c **** * Summary:
  45:.\Generated_Source\PSoC5/IDAC8_1.c **** *  Initialize to the schematic state.
  46:.\Generated_Source\PSoC5/IDAC8_1.c **** * 
  47:.\Generated_Source\PSoC5/IDAC8_1.c **** * Parameters:
  48:.\Generated_Source\PSoC5/IDAC8_1.c **** *  void:
  49:.\Generated_Source\PSoC5/IDAC8_1.c **** *
  50:.\Generated_Source\PSoC5/IDAC8_1.c **** * Return:
  51:.\Generated_Source\PSoC5/IDAC8_1.c **** *  (void)
  52:.\Generated_Source\PSoC5/IDAC8_1.c **** *
  53:.\Generated_Source\PSoC5/IDAC8_1.c **** * Theory:
  54:.\Generated_Source\PSoC5/IDAC8_1.c **** *
  55:.\Generated_Source\PSoC5/IDAC8_1.c **** * Side Effects:
  56:.\Generated_Source\PSoC5/IDAC8_1.c **** *
  57:.\Generated_Source\PSoC5/IDAC8_1.c **** *******************************************************************************/
  58:.\Generated_Source\PSoC5/IDAC8_1.c **** void IDAC8_1_Init(void) 
  59:.\Generated_Source\PSoC5/IDAC8_1.c **** {
  33              		.loc 1 59 0
  34              		.cfi_startproc
  35              		@ args = 0, pretend = 0, frame = 0
  36              		@ frame_needed = 1, uses_anonymous_args = 0
  37 0000 80B5     		push	{r7, lr}
  38              	.LCFI0:
  39              		.cfi_def_cfa_offset 8
  40              		.cfi_offset 7, -8
  41              		.cfi_offset 14, -4
  42 0002 00AF     		add	r7, sp, #0
  43              	.LCFI1:
  44              		.cfi_def_cfa_register 7
  60:.\Generated_Source\PSoC5/IDAC8_1.c ****     IDAC8_1_CR0 = (IDAC8_1_MODE_I | IDAC8_1_DEFAULT_RANGE );
  45              		.loc 1 60 0
  46 0004 45F62003 		movw	r3, #22560
  47 0008 C4F20003 		movt	r3, 16384
  48 000c 4FF01002 		mov	r2, #16
  49 0010 1A70     		strb	r2, [r3, #0]
  61:.\Generated_Source\PSoC5/IDAC8_1.c **** 
  62:.\Generated_Source\PSoC5/IDAC8_1.c ****     /* Set default data source */
  63:.\Generated_Source\PSoC5/IDAC8_1.c ****     #if(IDAC8_1_DEFAULT_DATA_SRC != 0u )    
  64:.\Generated_Source\PSoC5/IDAC8_1.c ****         IDAC8_1_CR1 = (IDAC8_1_DEFAULT_CNTL | IDAC8_1_DACBUS_ENABLE);
  65:.\Generated_Source\PSoC5/IDAC8_1.c ****     #else
ARM GAS  C:\Users\Robert\AppData\Local\Temp\ccO8GixT.s 			page 3


  66:.\Generated_Source\PSoC5/IDAC8_1.c ****         IDAC8_1_CR1 = (IDAC8_1_DEFAULT_CNTL | IDAC8_1_DACBUS_DISABLE);
  50              		.loc 1 66 0
  51 0012 45F62103 		movw	r3, #22561
  52 0016 C4F20003 		movt	r3, 16384
  53 001a 4FF00002 		mov	r2, #0
  54 001e 1A70     		strb	r2, [r3, #0]
  67:.\Generated_Source\PSoC5/IDAC8_1.c ****     #endif /* (IDAC8_1_DEFAULT_DATA_SRC != 0u ) */
  68:.\Generated_Source\PSoC5/IDAC8_1.c ****     
  69:.\Generated_Source\PSoC5/IDAC8_1.c ****     /*Controls polarity from UDB Control*/
  70:.\Generated_Source\PSoC5/IDAC8_1.c ****     #if(IDAC8_1_DEFAULT_POLARITY == IDAC8_1_HARDWARE_CONTROLLED)
  71:.\Generated_Source\PSoC5/IDAC8_1.c ****         IDAC8_1_CR1 |= IDAC8_1_IDIR_SRC_UDB;
  72:.\Generated_Source\PSoC5/IDAC8_1.c ****     #else
  73:.\Generated_Source\PSoC5/IDAC8_1.c ****         IDAC8_1_CR1 |= IDAC8_1_DEFAULT_POLARITY;
  55              		.loc 1 73 0
  56 0020 45F62103 		movw	r3, #22561
  57 0024 C4F20003 		movt	r3, 16384
  58 0028 45F62102 		movw	r2, #22561
  59 002c C4F20002 		movt	r2, 16384
  60 0030 1278     		ldrb	r2, [r2, #0]
  61 0032 D2B2     		uxtb	r2, r2
  62 0034 42F00402 		orr	r2, r2, #4
  63 0038 D2B2     		uxtb	r2, r2
  64 003a 1A70     		strb	r2, [r3, #0]
  74:.\Generated_Source\PSoC5/IDAC8_1.c ****     #endif/* (IDAC8_1_DEFAULT_POLARITY == IDAC8_1_HARDWARE_CONTROLLED) */
  75:.\Generated_Source\PSoC5/IDAC8_1.c ****     /*Controls Current Source from UDB Control*/
  76:.\Generated_Source\PSoC5/IDAC8_1.c ****     #if(IDAC8_1_HARDWARE_ENABLE != 0u ) 
  77:.\Generated_Source\PSoC5/IDAC8_1.c ****         IDAC8_1_CR1 |= IDAC8_1_IDIR_CTL_UDB;
  78:.\Generated_Source\PSoC5/IDAC8_1.c ****     #endif /* (IDAC8_1_HARDWARE_ENABLE != 0u ) */ 
  79:.\Generated_Source\PSoC5/IDAC8_1.c ****     
  80:.\Generated_Source\PSoC5/IDAC8_1.c ****     /* Set default strobe mode */
  81:.\Generated_Source\PSoC5/IDAC8_1.c ****     #if(IDAC8_1_DEFAULT_STRB != 0u)
  82:.\Generated_Source\PSoC5/IDAC8_1.c ****         IDAC8_1_Strobe |= IDAC8_1_STRB_EN;
  83:.\Generated_Source\PSoC5/IDAC8_1.c ****     #endif /* (IDAC8_1_DEFAULT_STRB != 0u) */
  84:.\Generated_Source\PSoC5/IDAC8_1.c ****     
  85:.\Generated_Source\PSoC5/IDAC8_1.c ****     /* Set default speed */
  86:.\Generated_Source\PSoC5/IDAC8_1.c ****     IDAC8_1_SetSpeed(IDAC8_1_DEFAULT_SPEED);
  65              		.loc 1 86 0
  66 003c 4FF00000 		mov	r0, #0
  67 0040 FFF7FEFF 		bl	IDAC8_1_SetSpeed
  87:.\Generated_Source\PSoC5/IDAC8_1.c ****     
  88:.\Generated_Source\PSoC5/IDAC8_1.c ****     /* Set proper DAC trim */
  89:.\Generated_Source\PSoC5/IDAC8_1.c ****     IDAC8_1_DacTrim();
  68              		.loc 1 89 0
  69 0044 FFF7FEFF 		bl	IDAC8_1_DacTrim
  90:.\Generated_Source\PSoC5/IDAC8_1.c ****     
  91:.\Generated_Source\PSoC5/IDAC8_1.c **** }
  70              		.loc 1 91 0
  71 0048 80BD     		pop	{r7, pc}
  72              		.cfi_endproc
  73              	.LFE0:
  74              		.size	IDAC8_1_Init, .-IDAC8_1_Init
  75 004a 00BF     		.section	.text.IDAC8_1_Enable,"ax",%progbits
  76              		.align	2
  77              		.global	IDAC8_1_Enable
  78              		.thumb
  79              		.thumb_func
  80              		.type	IDAC8_1_Enable, %function
ARM GAS  C:\Users\Robert\AppData\Local\Temp\ccO8GixT.s 			page 4


  81              	IDAC8_1_Enable:
  82              	.LFB1:
  92:.\Generated_Source\PSoC5/IDAC8_1.c **** 
  93:.\Generated_Source\PSoC5/IDAC8_1.c **** 
  94:.\Generated_Source\PSoC5/IDAC8_1.c **** /*******************************************************************************
  95:.\Generated_Source\PSoC5/IDAC8_1.c **** * Function Name: IDAC8_1_Enable
  96:.\Generated_Source\PSoC5/IDAC8_1.c **** ********************************************************************************
  97:.\Generated_Source\PSoC5/IDAC8_1.c **** * Summary:
  98:.\Generated_Source\PSoC5/IDAC8_1.c **** *  Enable the IDAC8
  99:.\Generated_Source\PSoC5/IDAC8_1.c **** * 
 100:.\Generated_Source\PSoC5/IDAC8_1.c **** * Parameters:
 101:.\Generated_Source\PSoC5/IDAC8_1.c **** *  void:
 102:.\Generated_Source\PSoC5/IDAC8_1.c **** *
 103:.\Generated_Source\PSoC5/IDAC8_1.c **** * Return:
 104:.\Generated_Source\PSoC5/IDAC8_1.c **** *  (void)
 105:.\Generated_Source\PSoC5/IDAC8_1.c **** *
 106:.\Generated_Source\PSoC5/IDAC8_1.c **** * Theory:
 107:.\Generated_Source\PSoC5/IDAC8_1.c **** *
 108:.\Generated_Source\PSoC5/IDAC8_1.c **** * Side Effects:
 109:.\Generated_Source\PSoC5/IDAC8_1.c **** *
 110:.\Generated_Source\PSoC5/IDAC8_1.c **** *******************************************************************************/
 111:.\Generated_Source\PSoC5/IDAC8_1.c **** void IDAC8_1_Enable(void) 
 112:.\Generated_Source\PSoC5/IDAC8_1.c **** {
  83              		.loc 1 112 0
  84              		.cfi_startproc
  85              		@ args = 0, pretend = 0, frame = 0
  86              		@ frame_needed = 1, uses_anonymous_args = 0
  87              		@ link register save eliminated.
  88 0000 80B4     		push	{r7}
  89              	.LCFI2:
  90              		.cfi_def_cfa_offset 4
  91              		.cfi_offset 7, -4
  92 0002 00AF     		add	r7, sp, #0
  93              	.LCFI3:
  94              		.cfi_def_cfa_register 7
 113:.\Generated_Source\PSoC5/IDAC8_1.c ****     IDAC8_1_PWRMGR |= IDAC8_1_ACT_PWR_EN;
  95              		.loc 1 113 0
  96 0004 44F2A833 		movw	r3, #17320
  97 0008 C4F20003 		movt	r3, 16384
  98 000c 44F2A832 		movw	r2, #17320
  99 0010 C4F20002 		movt	r2, 16384
 100 0014 1278     		ldrb	r2, [r2, #0]
 101 0016 D2B2     		uxtb	r2, r2
 102 0018 42F00102 		orr	r2, r2, #1
 103 001c D2B2     		uxtb	r2, r2
 104 001e 1A70     		strb	r2, [r3, #0]
 114:.\Generated_Source\PSoC5/IDAC8_1.c ****     IDAC8_1_STBY_PWRMGR |= IDAC8_1_STBY_PWR_EN;
 105              		.loc 1 114 0
 106 0020 44F2B833 		movw	r3, #17336
 107 0024 C4F20003 		movt	r3, 16384
 108 0028 44F2B832 		movw	r2, #17336
 109 002c C4F20002 		movt	r2, 16384
 110 0030 1278     		ldrb	r2, [r2, #0]
 111 0032 D2B2     		uxtb	r2, r2
 112 0034 42F00102 		orr	r2, r2, #1
 113 0038 D2B2     		uxtb	r2, r2
 114 003a 1A70     		strb	r2, [r3, #0]
ARM GAS  C:\Users\Robert\AppData\Local\Temp\ccO8GixT.s 			page 5


 115:.\Generated_Source\PSoC5/IDAC8_1.c **** 
 116:.\Generated_Source\PSoC5/IDAC8_1.c ****     /* This is to restore the value of register CR0 which is saved 
 117:.\Generated_Source\PSoC5/IDAC8_1.c ****       in prior to the modification in stop() API */
 118:.\Generated_Source\PSoC5/IDAC8_1.c ****     #if (CY_PSOC5A)
 119:.\Generated_Source\PSoC5/IDAC8_1.c ****         if(IDAC8_1_restoreReg == 1u)
 120:.\Generated_Source\PSoC5/IDAC8_1.c ****         {
 121:.\Generated_Source\PSoC5/IDAC8_1.c ****             IDAC8_1_CR0 = IDAC8_1_lowPowerBackup.DACCR0Reg;
 122:.\Generated_Source\PSoC5/IDAC8_1.c **** 
 123:.\Generated_Source\PSoC5/IDAC8_1.c ****             /* Clear the flag */
 124:.\Generated_Source\PSoC5/IDAC8_1.c ****             IDAC8_1_restoreReg = 0u;
 125:.\Generated_Source\PSoC5/IDAC8_1.c ****         }
 126:.\Generated_Source\PSoC5/IDAC8_1.c ****     #endif /* CY_PSOC5A */
 127:.\Generated_Source\PSoC5/IDAC8_1.c **** }
 115              		.loc 1 127 0
 116 003c BD46     		mov	sp, r7
 117 003e 80BC     		pop	{r7}
 118 0040 7047     		bx	lr
 119              		.cfi_endproc
 120              	.LFE1:
 121              		.size	IDAC8_1_Enable, .-IDAC8_1_Enable
 122 0042 00BF     		.section	.text.IDAC8_1_Start,"ax",%progbits
 123              		.align	2
 124              		.global	IDAC8_1_Start
 125              		.thumb
 126              		.thumb_func
 127              		.type	IDAC8_1_Start, %function
 128              	IDAC8_1_Start:
 129              	.LFB2:
 128:.\Generated_Source\PSoC5/IDAC8_1.c **** 
 129:.\Generated_Source\PSoC5/IDAC8_1.c **** 
 130:.\Generated_Source\PSoC5/IDAC8_1.c **** /*******************************************************************************
 131:.\Generated_Source\PSoC5/IDAC8_1.c **** * Function Name: IDAC8_1_Start
 132:.\Generated_Source\PSoC5/IDAC8_1.c **** ********************************************************************************
 133:.\Generated_Source\PSoC5/IDAC8_1.c **** * Summary:
 134:.\Generated_Source\PSoC5/IDAC8_1.c **** *  Set power level then turn on IDAC8.
 135:.\Generated_Source\PSoC5/IDAC8_1.c **** *
 136:.\Generated_Source\PSoC5/IDAC8_1.c **** * Parameters:  
 137:.\Generated_Source\PSoC5/IDAC8_1.c **** *  power: Sets power level between off (0) and (3) high power
 138:.\Generated_Source\PSoC5/IDAC8_1.c **** *
 139:.\Generated_Source\PSoC5/IDAC8_1.c **** * Return:
 140:.\Generated_Source\PSoC5/IDAC8_1.c **** *  (void)
 141:.\Generated_Source\PSoC5/IDAC8_1.c **** *
 142:.\Generated_Source\PSoC5/IDAC8_1.c **** * Global variables:
 143:.\Generated_Source\PSoC5/IDAC8_1.c **** *  IDAC8_1_initVar: Is modified when this function is called for 
 144:.\Generated_Source\PSoC5/IDAC8_1.c **** *   the first time. Is used to ensure that initialization happens only once.
 145:.\Generated_Source\PSoC5/IDAC8_1.c **** *
 146:.\Generated_Source\PSoC5/IDAC8_1.c **** *******************************************************************************/
 147:.\Generated_Source\PSoC5/IDAC8_1.c **** void IDAC8_1_Start(void) 
 148:.\Generated_Source\PSoC5/IDAC8_1.c **** {
 130              		.loc 1 148 0
 131              		.cfi_startproc
 132              		@ args = 0, pretend = 0, frame = 0
 133              		@ frame_needed = 1, uses_anonymous_args = 0
 134 0000 80B5     		push	{r7, lr}
 135              	.LCFI4:
 136              		.cfi_def_cfa_offset 8
 137              		.cfi_offset 7, -8
ARM GAS  C:\Users\Robert\AppData\Local\Temp\ccO8GixT.s 			page 6


 138              		.cfi_offset 14, -4
 139 0002 00AF     		add	r7, sp, #0
 140              	.LCFI5:
 141              		.cfi_def_cfa_register 7
 149:.\Generated_Source\PSoC5/IDAC8_1.c ****     /* Hardware initiazation only needs to occur the first time */
 150:.\Generated_Source\PSoC5/IDAC8_1.c ****     if ( IDAC8_1_initVar == 0u)  
 142              		.loc 1 150 0
 143 0004 40F20003 		movw	r3, #:lower16:IDAC8_1_initVar
 144 0008 C0F20003 		movt	r3, #:upper16:IDAC8_1_initVar
 145 000c 1B78     		ldrb	r3, [r3, #0]	@ zero_extendqisi2
 146 000e 002B     		cmp	r3, #0
 147 0010 08D1     		bne	.L4
 151:.\Generated_Source\PSoC5/IDAC8_1.c ****     {
 152:.\Generated_Source\PSoC5/IDAC8_1.c ****         IDAC8_1_Init();
 148              		.loc 1 152 0
 149 0012 FFF7FEFF 		bl	IDAC8_1_Init
 153:.\Generated_Source\PSoC5/IDAC8_1.c ****         
 154:.\Generated_Source\PSoC5/IDAC8_1.c ****         IDAC8_1_initVar = 1u;
 150              		.loc 1 154 0
 151 0016 40F20003 		movw	r3, #:lower16:IDAC8_1_initVar
 152 001a C0F20003 		movt	r3, #:upper16:IDAC8_1_initVar
 153 001e 4FF00102 		mov	r2, #1
 154 0022 1A70     		strb	r2, [r3, #0]
 155              	.L4:
 155:.\Generated_Source\PSoC5/IDAC8_1.c ****     }
 156:.\Generated_Source\PSoC5/IDAC8_1.c ****    
 157:.\Generated_Source\PSoC5/IDAC8_1.c ****     /* Enable power to DAC */
 158:.\Generated_Source\PSoC5/IDAC8_1.c ****     IDAC8_1_Enable();
 156              		.loc 1 158 0
 157 0024 FFF7FEFF 		bl	IDAC8_1_Enable
 159:.\Generated_Source\PSoC5/IDAC8_1.c **** 
 160:.\Generated_Source\PSoC5/IDAC8_1.c ****     /* Set default value */
 161:.\Generated_Source\PSoC5/IDAC8_1.c ****     IDAC8_1_SetValue(IDAC8_1_DEFAULT_DATA);
 158              		.loc 1 161 0
 159 0028 4FF07800 		mov	r0, #120
 160 002c FFF7FEFF 		bl	IDAC8_1_SetValue
 162:.\Generated_Source\PSoC5/IDAC8_1.c **** 
 163:.\Generated_Source\PSoC5/IDAC8_1.c **** }
 161              		.loc 1 163 0
 162 0030 80BD     		pop	{r7, pc}
 163              		.cfi_endproc
 164              	.LFE2:
 165              		.size	IDAC8_1_Start, .-IDAC8_1_Start
 166 0032 00BF     		.section	.text.IDAC8_1_Stop,"ax",%progbits
 167              		.align	2
 168              		.global	IDAC8_1_Stop
 169              		.thumb
 170              		.thumb_func
 171              		.type	IDAC8_1_Stop, %function
 172              	IDAC8_1_Stop:
 173              	.LFB3:
 164:.\Generated_Source\PSoC5/IDAC8_1.c **** 
 165:.\Generated_Source\PSoC5/IDAC8_1.c **** 
 166:.\Generated_Source\PSoC5/IDAC8_1.c **** /*******************************************************************************
 167:.\Generated_Source\PSoC5/IDAC8_1.c **** * Function Name: IDAC8_1_Stop
 168:.\Generated_Source\PSoC5/IDAC8_1.c **** ********************************************************************************
 169:.\Generated_Source\PSoC5/IDAC8_1.c **** * Summary:
ARM GAS  C:\Users\Robert\AppData\Local\Temp\ccO8GixT.s 			page 7


 170:.\Generated_Source\PSoC5/IDAC8_1.c **** *  Powers down IDAC8 to lowest power state.
 171:.\Generated_Source\PSoC5/IDAC8_1.c **** *
 172:.\Generated_Source\PSoC5/IDAC8_1.c **** * Parameters:
 173:.\Generated_Source\PSoC5/IDAC8_1.c **** *  (void)
 174:.\Generated_Source\PSoC5/IDAC8_1.c **** *
 175:.\Generated_Source\PSoC5/IDAC8_1.c **** * Return:
 176:.\Generated_Source\PSoC5/IDAC8_1.c **** *  (void)
 177:.\Generated_Source\PSoC5/IDAC8_1.c **** *
 178:.\Generated_Source\PSoC5/IDAC8_1.c **** * Theory:
 179:.\Generated_Source\PSoC5/IDAC8_1.c **** *
 180:.\Generated_Source\PSoC5/IDAC8_1.c **** * Side Effects:
 181:.\Generated_Source\PSoC5/IDAC8_1.c **** *
 182:.\Generated_Source\PSoC5/IDAC8_1.c **** *******************************************************************************/
 183:.\Generated_Source\PSoC5/IDAC8_1.c **** void IDAC8_1_Stop(void) 
 184:.\Generated_Source\PSoC5/IDAC8_1.c **** {
 174              		.loc 1 184 0
 175              		.cfi_startproc
 176              		@ args = 0, pretend = 0, frame = 0
 177              		@ frame_needed = 1, uses_anonymous_args = 0
 178              		@ link register save eliminated.
 179 0000 80B4     		push	{r7}
 180              	.LCFI6:
 181              		.cfi_def_cfa_offset 4
 182              		.cfi_offset 7, -4
 183 0002 00AF     		add	r7, sp, #0
 184              	.LCFI7:
 185              		.cfi_def_cfa_register 7
 185:.\Generated_Source\PSoC5/IDAC8_1.c ****     /* Disble power to DAC */
 186:.\Generated_Source\PSoC5/IDAC8_1.c ****     IDAC8_1_PWRMGR &= (uint8)(~IDAC8_1_ACT_PWR_EN);
 186              		.loc 1 186 0
 187 0004 44F2A833 		movw	r3, #17320
 188 0008 C4F20003 		movt	r3, 16384
 189 000c 44F2A832 		movw	r2, #17320
 190 0010 C4F20002 		movt	r2, 16384
 191 0014 1278     		ldrb	r2, [r2, #0]
 192 0016 D2B2     		uxtb	r2, r2
 193 0018 22F00102 		bic	r2, r2, #1
 194 001c D2B2     		uxtb	r2, r2
 195 001e 1A70     		strb	r2, [r3, #0]
 187:.\Generated_Source\PSoC5/IDAC8_1.c ****     IDAC8_1_STBY_PWRMGR &= (uint8)(~IDAC8_1_STBY_PWR_EN);
 196              		.loc 1 187 0
 197 0020 44F2B833 		movw	r3, #17336
 198 0024 C4F20003 		movt	r3, 16384
 199 0028 44F2B832 		movw	r2, #17336
 200 002c C4F20002 		movt	r2, 16384
 201 0030 1278     		ldrb	r2, [r2, #0]
 202 0032 D2B2     		uxtb	r2, r2
 203 0034 22F00102 		bic	r2, r2, #1
 204 0038 D2B2     		uxtb	r2, r2
 205 003a 1A70     		strb	r2, [r3, #0]
 188:.\Generated_Source\PSoC5/IDAC8_1.c ****     
 189:.\Generated_Source\PSoC5/IDAC8_1.c ****     #if (CY_PSOC5A)
 190:.\Generated_Source\PSoC5/IDAC8_1.c ****     
 191:.\Generated_Source\PSoC5/IDAC8_1.c ****         /* Set the global variable  */
 192:.\Generated_Source\PSoC5/IDAC8_1.c ****         IDAC8_1_restoreReg = 1u;
 193:.\Generated_Source\PSoC5/IDAC8_1.c **** 
 194:.\Generated_Source\PSoC5/IDAC8_1.c ****         /* Save the control register and then Clear it. */
ARM GAS  C:\Users\Robert\AppData\Local\Temp\ccO8GixT.s 			page 8


 195:.\Generated_Source\PSoC5/IDAC8_1.c ****         IDAC8_1_lowPowerBackup.DACCR0Reg = IDAC8_1_CR0;
 196:.\Generated_Source\PSoC5/IDAC8_1.c ****         IDAC8_1_CR0 = (IDAC8_1_MODE_I | IDAC8_1_RANGE_3 | IDAC8_1_HS_HIGHSPEED);
 197:.\Generated_Source\PSoC5/IDAC8_1.c ****     #endif /* CY_PSOC5A */
 198:.\Generated_Source\PSoC5/IDAC8_1.c **** }
 206              		.loc 1 198 0
 207 003c BD46     		mov	sp, r7
 208 003e 80BC     		pop	{r7}
 209 0040 7047     		bx	lr
 210              		.cfi_endproc
 211              	.LFE3:
 212              		.size	IDAC8_1_Stop, .-IDAC8_1_Stop
 213 0042 00BF     		.section	.text.IDAC8_1_SetSpeed,"ax",%progbits
 214              		.align	2
 215              		.global	IDAC8_1_SetSpeed
 216              		.thumb
 217              		.thumb_func
 218              		.type	IDAC8_1_SetSpeed, %function
 219              	IDAC8_1_SetSpeed:
 220              	.LFB4:
 199:.\Generated_Source\PSoC5/IDAC8_1.c **** 
 200:.\Generated_Source\PSoC5/IDAC8_1.c **** 
 201:.\Generated_Source\PSoC5/IDAC8_1.c **** /*******************************************************************************
 202:.\Generated_Source\PSoC5/IDAC8_1.c **** * Function Name: IDAC8_1_SetSpeed
 203:.\Generated_Source\PSoC5/IDAC8_1.c **** ********************************************************************************
 204:.\Generated_Source\PSoC5/IDAC8_1.c **** * Summary:
 205:.\Generated_Source\PSoC5/IDAC8_1.c **** *  Set DAC speed
 206:.\Generated_Source\PSoC5/IDAC8_1.c **** *
 207:.\Generated_Source\PSoC5/IDAC8_1.c **** * Parameters:
 208:.\Generated_Source\PSoC5/IDAC8_1.c **** *  power: Sets speed value
 209:.\Generated_Source\PSoC5/IDAC8_1.c **** *
 210:.\Generated_Source\PSoC5/IDAC8_1.c **** * Return:
 211:.\Generated_Source\PSoC5/IDAC8_1.c **** *  (void)
 212:.\Generated_Source\PSoC5/IDAC8_1.c **** *
 213:.\Generated_Source\PSoC5/IDAC8_1.c **** * Theory:
 214:.\Generated_Source\PSoC5/IDAC8_1.c **** *
 215:.\Generated_Source\PSoC5/IDAC8_1.c **** * Side Effects:
 216:.\Generated_Source\PSoC5/IDAC8_1.c **** *
 217:.\Generated_Source\PSoC5/IDAC8_1.c **** *******************************************************************************/
 218:.\Generated_Source\PSoC5/IDAC8_1.c **** void IDAC8_1_SetSpeed(uint8 speed) 
 219:.\Generated_Source\PSoC5/IDAC8_1.c **** {
 221              		.loc 1 219 0
 222              		.cfi_startproc
 223              		@ args = 0, pretend = 0, frame = 8
 224              		@ frame_needed = 1, uses_anonymous_args = 0
 225              		@ link register save eliminated.
 226 0000 80B4     		push	{r7}
 227              	.LCFI8:
 228              		.cfi_def_cfa_offset 4
 229              		.cfi_offset 7, -4
 230 0002 83B0     		sub	sp, sp, #12
 231              	.LCFI9:
 232              		.cfi_def_cfa_offset 16
 233 0004 00AF     		add	r7, sp, #0
 234              	.LCFI10:
 235              		.cfi_def_cfa_register 7
 236 0006 0346     		mov	r3, r0
 237 0008 FB71     		strb	r3, [r7, #7]
ARM GAS  C:\Users\Robert\AppData\Local\Temp\ccO8GixT.s 			page 9


 220:.\Generated_Source\PSoC5/IDAC8_1.c ****     /* Clear power mask then write in new value */
 221:.\Generated_Source\PSoC5/IDAC8_1.c ****     IDAC8_1_CR0 &= (uint8)(~IDAC8_1_HS_MASK);
 238              		.loc 1 221 0
 239 000a 45F62003 		movw	r3, #22560
 240 000e C4F20003 		movt	r3, 16384
 241 0012 45F62002 		movw	r2, #22560
 242 0016 C4F20002 		movt	r2, 16384
 243 001a 1278     		ldrb	r2, [r2, #0]
 244 001c D2B2     		uxtb	r2, r2
 245 001e 22F00202 		bic	r2, r2, #2
 246 0022 D2B2     		uxtb	r2, r2
 247 0024 1A70     		strb	r2, [r3, #0]
 222:.\Generated_Source\PSoC5/IDAC8_1.c ****     IDAC8_1_CR0 |=  ( speed & IDAC8_1_HS_MASK);
 248              		.loc 1 222 0
 249 0026 45F62003 		movw	r3, #22560
 250 002a C4F20003 		movt	r3, 16384
 251 002e 45F62002 		movw	r2, #22560
 252 0032 C4F20002 		movt	r2, 16384
 253 0036 1278     		ldrb	r2, [r2, #0]
 254 0038 D1B2     		uxtb	r1, r2
 255 003a FA79     		ldrb	r2, [r7, #7]
 256 003c 02F00202 		and	r2, r2, #2
 257 0040 D2B2     		uxtb	r2, r2
 258 0042 0A43     		orrs	r2, r2, r1
 259 0044 D2B2     		uxtb	r2, r2
 260 0046 1A70     		strb	r2, [r3, #0]
 223:.\Generated_Source\PSoC5/IDAC8_1.c **** }
 261              		.loc 1 223 0
 262 0048 07F10C07 		add	r7, r7, #12
 263 004c BD46     		mov	sp, r7
 264 004e 80BC     		pop	{r7}
 265 0050 7047     		bx	lr
 266              		.cfi_endproc
 267              	.LFE4:
 268              		.size	IDAC8_1_SetSpeed, .-IDAC8_1_SetSpeed
 269 0052 00BF     		.section	.text.IDAC8_1_SetPolarity,"ax",%progbits
 270              		.align	2
 271              		.global	IDAC8_1_SetPolarity
 272              		.thumb
 273              		.thumb_func
 274              		.type	IDAC8_1_SetPolarity, %function
 275              	IDAC8_1_SetPolarity:
 276              	.LFB5:
 224:.\Generated_Source\PSoC5/IDAC8_1.c **** 
 225:.\Generated_Source\PSoC5/IDAC8_1.c **** 
 226:.\Generated_Source\PSoC5/IDAC8_1.c **** /*******************************************************************************
 227:.\Generated_Source\PSoC5/IDAC8_1.c **** * Function Name: IDAC8_1_SetPolarity
 228:.\Generated_Source\PSoC5/IDAC8_1.c **** ********************************************************************************
 229:.\Generated_Source\PSoC5/IDAC8_1.c **** * Summary:
 230:.\Generated_Source\PSoC5/IDAC8_1.c **** *  Sets IDAC to Sink or Source current.
 231:.\Generated_Source\PSoC5/IDAC8_1.c **** *  
 232:.\Generated_Source\PSoC5/IDAC8_1.c **** * Parameters:
 233:.\Generated_Source\PSoC5/IDAC8_1.c **** *  Polarity: Sets the IDAC to Sink or Source 
 234:.\Generated_Source\PSoC5/IDAC8_1.c **** *  0x00 - Source
 235:.\Generated_Source\PSoC5/IDAC8_1.c **** *  0x04 - Sink
 236:.\Generated_Source\PSoC5/IDAC8_1.c **** *
 237:.\Generated_Source\PSoC5/IDAC8_1.c **** * Return:
ARM GAS  C:\Users\Robert\AppData\Local\Temp\ccO8GixT.s 			page 10


 238:.\Generated_Source\PSoC5/IDAC8_1.c **** *  (void)
 239:.\Generated_Source\PSoC5/IDAC8_1.c **** *
 240:.\Generated_Source\PSoC5/IDAC8_1.c **** * Theory:
 241:.\Generated_Source\PSoC5/IDAC8_1.c **** *
 242:.\Generated_Source\PSoC5/IDAC8_1.c **** * Side Effects:
 243:.\Generated_Source\PSoC5/IDAC8_1.c **** *
 244:.\Generated_Source\PSoC5/IDAC8_1.c **** *******************************************************************************/
 245:.\Generated_Source\PSoC5/IDAC8_1.c **** #if(IDAC8_1_DEFAULT_POLARITY != IDAC8_1_HARDWARE_CONTROLLED)
 246:.\Generated_Source\PSoC5/IDAC8_1.c ****     void IDAC8_1_SetPolarity(uint8 polarity) 
 247:.\Generated_Source\PSoC5/IDAC8_1.c ****     {
 277              		.loc 1 247 0
 278              		.cfi_startproc
 279              		@ args = 0, pretend = 0, frame = 8
 280              		@ frame_needed = 1, uses_anonymous_args = 0
 281 0000 80B5     		push	{r7, lr}
 282              	.LCFI11:
 283              		.cfi_def_cfa_offset 8
 284              		.cfi_offset 7, -8
 285              		.cfi_offset 14, -4
 286 0002 82B0     		sub	sp, sp, #8
 287              	.LCFI12:
 288              		.cfi_def_cfa_offset 16
 289 0004 00AF     		add	r7, sp, #0
 290              	.LCFI13:
 291              		.cfi_def_cfa_register 7
 292 0006 0346     		mov	r3, r0
 293 0008 FB71     		strb	r3, [r7, #7]
 248:.\Generated_Source\PSoC5/IDAC8_1.c ****         IDAC8_1_CR1 &= (uint8)(~IDAC8_1_IDIR_MASK);                /* clear polarity bit */
 294              		.loc 1 248 0
 295 000a 45F62103 		movw	r3, #22561
 296 000e C4F20003 		movt	r3, 16384
 297 0012 45F62102 		movw	r2, #22561
 298 0016 C4F20002 		movt	r2, 16384
 299 001a 1278     		ldrb	r2, [r2, #0]
 300 001c D2B2     		uxtb	r2, r2
 301 001e 22F00402 		bic	r2, r2, #4
 302 0022 D2B2     		uxtb	r2, r2
 303 0024 1A70     		strb	r2, [r3, #0]
 249:.\Generated_Source\PSoC5/IDAC8_1.c ****         IDAC8_1_CR1 |= (polarity & IDAC8_1_IDIR_MASK);             /* set new value */
 304              		.loc 1 249 0
 305 0026 45F62103 		movw	r3, #22561
 306 002a C4F20003 		movt	r3, 16384
 307 002e 45F62102 		movw	r2, #22561
 308 0032 C4F20002 		movt	r2, 16384
 309 0036 1278     		ldrb	r2, [r2, #0]
 310 0038 D1B2     		uxtb	r1, r2
 311 003a FA79     		ldrb	r2, [r7, #7]
 312 003c 02F00402 		and	r2, r2, #4
 313 0040 D2B2     		uxtb	r2, r2
 314 0042 0A43     		orrs	r2, r2, r1
 315 0044 D2B2     		uxtb	r2, r2
 316 0046 1A70     		strb	r2, [r3, #0]
 250:.\Generated_Source\PSoC5/IDAC8_1.c ****     
 251:.\Generated_Source\PSoC5/IDAC8_1.c ****         IDAC8_1_DacTrim();
 317              		.loc 1 251 0
 318 0048 FFF7FEFF 		bl	IDAC8_1_DacTrim
 252:.\Generated_Source\PSoC5/IDAC8_1.c ****     }
ARM GAS  C:\Users\Robert\AppData\Local\Temp\ccO8GixT.s 			page 11


 319              		.loc 1 252 0
 320 004c 07F10807 		add	r7, r7, #8
 321 0050 BD46     		mov	sp, r7
 322 0052 80BD     		pop	{r7, pc}
 323              		.cfi_endproc
 324              	.LFE5:
 325              		.size	IDAC8_1_SetPolarity, .-IDAC8_1_SetPolarity
 326              		.section	.text.IDAC8_1_SetRange,"ax",%progbits
 327              		.align	2
 328              		.global	IDAC8_1_SetRange
 329              		.thumb
 330              		.thumb_func
 331              		.type	IDAC8_1_SetRange, %function
 332              	IDAC8_1_SetRange:
 333              	.LFB6:
 253:.\Generated_Source\PSoC5/IDAC8_1.c **** #endif/*(IDAC8_1_DEFAULT_POLARITY != IDAC8_1_HARDWARE_CONTROLLED)*/
 254:.\Generated_Source\PSoC5/IDAC8_1.c **** 
 255:.\Generated_Source\PSoC5/IDAC8_1.c **** 
 256:.\Generated_Source\PSoC5/IDAC8_1.c **** /*******************************************************************************
 257:.\Generated_Source\PSoC5/IDAC8_1.c **** * Function Name: IDAC8_1_SetRange
 258:.\Generated_Source\PSoC5/IDAC8_1.c **** ********************************************************************************
 259:.\Generated_Source\PSoC5/IDAC8_1.c **** * Summary:
 260:.\Generated_Source\PSoC5/IDAC8_1.c **** *  Set current range
 261:.\Generated_Source\PSoC5/IDAC8_1.c **** *
 262:.\Generated_Source\PSoC5/IDAC8_1.c **** * Parameters:
 263:.\Generated_Source\PSoC5/IDAC8_1.c **** *  Range: Sets on of four valid ranges.
 264:.\Generated_Source\PSoC5/IDAC8_1.c **** *
 265:.\Generated_Source\PSoC5/IDAC8_1.c **** * Return:
 266:.\Generated_Source\PSoC5/IDAC8_1.c **** *  (void)
 267:.\Generated_Source\PSoC5/IDAC8_1.c **** *
 268:.\Generated_Source\PSoC5/IDAC8_1.c **** * Theory:
 269:.\Generated_Source\PSoC5/IDAC8_1.c **** *
 270:.\Generated_Source\PSoC5/IDAC8_1.c **** * Side Effects:
 271:.\Generated_Source\PSoC5/IDAC8_1.c **** *
 272:.\Generated_Source\PSoC5/IDAC8_1.c **** *******************************************************************************/
 273:.\Generated_Source\PSoC5/IDAC8_1.c **** void IDAC8_1_SetRange(uint8 range) 
 274:.\Generated_Source\PSoC5/IDAC8_1.c **** {
 334              		.loc 1 274 0
 335              		.cfi_startproc
 336              		@ args = 0, pretend = 0, frame = 8
 337              		@ frame_needed = 1, uses_anonymous_args = 0
 338 0000 80B5     		push	{r7, lr}
 339              	.LCFI14:
 340              		.cfi_def_cfa_offset 8
 341              		.cfi_offset 7, -8
 342              		.cfi_offset 14, -4
 343 0002 82B0     		sub	sp, sp, #8
 344              	.LCFI15:
 345              		.cfi_def_cfa_offset 16
 346 0004 00AF     		add	r7, sp, #0
 347              	.LCFI16:
 348              		.cfi_def_cfa_register 7
 349 0006 0346     		mov	r3, r0
 350 0008 FB71     		strb	r3, [r7, #7]
 275:.\Generated_Source\PSoC5/IDAC8_1.c ****     IDAC8_1_CR0 &= (uint8)(~IDAC8_1_RANGE_MASK);       /* Clear existing mode */
 351              		.loc 1 275 0
 352 000a 45F62003 		movw	r3, #22560
ARM GAS  C:\Users\Robert\AppData\Local\Temp\ccO8GixT.s 			page 12


 353 000e C4F20003 		movt	r3, 16384
 354 0012 45F62002 		movw	r2, #22560
 355 0016 C4F20002 		movt	r2, 16384
 356 001a 1278     		ldrb	r2, [r2, #0]
 357 001c D2B2     		uxtb	r2, r2
 358 001e 22F00C02 		bic	r2, r2, #12
 359 0022 D2B2     		uxtb	r2, r2
 360 0024 1A70     		strb	r2, [r3, #0]
 276:.\Generated_Source\PSoC5/IDAC8_1.c ****     IDAC8_1_CR0 |= ( range & IDAC8_1_RANGE_MASK );     /*  Set Range  */
 361              		.loc 1 276 0
 362 0026 45F62003 		movw	r3, #22560
 363 002a C4F20003 		movt	r3, 16384
 364 002e 45F62002 		movw	r2, #22560
 365 0032 C4F20002 		movt	r2, 16384
 366 0036 1278     		ldrb	r2, [r2, #0]
 367 0038 D1B2     		uxtb	r1, r2
 368 003a FA79     		ldrb	r2, [r7, #7]
 369 003c 02F00C02 		and	r2, r2, #12
 370 0040 D2B2     		uxtb	r2, r2
 371 0042 0A43     		orrs	r2, r2, r1
 372 0044 D2B2     		uxtb	r2, r2
 373 0046 1A70     		strb	r2, [r3, #0]
 277:.\Generated_Source\PSoC5/IDAC8_1.c ****     IDAC8_1_DacTrim();
 374              		.loc 1 277 0
 375 0048 FFF7FEFF 		bl	IDAC8_1_DacTrim
 278:.\Generated_Source\PSoC5/IDAC8_1.c **** }
 376              		.loc 1 278 0
 377 004c 07F10807 		add	r7, r7, #8
 378 0050 BD46     		mov	sp, r7
 379 0052 80BD     		pop	{r7, pc}
 380              		.cfi_endproc
 381              	.LFE6:
 382              		.size	IDAC8_1_SetRange, .-IDAC8_1_SetRange
 383              		.section	.text.IDAC8_1_SetValue,"ax",%progbits
 384              		.align	2
 385              		.global	IDAC8_1_SetValue
 386              		.thumb
 387              		.thumb_func
 388              		.type	IDAC8_1_SetValue, %function
 389              	IDAC8_1_SetValue:
 390              	.LFB7:
 279:.\Generated_Source\PSoC5/IDAC8_1.c **** 
 280:.\Generated_Source\PSoC5/IDAC8_1.c **** 
 281:.\Generated_Source\PSoC5/IDAC8_1.c **** /*******************************************************************************
 282:.\Generated_Source\PSoC5/IDAC8_1.c **** * Function Name: IDAC8_1_SetValue
 283:.\Generated_Source\PSoC5/IDAC8_1.c **** ********************************************************************************
 284:.\Generated_Source\PSoC5/IDAC8_1.c **** * Summary:
 285:.\Generated_Source\PSoC5/IDAC8_1.c **** *  Set DAC value
 286:.\Generated_Source\PSoC5/IDAC8_1.c **** *
 287:.\Generated_Source\PSoC5/IDAC8_1.c **** * Parameters:
 288:.\Generated_Source\PSoC5/IDAC8_1.c **** *  value: Sets DAC value between 0 and 255.
 289:.\Generated_Source\PSoC5/IDAC8_1.c **** *
 290:.\Generated_Source\PSoC5/IDAC8_1.c **** * Return:
 291:.\Generated_Source\PSoC5/IDAC8_1.c **** *  (void)
 292:.\Generated_Source\PSoC5/IDAC8_1.c **** *
 293:.\Generated_Source\PSoC5/IDAC8_1.c **** * Theory:
 294:.\Generated_Source\PSoC5/IDAC8_1.c **** *
ARM GAS  C:\Users\Robert\AppData\Local\Temp\ccO8GixT.s 			page 13


 295:.\Generated_Source\PSoC5/IDAC8_1.c **** * Side Effects:
 296:.\Generated_Source\PSoC5/IDAC8_1.c **** *
 297:.\Generated_Source\PSoC5/IDAC8_1.c **** *******************************************************************************/
 298:.\Generated_Source\PSoC5/IDAC8_1.c **** void IDAC8_1_SetValue(uint8 value) 
 299:.\Generated_Source\PSoC5/IDAC8_1.c **** {
 391              		.loc 1 299 0
 392              		.cfi_startproc
 393              		@ args = 0, pretend = 0, frame = 8
 394              		@ frame_needed = 1, uses_anonymous_args = 0
 395              		@ link register save eliminated.
 396 0000 80B4     		push	{r7}
 397              	.LCFI17:
 398              		.cfi_def_cfa_offset 4
 399              		.cfi_offset 7, -4
 400 0002 83B0     		sub	sp, sp, #12
 401              	.LCFI18:
 402              		.cfi_def_cfa_offset 16
 403 0004 00AF     		add	r7, sp, #0
 404              	.LCFI19:
 405              		.cfi_def_cfa_register 7
 406 0006 0346     		mov	r3, r0
 407 0008 FB71     		strb	r3, [r7, #7]
 300:.\Generated_Source\PSoC5/IDAC8_1.c **** 
 301:.\Generated_Source\PSoC5/IDAC8_1.c ****     #if (CY_PSOC5A)
 302:.\Generated_Source\PSoC5/IDAC8_1.c ****         uint8 IDAC8_1_intrStatus = CyEnterCriticalSection();
 303:.\Generated_Source\PSoC5/IDAC8_1.c ****     #endif /* CY_PSOC5A */
 304:.\Generated_Source\PSoC5/IDAC8_1.c **** 
 305:.\Generated_Source\PSoC5/IDAC8_1.c ****     IDAC8_1_Data = value;         /*  Set Value  */
 408              		.loc 1 305 0
 409 000a 4FF4B743 		mov	r3, #23424
 410 000e C4F20003 		movt	r3, 16384
 411 0012 FA79     		ldrb	r2, [r7, #7]
 412 0014 1A70     		strb	r2, [r3, #0]
 306:.\Generated_Source\PSoC5/IDAC8_1.c ****     
 307:.\Generated_Source\PSoC5/IDAC8_1.c ****     /* PSOC5A silicons require a double write */
 308:.\Generated_Source\PSoC5/IDAC8_1.c ****     #if (CY_PSOC5A)
 309:.\Generated_Source\PSoC5/IDAC8_1.c ****         IDAC8_1_Data = value;
 310:.\Generated_Source\PSoC5/IDAC8_1.c ****         CyExitCriticalSection(IDAC8_1_intrStatus);
 311:.\Generated_Source\PSoC5/IDAC8_1.c ****     #endif /* CY_PSOC5A */
 312:.\Generated_Source\PSoC5/IDAC8_1.c **** }
 413              		.loc 1 312 0
 414 0016 07F10C07 		add	r7, r7, #12
 415 001a BD46     		mov	sp, r7
 416 001c 80BC     		pop	{r7}
 417 001e 7047     		bx	lr
 418              		.cfi_endproc
 419              	.LFE7:
 420              		.size	IDAC8_1_SetValue, .-IDAC8_1_SetValue
 421              		.section	.text.IDAC8_1_DacTrim,"ax",%progbits
 422              		.align	2
 423              		.global	IDAC8_1_DacTrim
 424              		.thumb
 425              		.thumb_func
 426              		.type	IDAC8_1_DacTrim, %function
 427              	IDAC8_1_DacTrim:
 428              	.LFB8:
 313:.\Generated_Source\PSoC5/IDAC8_1.c **** 
ARM GAS  C:\Users\Robert\AppData\Local\Temp\ccO8GixT.s 			page 14


 314:.\Generated_Source\PSoC5/IDAC8_1.c **** 
 315:.\Generated_Source\PSoC5/IDAC8_1.c **** /*******************************************************************************
 316:.\Generated_Source\PSoC5/IDAC8_1.c **** * Function Name: IDAC8_1_DacTrim
 317:.\Generated_Source\PSoC5/IDAC8_1.c **** ********************************************************************************
 318:.\Generated_Source\PSoC5/IDAC8_1.c **** * Summary:
 319:.\Generated_Source\PSoC5/IDAC8_1.c **** *  Set the trim value for the given range.
 320:.\Generated_Source\PSoC5/IDAC8_1.c **** *
 321:.\Generated_Source\PSoC5/IDAC8_1.c **** * Parameters:
 322:.\Generated_Source\PSoC5/IDAC8_1.c **** *  None
 323:.\Generated_Source\PSoC5/IDAC8_1.c **** *
 324:.\Generated_Source\PSoC5/IDAC8_1.c **** * Return:
 325:.\Generated_Source\PSoC5/IDAC8_1.c **** *  (void) 
 326:.\Generated_Source\PSoC5/IDAC8_1.c **** *
 327:.\Generated_Source\PSoC5/IDAC8_1.c **** * Theory:
 328:.\Generated_Source\PSoC5/IDAC8_1.c **** *  Trim values for the IDAC blocks are stored in the "Customer Table" area in 
 329:.\Generated_Source\PSoC5/IDAC8_1.c **** *  Row 1 of the Hidden Flash.  There are 8 bytes of trim data for each 
 330:.\Generated_Source\PSoC5/IDAC8_1.c **** *  IDAC block.
 331:.\Generated_Source\PSoC5/IDAC8_1.c **** *  The values are:
 332:.\Generated_Source\PSoC5/IDAC8_1.c **** *       I Gain offset, min range, Sourcing
 333:.\Generated_Source\PSoC5/IDAC8_1.c **** *       I Gain offset, min range, Sinking
 334:.\Generated_Source\PSoC5/IDAC8_1.c **** *       I Gain offset, med range, Sourcing
 335:.\Generated_Source\PSoC5/IDAC8_1.c **** *       I Gain offset, med range, Sinking
 336:.\Generated_Source\PSoC5/IDAC8_1.c **** *       I Gain offset, max range, Sourcing
 337:.\Generated_Source\PSoC5/IDAC8_1.c **** *       I Gain offset, max range, Sinking
 338:.\Generated_Source\PSoC5/IDAC8_1.c **** *       V Gain offset, 1V range
 339:.\Generated_Source\PSoC5/IDAC8_1.c **** *       V Gain offset, 4V range
 340:.\Generated_Source\PSoC5/IDAC8_1.c **** *
 341:.\Generated_Source\PSoC5/IDAC8_1.c **** * Side Effects:
 342:.\Generated_Source\PSoC5/IDAC8_1.c **** *
 343:.\Generated_Source\PSoC5/IDAC8_1.c **** *******************************************************************************/
 344:.\Generated_Source\PSoC5/IDAC8_1.c **** void IDAC8_1_DacTrim(void) 
 345:.\Generated_Source\PSoC5/IDAC8_1.c **** {
 429              		.loc 1 345 0
 430              		.cfi_startproc
 431              		@ args = 0, pretend = 0, frame = 8
 432              		@ frame_needed = 1, uses_anonymous_args = 0
 433              		@ link register save eliminated.
 434 0000 80B4     		push	{r7}
 435              	.LCFI20:
 436              		.cfi_def_cfa_offset 4
 437              		.cfi_offset 7, -4
 438 0002 83B0     		sub	sp, sp, #12
 439              	.LCFI21:
 440              		.cfi_def_cfa_offset 16
 441 0004 00AF     		add	r7, sp, #0
 442              	.LCFI22:
 443              		.cfi_def_cfa_register 7
 346:.\Generated_Source\PSoC5/IDAC8_1.c ****     uint8 mode;
 347:.\Generated_Source\PSoC5/IDAC8_1.c **** 
 348:.\Generated_Source\PSoC5/IDAC8_1.c ****     mode = ((IDAC8_1_CR0 & IDAC8_1_RANGE_MASK) >> 1u);
 444              		.loc 1 348 0
 445 0006 45F62003 		movw	r3, #22560
 446 000a C4F20003 		movt	r3, 16384
 447 000e 1B78     		ldrb	r3, [r3, #0]
 448 0010 DBB2     		uxtb	r3, r3
 449 0012 03F00C03 		and	r3, r3, #12
 450 0016 4FEA5303 		lsr	r3, r3, #1
ARM GAS  C:\Users\Robert\AppData\Local\Temp\ccO8GixT.s 			page 15


 451 001a FB71     		strb	r3, [r7, #7]
 349:.\Generated_Source\PSoC5/IDAC8_1.c ****     
 350:.\Generated_Source\PSoC5/IDAC8_1.c ****     if((IDAC8_1_IDIR_MASK & IDAC8_1_CR1) == IDAC8_1_IDIR_SINK)
 452              		.loc 1 350 0
 453 001c 45F62103 		movw	r3, #22561
 454 0020 C4F20003 		movt	r3, 16384
 455 0024 1B78     		ldrb	r3, [r3, #0]
 456 0026 DBB2     		uxtb	r3, r3
 457 0028 03F00403 		and	r3, r3, #4
 458 002c DBB2     		uxtb	r3, r3
 459 002e 002B     		cmp	r3, #0
 460 0030 03D0     		beq	.L11
 351:.\Generated_Source\PSoC5/IDAC8_1.c ****     {
 352:.\Generated_Source\PSoC5/IDAC8_1.c ****         mode++;
 461              		.loc 1 352 0
 462 0032 FB79     		ldrb	r3, [r7, #7]
 463 0034 03F10103 		add	r3, r3, #1
 464 0038 FB71     		strb	r3, [r7, #7]
 465              	.L11:
 353:.\Generated_Source\PSoC5/IDAC8_1.c ****     }
 354:.\Generated_Source\PSoC5/IDAC8_1.c **** 
 355:.\Generated_Source\PSoC5/IDAC8_1.c ****     IDAC8_1_TR = CY_GET_XTND_REG8((uint8 *)(IDAC8_1_DAC_TRIM_BASE + mode));
 466              		.loc 1 355 0
 467 003a 44F20863 		movw	r3, #17928
 468 003e C4F20003 		movt	r3, 16384
 469 0042 FA79     		ldrb	r2, [r7, #7]	@ zero_extendqisi2
 470 0044 02F19242 		add	r2, r2, #1224736768
 471 0048 02F59072 		add	r2, r2, #288
 472 004c 1278     		ldrb	r2, [r2, #0]
 473 004e D2B2     		uxtb	r2, r2
 474 0050 1A70     		strb	r2, [r3, #0]
 356:.\Generated_Source\PSoC5/IDAC8_1.c **** }
 475              		.loc 1 356 0
 476 0052 07F10C07 		add	r7, r7, #12
 477 0056 BD46     		mov	sp, r7
 478 0058 80BC     		pop	{r7}
 479 005a 7047     		bx	lr
 480              		.cfi_endproc
 481              	.LFE8:
 482              		.size	IDAC8_1_DacTrim, .-IDAC8_1_DacTrim
 483              		.text
 484              	.Letext0:
 485              		.file 2 ".\\Generated_Source\\PSoC5\\cytypes.h"