ARM GAS  C:\Users\Robert\AppData\Local\Temp\cciTzB9d.s 			page 1


   1              		.syntax unified
   2              		.cpu cortex-m3
   3              		.fpu softvfp
   4              		.eabi_attribute 20, 1
   5              		.eabi_attribute 21, 1
   6              		.eabi_attribute 23, 3
   7              		.eabi_attribute 24, 1
   8              		.eabi_attribute 25, 1
   9              		.eabi_attribute 26, 1
  10              		.eabi_attribute 30, 6
  11              		.eabi_attribute 34, 1
  12              		.eabi_attribute 18, 4
  13              		.thumb
  14              		.file	"In_8.c"
  15              		.text
  16              	.Ltext0:
  17              		.cfi_sections	.debug_frame
  18              		.section	.text.In_8_Write,"ax",%progbits
  19              		.align	2
  20              		.global	In_8_Write
  21              		.thumb
  22              		.thumb_func
  23              		.type	In_8_Write, %function
  24              	In_8_Write:
  25              	.LFB0:
  26              		.file 1 ".\\Generated_Source\\PSoC5\\In_8.c"
   1:.\Generated_Source\PSoC5/In_8.c **** /*******************************************************************************
   2:.\Generated_Source\PSoC5/In_8.c **** * File Name: In_8.c  
   3:.\Generated_Source\PSoC5/In_8.c **** * Version 2.0
   4:.\Generated_Source\PSoC5/In_8.c **** *
   5:.\Generated_Source\PSoC5/In_8.c **** * Description:
   6:.\Generated_Source\PSoC5/In_8.c **** *  This file contains API to enable firmware control of a Pins component.
   7:.\Generated_Source\PSoC5/In_8.c **** *
   8:.\Generated_Source\PSoC5/In_8.c **** * Note:
   9:.\Generated_Source\PSoC5/In_8.c **** *
  10:.\Generated_Source\PSoC5/In_8.c **** ********************************************************************************
  11:.\Generated_Source\PSoC5/In_8.c **** * Copyright 2008-2014, Cypress Semiconductor Corporation.  All rights reserved.
  12:.\Generated_Source\PSoC5/In_8.c **** * You may use this file only in accordance with the license, terms, conditions, 
  13:.\Generated_Source\PSoC5/In_8.c **** * disclaimers, and limitations in the end user license agreement accompanying 
  14:.\Generated_Source\PSoC5/In_8.c **** * the software package with which this file was provided.
  15:.\Generated_Source\PSoC5/In_8.c **** *******************************************************************************/
  16:.\Generated_Source\PSoC5/In_8.c **** 
  17:.\Generated_Source\PSoC5/In_8.c **** #include "cytypes.h"
  18:.\Generated_Source\PSoC5/In_8.c **** #include "In_8.h"
  19:.\Generated_Source\PSoC5/In_8.c **** 
  20:.\Generated_Source\PSoC5/In_8.c **** /* APIs are not generated for P15[7:6] on PSoC 5 */
  21:.\Generated_Source\PSoC5/In_8.c **** #if !(CY_PSOC5A &&\
  22:.\Generated_Source\PSoC5/In_8.c **** 	 In_8__PORT == 15 && ((In_8__MASK & 0xC0) != 0))
  23:.\Generated_Source\PSoC5/In_8.c **** 
  24:.\Generated_Source\PSoC5/In_8.c **** 
  25:.\Generated_Source\PSoC5/In_8.c **** /*******************************************************************************
  26:.\Generated_Source\PSoC5/In_8.c **** * Function Name: In_8_Write
  27:.\Generated_Source\PSoC5/In_8.c **** ********************************************************************************
  28:.\Generated_Source\PSoC5/In_8.c **** *
  29:.\Generated_Source\PSoC5/In_8.c **** * Summary:
  30:.\Generated_Source\PSoC5/In_8.c **** *  Assign a new value to the digital port's data output register.  
  31:.\Generated_Source\PSoC5/In_8.c **** *
ARM GAS  C:\Users\Robert\AppData\Local\Temp\cciTzB9d.s 			page 2


  32:.\Generated_Source\PSoC5/In_8.c **** * Parameters:  
  33:.\Generated_Source\PSoC5/In_8.c **** *  prtValue:  The value to be assigned to the Digital Port. 
  34:.\Generated_Source\PSoC5/In_8.c **** *
  35:.\Generated_Source\PSoC5/In_8.c **** * Return: 
  36:.\Generated_Source\PSoC5/In_8.c **** *  None
  37:.\Generated_Source\PSoC5/In_8.c **** *  
  38:.\Generated_Source\PSoC5/In_8.c **** *******************************************************************************/
  39:.\Generated_Source\PSoC5/In_8.c **** void In_8_Write(uint8 value) 
  40:.\Generated_Source\PSoC5/In_8.c **** {
  27              		.loc 1 40 0
  28              		.cfi_startproc
  29              		@ args = 0, pretend = 0, frame = 16
  30              		@ frame_needed = 1, uses_anonymous_args = 0
  31              		@ link register save eliminated.
  32 0000 80B4     		push	{r7}
  33              	.LCFI0:
  34              		.cfi_def_cfa_offset 4
  35              		.cfi_offset 7, -4
  36 0002 85B0     		sub	sp, sp, #20
  37              	.LCFI1:
  38              		.cfi_def_cfa_offset 24
  39 0004 00AF     		add	r7, sp, #0
  40              	.LCFI2:
  41              		.cfi_def_cfa_register 7
  42 0006 0346     		mov	r3, r0
  43 0008 FB71     		strb	r3, [r7, #7]
  41:.\Generated_Source\PSoC5/In_8.c ****     uint8 staticBits = (In_8_DR & (uint8)(~In_8_MASK));
  44              		.loc 1 41 0
  45 000a 45F25013 		movw	r3, #20816
  46 000e C4F20003 		movt	r3, 16384
  47 0012 1B78     		ldrb	r3, [r3, #0]
  48 0014 DBB2     		uxtb	r3, r3
  49 0016 23F01003 		bic	r3, r3, #16
  50 001a FB73     		strb	r3, [r7, #15]
  42:.\Generated_Source\PSoC5/In_8.c ****     In_8_DR = staticBits | ((uint8)(value << In_8_SHIFT) & In_8_MASK);
  51              		.loc 1 42 0
  52 001c 45F25013 		movw	r3, #20816
  53 0020 C4F20003 		movt	r3, 16384
  54 0024 FA79     		ldrb	r2, [r7, #7]
  55 0026 4FEA0212 		lsl	r2, r2, #4
  56 002a D2B2     		uxtb	r2, r2
  57 002c 02F01002 		and	r2, r2, #16
  58 0030 D1B2     		uxtb	r1, r2
  59 0032 FA7B     		ldrb	r2, [r7, #15]
  60 0034 0A43     		orrs	r2, r2, r1
  61 0036 D2B2     		uxtb	r2, r2
  62 0038 1A70     		strb	r2, [r3, #0]
  43:.\Generated_Source\PSoC5/In_8.c **** }
  63              		.loc 1 43 0
  64 003a 07F11407 		add	r7, r7, #20
  65 003e BD46     		mov	sp, r7
  66 0040 80BC     		pop	{r7}
  67 0042 7047     		bx	lr
  68              		.cfi_endproc
  69              	.LFE0:
  70              		.size	In_8_Write, .-In_8_Write
  71              		.section	.text.In_8_SetDriveMode,"ax",%progbits
ARM GAS  C:\Users\Robert\AppData\Local\Temp\cciTzB9d.s 			page 3


  72              		.align	2
  73              		.global	In_8_SetDriveMode
  74              		.thumb
  75              		.thumb_func
  76              		.type	In_8_SetDriveMode, %function
  77              	In_8_SetDriveMode:
  78              	.LFB1:
  44:.\Generated_Source\PSoC5/In_8.c **** 
  45:.\Generated_Source\PSoC5/In_8.c **** 
  46:.\Generated_Source\PSoC5/In_8.c **** /*******************************************************************************
  47:.\Generated_Source\PSoC5/In_8.c **** * Function Name: In_8_SetDriveMode
  48:.\Generated_Source\PSoC5/In_8.c **** ********************************************************************************
  49:.\Generated_Source\PSoC5/In_8.c **** *
  50:.\Generated_Source\PSoC5/In_8.c **** * Summary:
  51:.\Generated_Source\PSoC5/In_8.c **** *  Change the drive mode on the pins of the port.
  52:.\Generated_Source\PSoC5/In_8.c **** * 
  53:.\Generated_Source\PSoC5/In_8.c **** * Parameters:  
  54:.\Generated_Source\PSoC5/In_8.c **** *  mode:  Change the pins to one of the following drive modes.
  55:.\Generated_Source\PSoC5/In_8.c **** *
  56:.\Generated_Source\PSoC5/In_8.c **** *  In_8_DM_STRONG     Strong Drive 
  57:.\Generated_Source\PSoC5/In_8.c **** *  In_8_DM_OD_HI      Open Drain, Drives High 
  58:.\Generated_Source\PSoC5/In_8.c **** *  In_8_DM_OD_LO      Open Drain, Drives Low 
  59:.\Generated_Source\PSoC5/In_8.c **** *  In_8_DM_RES_UP     Resistive Pull Up 
  60:.\Generated_Source\PSoC5/In_8.c **** *  In_8_DM_RES_DWN    Resistive Pull Down 
  61:.\Generated_Source\PSoC5/In_8.c **** *  In_8_DM_RES_UPDWN  Resistive Pull Up/Down 
  62:.\Generated_Source\PSoC5/In_8.c **** *  In_8_DM_DIG_HIZ    High Impedance Digital 
  63:.\Generated_Source\PSoC5/In_8.c **** *  In_8_DM_ALG_HIZ    High Impedance Analog 
  64:.\Generated_Source\PSoC5/In_8.c **** *
  65:.\Generated_Source\PSoC5/In_8.c **** * Return: 
  66:.\Generated_Source\PSoC5/In_8.c **** *  None
  67:.\Generated_Source\PSoC5/In_8.c **** *
  68:.\Generated_Source\PSoC5/In_8.c **** *******************************************************************************/
  69:.\Generated_Source\PSoC5/In_8.c **** void In_8_SetDriveMode(uint8 mode) 
  70:.\Generated_Source\PSoC5/In_8.c **** {
  79              		.loc 1 70 0
  80              		.cfi_startproc
  81              		@ args = 0, pretend = 0, frame = 8
  82              		@ frame_needed = 1, uses_anonymous_args = 0
  83              		@ link register save eliminated.
  84 0000 80B4     		push	{r7}
  85              	.LCFI3:
  86              		.cfi_def_cfa_offset 4
  87              		.cfi_offset 7, -4
  88 0002 83B0     		sub	sp, sp, #12
  89              	.LCFI4:
  90              		.cfi_def_cfa_offset 16
  91 0004 00AF     		add	r7, sp, #0
  92              	.LCFI5:
  93              		.cfi_def_cfa_register 7
  94 0006 0346     		mov	r3, r0
  95 0008 FB71     		strb	r3, [r7, #7]
  71:.\Generated_Source\PSoC5/In_8.c **** 	CyPins_SetPinDriveMode(In_8_0, mode);
  96              		.loc 1 71 0
  97 000a 45F22C03 		movw	r3, #20524
  98 000e C4F20003 		movt	r3, 16384
  99 0012 45F22C02 		movw	r2, #20524
 100 0016 C4F20002 		movt	r2, 16384
ARM GAS  C:\Users\Robert\AppData\Local\Temp\cciTzB9d.s 			page 4


 101 001a 1278     		ldrb	r2, [r2, #0]
 102 001c D2B2     		uxtb	r2, r2
 103 001e D2B2     		uxtb	r2, r2
 104 0020 22F00E02 		bic	r2, r2, #14
 105 0024 D1B2     		uxtb	r1, r2
 106 0026 FA79     		ldrb	r2, [r7, #7]	@ zero_extendqisi2
 107 0028 02F00E02 		and	r2, r2, #14
 108 002c D2B2     		uxtb	r2, r2
 109 002e 0A43     		orrs	r2, r2, r1
 110 0030 D2B2     		uxtb	r2, r2
 111 0032 D2B2     		uxtb	r2, r2
 112 0034 1A70     		strb	r2, [r3, #0]
  72:.\Generated_Source\PSoC5/In_8.c **** }
 113              		.loc 1 72 0
 114 0036 07F10C07 		add	r7, r7, #12
 115 003a BD46     		mov	sp, r7
 116 003c 80BC     		pop	{r7}
 117 003e 7047     		bx	lr
 118              		.cfi_endproc
 119              	.LFE1:
 120              		.size	In_8_SetDriveMode, .-In_8_SetDriveMode
 121              		.section	.text.In_8_Read,"ax",%progbits
 122              		.align	2
 123              		.global	In_8_Read
 124              		.thumb
 125              		.thumb_func
 126              		.type	In_8_Read, %function
 127              	In_8_Read:
 128              	.LFB2:
  73:.\Generated_Source\PSoC5/In_8.c **** 
  74:.\Generated_Source\PSoC5/In_8.c **** 
  75:.\Generated_Source\PSoC5/In_8.c **** /*******************************************************************************
  76:.\Generated_Source\PSoC5/In_8.c **** * Function Name: In_8_Read
  77:.\Generated_Source\PSoC5/In_8.c **** ********************************************************************************
  78:.\Generated_Source\PSoC5/In_8.c **** *
  79:.\Generated_Source\PSoC5/In_8.c **** * Summary:
  80:.\Generated_Source\PSoC5/In_8.c **** *  Read the current value on the pins of the Digital Port in right justified 
  81:.\Generated_Source\PSoC5/In_8.c **** *  form.
  82:.\Generated_Source\PSoC5/In_8.c **** *
  83:.\Generated_Source\PSoC5/In_8.c **** * Parameters:  
  84:.\Generated_Source\PSoC5/In_8.c **** *  None
  85:.\Generated_Source\PSoC5/In_8.c **** *
  86:.\Generated_Source\PSoC5/In_8.c **** * Return: 
  87:.\Generated_Source\PSoC5/In_8.c **** *  Returns the current value of the Digital Port as a right justified number
  88:.\Generated_Source\PSoC5/In_8.c **** *  
  89:.\Generated_Source\PSoC5/In_8.c **** * Note:
  90:.\Generated_Source\PSoC5/In_8.c **** *  Macro In_8_ReadPS calls this function. 
  91:.\Generated_Source\PSoC5/In_8.c **** *  
  92:.\Generated_Source\PSoC5/In_8.c **** *******************************************************************************/
  93:.\Generated_Source\PSoC5/In_8.c **** uint8 In_8_Read(void) 
  94:.\Generated_Source\PSoC5/In_8.c **** {
 129              		.loc 1 94 0
 130              		.cfi_startproc
 131              		@ args = 0, pretend = 0, frame = 0
 132              		@ frame_needed = 1, uses_anonymous_args = 0
 133              		@ link register save eliminated.
 134 0000 80B4     		push	{r7}
ARM GAS  C:\Users\Robert\AppData\Local\Temp\cciTzB9d.s 			page 5


 135              	.LCFI6:
 136              		.cfi_def_cfa_offset 4
 137              		.cfi_offset 7, -4
 138 0002 00AF     		add	r7, sp, #0
 139              	.LCFI7:
 140              		.cfi_def_cfa_register 7
  95:.\Generated_Source\PSoC5/In_8.c ****     return (In_8_PS & In_8_MASK) >> In_8_SHIFT;
 141              		.loc 1 95 0
 142 0004 45F25113 		movw	r3, #20817
 143 0008 C4F20003 		movt	r3, 16384
 144 000c 1B78     		ldrb	r3, [r3, #0]
 145 000e DBB2     		uxtb	r3, r3
 146 0010 03F01003 		and	r3, r3, #16
 147 0014 4FEA1313 		lsr	r3, r3, #4
 148 0018 DBB2     		uxtb	r3, r3
  96:.\Generated_Source\PSoC5/In_8.c **** }
 149              		.loc 1 96 0
 150 001a 1846     		mov	r0, r3
 151 001c BD46     		mov	sp, r7
 152 001e 80BC     		pop	{r7}
 153 0020 7047     		bx	lr
 154              		.cfi_endproc
 155              	.LFE2:
 156              		.size	In_8_Read, .-In_8_Read
 157 0022 00BF     		.section	.text.In_8_ReadDataReg,"ax",%progbits
 158              		.align	2
 159              		.global	In_8_ReadDataReg
 160              		.thumb
 161              		.thumb_func
 162              		.type	In_8_ReadDataReg, %function
 163              	In_8_ReadDataReg:
 164              	.LFB3:
  97:.\Generated_Source\PSoC5/In_8.c **** 
  98:.\Generated_Source\PSoC5/In_8.c **** 
  99:.\Generated_Source\PSoC5/In_8.c **** /*******************************************************************************
 100:.\Generated_Source\PSoC5/In_8.c **** * Function Name: In_8_ReadDataReg
 101:.\Generated_Source\PSoC5/In_8.c **** ********************************************************************************
 102:.\Generated_Source\PSoC5/In_8.c **** *
 103:.\Generated_Source\PSoC5/In_8.c **** * Summary:
 104:.\Generated_Source\PSoC5/In_8.c **** *  Read the current value assigned to a Digital Port's data output register
 105:.\Generated_Source\PSoC5/In_8.c **** *
 106:.\Generated_Source\PSoC5/In_8.c **** * Parameters:  
 107:.\Generated_Source\PSoC5/In_8.c **** *  None 
 108:.\Generated_Source\PSoC5/In_8.c **** *
 109:.\Generated_Source\PSoC5/In_8.c **** * Return: 
 110:.\Generated_Source\PSoC5/In_8.c **** *  Returns the current value assigned to the Digital Port's data output register
 111:.\Generated_Source\PSoC5/In_8.c **** *  
 112:.\Generated_Source\PSoC5/In_8.c **** *******************************************************************************/
 113:.\Generated_Source\PSoC5/In_8.c **** uint8 In_8_ReadDataReg(void) 
 114:.\Generated_Source\PSoC5/In_8.c **** {
 165              		.loc 1 114 0
 166              		.cfi_startproc
 167              		@ args = 0, pretend = 0, frame = 0
 168              		@ frame_needed = 1, uses_anonymous_args = 0
 169              		@ link register save eliminated.
 170 0000 80B4     		push	{r7}
 171              	.LCFI8:
ARM GAS  C:\Users\Robert\AppData\Local\Temp\cciTzB9d.s 			page 6


 172              		.cfi_def_cfa_offset 4
 173              		.cfi_offset 7, -4
 174 0002 00AF     		add	r7, sp, #0
 175              	.LCFI9:
 176              		.cfi_def_cfa_register 7
 115:.\Generated_Source\PSoC5/In_8.c ****     return (In_8_DR & In_8_MASK) >> In_8_SHIFT;
 177              		.loc 1 115 0
 178 0004 45F25013 		movw	r3, #20816
 179 0008 C4F20003 		movt	r3, 16384
 180 000c 1B78     		ldrb	r3, [r3, #0]
 181 000e DBB2     		uxtb	r3, r3
 182 0010 03F01003 		and	r3, r3, #16
 183 0014 4FEA1313 		lsr	r3, r3, #4
 184 0018 DBB2     		uxtb	r3, r3
 116:.\Generated_Source\PSoC5/In_8.c **** }
 185              		.loc 1 116 0
 186 001a 1846     		mov	r0, r3
 187 001c BD46     		mov	sp, r7
 188 001e 80BC     		pop	{r7}
 189 0020 7047     		bx	lr
 190              		.cfi_endproc
 191              	.LFE3:
 192              		.size	In_8_ReadDataReg, .-In_8_ReadDataReg
 193 0022 00BF     		.text
 194              	.Letext0:
 195              		.file 2 ".\\Generated_Source\\PSoC5\\cytypes.h"