ARM GAS  C:\Users\Robert\AppData\Local\Temp\ccsjgI0y.s 			page 1


   1              		.syntax unified
   2              		.cpu cortex-m3
   3              		.fpu softvfp
   4              		.eabi_attribute 20, 1
   5              		.eabi_attribute 21, 1
   6              		.eabi_attribute 23, 3
   7              		.eabi_attribute 24, 1
   8              		.eabi_attribute 25, 1
   9              		.eabi_attribute 26, 1
  10              		.eabi_attribute 30, 6
  11              		.eabi_attribute 34, 1
  12              		.eabi_attribute 18, 4
  13              		.thumb
  14              		.file	"main.c"
  15              		.text
  16              	.Ltext0:
  17              		.cfi_sections	.debug_frame
  18              		.section	.text.main,"ax",%progbits
  19              		.align	2
  20              		.global	main
  21              		.thumb
  22              		.thumb_func
  23              		.type	main, %function
  24              	main:
  25              	.LFB56:
  26              		.file 1 ".\\main.c"
   1:.\main.c      **** /**
   2:.\main.c      **** * \file main.c
   3:.\main.c      **** * \brief This file will receive data from an SPI Master device, and pass it along 
   4:.\main.c      **** *   to mem1.c where data will be returned to the SPI Master when applicable
   5:.\main.c      **** *   
   6:.\main.c      **** *
   7:.\main.c      **** * Version 1.0
   8:.\main.c      **** *
   9:.\main.c      **** * \author Brian Bradley
  10:.\main.c      **** *
  11:.\main.c      **** * \bug No known bugs, but the VDAC's and IDAC's are currently untested.
  12:.\main.c      **** *
  13:.\main.c      **** * 
  14:.\main.c      **** *
  15:.\main.c      **** * Copyright Embedit Electronics
  16:.\main.c      **** * 
  17:.\main.c      **** */
  18:.\main.c      **** #include <project.h>
  19:.\main.c      **** //#include <device.h>
  20:.\main.c      **** #include <stdio.h>
  21:.\main.c      **** #include <mem1.h>
  22:.\main.c      **** 
  23:.\main.c      **** 
  24:.\main.c      **** int main()
  25:.\main.c      **** {
  27              		.loc 1 25 0
  28              		.cfi_startproc
  29              		@ args = 0, pretend = 0, frame = 16
  30              		@ frame_needed = 1, uses_anonymous_args = 0
  31 0000 80B5     		push	{r7, lr}
  32              	.LCFI0:
ARM GAS  C:\Users\Robert\AppData\Local\Temp\ccsjgI0y.s 			page 2


  33              		.cfi_def_cfa_offset 8
  34              		.cfi_offset 7, -8
  35              		.cfi_offset 14, -4
  36 0002 84B0     		sub	sp, sp, #16
  37              	.LCFI1:
  38              		.cfi_def_cfa_offset 24
  39 0004 00AF     		add	r7, sp, #0
  40              	.LCFI2:
  41              		.cfi_def_cfa_register 7
  26:.\main.c      ****     /* Place your initialization/startup code here (e.g. MyInst_Start()) */
  27:.\main.c      ****     SPIS_1_Start();
  42              		.loc 1 27 0
  43 0006 FFF7FEFF 		bl	SPIS_1_Start
  28:.\main.c      ****     SPIS_1_ClearFIFO();
  44              		.loc 1 28 0
  45 000a FFF7FEFF 		bl	SPIS_1_ClearFIFO
  29:.\main.c      ****     SPIS_1_ClearRxBuffer();
  46              		.loc 1 29 0
  47 000e FFF7FEFF 		bl	SPIS_1_ClearRxBuffer
  30:.\main.c      ****     SPIS_1_ClearTxBuffer();
  48              		.loc 1 30 0
  49 0012 FFF7FEFF 		bl	SPIS_1_ClearTxBuffer
  31:.\main.c      ****     CyDelay(1000);
  50              		.loc 1 31 0
  51 0016 4FF47A70 		mov	r0, #1000
  52 001a FFF7FEFF 		bl	CyDelay
  53              	.L2:
  54              	.LBB2:
  32:.\main.c      ****     
  33:.\main.c      ****     /* CyGlobalIntEnable; */ /* Uncomment this line to enable global interrupts. */
  34:.\main.c      ****     for(;;)
  35:.\main.c      ****     {
  36:.\main.c      ****       
  37:.\main.c      ****         uint32 input = ReadFrom_Pi();
  55              		.loc 1 37 0 discriminator 1
  56 001e FFF7FEFF 		bl	ReadFrom_Pi
  57 0022 F860     		str	r0, [r7, #12]
  38:.\main.c      ****         
  39:.\main.c      ****         uint8 addr = (input & 0xFF000000)>>24;
  58              		.loc 1 39 0 discriminator 1
  59 0024 FB68     		ldr	r3, [r7, #12]
  60 0026 4FEA1363 		lsr	r3, r3, #24
  61 002a FB72     		strb	r3, [r7, #11]
  40:.\main.c      ****         uint8 cmd = (input & 0x00FF0000)>>16;
  62              		.loc 1 40 0 discriminator 1
  63 002c FB68     		ldr	r3, [r7, #12]
  64 002e 03F47F03 		and	r3, r3, #16711680
  65 0032 4FEA1343 		lsr	r3, r3, #16
  66 0036 BB72     		strb	r3, [r7, #10]
  41:.\main.c      ****         uint8 dat_lo = (input & 0x0000FF00)>>8;
  67              		.loc 1 41 0 discriminator 1
  68 0038 FB68     		ldr	r3, [r7, #12]
  69 003a 03F47F43 		and	r3, r3, #65280
  70 003e 4FEA1323 		lsr	r3, r3, #8
  71 0042 7B72     		strb	r3, [r7, #9]
  42:.\main.c      ****         uint8 dat_hi = input & 0x000000FF;
  72              		.loc 1 42 0 discriminator 1
ARM GAS  C:\Users\Robert\AppData\Local\Temp\ccsjgI0y.s 			page 3


  73 0044 FB68     		ldr	r3, [r7, #12]
  74 0046 3B72     		strb	r3, [r7, #8]
  43:.\main.c      ****         uint16 dat = (dat_hi<<8) | dat_lo;
  75              		.loc 1 43 0 discriminator 1
  76 0048 3B7A     		ldrb	r3, [r7, #8]	@ zero_extendqisi2
  77 004a 4FEA0323 		lsl	r3, r3, #8
  78 004e 9AB2     		uxth	r2, r3
  79 0050 7B7A     		ldrb	r3, [r7, #9]	@ zero_extendqisi2
  80 0052 9BB2     		uxth	r3, r3
  81 0054 1343     		orrs	r3, r3, r2
  82 0056 9BB2     		uxth	r3, r3
  83 0058 FB80     		strh	r3, [r7, #6]	@ movhi
  44:.\main.c      ****         
  45:.\main.c      ****         readData(addr,cmd,dat); 
  84              		.loc 1 45 0 discriminator 1
  85 005a F97A     		ldrb	r1, [r7, #11]	@ zero_extendqisi2
  86 005c BA7A     		ldrb	r2, [r7, #10]	@ zero_extendqisi2
  87 005e FB88     		ldrh	r3, [r7, #6]
  88 0060 0846     		mov	r0, r1
  89 0062 1146     		mov	r1, r2
  90 0064 1A46     		mov	r2, r3
  91 0066 FFF7FEFF 		bl	readData
  92              	.LBE2:
  46:.\main.c      ****         
  47:.\main.c      ****     }
  93              		.loc 1 47 0 discriminator 1
  94 006a D8E7     		b	.L2
  95              		.cfi_endproc
  96              	.LFE56:
  97              		.size	main, .-main
  98              		.text
  99              	.Letext0:
 100              		.file 2 "c:\\program files (x86)\\cypress\\psoc creator\\3.0\\psoc creator\\import\\gnu_cs\\arm\\4
 101              		.file 3 "./Generated_Source/PSoC5/cytypes.h"
 102              		.file 4 "./Generated_Source/PSoC5/core_cm3.h"